ARM GAS  C:\Users\Tim\AppData\Local\Temp\ccELkyeR.s 			page 1


   1              		.syntax unified
   2              		.cpu cortex-m3
   3              		.fpu softvfp
   4              		.eabi_attribute 20, 1
   5              		.eabi_attribute 21, 1
   6              		.eabi_attribute 23, 3
   7              		.eabi_attribute 24, 1
   8              		.eabi_attribute 25, 1
   9              		.eabi_attribute 26, 1
  10              		.eabi_attribute 30, 1
  11              		.eabi_attribute 34, 1
  12              		.eabi_attribute 18, 4
  13              		.thumb
  14              		.file	"cal.c"
  15              		.text
  16              	.Ltext0:
  17              		.cfi_sections	.debug_frame
  18              		.section	.text.LeftTarget,"ax",%progbits
  19              		.align	2
  20              		.thumb
  21              		.thumb_func
  22              		.type	LeftTarget, %function
  23              	LeftTarget:
  24              	.LFB63:
  25              		.file 1 "..\\source\\cal.c"
   1:..\source/cal.c **** /* ========================================
   2:..\source/cal.c ****  *
   3:..\source/cal.c ****  * Copyright YOUR COMPANY, THE YEAR
   4:..\source/cal.c ****  * All Rights Reserved
   5:..\source/cal.c ****  * UNPUBLISHED, LICENSED SOFTWARE.
   6:..\source/cal.c ****  *
   7:..\source/cal.c ****  * CONFIDENTIAL AND PROPRIETARY INFORMATION
   8:..\source/cal.c ****  * WHICH IS THE PROPERTY OF your company.
   9:..\source/cal.c ****  *
  10:..\source/cal.c ****  * ========================================
  11:..\source/cal.c **** */
  12:..\source/cal.c **** 
  13:..\source/cal.c **** /*-------------------------------------------------------------------------------------------------
  14:..\source/cal.c ****  * Includes
  15:..\source/cal.c ****  *-------------------------------------------------------------------------------------------------
  16:..\source/cal.c **** #include <stdio.h>
  17:..\source/cal.c **** #include <stdlib.h>
  18:..\source/cal.c **** #include "cal.h"
  19:..\source/cal.c **** #include "motor.h"
  20:..\source/cal.c **** #include "i2c.h"
  21:..\source/cal.c **** #include "pwm.h"
  22:..\source/cal.c **** #include "encoder.h"
  23:..\source/cal.c **** #include "utils.h"
  24:..\source/cal.c **** #include "serial.h"
  25:..\source/cal.c **** #include "pid.h"
  26:..\source/cal.c **** #include "nvstore.h"
  27:..\source/cal.c **** #include "calmotor.h"
  28:..\source/cal.c **** #include "calpid.h"
  29:..\source/cal.c **** #include "callin.h"
  30:..\source/cal.c **** #include "calang.h"
  31:..\source/cal.c **** #include "debug.h"
  32:..\source/cal.c **** #include "control.h"
ARM GAS  C:\Users\Tim\AppData\Local\Temp\ccELkyeR.s 			page 2


  33:..\source/cal.c **** 
  34:..\source/cal.c **** /*-------------------------------------------------------------------------------------------------
  35:..\source/cal.c ****  * Constants
  36:..\source/cal.c ****  *-------------------------------------------------------------------------------------------------
  37:..\source/cal.c **** 
  38:..\source/cal.c **** /* Calibration interface commands */
  39:..\source/cal.c **** #define NO_CMD              '0'
  40:..\source/cal.c **** #define CAL_REQUEST         'c'
  41:..\source/cal.c **** #define VAL_REQUEST         'v'
  42:..\source/cal.c **** #define SETTING_REQUEST     's'
  43:..\source/cal.c **** #define EXIT_CMD            'x'
  44:..\source/cal.c **** 
  45:..\source/cal.c **** #define MOTOR_CAL_CMD       '1'
  46:..\source/cal.c **** #define PID_LEFT_CAL_CMD    '2'
  47:..\source/cal.c **** #define PID_RIGHT_CAL_CMD   '3'
  48:..\source/cal.c **** 
  49:..\source/cal.c **** #define MOTOR_VAL_CMD           '1'
  50:..\source/cal.c **** #define PID_VAL_CMD             '2'
  51:..\source/cal.c **** #define PID_LEFT_FWD_VAL_CMD    '3'
  52:..\source/cal.c **** #define PID_LEFT_BWD_VAL_CMD    '4'
  53:..\source/cal.c **** #define PID_RIGHT_FWD_VAL_CMD   '5'
  54:..\source/cal.c **** #define PID_RIGHT_BWD_VAL_CMD   '6'
  55:..\source/cal.c **** #define LINEAR_FWD_VAL_CMD      '7'
  56:..\source/cal.c **** #define LINEAR_BWD_VAL_CMD      '8'
  57:..\source/cal.c **** 
  58:..\source/cal.c **** #define MOTOR_LEFT_DISP_CMD  '1'
  59:..\source/cal.c **** #define MOTOR_RIGHT_DISP_CMD '2'
  60:..\source/cal.c **** #define PID_DISP_CMD         '3'
  61:..\source/cal.c **** #define ALL_DISP_CMD         '4'
  62:..\source/cal.c **** 
  63:..\source/cal.c **** /*-------------------------------------------------------------------------------------------------
  64:..\source/cal.c ****  * Types
  65:..\source/cal.c ****  *-------------------------------------------------------------------------------------------------
  66:..\source/cal.c **** typedef enum {UI_STATE_INIT, UI_STATE_CALIBRATION, UI_STATE_VALIDATION, UI_STATE_SETTINGS, UI_STATE
  67:..\source/cal.c **** 
  68:..\source/cal.c **** /*-------------------------------------------------------------------------------------------------
  69:..\source/cal.c ****  * Variables
  70:..\source/cal.c ****  *-------------------------------------------------------------------------------------------------
  71:..\source/cal.c **** 
  72:..\source/cal.c **** char* cal_stage_to_string[] = {"CALIBRATION", "VALIDATE"};
  73:..\source/cal.c **** char* cal_state_to_string[] = {"INIT STATE", "START STATE", "RUNNING STATE", "STOP STATE", "RESULTS
  74:..\source/cal.c **** 
  75:..\source/cal.c **** static UI_STATE_ENUM ui_state;
  76:..\source/cal.c **** 
  77:..\source/cal.c **** static CALIBRATION_TYPE *active_cal;
  78:..\source/cal.c **** static CALIBRATION_TYPE *active_val;
  79:..\source/cal.c **** 
  80:..\source/cal.c **** static float left_cmd_velocity;
  81:..\source/cal.c **** static float right_cmd_velocity;
  82:..\source/cal.c **** 
  83:..\source/cal.c **** /*-------------------------------------------------------------------------------------------------
  84:..\source/cal.c ****  * Functions
  85:..\source/cal.c ****  *-------------------------------------------------------------------------------------------------
  86:..\source/cal.c **** 
  87:..\source/cal.c **** /*-------------------------------------------------------------------------------------------------
  88:..\source/cal.c ****  * Name: LeftTarget/RightTarget
  89:..\source/cal.c ****  * Description: Local functions used to replace the left/right velocity source for calibration/vali
ARM GAS  C:\Users\Tim\AppData\Local\Temp\ccELkyeR.s 			page 3


  90:..\source/cal.c ****  *              Normally, the left/right velocity is received from the I2C module via the Control
  91:..\source/cal.c ****  *              module.  However, for calibration/validation left/right velocity values under contr
  92:..\source/cal.c ****  *              of the calibration module via Left/RightTarget.
  93:..\source/cal.c ****  * Parameters: None
  94:..\source/cal.c ****  * Return: None
  95:..\source/cal.c ****  * 
  96:..\source/cal.c ****  *-------------------------------------------------------------------------------------------------
  97:..\source/cal.c **** static float LeftTarget()
  98:..\source/cal.c **** {
  26              		.loc 1 98 0
  27              		.cfi_startproc
  28              		@ args = 0, pretend = 0, frame = 0
  29              		@ frame_needed = 0, uses_anonymous_args = 0
  30              		@ link register save eliminated.
  99:..\source/cal.c ****     return left_cmd_velocity;
 100:..\source/cal.c **** }
  31              		.loc 1 100 0
  32 0000 014B     		ldr	r3, .L2
  33 0002 1868     		ldr	r0, [r3]	@ float
  34 0004 7047     		bx	lr
  35              	.L3:
  36 0006 00BF     		.align	2
  37              	.L2:
  38 0008 00000000 		.word	.LANCHOR0
  39              		.cfi_endproc
  40              	.LFE63:
  41              		.size	LeftTarget, .-LeftTarget
  42              		.section	.text.RightTarget,"ax",%progbits
  43              		.align	2
  44              		.thumb
  45              		.thumb_func
  46              		.type	RightTarget, %function
  47              	RightTarget:
  48              	.LFB64:
 101:..\source/cal.c **** 
 102:..\source/cal.c **** static float RightTarget()
 103:..\source/cal.c **** {
  49              		.loc 1 103 0
  50              		.cfi_startproc
  51              		@ args = 0, pretend = 0, frame = 0
  52              		@ frame_needed = 0, uses_anonymous_args = 0
  53              		@ link register save eliminated.
 104:..\source/cal.c ****     return right_cmd_velocity;
 105:..\source/cal.c **** }
  54              		.loc 1 105 0
  55 0000 014B     		ldr	r3, .L5
  56 0002 5868     		ldr	r0, [r3, #4]	@ float
  57 0004 7047     		bx	lr
  58              	.L6:
  59 0006 00BF     		.align	2
  60              	.L5:
  61 0008 00000000 		.word	.LANCHOR0
  62              		.cfi_endproc
  63              	.LFE64:
  64              		.size	RightTarget, .-RightTarget
  65              		.section	.text.DisplayCalMenu,"ax",%progbits
  66              		.align	2
ARM GAS  C:\Users\Tim\AppData\Local\Temp\ccELkyeR.s 			page 4


  67              		.thumb
  68              		.thumb_func
  69              		.type	DisplayCalMenu, %function
  70              	DisplayCalMenu:
  71              	.LFB69:
 106:..\source/cal.c **** 
 107:..\source/cal.c **** /*-------------------------------------------------------------------------------------------------
 108:..\source/cal.c ****  * Name: ClearCalibrationStatusBit/SetCalibrationStatusBit
 109:..\source/cal.c ****  * Description: Clears/Sets the specified bit in the calibration status register and the EEPROM 
 110:..\source/cal.c ****  *              status field.
 111:..\source/cal.c ****  * Parameters: bit - the bit number to be Cleared/Set - 0 .. 15.
 112:..\source/cal.c ****  * Return: None
 113:..\source/cal.c ****  * 
 114:..\source/cal.c ****  *-------------------------------------------------------------------------------------------------
 115:..\source/cal.c **** void ClearCalibrationStatusBit(uint16 bit)
 116:..\source/cal.c **** {
 117:..\source/cal.c ****     uint16 status = p_cal_eeprom->status &= ~bit;
 118:..\source/cal.c ****     Nvstore_WriteUint16(status, NVSTORE_CAL_EEPROM_ADDR_TO_OFFSET(&p_cal_eeprom->status));
 119:..\source/cal.c ****     I2c_ClearCalibrationStatusBit(bit);
 120:..\source/cal.c **** }
 121:..\source/cal.c **** 
 122:..\source/cal.c **** void SetCalibrationStatusBit(uint16 bit)
 123:..\source/cal.c **** {
 124:..\source/cal.c ****     uint16 status = p_cal_eeprom->status | bit;
 125:..\source/cal.c ****     Nvstore_WriteUint16(status, NVSTORE_CAL_EEPROM_ADDR_TO_OFFSET(&p_cal_eeprom->status));
 126:..\source/cal.c ****     I2c_SetCalibrationStatusBit(bit);   
 127:..\source/cal.c **** }
 128:..\source/cal.c **** 
 129:..\source/cal.c **** 
 130:..\source/cal.c **** /*-------------------------------------------------------------------------------------------------
 131:..\source/cal.c ****  * Calibration Print Routines 
 132:..\source/cal.c ****  *  
 133:..\source/cal.c ****  * Routines used by other calibration modules for printing values to the serial port 
 134:..\source/cal.c ****  *-------------------------------------------------------------------------------------------------
 135:..\source/cal.c **** 
 136:..\source/cal.c **** /*-------------------------------------------------------------------------------------------------
 137:..\source/cal.c ****  * Name: Cal_PrintSamples
 138:..\source/cal.c ****  * Description: Prints the count/sec and pwm samples.  Called from the CalMotor module.
 139:..\source/cal.c ****  * Parameters: label - string containing the motor identifier, e.g., left or right 
 140:..\source/cal.c ****  *             cps_samples - an array of count/sec samples
 141:..\source/cal.c ****  *             pwm_samples - an array of pwm samples
 142:..\source/cal.c ****  *             Note: Array size is given by CAL_NUM_SAMPLES
 143:..\source/cal.c ****  * Return: None
 144:..\source/cal.c ****  * 
 145:..\source/cal.c ****  *-------------------------------------------------------------------------------------------------
 146:..\source/cal.c **** void Cal_PrintSamples(char *label, int32 *cps_samples, uint16 *pwm_samples)
 147:..\source/cal.c **** {
 148:..\source/cal.c ****     uint8 ii;
 149:..\source/cal.c ****     char  buffer[100];
 150:..\source/cal.c ****     char label_str[20];
 151:..\source/cal.c ****     
 152:..\source/cal.c ****     sprintf(label_str, "%s\r\n", label);
 153:..\source/cal.c ****     Ser_PutString(label_str);
 154:..\source/cal.c ****     
 155:..\source/cal.c ****     for (ii = 0; ii < CAL_NUM_SAMPLES - 1; ++ii)
 156:..\source/cal.c ****     {
 157:..\source/cal.c ****         sprintf(buffer, "%ld:%d ", cps_samples[ii], pwm_samples[ii]);
ARM GAS  C:\Users\Tim\AppData\Local\Temp\ccELkyeR.s 			page 5


 158:..\source/cal.c ****         Ser_PutString(buffer);
 159:..\source/cal.c ****     }
 160:..\source/cal.c ****     sprintf(buffer, "%ld:%d\r\n\r\n", cps_samples[ii], pwm_samples[ii]);
 161:..\source/cal.c ****     Ser_PutString(buffer);
 162:..\source/cal.c **** }
 163:..\source/cal.c **** 
 164:..\source/cal.c **** /*-------------------------------------------------------------------------------------------------
 165:..\source/cal.c ****  * Name: Cal_PrintGains
 166:..\source/cal.c ****  * Description: Prints the PID gains.  Called from the CalPid module.
 167:..\source/cal.c ****  * Parameters: label - string containing the pid identifier, e.g., left pid or right pid. 
 168:..\source/cal.c ****  *             gains - an array of float values corresponding to Kp, Ki, and Kd. 
 169:..\source/cal.c ****  * Return: None
 170:..\source/cal.c ****  * 
 171:..\source/cal.c ****  *-------------------------------------------------------------------------------------------------
 172:..\source/cal.c **** void Cal_PrintGains(char *label, float *gains)
 173:..\source/cal.c **** {
 174:..\source/cal.c ****     char output[64];
 175:..\source/cal.c ****     char pgain_str[10];
 176:..\source/cal.c ****     char igain_str[10];
 177:..\source/cal.c ****     char dgain_str[10];
 178:..\source/cal.c ****     
 179:..\source/cal.c ****     ftoa(gains[0], pgain_str, 3);
 180:..\source/cal.c ****     ftoa(gains[1], igain_str, 3);
 181:..\source/cal.c ****     ftoa(gains[2], dgain_str, 3);
 182:..\source/cal.c ****     
 183:..\source/cal.c ****     sprintf(output, "%s - P: %s, I: %s, D: %s\r\n", label, pgain_str, igain_str, dgain_str);
 184:..\source/cal.c ****     Ser_PutString(output);
 185:..\source/cal.c **** }
 186:..\source/cal.c **** 
 187:..\source/cal.c **** /*-------------------------------------------------------------------------------------------------
 188:..\source/cal.c ****  * Calibration Menu Routines 
 189:..\source/cal.c ****  *-------------------------------------------------------------------------------------------------
 190:..\source/cal.c **** 
 191:..\source/cal.c **** /*-------------------------------------------------------------------------------------------------
 192:..\source/cal.c ****  * Name: DisplayCalMenu
 193:..\source/cal.c ****  * Description: Prints the Calibration Menu to the serial port
 194:..\source/cal.c ****  * Parameters: None 
 195:..\source/cal.c ****  * Return: None
 196:..\source/cal.c ****  * 
 197:..\source/cal.c ****  *-------------------------------------------------------------------------------------------------
 198:..\source/cal.c **** static void DisplayCalMenu()
 199:..\source/cal.c **** {
  72              		.loc 1 199 0
  73              		.cfi_startproc
  74              		@ args = 0, pretend = 0, frame = 0
  75              		@ frame_needed = 0, uses_anonymous_args = 0
  76 0000 10B5     		push	{r4, lr}
  77              		.cfi_def_cfa_offset 8
  78              		.cfi_offset 4, -8
  79              		.cfi_offset 14, -4
 200:..\source/cal.c ****     Ser_PutString("\r\nWelcome to the Arlobot calibration interface.\r\n");
  80              		.loc 1 200 0
  81 0002 0E48     		ldr	r0, .L9
  82 0004 FFF7FEFF 		bl	Ser_PutString
  83              	.LVL0:
 201:..\source/cal.c ****     Ser_PutString("The following calibration operations are allowed:\r\n");
  84              		.loc 1 201 0
ARM GAS  C:\Users\Tim\AppData\Local\Temp\ccELkyeR.s 			page 6


  85 0008 0D48     		ldr	r0, .L9+4
  86 000a FFF7FEFF 		bl	Ser_PutString
  87              	.LVL1:
 202:..\source/cal.c ****     Ser_PutString("    1. Motor Calibration - creates mapping between count/sec and PWM.\r\n");
  88              		.loc 1 202 0
  89 000e 0D48     		ldr	r0, .L9+8
  90 0010 FFF7FEFF 		bl	Ser_PutString
  91              	.LVL2:
 203:..\source/cal.c ****     Ser_PutString("    2. PID Left Calibration - enter gains, execute step input, print velocity re
  92              		.loc 1 203 0
  93 0014 0C48     		ldr	r0, .L9+12
  94 0016 FFF7FEFF 		bl	Ser_PutString
  95              	.LVL3:
 204:..\source/cal.c ****     Ser_PutString("    3. PID Right Calibration - enter gains, execute step input, print velocity r
  96              		.loc 1 204 0
  97 001a 0C48     		ldr	r0, .L9+16
  98 001c FFF7FEFF 		bl	Ser_PutString
  99              	.LVL4:
 205:..\source/cal.c ****     Ser_PutString("\r\n");
 100              		.loc 1 205 0
 101 0020 0B4C     		ldr	r4, .L9+20
 102 0022 2046     		mov	r0, r4
 103 0024 FFF7FEFF 		bl	Ser_PutString
 104              	.LVL5:
 206:..\source/cal.c ****     Ser_PutString("\r\nEnter X to exit calibration\r\n");
 105              		.loc 1 206 0
 106 0028 0A48     		ldr	r0, .L9+24
 107 002a FFF7FEFF 		bl	Ser_PutString
 108              	.LVL6:
 207:..\source/cal.c ****     Ser_PutString("\r\n");
 109              		.loc 1 207 0
 110 002e 2046     		mov	r0, r4
 111 0030 FFF7FEFF 		bl	Ser_PutString
 112              	.LVL7:
 208:..\source/cal.c ****     Ser_PutString("Make an entry [1-3,X]: ");
 113              		.loc 1 208 0
 114 0034 0848     		ldr	r0, .L9+28
 115 0036 FFF7FEFF 		bl	Ser_PutString
 116              	.LVL8:
 117 003a 10BD     		pop	{r4, pc}
 118              	.L10:
 119              		.align	2
 120              	.L9:
 121 003c 00000000 		.word	.LC0
 122 0040 34000000 		.word	.LC1
 123 0044 68000000 		.word	.LC2
 124 0048 B0000000 		.word	.LC3
 125 004c 0C010000 		.word	.LC4
 126 0050 68010000 		.word	.LC5
 127 0054 6C010000 		.word	.LC6
 128 0058 8C010000 		.word	.LC7
 129              		.cfi_endproc
 130              	.LFE69:
 131              		.size	DisplayCalMenu, .-DisplayCalMenu
 132              		.section	.text.DisplayValMenu,"ax",%progbits
 133              		.align	2
 134              		.thumb
ARM GAS  C:\Users\Tim\AppData\Local\Temp\ccELkyeR.s 			page 7


 135              		.thumb_func
 136              		.type	DisplayValMenu, %function
 137              	DisplayValMenu:
 138              	.LFB70:
 209:..\source/cal.c **** }
 210:..\source/cal.c **** 
 211:..\source/cal.c **** /*-------------------------------------------------------------------------------------------------
 212:..\source/cal.c ****  * Name: DisplayValMenu
 213:..\source/cal.c ****  * Description: Prints the Validation Menu to the serial port
 214:..\source/cal.c ****  * Parameters: None 
 215:..\source/cal.c ****  * Return: None
 216:..\source/cal.c ****  * 
 217:..\source/cal.c ****  *-------------------------------------------------------------------------------------------------
 218:..\source/cal.c **** static void DisplayValMenu()
 219:..\source/cal.c **** {
 139              		.loc 1 219 0
 140              		.cfi_startproc
 141              		@ args = 0, pretend = 0, frame = 0
 142              		@ frame_needed = 0, uses_anonymous_args = 0
 143 0000 10B5     		push	{r4, lr}
 144              		.cfi_def_cfa_offset 8
 145              		.cfi_offset 4, -8
 146              		.cfi_offset 14, -4
 220:..\source/cal.c ****     Ser_PutString("\r\nWelcome to the Arlobot validation interface.\r\n");
 147              		.loc 1 220 0
 148 0002 1648     		ldr	r0, .L13
 149 0004 FFF7FEFF 		bl	Ser_PutString
 150              	.LVL9:
 221:..\source/cal.c ****     Ser_PutString("The following validation operations are allowed:\r\n");
 151              		.loc 1 221 0
 152 0008 1548     		ldr	r0, .L13+4
 153 000a FFF7FEFF 		bl	Ser_PutString
 154              	.LVL10:
 222:..\source/cal.c ****     Ser_PutString("    1. Motor Validation - operates the motors at varying velocities.\r\n");
 155              		.loc 1 222 0
 156 000e 1548     		ldr	r0, .L13+8
 157 0010 FFF7FEFF 		bl	Ser_PutString
 158              	.LVL11:
 223:..\source/cal.c ****     Ser_PutString("    2. PID Validation - operates the motors at varying velocities, moves in a st
 159              		.loc 1 223 0
 160 0014 1448     		ldr	r0, .L13+12
 161 0016 FFF7FEFF 		bl	Ser_PutString
 162              	.LVL12:
 224:..\source/cal.c ****     Ser_PutString("    3. Left PID (forward) Validation - operates the left motor in the forward di
 163              		.loc 1 224 0
 164 001a 1448     		ldr	r0, .L13+16
 165 001c FFF7FEFF 		bl	Ser_PutString
 166              	.LVL13:
 225:..\source/cal.c ****     Ser_PutString("    4. Left PID (backward) Validation - operates the left motor in the backward 
 167              		.loc 1 225 0
 168 0020 1348     		ldr	r0, .L13+20
 169 0022 FFF7FEFF 		bl	Ser_PutString
 170              	.LVL14:
 226:..\source/cal.c ****     Ser_PutString("    5. Right PID (forward) Validation - operates the right motor in the forward 
 171              		.loc 1 226 0
 172 0026 1348     		ldr	r0, .L13+24
 173 0028 FFF7FEFF 		bl	Ser_PutString
ARM GAS  C:\Users\Tim\AppData\Local\Temp\ccELkyeR.s 			page 8


 174              	.LVL15:
 227:..\source/cal.c ****     Ser_PutString("    6. Right PID (backward) Validation - operates the right motor in the backwar
 175              		.loc 1 227 0
 176 002c 1248     		ldr	r0, .L13+28
 177 002e FFF7FEFF 		bl	Ser_PutString
 178              	.LVL16:
 228:..\source/cal.c ****     Ser_PutString("    7. Straight Line (forward) Validation - operates the robot in the forward di
 179              		.loc 1 228 0
 180 0032 1248     		ldr	r0, .L13+32
 181 0034 FFF7FEFF 		bl	Ser_PutString
 182              	.LVL17:
 229:..\source/cal.c ****     Ser_PutString("    8. Straight Line (backward) Validation - operates the robot in the backward 
 183              		.loc 1 229 0
 184 0038 1148     		ldr	r0, .L13+36
 185 003a FFF7FEFF 		bl	Ser_PutString
 186              	.LVL18:
 230:..\source/cal.c ****     Ser_PutString("\r\n");
 187              		.loc 1 230 0
 188 003e 114C     		ldr	r4, .L13+40
 189 0040 2046     		mov	r0, r4
 190 0042 FFF7FEFF 		bl	Ser_PutString
 191              	.LVL19:
 231:..\source/cal.c ****     Ser_PutString("\r\nEnter X to exit validation\r\n");
 192              		.loc 1 231 0
 193 0046 1048     		ldr	r0, .L13+44
 194 0048 FFF7FEFF 		bl	Ser_PutString
 195              	.LVL20:
 232:..\source/cal.c ****     Ser_PutString("\r\n");
 196              		.loc 1 232 0
 197 004c 2046     		mov	r0, r4
 198 004e FFF7FEFF 		bl	Ser_PutString
 199              	.LVL21:
 233:..\source/cal.c ****     Ser_PutString("Make an entry [1-8,X]: ");
 200              		.loc 1 233 0
 201 0052 0E48     		ldr	r0, .L13+48
 202 0054 FFF7FEFF 		bl	Ser_PutString
 203              	.LVL22:
 204 0058 10BD     		pop	{r4, pc}
 205              	.L14:
 206 005a 00BF     		.align	2
 207              	.L13:
 208 005c A4010000 		.word	.LC8
 209 0060 D8010000 		.word	.LC9
 210 0064 0C020000 		.word	.LC10
 211 0068 54020000 		.word	.LC11
 212 006c C8020000 		.word	.LC12
 213 0070 3C030000 		.word	.LC13
 214 0074 B0030000 		.word	.LC14
 215 0078 24040000 		.word	.LC15
 216 007c 9C040000 		.word	.LC16
 217 0080 18050000 		.word	.LC17
 218 0084 68010000 		.word	.LC5
 219 0088 94050000 		.word	.LC18
 220 008c B4050000 		.word	.LC19
 221              		.cfi_endproc
 222              	.LFE70:
 223              		.size	DisplayValMenu, .-DisplayValMenu
ARM GAS  C:\Users\Tim\AppData\Local\Temp\ccELkyeR.s 			page 9


 224              		.section	.text.DisplayMenu,"ax",%progbits
 225              		.align	2
 226              		.thumb
 227              		.thumb_func
 228              		.type	DisplayMenu, %function
 229              	DisplayMenu:
 230              	.LFB73:
 234:..\source/cal.c **** }
 235:..\source/cal.c **** 
 236:..\source/cal.c **** /*-------------------------------------------------------------------------------------------------
 237:..\source/cal.c ****  * Name: DisplaySettingsMenu
 238:..\source/cal.c ****  * Description: Prints the settings menu used to display the current calibration state.
 239:..\source/cal.c ****  * Parameters: None
 240:..\source/cal.c ****  * Return: None
 241:..\source/cal.c ****  * 
 242:..\source/cal.c ****  *-------------------------------------------------------------------------------------------------
 243:..\source/cal.c **** static void DisplaySettingsMenu()
 244:..\source/cal.c **** {
 245:..\source/cal.c ****     Ser_PutString("\r\nWelcome to the Arlobot settings display\r\n");
 246:..\source/cal.c ****     Ser_PutString("The following settings can be displayed\r\n");
 247:..\source/cal.c ****     Ser_PutString("    1. Left Motor Calibration\r\n");
 248:..\source/cal.c ****     Ser_PutString("    2. Right Motor Calibration\r\n");
 249:..\source/cal.c ****     Ser_PutString("    3. PID Gains: left pid and right pid\r\n");
 250:..\source/cal.c ****     Ser_PutString("    4. Display All\r\n");
 251:..\source/cal.c ****     Ser_PutString("\r\n");
 252:..\source/cal.c ****     Ser_PutString("\r\nEnter X to exit validation\r\n");
 253:..\source/cal.c ****     Ser_PutString("\r\n");
 254:..\source/cal.c ****     Ser_PutString("Make an entry [1-4,X]: ");
 255:..\source/cal.c **** }
 256:..\source/cal.c **** 
 257:..\source/cal.c **** /*-------------------------------------------------------------------------------------------------
 258:..\source/cal.c ****  * Name: DisplayExit
 259:..\source/cal.c ****  * Description: Prints the exit menu.
 260:..\source/cal.c ****  * Parameters: None
 261:..\source/cal.c ****  * Return: None
 262:..\source/cal.c ****  * 
 263:..\source/cal.c ****  *-------------------------------------------------------------------------------------------------
 264:..\source/cal.c **** static void DisplayExit()
 265:..\source/cal.c **** {
 266:..\source/cal.c ****     Ser_PutString("\r\nExiting Arlobot calibration/validation interface.");
 267:..\source/cal.c ****     Ser_PutString("\r\nType 'C' to enter calibration, 'V' to enter validation, 'D' to display setti
 268:..\source/cal.c **** }
 269:..\source/cal.c **** 
 270:..\source/cal.c **** /*-------------------------------------------------------------------------------------------------
 271:..\source/cal.c ****  * Name: DisplayMenu
 272:..\source/cal.c ****  * Description: Displays a menu, either calibration or validation, depending on the stage
 273:..\source/cal.c ****  * Parameters: stage - the current calibration/validation stage 
 274:..\source/cal.c ****  * Return: None
 275:..\source/cal.c ****  * 
 276:..\source/cal.c ****  *-------------------------------------------------------------------------------------------------
 277:..\source/cal.c **** static void DisplayMenu(CAL_STAGE_TYPE stage)
 278:..\source/cal.c **** {
 231              		.loc 1 278 0
 232              		.cfi_startproc
 233              		@ args = 0, pretend = 0, frame = 0
 234              		@ frame_needed = 0, uses_anonymous_args = 0
 235              	.LVL23:
ARM GAS  C:\Users\Tim\AppData\Local\Temp\ccELkyeR.s 			page 10


 236 0000 08B5     		push	{r3, lr}
 237              		.cfi_def_cfa_offset 8
 238              		.cfi_offset 3, -8
 239              		.cfi_offset 14, -4
 279:..\source/cal.c ****     debug_control_enabled = 0;
 240              		.loc 1 279 0
 241 0002 0022     		movs	r2, #0
 242 0004 054B     		ldr	r3, .L19
 243 0006 1A80     		strh	r2, [r3]	@ movhi
 280:..\source/cal.c ****     
 281:..\source/cal.c ****     if (stage == CAL_CALIBRATE_STAGE)
 244              		.loc 1 281 0
 245 0008 10B9     		cbnz	r0, .L16
 282:..\source/cal.c ****     {
 283:..\source/cal.c ****         DisplayCalMenu();
 246              		.loc 1 283 0
 247 000a FFF7FEFF 		bl	DisplayCalMenu
 248              	.LVL24:
 249 000e 08BD     		pop	{r3, pc}
 250              	.LVL25:
 251              	.L16:
 284:..\source/cal.c ****     }
 285:..\source/cal.c ****     else if (stage == CAL_VALIDATE_STAGE)
 252              		.loc 1 285 0
 253 0010 0128     		cmp	r0, #1
 254 0012 01D1     		bne	.L15
 286:..\source/cal.c ****     {
 287:..\source/cal.c ****         DisplayValMenu();
 255              		.loc 1 287 0
 256 0014 FFF7FEFF 		bl	DisplayValMenu
 257              	.LVL26:
 258              	.L15:
 259 0018 08BD     		pop	{r3, pc}
 260              	.L20:
 261 001a 00BF     		.align	2
 262              	.L19:
 263 001c 00000000 		.word	debug_control_enabled
 264              		.cfi_endproc
 265              	.LFE73:
 266              		.size	DisplayMenu, .-DisplayMenu
 267              		.section	.text.DisplaySettingsMenu,"ax",%progbits
 268              		.align	2
 269              		.thumb
 270              		.thumb_func
 271              		.type	DisplaySettingsMenu, %function
 272              	DisplaySettingsMenu:
 273              	.LFB71:
 244:..\source/cal.c ****     Ser_PutString("\r\nWelcome to the Arlobot settings display\r\n");
 274              		.loc 1 244 0
 275              		.cfi_startproc
 276              		@ args = 0, pretend = 0, frame = 0
 277              		@ frame_needed = 0, uses_anonymous_args = 0
 278 0000 10B5     		push	{r4, lr}
 279              		.cfi_def_cfa_offset 8
 280              		.cfi_offset 4, -8
 281              		.cfi_offset 14, -4
 245:..\source/cal.c ****     Ser_PutString("The following settings can be displayed\r\n");
ARM GAS  C:\Users\Tim\AppData\Local\Temp\ccELkyeR.s 			page 11


 282              		.loc 1 245 0
 283 0002 1048     		ldr	r0, .L23
 284 0004 FFF7FEFF 		bl	Ser_PutString
 285              	.LVL27:
 246:..\source/cal.c ****     Ser_PutString("    1. Left Motor Calibration\r\n");
 286              		.loc 1 246 0
 287 0008 0F48     		ldr	r0, .L23+4
 288 000a FFF7FEFF 		bl	Ser_PutString
 289              	.LVL28:
 247:..\source/cal.c ****     Ser_PutString("    2. Right Motor Calibration\r\n");
 290              		.loc 1 247 0
 291 000e 0F48     		ldr	r0, .L23+8
 292 0010 FFF7FEFF 		bl	Ser_PutString
 293              	.LVL29:
 248:..\source/cal.c ****     Ser_PutString("    3. PID Gains: left pid and right pid\r\n");
 294              		.loc 1 248 0
 295 0014 0E48     		ldr	r0, .L23+12
 296 0016 FFF7FEFF 		bl	Ser_PutString
 297              	.LVL30:
 249:..\source/cal.c ****     Ser_PutString("    4. Display All\r\n");
 298              		.loc 1 249 0
 299 001a 0E48     		ldr	r0, .L23+16
 300 001c FFF7FEFF 		bl	Ser_PutString
 301              	.LVL31:
 250:..\source/cal.c ****     Ser_PutString("\r\n");
 302              		.loc 1 250 0
 303 0020 0D48     		ldr	r0, .L23+20
 304 0022 FFF7FEFF 		bl	Ser_PutString
 305              	.LVL32:
 251:..\source/cal.c ****     Ser_PutString("\r\nEnter X to exit validation\r\n");
 306              		.loc 1 251 0
 307 0026 0D4C     		ldr	r4, .L23+24
 308 0028 2046     		mov	r0, r4
 309 002a FFF7FEFF 		bl	Ser_PutString
 310              	.LVL33:
 252:..\source/cal.c ****     Ser_PutString("\r\n");
 311              		.loc 1 252 0
 312 002e 0C48     		ldr	r0, .L23+28
 313 0030 FFF7FEFF 		bl	Ser_PutString
 314              	.LVL34:
 253:..\source/cal.c ****     Ser_PutString("Make an entry [1-4,X]: ");
 315              		.loc 1 253 0
 316 0034 2046     		mov	r0, r4
 317 0036 FFF7FEFF 		bl	Ser_PutString
 318              	.LVL35:
 254:..\source/cal.c **** }
 319              		.loc 1 254 0
 320 003a 0A48     		ldr	r0, .L23+32
 321 003c FFF7FEFF 		bl	Ser_PutString
 322              	.LVL36:
 323 0040 10BD     		pop	{r4, pc}
 324              	.L24:
 325 0042 00BF     		.align	2
 326              	.L23:
 327 0044 CC050000 		.word	.LC20
 328 0048 F8050000 		.word	.LC21
 329 004c 24060000 		.word	.LC22
ARM GAS  C:\Users\Tim\AppData\Local\Temp\ccELkyeR.s 			page 12


 330 0050 44060000 		.word	.LC23
 331 0054 68060000 		.word	.LC24
 332 0058 94060000 		.word	.LC25
 333 005c 68010000 		.word	.LC5
 334 0060 94050000 		.word	.LC18
 335 0064 AC060000 		.word	.LC26
 336              		.cfi_endproc
 337              	.LFE71:
 338              		.size	DisplaySettingsMenu, .-DisplaySettingsMenu
 339              		.section	.text.HandleError,"ax",%progbits
 340              		.align	2
 341              		.thumb
 342              		.thumb_func
 343              		.type	HandleError, %function
 344              	HandleError:
 345              	.LFB78:
 288:..\source/cal.c ****     }
 289:..\source/cal.c **** 
 290:..\source/cal.c **** }
 291:..\source/cal.c **** 
 292:..\source/cal.c **** /*-------------------------------------------------------------------------------------------------
 293:..\source/cal.c ****  * Name: ProcessSettingsCmd
 294:..\source/cal.c ****  * Description: Processes the setting command request to display the requested calibration values
 295:..\source/cal.c ****  * Parameters: cmd - the calibration/validation command requested
 296:..\source/cal.c ****  * Return: None
 297:..\source/cal.c ****  * 
 298:..\source/cal.c ****  *-------------------------------------------------------------------------------------------------
 299:..\source/cal.c **** static void ProcessSettingsCmd(uint8 cmd)
 300:..\source/cal.c **** {
 301:..\source/cal.c ****     switch (cmd)
 302:..\source/cal.c ****     {
 303:..\source/cal.c ****         case MOTOR_LEFT_DISP_CMD:
 304:..\source/cal.c ****             Ser_WriteByte(cmd);
 305:..\source/cal.c ****             Ser_PutString("\r\nDisplaying left motor calibration: count/sec, pwm mapping");
 306:..\source/cal.c ****             Ser_PutString("\r\n");
 307:..\source/cal.c ****             Cal_PrintSamples("Left-Backward", (int32 *) p_cal_eeprom->left_motor_bwd.cps_data, (uin
 308:..\source/cal.c ****             Cal_PrintSamples("Left-Forward", (int32 *) p_cal_eeprom->left_motor_fwd.cps_data, (uint
 309:..\source/cal.c ****             Ser_PutString("\r\n");
 310:..\source/cal.c ****             
 311:..\source/cal.c ****             DisplaySettingsMenu();
 312:..\source/cal.c ****             break;
 313:..\source/cal.c ****             
 314:..\source/cal.c ****         case MOTOR_RIGHT_DISP_CMD:
 315:..\source/cal.c ****             Ser_WriteByte(cmd);
 316:..\source/cal.c ****             Ser_PutString("\r\nDisplaying right motor calibration: count/sec, pwm mapping");
 317:..\source/cal.c ****             Ser_PutString("\r\n");
 318:..\source/cal.c ****             Cal_PrintSamples("Right-Backward", (int32 *) p_cal_eeprom->right_motor_bwd.cps_data, (u
 319:..\source/cal.c ****             Cal_PrintSamples("Right-Forward", (int32 *) p_cal_eeprom->right_motor_fwd.cps_data, (ui
 320:..\source/cal.c ****             Ser_PutString("\r\n");
 321:..\source/cal.c ****             
 322:..\source/cal.c ****             DisplaySettingsMenu();
 323:..\source/cal.c ****             break;
 324:..\source/cal.c ****             
 325:..\source/cal.c ****         case PID_DISP_CMD:
 326:..\source/cal.c ****             Ser_WriteByte(cmd);
 327:..\source/cal.c ****             Ser_PutString("\r\nDisplaying all PID gains: left, right");
 328:..\source/cal.c ****             Ser_PutString("\r\n");
ARM GAS  C:\Users\Tim\AppData\Local\Temp\ccELkyeR.s 			page 13


 329:..\source/cal.c ****             Cal_PrintGains("Left PID", (float *) &p_cal_eeprom->left_gains);
 330:..\source/cal.c ****             Cal_PrintGains("Right PID", (float *) &p_cal_eeprom->right_gains);
 331:..\source/cal.c **** 
 332:..\source/cal.c ****             DisplaySettingsMenu();
 333:..\source/cal.c ****             break;
 334:..\source/cal.c ****             
 335:..\source/cal.c ****         case ALL_DISP_CMD:
 336:..\source/cal.c ****             Ser_WriteByte(cmd);
 337:..\source/cal.c ****             Ser_PutString("\r\nDisplaying all calibration/settings");
 338:..\source/cal.c ****             Ser_PutString("\r\n");
 339:..\source/cal.c **** 
 340:..\source/cal.c ****             DisplaySettingsMenu();
 341:..\source/cal.c ****             break;        
 342:..\source/cal.c ****     }
 343:..\source/cal.c **** }
 344:..\source/cal.c **** 
 345:..\source/cal.c **** /*-------------------------------------------------------------------------------------------------
 346:..\source/cal.c ****  * Name: GetCommand
 347:..\source/cal.c ****  * Description: Gets the calibration/validation/display command from the serial port
 348:..\source/cal.c ****  * Parameters: None
 349:..\source/cal.c ****  * Return: the command entered on the serial port.
 350:..\source/cal.c ****  * 
 351:..\source/cal.c ****  *-------------------------------------------------------------------------------------------------
 352:..\source/cal.c **** static uint8 GetCommand()
 353:..\source/cal.c **** {
 354:..\source/cal.c ****     char value = Ser_ReadByte();
 355:..\source/cal.c ****         
 356:..\source/cal.c ****     switch (value)
 357:..\source/cal.c ****     {
 358:..\source/cal.c ****         case 'c':
 359:..\source/cal.c ****         case 'C':
 360:..\source/cal.c ****             value = CAL_REQUEST;
 361:..\source/cal.c ****             break;
 362:..\source/cal.c ****             
 363:..\source/cal.c ****         case 'v':
 364:..\source/cal.c ****         case 'V':
 365:..\source/cal.c ****             value = VAL_REQUEST;
 366:..\source/cal.c ****             break;
 367:..\source/cal.c ****             
 368:..\source/cal.c ****         case 'd':
 369:..\source/cal.c ****         case 'D':
 370:..\source/cal.c ****             value = SETTING_REQUEST;
 371:..\source/cal.c ****             break;
 372:..\source/cal.c **** 
 373:..\source/cal.c ****         case 'x':
 374:..\source/cal.c ****         case 'X':            
 375:..\source/cal.c ****             value = EXIT_CMD;
 376:..\source/cal.c ****             break;
 377:..\source/cal.c ****     }
 378:..\source/cal.c ****     
 379:..\source/cal.c ****     return value;
 380:..\source/cal.c **** }
 381:..\source/cal.c **** 
 382:..\source/cal.c **** /*-------------------------------------------------------------------------------------------------
 383:..\source/cal.c ****  * Name: GetCalibration
 384:..\source/cal.c ****  * Description: Gets the calibration specified by command
 385:..\source/cal.c ****  * Parameters: cmd - the requested calibration.
ARM GAS  C:\Users\Tim\AppData\Local\Temp\ccELkyeR.s 			page 14


 386:..\source/cal.c ****  * Return: the specified calibration type; otherwise, NULL.
 387:..\source/cal.c ****  * 
 388:..\source/cal.c ****  *-------------------------------------------------------------------------------------------------
 389:..\source/cal.c **** static CALIBRATION_TYPE* GetCalibration(uint8 cmd)
 390:..\source/cal.c **** {
 391:..\source/cal.c ****     CAL_PID_PARAMS *p_pid_params;
 392:..\source/cal.c ****     
 393:..\source/cal.c ****     switch (cmd)
 394:..\source/cal.c ****     {
 395:..\source/cal.c ****         case MOTOR_CAL_CMD:
 396:..\source/cal.c ****             Ser_WriteByte(cmd);
 397:..\source/cal.c ****             CalMotor_Calibration->state = CAL_INIT_STATE;
 398:..\source/cal.c ****             return CalMotor_Calibration;
 399:..\source/cal.c ****             
 400:..\source/cal.c ****         case PID_LEFT_CAL_CMD:
 401:..\source/cal.c ****             Ser_WriteByte(cmd);
 402:..\source/cal.c ****             CalPid_LeftCalibration->state = CAL_INIT_STATE;
 403:..\source/cal.c ****             return CalPid_LeftCalibration;
 404:..\source/cal.c ****             break;
 405:..\source/cal.c **** 
 406:..\source/cal.c ****         case PID_RIGHT_CAL_CMD:
 407:..\source/cal.c ****             Ser_WriteByte(cmd);
 408:..\source/cal.c ****             CalPid_RightCalibration->state = CAL_INIT_STATE;
 409:..\source/cal.c ****             return CalPid_RightCalibration;
 410:..\source/cal.c ****             break;
 411:..\source/cal.c **** 
 412:..\source/cal.c ****         default:
 413:..\source/cal.c ****             break;
 414:..\source/cal.c ****     }
 415:..\source/cal.c ****     
 416:..\source/cal.c ****     return (CALIBRATION_TYPE *) 0;
 417:..\source/cal.c **** }
 418:..\source/cal.c **** 
 419:..\source/cal.c **** /*-------------------------------------------------------------------------------------------------
 420:..\source/cal.c ****  * Name: GetValidation
 421:..\source/cal.c ****  * Description: Gets the validation specified by command
 422:..\source/cal.c ****  * Parameters: cmd - the requested validation.
 423:..\source/cal.c ****  * Return: the specified validation type; otherwise, NULL.
 424:..\source/cal.c ****  * 
 425:..\source/cal.c ****  *-------------------------------------------------------------------------------------------------
 426:..\source/cal.c **** static CALIBRATION_TYPE* GetValidation(uint8 cmd)
 427:..\source/cal.c **** {
 428:..\source/cal.c ****     switch (cmd)
 429:..\source/cal.c ****     {
 430:..\source/cal.c ****         case MOTOR_VAL_CMD:
 431:..\source/cal.c ****             Ser_WriteByte(cmd);
 432:..\source/cal.c ****             Ser_PutString("\r\nPerforming Motor Validation by operating the motors at varying veloc
 433:..\source/cal.c ****             CalMotor_Validation->stage = CAL_VALIDATE_STAGE;
 434:..\source/cal.c ****             CalMotor_Validation->state = CAL_INIT_STATE;
 435:..\source/cal.c ****             return (CALIBRATION_TYPE *) CalMotor_Validation;
 436:..\source/cal.c ****             break;
 437:..\source/cal.c ****             
 438:..\source/cal.c ****         case PID_VAL_CMD:
 439:..\source/cal.c ****             Ser_WriteByte(cmd);
 440:..\source/cal.c ****             Ser_PutString("\r\nPerforming Left/Right PID Validation by operating the motors at vary
 441:..\source/cal.c ****             CalPid_LeftValidation->stage = CAL_VALIDATE_STAGE;
 442:..\source/cal.c ****             CalPid_LeftValidation->state = CAL_INIT_STATE;
ARM GAS  C:\Users\Tim\AppData\Local\Temp\ccELkyeR.s 			page 15


 443:..\source/cal.c ****             return (CALIBRATION_TYPE *) CalPid_LeftValidation;
 444:..\source/cal.c ****             break;
 445:..\source/cal.c ****                     
 446:..\source/cal.c ****         case PID_LEFT_FWD_VAL_CMD:
 447:..\source/cal.c ****             Ser_WriteByte(cmd);
 448:..\source/cal.c ****             Ser_PutString("\r\nPerforming Left PID validation in the forward direction.\r\n");
 449:..\source/cal.c ****             CalPid_LeftValidation->stage = CAL_VALIDATE_STAGE;
 450:..\source/cal.c ****             CalPid_LeftValidation->state = CAL_INIT_STATE;
 451:..\source/cal.c ****             ((CAL_PID_PARAMS *)(CalPid_LeftValidation->params))->direction = DIR_FORWARD;
 452:..\source/cal.c ****             return (CALIBRATION_TYPE *) CalPid_LeftValidation;
 453:..\source/cal.c ****             break;
 454:..\source/cal.c **** 
 455:..\source/cal.c ****         case PID_LEFT_BWD_VAL_CMD:
 456:..\source/cal.c ****             Ser_WriteByte(cmd);
 457:..\source/cal.c ****             Ser_PutString("\r\nPerforming Left PID validation in the backward direction.\r\n");
 458:..\source/cal.c ****             CalPid_LeftValidation->stage = CAL_VALIDATE_STAGE;
 459:..\source/cal.c ****             CalPid_LeftValidation->state = CAL_INIT_STATE;
 460:..\source/cal.c ****             ((CAL_PID_PARAMS *)(CalPid_LeftValidation->params))->direction = DIR_BACKWARD;
 461:..\source/cal.c ****             return (CALIBRATION_TYPE *) CalPid_LeftValidation;
 462:..\source/cal.c ****             break;
 463:..\source/cal.c **** 
 464:..\source/cal.c ****         case PID_RIGHT_FWD_VAL_CMD:
 465:..\source/cal.c ****             Ser_WriteByte(cmd);
 466:..\source/cal.c ****             Ser_PutString("\r\nPerforming Right PID validation in the forward direction.\r\n");
 467:..\source/cal.c ****             CalPid_RightValidation->stage = CAL_VALIDATE_STAGE;
 468:..\source/cal.c ****             CalPid_RightValidation->state = CAL_INIT_STATE;
 469:..\source/cal.c ****             ((CAL_PID_PARAMS *)(CalPid_RightValidation->params))->direction = DIR_FORWARD;
 470:..\source/cal.c ****             return (CALIBRATION_TYPE *) CalPid_RightValidation;
 471:..\source/cal.c ****             break;
 472:..\source/cal.c **** 
 473:..\source/cal.c ****         case PID_RIGHT_BWD_VAL_CMD:
 474:..\source/cal.c ****             Ser_WriteByte(cmd);
 475:..\source/cal.c ****             Ser_PutString("\r\nPerforming Right PID validation in the backward direction.\r\n");
 476:..\source/cal.c ****             CalPid_RightValidation->stage = CAL_VALIDATE_STAGE;
 477:..\source/cal.c ****             CalPid_RightValidation->state = CAL_INIT_STATE;
 478:..\source/cal.c ****             ((CAL_PID_PARAMS *)(CalPid_RightValidation->params))->direction = DIR_BACKWARD;
 479:..\source/cal.c ****             return (CALIBRATION_TYPE *) CalPid_RightValidation;
 480:..\source/cal.c ****             break;
 481:..\source/cal.c ****                        
 482:..\source/cal.c ****         case LINEAR_FWD_VAL_CMD:
 483:..\source/cal.c ****             Ser_WriteByte(cmd);
 484:..\source/cal.c ****             Ser_PutString("\r\nPerforming straight line validation in the forward direction.\r\n");
 485:..\source/cal.c ****             CalLin_Validation->stage = CAL_VALIDATE_STAGE;
 486:..\source/cal.c ****             CalLin_Validation->state = CAL_INIT_STATE;
 487:..\source/cal.c ****             ((CAL_LIN_PARAMS *)(CalLin_Validation->params))->direction = DIR_FORWARD;
 488:..\source/cal.c ****             return (CALIBRATION_TYPE *) CalLin_Validation;
 489:..\source/cal.c ****             break;
 490:..\source/cal.c ****                 
 491:..\source/cal.c ****         case LINEAR_BWD_VAL_CMD:
 492:..\source/cal.c ****             Ser_WriteByte(cmd);
 493:..\source/cal.c ****             Ser_PutString("\r\nPerforming straight line validation in the backward direction.\r\n")
 494:..\source/cal.c ****             CalLin_Validation->stage = CAL_VALIDATE_STAGE;
 495:..\source/cal.c ****             CalLin_Validation->state = CAL_INIT_STATE;
 496:..\source/cal.c ****             ((CAL_LIN_PARAMS *)(CalLin_Validation->params))->direction = DIR_BACKWARD;
 497:..\source/cal.c ****             return (CALIBRATION_TYPE *) CalLin_Validation;
 498:..\source/cal.c ****             break;
 499:..\source/cal.c **** 
ARM GAS  C:\Users\Tim\AppData\Local\Temp\ccELkyeR.s 			page 16


 500:..\source/cal.c ****         default:            
 501:..\source/cal.c ****             break;
 502:..\source/cal.c **** 
 503:..\source/cal.c ****     }
 504:..\source/cal.c ****     
 505:..\source/cal.c ****     return (CALIBRATION_TYPE *) 0;
 506:..\source/cal.c **** }
 507:..\source/cal.c **** 
 508:..\source/cal.c **** /*-------------------------------------------------------------------------------------------------
 509:..\source/cal.c ****  * Name: HandleError
 510:..\source/cal.c ****  * Description: Prints an error message to the serial for the specified calibration/validation
 511:..\source/cal.c ****  * Parameters: calval - the requested calibration/validation.
 512:..\source/cal.c ****  * Return: None
 513:..\source/cal.c ****  * 
 514:..\source/cal.c ****  *-------------------------------------------------------------------------------------------------
 515:..\source/cal.c **** static void HandleError(CALIBRATION_TYPE *calval)
 516:..\source/cal.c **** {
 346              		.loc 1 516 0
 347              		.cfi_startproc
 348              		@ args = 0, pretend = 0, frame = 64
 349              		@ frame_needed = 0, uses_anonymous_args = 0
 350              	.LVL37:
 351 0000 10B5     		push	{r4, lr}
 352              		.cfi_def_cfa_offset 8
 353              		.cfi_offset 4, -8
 354              		.cfi_offset 14, -4
 355 0002 90B0     		sub	sp, sp, #64
 356              		.cfi_def_cfa_offset 72
 517:..\source/cal.c ****     char outbuf[64];
 518:..\source/cal.c ****     
 519:..\source/cal.c ****     /* Maybe more can go here, but for now, just print an error */
 520:..\source/cal.c ****     
 521:..\source/cal.c ****     sprintf(outbuf, "Error processing stage %s, state %s\r\n", CAL_STAGE_TO_STRING(calval->stage), 
 357              		.loc 1 521 0
 358 0004 4478     		ldrb	r4, [r0, #1]	@ zero_extendqisi2
 359 0006 0378     		ldrb	r3, [r0]	@ zero_extendqisi2
 360 0008 074A     		ldr	r2, .L27
 361 000a 02EB8303 		add	r3, r2, r3, lsl #2
 362 000e 6846     		mov	r0, sp
 363              	.LVL38:
 364 0010 0649     		ldr	r1, .L27+4
 365 0012 52F82420 		ldr	r2, [r2, r4, lsl #2]
 366 0016 9B68     		ldr	r3, [r3, #8]
 367 0018 FFF7FEFF 		bl	sprintf
 368              	.LVL39:
 522:..\source/cal.c ****     Ser_PutString(outbuf);
 369              		.loc 1 522 0
 370 001c 6846     		mov	r0, sp
 371 001e FFF7FEFF 		bl	Ser_PutString
 372              	.LVL40:
 523:..\source/cal.c **** }
 373              		.loc 1 523 0
 374 0022 10B0     		add	sp, sp, #64
 375              		.cfi_def_cfa_offset 8
 376              		@ sp needed
 377 0024 10BD     		pop	{r4, pc}
 378              	.L28:
ARM GAS  C:\Users\Tim\AppData\Local\Temp\ccELkyeR.s 			page 17


 379 0026 00BF     		.align	2
 380              	.L27:
 381 0028 00000000 		.word	.LANCHOR1
 382 002c C4060000 		.word	.LC27
 383              		.cfi_endproc
 384              	.LFE78:
 385              		.size	HandleError, .-HandleError
 386              		.section	.text.Process,"ax",%progbits
 387              		.align	2
 388              		.thumb
 389              		.thumb_func
 390              		.type	Process, %function
 391              	Process:
 392              	.LFB79:
 524:..\source/cal.c **** 
 525:..\source/cal.c **** /*-------------------------------------------------------------------------------------------------
 526:..\source/cal.c ****  * Name: Process
 527:..\source/cal.c ****  * Description: The main routine for processing a calibration/validation.  Each calibration/validat
 528:..\source/cal.c ****  *              module provides a common function interface: init, start, update, stop, results. 
 529:..\source/cal.c ****  * Parameters: calval - the requested calibration/validation.
 530:..\source/cal.c ****  * Return: None
 531:..\source/cal.c ****  * 
 532:..\source/cal.c ****  *-------------------------------------------------------------------------------------------------
 533:..\source/cal.c **** static void Process(CALIBRATION_TYPE *calval)
 534:..\source/cal.c **** {
 393              		.loc 1 534 0
 394              		.cfi_startproc
 395              		@ args = 0, pretend = 0, frame = 0
 396              		@ frame_needed = 0, uses_anonymous_args = 0
 397              	.LVL41:
 398 0000 10B5     		push	{r4, lr}
 399              		.cfi_def_cfa_offset 8
 400              		.cfi_offset 4, -8
 401              		.cfi_offset 14, -4
 402 0002 0446     		mov	r4, r0
 535:..\source/cal.c ****     uint8 result;
 536:..\source/cal.c ****     
 537:..\source/cal.c ****     switch (calval->state)
 403              		.loc 1 537 0
 404 0004 0378     		ldrb	r3, [r0]	@ zero_extendqisi2
 405 0006 042B     		cmp	r3, #4
 406 0008 42D8     		bhi	.L30
 407 000a DFE803F0 		tbb	[pc, r3]
 408              	.L32:
 409 000e 03       		.byte	(.L31-.L32)/2
 410 000f 0F       		.byte	(.L33-.L32)/2
 411 0010 1B       		.byte	(.L34-.L32)/2
 412 0011 29       		.byte	(.L35-.L32)/2
 413 0012 35       		.byte	(.L36-.L32)/2
 414 0013 00       		.p2align 1
 415              	.L31:
 538:..\source/cal.c ****     {
 539:..\source/cal.c ****         case CAL_INIT_STATE:
 540:..\source/cal.c ****             result = calval->init(calval->stage, calval->params);
 416              		.loc 1 540 0
 417 0014 8368     		ldr	r3, [r0, #8]
 418 0016 4078     		ldrb	r0, [r0, #1]	@ zero_extendqisi2
ARM GAS  C:\Users\Tim\AppData\Local\Temp\ccELkyeR.s 			page 18


 419              	.LVL42:
 420 0018 6168     		ldr	r1, [r4, #4]
 421 001a 9847     		blx	r3
 422              	.LVL43:
 541:..\source/cal.c ****             if (result == CAL_OK)
 423              		.loc 1 541 0
 424 001c 10B9     		cbnz	r0, .L37
 542:..\source/cal.c ****             {
 543:..\source/cal.c ****                 calval->state = CAL_START_STATE;
 425              		.loc 1 543 0
 426 001e 0123     		movs	r3, #1
 427 0020 2370     		strb	r3, [r4]
 428 0022 10BD     		pop	{r4, pc}
 429              	.LVL44:
 430              	.L37:
 544:..\source/cal.c ****             }
 545:..\source/cal.c ****             else
 546:..\source/cal.c ****             {
 547:..\source/cal.c ****                 HandleError(calval);
 431              		.loc 1 547 0
 432 0024 2046     		mov	r0, r4
 433              	.LVL45:
 434 0026 FFF7FEFF 		bl	HandleError
 435              	.LVL46:
 436 002a 10BD     		pop	{r4, pc}
 437              	.LVL47:
 438              	.L33:
 548:..\source/cal.c ****             }
 549:..\source/cal.c ****             break;
 550:..\source/cal.c ****             
 551:..\source/cal.c ****         case CAL_START_STATE:
 552:..\source/cal.c ****             result = calval->start(calval->stage, calval->params);
 439              		.loc 1 552 0
 440 002c C368     		ldr	r3, [r0, #12]
 441 002e 4078     		ldrb	r0, [r0, #1]	@ zero_extendqisi2
 442              	.LVL48:
 443 0030 6168     		ldr	r1, [r4, #4]
 444 0032 9847     		blx	r3
 445              	.LVL49:
 553:..\source/cal.c ****             if (result == CAL_OK)
 446              		.loc 1 553 0
 447 0034 10B9     		cbnz	r0, .L39
 554:..\source/cal.c ****             {
 555:..\source/cal.c ****                 calval->state = CAL_RUNNING_STATE;
 448              		.loc 1 555 0
 449 0036 0223     		movs	r3, #2
 450 0038 2370     		strb	r3, [r4]
 451 003a 10BD     		pop	{r4, pc}
 452              	.LVL50:
 453              	.L39:
 556:..\source/cal.c ****             }
 557:..\source/cal.c ****             else
 558:..\source/cal.c ****             {
 559:..\source/cal.c ****                 HandleError(calval);
 454              		.loc 1 559 0
 455 003c 2046     		mov	r0, r4
 456              	.LVL51:
ARM GAS  C:\Users\Tim\AppData\Local\Temp\ccELkyeR.s 			page 19


 457 003e FFF7FEFF 		bl	HandleError
 458              	.LVL52:
 459 0042 10BD     		pop	{r4, pc}
 460              	.LVL53:
 461              	.L34:
 560:..\source/cal.c ****             }
 561:..\source/cal.c ****             break;
 562:..\source/cal.c ****             
 563:..\source/cal.c ****         case CAL_RUNNING_STATE:
 564:..\source/cal.c ****             result = calval->update(calval->stage, calval->params);
 462              		.loc 1 564 0
 463 0044 0369     		ldr	r3, [r0, #16]
 464 0046 4078     		ldrb	r0, [r0, #1]	@ zero_extendqisi2
 465              	.LVL54:
 466 0048 6168     		ldr	r1, [r4, #4]
 467 004a 9847     		blx	r3
 468              	.LVL55:
 565:..\source/cal.c ****             if (result == CAL_COMPLETE)
 469              		.loc 1 565 0
 470 004c 0128     		cmp	r0, #1
 471 004e 02D1     		bne	.L40
 566:..\source/cal.c ****             {
 567:..\source/cal.c ****                 calval->state = CAL_STOP_STATE;
 472              		.loc 1 567 0
 473 0050 0323     		movs	r3, #3
 474 0052 2370     		strb	r3, [r4]
 475 0054 10BD     		pop	{r4, pc}
 476              	.LVL56:
 477              	.L40:
 568:..\source/cal.c ****             }
 569:..\source/cal.c ****             else if (result == CAL_OK)
 478              		.loc 1 569 0
 479 0056 10B3     		cbz	r0, .L29
 570:..\source/cal.c ****             {
 571:..\source/cal.c ****                 /* Figure out how to output a progress indication ... that will work for all calibr
 572:..\source/cal.c ****             }
 573:..\source/cal.c ****             else
 574:..\source/cal.c ****             {
 575:..\source/cal.c ****                 HandleError(calval);
 480              		.loc 1 575 0
 481 0058 2046     		mov	r0, r4
 482              	.LVL57:
 483 005a FFF7FEFF 		bl	HandleError
 484              	.LVL58:
 485 005e 10BD     		pop	{r4, pc}
 486              	.LVL59:
 487              	.L35:
 576:..\source/cal.c ****             }
 577:..\source/cal.c ****             break;
 578:..\source/cal.c ****             
 579:..\source/cal.c ****         case CAL_STOP_STATE:
 580:..\source/cal.c ****             result = calval->stop(calval->stage, calval->params);
 488              		.loc 1 580 0
 489 0060 4369     		ldr	r3, [r0, #20]
 490 0062 4078     		ldrb	r0, [r0, #1]	@ zero_extendqisi2
 491              	.LVL60:
 492 0064 6168     		ldr	r1, [r4, #4]
ARM GAS  C:\Users\Tim\AppData\Local\Temp\ccELkyeR.s 			page 20


 493 0066 9847     		blx	r3
 494              	.LVL61:
 581:..\source/cal.c ****             if (result == CAL_OK)
 495              		.loc 1 581 0
 496 0068 10B9     		cbnz	r0, .L41
 582:..\source/cal.c ****             {
 583:..\source/cal.c ****                 calval->state = CAL_RESULTS_STATE;
 497              		.loc 1 583 0
 498 006a 0423     		movs	r3, #4
 499 006c 2370     		strb	r3, [r4]
 500 006e 10BD     		pop	{r4, pc}
 501              	.LVL62:
 502              	.L41:
 584:..\source/cal.c ****             }
 585:..\source/cal.c ****             else
 586:..\source/cal.c ****             {
 587:..\source/cal.c ****                 HandleError(calval);
 503              		.loc 1 587 0
 504 0070 2046     		mov	r0, r4
 505              	.LVL63:
 506 0072 FFF7FEFF 		bl	HandleError
 507              	.LVL64:
 508 0076 10BD     		pop	{r4, pc}
 509              	.LVL65:
 510              	.L36:
 588:..\source/cal.c ****             }
 589:..\source/cal.c ****             break;
 590:..\source/cal.c ****             
 591:..\source/cal.c ****         case CAL_RESULTS_STATE:
 592:..\source/cal.c ****             result = calval->results(calval->stage, calval->params);
 511              		.loc 1 592 0
 512 0078 8369     		ldr	r3, [r0, #24]
 513 007a 4078     		ldrb	r0, [r0, #1]	@ zero_extendqisi2
 514              	.LVL66:
 515 007c 6168     		ldr	r1, [r4, #4]
 516 007e 9847     		blx	r3
 517              	.LVL67:
 593:..\source/cal.c ****             if (result == CAL_OK)
 518              		.loc 1 593 0
 519 0080 10B9     		cbnz	r0, .L42
 594:..\source/cal.c ****             {
 595:..\source/cal.c ****                 calval->state = CAL_DONE_STATE;                
 520              		.loc 1 595 0
 521 0082 0523     		movs	r3, #5
 522 0084 2370     		strb	r3, [r4]
 523 0086 10BD     		pop	{r4, pc}
 524              	.LVL68:
 525              	.L42:
 596:..\source/cal.c ****             }
 597:..\source/cal.c ****             else
 598:..\source/cal.c ****             {
 599:..\source/cal.c ****                 HandleError(calval);
 526              		.loc 1 599 0
 527 0088 2046     		mov	r0, r4
 528              	.LVL69:
 529 008a FFF7FEFF 		bl	HandleError
 530              	.LVL70:
ARM GAS  C:\Users\Tim\AppData\Local\Temp\ccELkyeR.s 			page 21


 531 008e 10BD     		pop	{r4, pc}
 532              	.LVL71:
 533              	.L30:
 600:..\source/cal.c ****             }
 601:..\source/cal.c ****             break;
 602:..\source/cal.c ****             
 603:..\source/cal.c ****         case CAL_DONE_STATE:
 604:..\source/cal.c ****         default:
 605:..\source/cal.c ****             active_cal = (CALIBRATION_TYPE *) 0;
 534              		.loc 1 605 0
 535 0090 034B     		ldr	r3, .L44
 536 0092 0022     		movs	r2, #0
 537 0094 9A60     		str	r2, [r3, #8]
 606:..\source/cal.c ****             active_val = (CALIBRATION_TYPE *) 0;
 538              		.loc 1 606 0
 539 0096 DA60     		str	r2, [r3, #12]
 607:..\source/cal.c ****             DisplayMenu(calval->stage);
 540              		.loc 1 607 0
 541 0098 4078     		ldrb	r0, [r0, #1]	@ zero_extendqisi2
 542              	.LVL72:
 543 009a FFF7FEFF 		bl	DisplayMenu
 544              	.LVL73:
 545              	.L29:
 546 009e 10BD     		pop	{r4, pc}
 547              	.LVL74:
 548              	.L45:
 549              		.align	2
 550              	.L44:
 551 00a0 00000000 		.word	.LANCHOR0
 552              		.cfi_endproc
 553              	.LFE79:
 554              		.size	Process, .-Process
 555              		.section	.text.DisplayExit,"ax",%progbits
 556              		.align	2
 557              		.thumb
 558              		.thumb_func
 559              		.type	DisplayExit, %function
 560              	DisplayExit:
 561              	.LFB72:
 265:..\source/cal.c ****     Ser_PutString("\r\nExiting Arlobot calibration/validation interface.");
 562              		.loc 1 265 0
 563              		.cfi_startproc
 564              		@ args = 0, pretend = 0, frame = 0
 565              		@ frame_needed = 0, uses_anonymous_args = 0
 566 0000 08B5     		push	{r3, lr}
 567              		.cfi_def_cfa_offset 8
 568              		.cfi_offset 3, -8
 569              		.cfi_offset 14, -4
 266:..\source/cal.c ****     Ser_PutString("\r\nType 'C' to enter calibration, 'V' to enter validation, 'D' to display setti
 570              		.loc 1 266 0
 571 0002 0348     		ldr	r0, .L48
 572 0004 FFF7FEFF 		bl	Ser_PutString
 573              	.LVL75:
 267:..\source/cal.c **** }
 574              		.loc 1 267 0
 575 0008 0248     		ldr	r0, .L48+4
 576 000a FFF7FEFF 		bl	Ser_PutString
ARM GAS  C:\Users\Tim\AppData\Local\Temp\ccELkyeR.s 			page 22


 577              	.LVL76:
 578 000e 08BD     		pop	{r3, pc}
 579              	.L49:
 580              		.align	2
 581              	.L48:
 582 0010 EC060000 		.word	.LC28
 583 0014 20070000 		.word	.LC29
 584              		.cfi_endproc
 585              	.LFE72:
 586              		.size	DisplayExit, .-DisplayExit
 587              		.section	.text.GetCommand,"ax",%progbits
 588              		.align	2
 589              		.thumb
 590              		.thumb_func
 591              		.type	GetCommand, %function
 592              	GetCommand:
 593              	.LFB75:
 353:..\source/cal.c ****     char value = Ser_ReadByte();
 594              		.loc 1 353 0
 595              		.cfi_startproc
 596              		@ args = 0, pretend = 0, frame = 0
 597              		@ frame_needed = 0, uses_anonymous_args = 0
 598 0000 08B5     		push	{r3, lr}
 599              		.cfi_def_cfa_offset 8
 600              		.cfi_offset 3, -8
 601              		.cfi_offset 14, -4
 354:..\source/cal.c ****         
 602              		.loc 1 354 0
 603 0002 FFF7FEFF 		bl	Ser_ReadByte
 604              	.LVL77:
 356:..\source/cal.c ****     {
 605              		.loc 1 356 0
 606 0006 A0F14303 		sub	r3, r0, #67
 607 000a 352B     		cmp	r3, #53
 608 000c 23D8     		bhi	.L52
 609 000e DFE803F0 		tbb	[pc, r3]
 610              	.L53:
 611 0012 21       		.byte	(.L57-.L53)/2
 612 0013 1D       		.byte	(.L54-.L53)/2
 613 0014 22       		.byte	(.L52-.L53)/2
 614 0015 22       		.byte	(.L52-.L53)/2
 615 0016 22       		.byte	(.L52-.L53)/2
 616 0017 22       		.byte	(.L52-.L53)/2
 617 0018 22       		.byte	(.L52-.L53)/2
 618 0019 22       		.byte	(.L52-.L53)/2
 619 001a 22       		.byte	(.L52-.L53)/2
 620 001b 22       		.byte	(.L52-.L53)/2
 621 001c 22       		.byte	(.L52-.L53)/2
 622 001d 22       		.byte	(.L52-.L53)/2
 623 001e 22       		.byte	(.L52-.L53)/2
 624 001f 22       		.byte	(.L52-.L53)/2
 625 0020 22       		.byte	(.L52-.L53)/2
 626 0021 22       		.byte	(.L52-.L53)/2
 627 0022 22       		.byte	(.L52-.L53)/2
 628 0023 22       		.byte	(.L52-.L53)/2
 629 0024 22       		.byte	(.L52-.L53)/2
 630 0025 1B       		.byte	(.L55-.L53)/2
ARM GAS  C:\Users\Tim\AppData\Local\Temp\ccELkyeR.s 			page 23


 631 0026 22       		.byte	(.L52-.L53)/2
 632 0027 1F       		.byte	(.L56-.L53)/2
 633 0028 22       		.byte	(.L52-.L53)/2
 634 0029 22       		.byte	(.L52-.L53)/2
 635 002a 22       		.byte	(.L52-.L53)/2
 636 002b 22       		.byte	(.L52-.L53)/2
 637 002c 22       		.byte	(.L52-.L53)/2
 638 002d 22       		.byte	(.L52-.L53)/2
 639 002e 22       		.byte	(.L52-.L53)/2
 640 002f 22       		.byte	(.L52-.L53)/2
 641 0030 22       		.byte	(.L52-.L53)/2
 642 0031 22       		.byte	(.L52-.L53)/2
 643 0032 21       		.byte	(.L57-.L53)/2
 644 0033 1D       		.byte	(.L54-.L53)/2
 645 0034 22       		.byte	(.L52-.L53)/2
 646 0035 22       		.byte	(.L52-.L53)/2
 647 0036 22       		.byte	(.L52-.L53)/2
 648 0037 22       		.byte	(.L52-.L53)/2
 649 0038 22       		.byte	(.L52-.L53)/2
 650 0039 22       		.byte	(.L52-.L53)/2
 651 003a 22       		.byte	(.L52-.L53)/2
 652 003b 22       		.byte	(.L52-.L53)/2
 653 003c 22       		.byte	(.L52-.L53)/2
 654 003d 22       		.byte	(.L52-.L53)/2
 655 003e 22       		.byte	(.L52-.L53)/2
 656 003f 22       		.byte	(.L52-.L53)/2
 657 0040 22       		.byte	(.L52-.L53)/2
 658 0041 22       		.byte	(.L52-.L53)/2
 659 0042 22       		.byte	(.L52-.L53)/2
 660 0043 22       		.byte	(.L52-.L53)/2
 661 0044 22       		.byte	(.L52-.L53)/2
 662 0045 1B       		.byte	(.L55-.L53)/2
 663 0046 22       		.byte	(.L52-.L53)/2
 664 0047 1F       		.byte	(.L56-.L53)/2
 665              		.p2align 1
 666              	.L55:
 667              	.LVL78:
 365:..\source/cal.c ****             break;
 668              		.loc 1 365 0
 669 0048 7620     		movs	r0, #118
 366:..\source/cal.c ****             
 670              		.loc 1 366 0
 671 004a 08BD     		pop	{r3, pc}
 672              	.LVL79:
 673              	.L54:
 370:..\source/cal.c ****             break;
 674              		.loc 1 370 0
 675 004c 7320     		movs	r0, #115
 371:..\source/cal.c **** 
 676              		.loc 1 371 0
 677 004e 08BD     		pop	{r3, pc}
 678              	.LVL80:
 679              	.L56:
 375:..\source/cal.c ****             break;
 680              		.loc 1 375 0
 681 0050 7820     		movs	r0, #120
 376:..\source/cal.c ****     }
ARM GAS  C:\Users\Tim\AppData\Local\Temp\ccELkyeR.s 			page 24


 682              		.loc 1 376 0
 683 0052 08BD     		pop	{r3, pc}
 684              	.LVL81:
 685              	.L57:
 360:..\source/cal.c ****             break;
 686              		.loc 1 360 0
 687 0054 6320     		movs	r0, #99
 688              	.LVL82:
 689              	.L52:
 380:..\source/cal.c **** 
 690              		.loc 1 380 0
 691 0056 08BD     		pop	{r3, pc}
 692              		.cfi_endproc
 693              	.LFE75:
 694              		.size	GetCommand, .-GetCommand
 695              		.section	.text.GetCalibration,"ax",%progbits
 696              		.align	2
 697              		.thumb
 698              		.thumb_func
 699              		.type	GetCalibration, %function
 700              	GetCalibration:
 701              	.LFB76:
 390:..\source/cal.c ****     CAL_PID_PARAMS *p_pid_params;
 702              		.loc 1 390 0
 703              		.cfi_startproc
 704              		@ args = 0, pretend = 0, frame = 0
 705              		@ frame_needed = 0, uses_anonymous_args = 0
 706              	.LVL83:
 707 0000 08B5     		push	{r3, lr}
 708              		.cfi_def_cfa_offset 8
 709              		.cfi_offset 3, -8
 710              		.cfi_offset 14, -4
 393:..\source/cal.c ****     {
 711              		.loc 1 393 0
 712 0002 3228     		cmp	r0, #50
 713 0004 0BD0     		beq	.L61
 714 0006 3328     		cmp	r0, #51
 715 0008 11D0     		beq	.L62
 716 000a 3128     		cmp	r0, #49
 717 000c 17D1     		bne	.L65
 396:..\source/cal.c ****             CalMotor_Calibration->state = CAL_INIT_STATE;
 718              		.loc 1 396 0
 719 000e FFF7FEFF 		bl	Ser_WriteByte
 720              	.LVL84:
 397:..\source/cal.c ****             return CalMotor_Calibration;
 721              		.loc 1 397 0
 722 0012 0C4B     		ldr	r3, .L67
 723 0014 1A68     		ldr	r2, [r3]
 724 0016 0021     		movs	r1, #0
 725 0018 1170     		strb	r1, [r2]
 398:..\source/cal.c ****             
 726              		.loc 1 398 0
 727 001a 1868     		ldr	r0, [r3]
 728 001c 08BD     		pop	{r3, pc}
 729              	.LVL85:
 730              	.L61:
 401:..\source/cal.c ****             CalPid_LeftCalibration->state = CAL_INIT_STATE;
ARM GAS  C:\Users\Tim\AppData\Local\Temp\ccELkyeR.s 			page 25


 731              		.loc 1 401 0
 732 001e FFF7FEFF 		bl	Ser_WriteByte
 733              	.LVL86:
 402:..\source/cal.c ****             return CalPid_LeftCalibration;
 734              		.loc 1 402 0
 735 0022 094B     		ldr	r3, .L67+4
 736 0024 1A68     		ldr	r2, [r3]
 737 0026 0021     		movs	r1, #0
 738 0028 1170     		strb	r1, [r2]
 403:..\source/cal.c ****             break;
 739              		.loc 1 403 0
 740 002a 1868     		ldr	r0, [r3]
 741 002c 08BD     		pop	{r3, pc}
 742              	.LVL87:
 743              	.L62:
 407:..\source/cal.c ****             CalPid_RightCalibration->state = CAL_INIT_STATE;
 744              		.loc 1 407 0
 745 002e FFF7FEFF 		bl	Ser_WriteByte
 746              	.LVL88:
 408:..\source/cal.c ****             return CalPid_RightCalibration;
 747              		.loc 1 408 0
 748 0032 064B     		ldr	r3, .L67+8
 749 0034 1A68     		ldr	r2, [r3]
 750 0036 0021     		movs	r1, #0
 751 0038 1170     		strb	r1, [r2]
 409:..\source/cal.c ****             break;
 752              		.loc 1 409 0
 753 003a 1868     		ldr	r0, [r3]
 754 003c 08BD     		pop	{r3, pc}
 755              	.LVL89:
 756              	.L65:
 416:..\source/cal.c **** }
 757              		.loc 1 416 0
 758 003e 0020     		movs	r0, #0
 759              	.LVL90:
 417:..\source/cal.c **** 
 760              		.loc 1 417 0
 761 0040 08BD     		pop	{r3, pc}
 762              	.L68:
 763 0042 00BF     		.align	2
 764              	.L67:
 765 0044 00000000 		.word	CalMotor_Calibration
 766 0048 00000000 		.word	CalPid_LeftCalibration
 767 004c 00000000 		.word	CalPid_RightCalibration
 768              		.cfi_endproc
 769              	.LFE76:
 770              		.size	GetCalibration, .-GetCalibration
 771              		.section	.text.GetValidation,"ax",%progbits
 772              		.align	2
 773              		.thumb
 774              		.thumb_func
 775              		.type	GetValidation, %function
 776              	GetValidation:
 777              	.LFB77:
 427:..\source/cal.c ****     switch (cmd)
 778              		.loc 1 427 0
 779              		.cfi_startproc
ARM GAS  C:\Users\Tim\AppData\Local\Temp\ccELkyeR.s 			page 26


 780              		@ args = 0, pretend = 0, frame = 0
 781              		@ frame_needed = 0, uses_anonymous_args = 0
 782              	.LVL91:
 783 0000 08B5     		push	{r3, lr}
 784              		.cfi_def_cfa_offset 8
 785              		.cfi_offset 3, -8
 786              		.cfi_offset 14, -4
 428:..\source/cal.c ****     {
 787              		.loc 1 428 0
 788 0002 A0F13103 		sub	r3, r0, #49
 789 0006 072B     		cmp	r3, #7
 790 0008 00F28480 		bhi	.L80
 791 000c DFE803F0 		tbb	[pc, r3]
 792              	.L72:
 793 0010 04       		.byte	(.L71-.L72)/2
 794 0011 12       		.byte	(.L73-.L72)/2
 795 0012 20       		.byte	(.L74-.L72)/2
 796 0013 30       		.byte	(.L75-.L72)/2
 797 0014 40       		.byte	(.L76-.L72)/2
 798 0015 50       		.byte	(.L77-.L72)/2
 799 0016 60       		.byte	(.L78-.L72)/2
 800 0017 71       		.byte	(.L79-.L72)/2
 801              		.p2align 1
 802              	.L71:
 431:..\source/cal.c ****             Ser_PutString("\r\nPerforming Motor Validation by operating the motors at varying veloc
 803              		.loc 1 431 0
 804 0018 FFF7FEFF 		bl	Ser_WriteByte
 805              	.LVL92:
 432:..\source/cal.c ****             CalMotor_Validation->stage = CAL_VALIDATE_STAGE;
 806              		.loc 1 432 0
 807 001c 3E48     		ldr	r0, .L82
 808 001e FFF7FEFF 		bl	Ser_PutString
 809              	.LVL93:
 433:..\source/cal.c ****             CalMotor_Validation->state = CAL_INIT_STATE;
 810              		.loc 1 433 0
 811 0022 3E4B     		ldr	r3, .L82+4
 812 0024 1A68     		ldr	r2, [r3]
 813 0026 0121     		movs	r1, #1
 814 0028 5170     		strb	r1, [r2, #1]
 434:..\source/cal.c ****             return (CALIBRATION_TYPE *) CalMotor_Validation;
 815              		.loc 1 434 0
 816 002a 1A68     		ldr	r2, [r3]
 817 002c 0021     		movs	r1, #0
 818 002e 1170     		strb	r1, [r2]
 435:..\source/cal.c ****             break;
 819              		.loc 1 435 0
 820 0030 1868     		ldr	r0, [r3]
 821 0032 08BD     		pop	{r3, pc}
 822              	.LVL94:
 823              	.L73:
 439:..\source/cal.c ****             Ser_PutString("\r\nPerforming Left/Right PID Validation by operating the motors at vary
 824              		.loc 1 439 0
 825 0034 FFF7FEFF 		bl	Ser_WriteByte
 826              	.LVL95:
 440:..\source/cal.c ****             CalPid_LeftValidation->stage = CAL_VALIDATE_STAGE;
 827              		.loc 1 440 0
 828 0038 3948     		ldr	r0, .L82+8
ARM GAS  C:\Users\Tim\AppData\Local\Temp\ccELkyeR.s 			page 27


 829 003a FFF7FEFF 		bl	Ser_PutString
 830              	.LVL96:
 441:..\source/cal.c ****             CalPid_LeftValidation->state = CAL_INIT_STATE;
 831              		.loc 1 441 0
 832 003e 394B     		ldr	r3, .L82+12
 833 0040 1A68     		ldr	r2, [r3]
 834 0042 0121     		movs	r1, #1
 835 0044 5170     		strb	r1, [r2, #1]
 442:..\source/cal.c ****             return (CALIBRATION_TYPE *) CalPid_LeftValidation;
 836              		.loc 1 442 0
 837 0046 1A68     		ldr	r2, [r3]
 838 0048 0021     		movs	r1, #0
 839 004a 1170     		strb	r1, [r2]
 443:..\source/cal.c ****             break;
 840              		.loc 1 443 0
 841 004c 1868     		ldr	r0, [r3]
 842 004e 08BD     		pop	{r3, pc}
 843              	.LVL97:
 844              	.L74:
 447:..\source/cal.c ****             Ser_PutString("\r\nPerforming Left PID validation in the forward direction.\r\n");
 845              		.loc 1 447 0
 846 0050 FFF7FEFF 		bl	Ser_WriteByte
 847              	.LVL98:
 448:..\source/cal.c ****             CalPid_LeftValidation->stage = CAL_VALIDATE_STAGE;
 848              		.loc 1 448 0
 849 0054 3448     		ldr	r0, .L82+16
 850 0056 FFF7FEFF 		bl	Ser_PutString
 851              	.LVL99:
 449:..\source/cal.c ****             CalPid_LeftValidation->state = CAL_INIT_STATE;
 852              		.loc 1 449 0
 853 005a 324B     		ldr	r3, .L82+12
 854 005c 1A68     		ldr	r2, [r3]
 855 005e 0121     		movs	r1, #1
 856 0060 5170     		strb	r1, [r2, #1]
 450:..\source/cal.c ****             ((CAL_PID_PARAMS *)(CalPid_LeftValidation->params))->direction = DIR_FORWARD;
 857              		.loc 1 450 0
 858 0062 1968     		ldr	r1, [r3]
 859 0064 0022     		movs	r2, #0
 860 0066 0A70     		strb	r2, [r1]
 451:..\source/cal.c ****             return (CALIBRATION_TYPE *) CalPid_LeftValidation;
 861              		.loc 1 451 0
 862 0068 1868     		ldr	r0, [r3]
 863 006a 4368     		ldr	r3, [r0, #4]
 864 006c DA71     		strb	r2, [r3, #7]
 452:..\source/cal.c ****             break;
 865              		.loc 1 452 0
 866 006e 08BD     		pop	{r3, pc}
 867              	.LVL100:
 868              	.L75:
 456:..\source/cal.c ****             Ser_PutString("\r\nPerforming Left PID validation in the backward direction.\r\n");
 869              		.loc 1 456 0
 870 0070 FFF7FEFF 		bl	Ser_WriteByte
 871              	.LVL101:
 457:..\source/cal.c ****             CalPid_LeftValidation->stage = CAL_VALIDATE_STAGE;
 872              		.loc 1 457 0
 873 0074 2D48     		ldr	r0, .L82+20
 874 0076 FFF7FEFF 		bl	Ser_PutString
ARM GAS  C:\Users\Tim\AppData\Local\Temp\ccELkyeR.s 			page 28


 875              	.LVL102:
 458:..\source/cal.c ****             CalPid_LeftValidation->state = CAL_INIT_STATE;
 876              		.loc 1 458 0
 877 007a 2A4B     		ldr	r3, .L82+12
 878 007c 1968     		ldr	r1, [r3]
 879 007e 0122     		movs	r2, #1
 880 0080 4A70     		strb	r2, [r1, #1]
 459:..\source/cal.c ****             ((CAL_PID_PARAMS *)(CalPid_LeftValidation->params))->direction = DIR_BACKWARD;
 881              		.loc 1 459 0
 882 0082 1968     		ldr	r1, [r3]
 883 0084 0020     		movs	r0, #0
 884 0086 0870     		strb	r0, [r1]
 460:..\source/cal.c ****             return (CALIBRATION_TYPE *) CalPid_LeftValidation;
 885              		.loc 1 460 0
 886 0088 1868     		ldr	r0, [r3]
 887 008a 4368     		ldr	r3, [r0, #4]
 888 008c DA71     		strb	r2, [r3, #7]
 461:..\source/cal.c ****             break;
 889              		.loc 1 461 0
 890 008e 08BD     		pop	{r3, pc}
 891              	.LVL103:
 892              	.L76:
 465:..\source/cal.c ****             Ser_PutString("\r\nPerforming Right PID validation in the forward direction.\r\n");
 893              		.loc 1 465 0
 894 0090 FFF7FEFF 		bl	Ser_WriteByte
 895              	.LVL104:
 466:..\source/cal.c ****             CalPid_RightValidation->stage = CAL_VALIDATE_STAGE;
 896              		.loc 1 466 0
 897 0094 2648     		ldr	r0, .L82+24
 898 0096 FFF7FEFF 		bl	Ser_PutString
 899              	.LVL105:
 467:..\source/cal.c ****             CalPid_RightValidation->state = CAL_INIT_STATE;
 900              		.loc 1 467 0
 901 009a 264B     		ldr	r3, .L82+28
 902 009c 1A68     		ldr	r2, [r3]
 903 009e 0121     		movs	r1, #1
 904 00a0 5170     		strb	r1, [r2, #1]
 468:..\source/cal.c ****             ((CAL_PID_PARAMS *)(CalPid_RightValidation->params))->direction = DIR_FORWARD;
 905              		.loc 1 468 0
 906 00a2 1968     		ldr	r1, [r3]
 907 00a4 0022     		movs	r2, #0
 908 00a6 0A70     		strb	r2, [r1]
 469:..\source/cal.c ****             return (CALIBRATION_TYPE *) CalPid_RightValidation;
 909              		.loc 1 469 0
 910 00a8 1868     		ldr	r0, [r3]
 911 00aa 4368     		ldr	r3, [r0, #4]
 912 00ac DA71     		strb	r2, [r3, #7]
 470:..\source/cal.c ****             break;
 913              		.loc 1 470 0
 914 00ae 08BD     		pop	{r3, pc}
 915              	.LVL106:
 916              	.L77:
 474:..\source/cal.c ****             Ser_PutString("\r\nPerforming Right PID validation in the backward direction.\r\n");
 917              		.loc 1 474 0
 918 00b0 FFF7FEFF 		bl	Ser_WriteByte
 919              	.LVL107:
 475:..\source/cal.c ****             CalPid_RightValidation->stage = CAL_VALIDATE_STAGE;
ARM GAS  C:\Users\Tim\AppData\Local\Temp\ccELkyeR.s 			page 29


 920              		.loc 1 475 0
 921 00b4 2048     		ldr	r0, .L82+32
 922 00b6 FFF7FEFF 		bl	Ser_PutString
 923              	.LVL108:
 476:..\source/cal.c ****             CalPid_RightValidation->state = CAL_INIT_STATE;
 924              		.loc 1 476 0
 925 00ba 1E4B     		ldr	r3, .L82+28
 926 00bc 1968     		ldr	r1, [r3]
 927 00be 0122     		movs	r2, #1
 928 00c0 4A70     		strb	r2, [r1, #1]
 477:..\source/cal.c ****             ((CAL_PID_PARAMS *)(CalPid_RightValidation->params))->direction = DIR_BACKWARD;
 929              		.loc 1 477 0
 930 00c2 1968     		ldr	r1, [r3]
 931 00c4 0020     		movs	r0, #0
 932 00c6 0870     		strb	r0, [r1]
 478:..\source/cal.c ****             return (CALIBRATION_TYPE *) CalPid_RightValidation;
 933              		.loc 1 478 0
 934 00c8 1868     		ldr	r0, [r3]
 935 00ca 4368     		ldr	r3, [r0, #4]
 936 00cc DA71     		strb	r2, [r3, #7]
 479:..\source/cal.c ****             break;
 937              		.loc 1 479 0
 938 00ce 08BD     		pop	{r3, pc}
 939              	.LVL109:
 940              	.L78:
 483:..\source/cal.c ****             Ser_PutString("\r\nPerforming straight line validation in the forward direction.\r\n");
 941              		.loc 1 483 0
 942 00d0 FFF7FEFF 		bl	Ser_WriteByte
 943              	.LVL110:
 484:..\source/cal.c ****             CalLin_Validation->stage = CAL_VALIDATE_STAGE;
 944              		.loc 1 484 0
 945 00d4 1948     		ldr	r0, .L82+36
 946 00d6 FFF7FEFF 		bl	Ser_PutString
 947              	.LVL111:
 485:..\source/cal.c ****             CalLin_Validation->state = CAL_INIT_STATE;
 948              		.loc 1 485 0
 949 00da 194B     		ldr	r3, .L82+40
 950 00dc 1A68     		ldr	r2, [r3]
 951 00de 0121     		movs	r1, #1
 952 00e0 5170     		strb	r1, [r2, #1]
 486:..\source/cal.c ****             ((CAL_LIN_PARAMS *)(CalLin_Validation->params))->direction = DIR_FORWARD;
 953              		.loc 1 486 0
 954 00e2 1968     		ldr	r1, [r3]
 955 00e4 0022     		movs	r2, #0
 956 00e6 0A70     		strb	r2, [r1]
 487:..\source/cal.c ****             return (CALIBRATION_TYPE *) CalLin_Validation;
 957              		.loc 1 487 0
 958 00e8 1968     		ldr	r1, [r3]
 959 00ea 4968     		ldr	r1, [r1, #4]
 960 00ec 0A70     		strb	r2, [r1]
 488:..\source/cal.c ****             break;
 961              		.loc 1 488 0
 962 00ee 1868     		ldr	r0, [r3]
 963 00f0 08BD     		pop	{r3, pc}
 964              	.LVL112:
 965              	.L79:
 492:..\source/cal.c ****             Ser_PutString("\r\nPerforming straight line validation in the backward direction.\r\n")
ARM GAS  C:\Users\Tim\AppData\Local\Temp\ccELkyeR.s 			page 30


 966              		.loc 1 492 0
 967 00f2 FFF7FEFF 		bl	Ser_WriteByte
 968              	.LVL113:
 493:..\source/cal.c ****             CalLin_Validation->stage = CAL_VALIDATE_STAGE;
 969              		.loc 1 493 0
 970 00f6 1348     		ldr	r0, .L82+44
 971 00f8 FFF7FEFF 		bl	Ser_PutString
 972              	.LVL114:
 494:..\source/cal.c ****             CalLin_Validation->state = CAL_INIT_STATE;
 973              		.loc 1 494 0
 974 00fc 104B     		ldr	r3, .L82+40
 975 00fe 1968     		ldr	r1, [r3]
 976 0100 0122     		movs	r2, #1
 977 0102 4A70     		strb	r2, [r1, #1]
 495:..\source/cal.c ****             ((CAL_LIN_PARAMS *)(CalLin_Validation->params))->direction = DIR_BACKWARD;
 978              		.loc 1 495 0
 979 0104 1968     		ldr	r1, [r3]
 980 0106 0020     		movs	r0, #0
 981 0108 0870     		strb	r0, [r1]
 496:..\source/cal.c ****             return (CALIBRATION_TYPE *) CalLin_Validation;
 982              		.loc 1 496 0
 983 010a 1968     		ldr	r1, [r3]
 984 010c 4968     		ldr	r1, [r1, #4]
 985 010e 0A70     		strb	r2, [r1]
 497:..\source/cal.c ****             break;
 986              		.loc 1 497 0
 987 0110 1868     		ldr	r0, [r3]
 988 0112 08BD     		pop	{r3, pc}
 989              	.LVL115:
 990              	.L80:
 505:..\source/cal.c **** }
 991              		.loc 1 505 0
 992 0114 0020     		movs	r0, #0
 993              	.LVL116:
 506:..\source/cal.c **** 
 994              		.loc 1 506 0
 995 0116 08BD     		pop	{r3, pc}
 996              	.L83:
 997              		.align	2
 998              	.L82:
 999 0118 74070000 		.word	.LC30
 1000 011c 00000000 		.word	CalMotor_Validation
 1001 0120 C4070000 		.word	.LC31
 1002 0124 00000000 		.word	CalPid_LeftValidation
 1003 0128 1C080000 		.word	.LC32
 1004 012c 5C080000 		.word	.LC33
 1005 0130 9C080000 		.word	.LC34
 1006 0134 00000000 		.word	CalPid_RightValidation
 1007 0138 DC080000 		.word	.LC35
 1008 013c 1C090000 		.word	.LC36
 1009 0140 00000000 		.word	CalLin_Validation
 1010 0144 60090000 		.word	.LC37
 1011              		.cfi_endproc
 1012              	.LFE77:
 1013              		.size	GetValidation, .-GetValidation
 1014              		.section	.text.CpsToPwm,"ax",%progbits
 1015              		.align	2
ARM GAS  C:\Users\Tim\AppData\Local\Temp\ccELkyeR.s 			page 31


 1016              		.thumb
 1017              		.thumb_func
 1018              		.type	CpsToPwm, %function
 1019              	CpsToPwm:
 1020              	.LFB80:
 608:..\source/cal.c ****             break;
 609:..\source/cal.c ****     }
 610:..\source/cal.c **** }
 611:..\source/cal.c **** 
 612:..\source/cal.c **** /*-------------------------------------------------------------------------------------------------
 613:..\source/cal.c ****  * Name: CpsToPwm
 614:..\source/cal.c ****  * Description: Converts count/sec to PWM 
 615:..\source/cal.c ****  *              This routine searches the count/sec array (cps_data) to find values immediately les
 616:..\source/cal.c ****  *              than and greater than the specified count/sec value (cps) to obtain the correspondi
 617:..\source/cal.c ****  *              indicies - upper/lower.  The indicies are then used to interpolate a PWM value.
 618:..\source/cal.c ****  *  
 619:..\source/cal.c ****  * Parameters: cps       - the specified count/sec
 620:..\source/cal.c ****  *             cps_data  - an array of count/sec values to be searched
 621:..\source/cal.c ****  *             pwm_data  - an array of pwm values for selection
 622:..\source/cal.c ****  *             data_size - the number of values in each array
 623:..\source/cal.c ****  * Return: None
 624:..\source/cal.c ****  * 
 625:..\source/cal.c ****  *-------------------------------------------------------------------------------------------------
 626:..\source/cal.c **** static uint16 CpsToPwm(int32 cps, int32 *cps_data, uint16 *pwm_data, uint8 data_size)
 627:..\source/cal.c **** {   
 1021              		.loc 1 627 0
 1022              		.cfi_startproc
 1023              		@ args = 0, pretend = 0, frame = 8
 1024              		@ frame_needed = 0, uses_anonymous_args = 0
 1025              	.LVL117:
 1026 0000 70B5     		push	{r4, r5, r6, lr}
 1027              		.cfi_def_cfa_offset 16
 1028              		.cfi_offset 4, -16
 1029              		.cfi_offset 5, -12
 1030              		.cfi_offset 6, -8
 1031              		.cfi_offset 14, -4
 1032 0002 84B0     		sub	sp, sp, #16
 1033              		.cfi_def_cfa_offset 32
 1034 0004 0C46     		mov	r4, r1
 1035              	.LVL118:
 628:..\source/cal.c ****     PWM_TYPE pwm = PWM_STOP;
 629:..\source/cal.c ****     uint8 lower = 0;
 1036              		.loc 1 629 0
 1037 0006 0021     		movs	r1, #0
 1038              	.LVL119:
 1039 0008 8DF80F10 		strb	r1, [sp, #15]
 630:..\source/cal.c ****     uint8 upper = 0;
 1040              		.loc 1 630 0
 1041 000c 8DF80E10 		strb	r1, [sp, #14]
 631:..\source/cal.c **** 
 632:..\source/cal.c ****     if (cps > 0 || cps < 0)
 1042              		.loc 1 632 0
 1043 0010 58B3     		cbz	r0, .L87
 1044 0012 1646     		mov	r6, r2
 1045 0014 0546     		mov	r5, r0
 633:..\source/cal.c ****     {
 634:..\source/cal.c ****         BinaryRangeSearch(cps, cps_data, data_size, &lower, &upper);
ARM GAS  C:\Users\Tim\AppData\Local\Temp\ccELkyeR.s 			page 32


 1046              		.loc 1 634 0
 1047 0016 0DF10E02 		add	r2, sp, #14
 1048              	.LVL120:
 1049 001a 0092     		str	r2, [sp]
 1050 001c 2146     		mov	r1, r4
 1051 001e 1A46     		mov	r2, r3
 1052 0020 0DF10F03 		add	r3, sp, #15
 1053              	.LVL121:
 1054 0024 FFF7FEFF 		bl	BinaryRangeSearch
 1055              	.LVL122:
 635:..\source/cal.c ****         
 636:..\source/cal.c ****         pwm = Interpolate(cps, cps_data[lower], cps_data[upper], pwm_data[lower], pwm_data[upper]);
 1056              		.loc 1 636 0
 1057 0028 9DF80F30 		ldrb	r3, [sp, #15]	@ zero_extendqisi2
 1058 002c 9DF80E00 		ldrb	r0, [sp, #14]	@ zero_extendqisi2
 1059 0030 34F92310 		ldrsh	r1, [r4, r3, lsl #2]
 1060 0034 34F92020 		ldrsh	r2, [r4, r0, lsl #2]
 1061 0038 36F81330 		ldrh	r3, [r6, r3, lsl #1]
 1062 003c 36F81000 		ldrh	r0, [r6, r0, lsl #1]
 1063 0040 0090     		str	r0, [sp]
 1064 0042 28B2     		sxth	r0, r5
 1065 0044 FFF7FEFF 		bl	Interpolate
 1066              	.LVL123:
 1067 0048 80B2     		uxth	r0, r0
 1068              	.LVL124:
 637:..\source/cal.c **** 
 638:..\source/cal.c ****         return constrain(pwm, MIN_PWM_VALUE, MAX_PWM_VALUE);
 1069              		.loc 1 638 0
 1070 004a A0F5FA63 		sub	r3, r0, #2000
 1071 004e 9BB2     		uxth	r3, r3
 1072 0050 4FF62F02 		movw	r2, #63535
 1073 0054 9342     		cmp	r3, r2
 1074 0056 05D9     		bls	.L88
 1075              		.loc 1 638 0 is_stmt 0 discriminator 1
 1076 0058 B0F57A7F 		cmp	r0, #1000
 1077 005c 38BF     		it	cc
 1078 005e 4FF47A70 		movcc	r0, #1000
 1079              	.LVL125:
 1080 0062 04E0     		b	.L85
 1081              	.LVL126:
 1082              	.L88:
 1083              		.loc 1 638 0
 1084 0064 4FF4FA60 		mov	r0, #2000
 1085              	.LVL127:
 1086 0068 01E0     		b	.L85
 1087              	.LVL128:
 1088              	.L87:
 639:..\source/cal.c ****     }
 640:..\source/cal.c **** 
 641:..\source/cal.c ****     return pwm;
 1089              		.loc 1 641 0 is_stmt 1
 1090 006a 40F2DC50 		movw	r0, #1500
 1091              	.LVL129:
 1092              	.L85:
 642:..\source/cal.c **** }
 1093              		.loc 1 642 0
 1094 006e 04B0     		add	sp, sp, #16
ARM GAS  C:\Users\Tim\AppData\Local\Temp\ccELkyeR.s 			page 33


 1095              		.cfi_def_cfa_offset 16
 1096              		@ sp needed
 1097 0070 70BD     		pop	{r4, r5, r6, pc}
 1098              		.cfi_endproc
 1099              	.LFE80:
 1100              		.size	CpsToPwm, .-CpsToPwm
 1101 0072 00BF     		.section	.text.ClearCalibrationStatusBit,"ax",%progbits
 1102              		.align	2
 1103              		.global	ClearCalibrationStatusBit
 1104              		.thumb
 1105              		.thumb_func
 1106              		.type	ClearCalibrationStatusBit, %function
 1107              	ClearCalibrationStatusBit:
 1108              	.LFB65:
 116:..\source/cal.c ****     uint16 status = p_cal_eeprom->status &= ~bit;
 1109              		.loc 1 116 0
 1110              		.cfi_startproc
 1111              		@ args = 0, pretend = 0, frame = 0
 1112              		@ frame_needed = 0, uses_anonymous_args = 0
 1113              	.LVL130:
 1114 0000 10B5     		push	{r4, lr}
 1115              		.cfi_def_cfa_offset 8
 1116              		.cfi_offset 4, -8
 1117              		.cfi_offset 14, -4
 1118 0002 0446     		mov	r4, r0
 117:..\source/cal.c ****     Nvstore_WriteUint16(status, NVSTORE_CAL_EEPROM_ADDR_TO_OFFSET(&p_cal_eeprom->status));
 1119              		.loc 1 117 0
 1120 0004 084A     		ldr	r2, .L92
 1121 0006 1368     		ldr	r3, [r2]
 1122 0008 1888     		ldrh	r0, [r3]
 1123              	.LVL131:
 1124 000a 80B2     		uxth	r0, r0
 1125 000c 20EA0400 		bic	r0, r0, r4
 1126 0010 1988     		ldrh	r1, [r3]
 1127 0012 1880     		strh	r0, [r3]	@ movhi
 1128              	.LVL132:
 118:..\source/cal.c ****     I2c_ClearCalibrationStatusBit(bit);
 1129              		.loc 1 118 0
 1130 0014 1188     		ldrh	r1, [r2]
 1131 0016 81F40041 		eor	r1, r1, #32768
 1132 001a FFF7FEFF 		bl	Nvstore_WriteUint16
 1133              	.LVL133:
 119:..\source/cal.c **** }
 1134              		.loc 1 119 0
 1135 001e 2046     		mov	r0, r4
 1136 0020 FFF7FEFF 		bl	I2c_ClearCalibrationStatusBit
 1137              	.LVL134:
 1138 0024 10BD     		pop	{r4, pc}
 1139              	.L93:
 1140 0026 00BF     		.align	2
 1141              	.L92:
 1142 0028 00000000 		.word	p_cal_eeprom
 1143              		.cfi_endproc
 1144              	.LFE65:
 1145              		.size	ClearCalibrationStatusBit, .-ClearCalibrationStatusBit
 1146              		.section	.text.SetCalibrationStatusBit,"ax",%progbits
 1147              		.align	2
ARM GAS  C:\Users\Tim\AppData\Local\Temp\ccELkyeR.s 			page 34


 1148              		.global	SetCalibrationStatusBit
 1149              		.thumb
 1150              		.thumb_func
 1151              		.type	SetCalibrationStatusBit, %function
 1152              	SetCalibrationStatusBit:
 1153              	.LFB66:
 123:..\source/cal.c ****     uint16 status = p_cal_eeprom->status | bit;
 1154              		.loc 1 123 0
 1155              		.cfi_startproc
 1156              		@ args = 0, pretend = 0, frame = 0
 1157              		@ frame_needed = 0, uses_anonymous_args = 0
 1158              	.LVL135:
 1159 0000 10B5     		push	{r4, lr}
 1160              		.cfi_def_cfa_offset 8
 1161              		.cfi_offset 4, -8
 1162              		.cfi_offset 14, -4
 1163 0002 0446     		mov	r4, r0
 124:..\source/cal.c ****     Nvstore_WriteUint16(status, NVSTORE_CAL_EEPROM_ADDR_TO_OFFSET(&p_cal_eeprom->status));
 1164              		.loc 1 124 0
 1165 0004 064B     		ldr	r3, .L96
 1166 0006 1968     		ldr	r1, [r3]
 1167 0008 0888     		ldrh	r0, [r1]
 1168              	.LVL136:
 1169 000a 80B2     		uxth	r0, r0
 1170              	.LVL137:
 125:..\source/cal.c ****     I2c_SetCalibrationStatusBit(bit);   
 1171              		.loc 1 125 0
 1172 000c A1F50041 		sub	r1, r1, #32768
 1173 0010 2043     		orrs	r0, r0, r4
 1174              	.LVL138:
 1175 0012 89B2     		uxth	r1, r1
 1176 0014 FFF7FEFF 		bl	Nvstore_WriteUint16
 1177              	.LVL139:
 126:..\source/cal.c **** }
 1178              		.loc 1 126 0
 1179 0018 2046     		mov	r0, r4
 1180 001a FFF7FEFF 		bl	I2c_SetCalibrationStatusBit
 1181              	.LVL140:
 1182 001e 10BD     		pop	{r4, pc}
 1183              	.L97:
 1184              		.align	2
 1185              	.L96:
 1186 0020 00000000 		.word	p_cal_eeprom
 1187              		.cfi_endproc
 1188              	.LFE66:
 1189              		.size	SetCalibrationStatusBit, .-SetCalibrationStatusBit
 1190              		.section	.text.Cal_PrintSamples,"ax",%progbits
 1191              		.align	2
 1192              		.global	Cal_PrintSamples
 1193              		.thumb
 1194              		.thumb_func
 1195              		.type	Cal_PrintSamples, %function
 1196              	Cal_PrintSamples:
 1197              	.LFB67:
 147:..\source/cal.c ****     uint8 ii;
 1198              		.loc 1 147 0
 1199              		.cfi_startproc
ARM GAS  C:\Users\Tim\AppData\Local\Temp\ccELkyeR.s 			page 35


 1200              		@ args = 0, pretend = 0, frame = 120
 1201              		@ frame_needed = 0, uses_anonymous_args = 0
 1202              	.LVL141:
 1203 0000 70B5     		push	{r4, r5, r6, lr}
 1204              		.cfi_def_cfa_offset 16
 1205              		.cfi_offset 4, -16
 1206              		.cfi_offset 5, -12
 1207              		.cfi_offset 6, -8
 1208              		.cfi_offset 14, -4
 1209 0002 9EB0     		sub	sp, sp, #120
 1210              		.cfi_def_cfa_offset 136
 1211 0004 0346     		mov	r3, r0
 1212 0006 0E46     		mov	r6, r1
 1213 0008 1546     		mov	r5, r2
 152:..\source/cal.c ****     Ser_PutString(label_str);
 1214              		.loc 1 152 0
 1215 000a 6846     		mov	r0, sp
 1216              	.LVL142:
 1217 000c 1249     		ldr	r1, .L102
 1218              	.LVL143:
 1219 000e 1A46     		mov	r2, r3
 1220              	.LVL144:
 1221 0010 FFF7FEFF 		bl	sprintf
 1222              	.LVL145:
 153:..\source/cal.c ****     
 1223              		.loc 1 153 0
 1224 0014 6846     		mov	r0, sp
 1225 0016 FFF7FEFF 		bl	Ser_PutString
 1226              	.LVL146:
 155:..\source/cal.c ****     {
 1227              		.loc 1 155 0
 1228 001a 0024     		movs	r4, #0
 1229 001c 0CE0     		b	.L99
 1230              	.LVL147:
 1231              	.L100:
 157:..\source/cal.c ****         Ser_PutString(buffer);
 1232              		.loc 1 157 0 discriminator 3
 1233 001e 05A8     		add	r0, sp, #20
 1234 0020 0E49     		ldr	r1, .L102+4
 1235 0022 56F82420 		ldr	r2, [r6, r4, lsl #2]
 1236 0026 35F81430 		ldrh	r3, [r5, r4, lsl #1]
 1237 002a FFF7FEFF 		bl	sprintf
 1238              	.LVL148:
 158:..\source/cal.c ****     }
 1239              		.loc 1 158 0 discriminator 3
 1240 002e 05A8     		add	r0, sp, #20
 1241 0030 FFF7FEFF 		bl	Ser_PutString
 1242              	.LVL149:
 155:..\source/cal.c ****     {
 1243              		.loc 1 155 0 discriminator 3
 1244 0034 0134     		adds	r4, r4, #1
 1245              	.LVL150:
 1246 0036 E4B2     		uxtb	r4, r4
 1247              	.LVL151:
 1248              	.L99:
 155:..\source/cal.c ****     {
 1249              		.loc 1 155 0 is_stmt 0 discriminator 1
ARM GAS  C:\Users\Tim\AppData\Local\Temp\ccELkyeR.s 			page 36


 1250 0038 312C     		cmp	r4, #49
 1251 003a F0D9     		bls	.L100
 160:..\source/cal.c ****     Ser_PutString(buffer);
 1252              		.loc 1 160 0 is_stmt 1
 1253 003c 05A8     		add	r0, sp, #20
 1254 003e 0849     		ldr	r1, .L102+8
 1255 0040 56F82420 		ldr	r2, [r6, r4, lsl #2]
 1256 0044 35F81430 		ldrh	r3, [r5, r4, lsl #1]
 1257 0048 FFF7FEFF 		bl	sprintf
 1258              	.LVL152:
 161:..\source/cal.c **** }
 1259              		.loc 1 161 0
 1260 004c 05A8     		add	r0, sp, #20
 1261 004e FFF7FEFF 		bl	Ser_PutString
 1262              	.LVL153:
 162:..\source/cal.c **** 
 1263              		.loc 1 162 0
 1264 0052 1EB0     		add	sp, sp, #120
 1265              		.cfi_def_cfa_offset 16
 1266              		@ sp needed
 1267 0054 70BD     		pop	{r4, r5, r6, pc}
 1268              	.LVL154:
 1269              	.L103:
 1270 0056 00BF     		.align	2
 1271              	.L102:
 1272 0058 A4090000 		.word	.LC38
 1273 005c AC090000 		.word	.LC39
 1274 0060 B4090000 		.word	.LC40
 1275              		.cfi_endproc
 1276              	.LFE67:
 1277              		.size	Cal_PrintSamples, .-Cal_PrintSamples
 1278              		.section	.text.Cal_PrintGains,"ax",%progbits
 1279              		.align	2
 1280              		.global	Cal_PrintGains
 1281              		.thumb
 1282              		.thumb_func
 1283              		.type	Cal_PrintGains, %function
 1284              	Cal_PrintGains:
 1285              	.LFB68:
 173:..\source/cal.c ****     char output[64];
 1286              		.loc 1 173 0
 1287              		.cfi_startproc
 1288              		@ args = 0, pretend = 0, frame = 104
 1289              		@ frame_needed = 0, uses_anonymous_args = 0
 1290              	.LVL155:
 1291 0000 F0B5     		push	{r4, r5, r6, r7, lr}
 1292              		.cfi_def_cfa_offset 20
 1293              		.cfi_offset 4, -20
 1294              		.cfi_offset 5, -16
 1295              		.cfi_offset 6, -12
 1296              		.cfi_offset 7, -8
 1297              		.cfi_offset 14, -4
 1298 0002 9DB0     		sub	sp, sp, #116
 1299              		.cfi_def_cfa_offset 136
 1300 0004 0746     		mov	r7, r0
 1301 0006 0C46     		mov	r4, r1
 179:..\source/cal.c ****     ftoa(gains[1], igain_str, 3);
ARM GAS  C:\Users\Tim\AppData\Local\Temp\ccELkyeR.s 			page 37


 1302              		.loc 1 179 0
 1303 0008 0868     		ldr	r0, [r1]	@ float
 1304              	.LVL156:
 1305 000a 09A9     		add	r1, sp, #36
 1306              	.LVL157:
 1307 000c 0322     		movs	r2, #3
 1308 000e FFF7FEFF 		bl	ftoa
 1309              	.LVL158:
 180:..\source/cal.c ****     ftoa(gains[2], dgain_str, 3);
 1310              		.loc 1 180 0
 1311 0012 06AE     		add	r6, sp, #24
 1312 0014 6068     		ldr	r0, [r4, #4]	@ float
 1313 0016 3146     		mov	r1, r6
 1314 0018 0322     		movs	r2, #3
 1315 001a FFF7FEFF 		bl	ftoa
 1316              	.LVL159:
 181:..\source/cal.c ****     
 1317              		.loc 1 181 0
 1318 001e 03AD     		add	r5, sp, #12
 1319 0020 A068     		ldr	r0, [r4, #8]	@ float
 1320 0022 2946     		mov	r1, r5
 1321 0024 0322     		movs	r2, #3
 1322 0026 FFF7FEFF 		bl	ftoa
 1323              	.LVL160:
 183:..\source/cal.c ****     Ser_PutString(output);
 1324              		.loc 1 183 0
 1325 002a 0096     		str	r6, [sp]
 1326 002c 0195     		str	r5, [sp, #4]
 1327 002e 0CA8     		add	r0, sp, #48
 1328 0030 0449     		ldr	r1, .L106
 1329 0032 3A46     		mov	r2, r7
 1330 0034 09AB     		add	r3, sp, #36
 1331 0036 FFF7FEFF 		bl	sprintf
 1332              	.LVL161:
 184:..\source/cal.c **** }
 1333              		.loc 1 184 0
 1334 003a 0CA8     		add	r0, sp, #48
 1335 003c FFF7FEFF 		bl	Ser_PutString
 1336              	.LVL162:
 185:..\source/cal.c **** 
 1337              		.loc 1 185 0
 1338 0040 1DB0     		add	sp, sp, #116
 1339              		.cfi_def_cfa_offset 20
 1340              		@ sp needed
 1341 0042 F0BD     		pop	{r4, r5, r6, r7, pc}
 1342              	.LVL163:
 1343              	.L107:
 1344              		.align	2
 1345              	.L106:
 1346 0044 C0090000 		.word	.LC41
 1347              		.cfi_endproc
 1348              	.LFE68:
 1349              		.size	Cal_PrintGains, .-Cal_PrintGains
 1350              		.section	.text.ProcessSettingsCmd,"ax",%progbits
 1351              		.align	2
 1352              		.thumb
 1353              		.thumb_func
ARM GAS  C:\Users\Tim\AppData\Local\Temp\ccELkyeR.s 			page 38


 1354              		.type	ProcessSettingsCmd, %function
 1355              	ProcessSettingsCmd:
 1356              	.LFB74:
 300:..\source/cal.c ****     switch (cmd)
 1357              		.loc 1 300 0
 1358              		.cfi_startproc
 1359              		@ args = 0, pretend = 0, frame = 0
 1360              		@ frame_needed = 0, uses_anonymous_args = 0
 1361              	.LVL164:
 1362 0000 38B5     		push	{r3, r4, r5, lr}
 1363              		.cfi_def_cfa_offset 16
 1364              		.cfi_offset 3, -16
 1365              		.cfi_offset 4, -12
 1366              		.cfi_offset 5, -8
 1367              		.cfi_offset 14, -4
 301:..\source/cal.c ****     {
 1368              		.loc 1 301 0
 1369 0002 A0F13103 		sub	r3, r0, #49
 1370 0006 032B     		cmp	r3, #3
 1371 0008 63D8     		bhi	.L108
 1372 000a DFE803F0 		tbb	[pc, r3]
 1373              	.L111:
 1374 000e 02       		.byte	(.L110-.L111)/2
 1375 000f 22       		.byte	(.L112-.L111)/2
 1376 0010 42       		.byte	(.L113-.L111)/2
 1377 0011 58       		.byte	(.L114-.L111)/2
 1378              		.p2align 1
 1379              	.L110:
 304:..\source/cal.c ****             Ser_PutString("\r\nDisplaying left motor calibration: count/sec, pwm mapping");
 1380              		.loc 1 304 0
 1381 0012 FFF7FEFF 		bl	Ser_WriteByte
 1382              	.LVL165:
 305:..\source/cal.c ****             Ser_PutString("\r\n");
 1383              		.loc 1 305 0
 1384 0016 2F48     		ldr	r0, .L116
 1385 0018 FFF7FEFF 		bl	Ser_PutString
 1386              	.LVL166:
 306:..\source/cal.c ****             Cal_PrintSamples("Left-Backward", (int32 *) p_cal_eeprom->left_motor_bwd.cps_data, (uin
 1387              		.loc 1 306 0
 1388 001c 2E4C     		ldr	r4, .L116+4
 1389 001e 2046     		mov	r0, r4
 1390 0020 FFF7FEFF 		bl	Ser_PutString
 1391              	.LVL167:
 307:..\source/cal.c ****             Cal_PrintSamples("Left-Forward", (int32 *) p_cal_eeprom->left_motor_fwd.cps_data, (uint
 1392              		.loc 1 307 0
 1393 0024 2D4D     		ldr	r5, .L116+8
 1394 0026 2A68     		ldr	r2, [r5]
 1395 0028 2D48     		ldr	r0, .L116+12
 1396 002a 02F5CA71 		add	r1, r2, #404
 1397 002e 02F51872 		add	r2, r2, #608
 1398 0032 FFF7FEFF 		bl	Cal_PrintSamples
 1399              	.LVL168:
 308:..\source/cal.c ****             Ser_PutString("\r\n");
 1400              		.loc 1 308 0
 1401 0036 2A68     		ldr	r2, [r5]
 1402 0038 2A48     		ldr	r0, .L116+16
 1403 003a 02F15401 		add	r1, r2, #84
ARM GAS  C:\Users\Tim\AppData\Local\Temp\ccELkyeR.s 			page 39


 1404 003e 02F59072 		add	r2, r2, #288
 1405 0042 FFF7FEFF 		bl	Cal_PrintSamples
 1406              	.LVL169:
 309:..\source/cal.c ****             
 1407              		.loc 1 309 0
 1408 0046 2046     		mov	r0, r4
 1409 0048 FFF7FEFF 		bl	Ser_PutString
 1410              	.LVL170:
 311:..\source/cal.c ****             break;
 1411              		.loc 1 311 0
 1412 004c FFF7FEFF 		bl	DisplaySettingsMenu
 1413              	.LVL171:
 312:..\source/cal.c ****             
 1414              		.loc 1 312 0
 1415 0050 38BD     		pop	{r3, r4, r5, pc}
 1416              	.LVL172:
 1417              	.L112:
 315:..\source/cal.c ****             Ser_PutString("\r\nDisplaying right motor calibration: count/sec, pwm mapping");
 1418              		.loc 1 315 0
 1419 0052 FFF7FEFF 		bl	Ser_WriteByte
 1420              	.LVL173:
 316:..\source/cal.c ****             Ser_PutString("\r\n");
 1421              		.loc 1 316 0
 1422 0056 2448     		ldr	r0, .L116+20
 1423 0058 FFF7FEFF 		bl	Ser_PutString
 1424              	.LVL174:
 317:..\source/cal.c ****             Cal_PrintSamples("Right-Backward", (int32 *) p_cal_eeprom->right_motor_bwd.cps_data, (u
 1425              		.loc 1 317 0
 1426 005c 1E4C     		ldr	r4, .L116+4
 1427 005e 2046     		mov	r0, r4
 1428 0060 FFF7FEFF 		bl	Ser_PutString
 1429              	.LVL175:
 318:..\source/cal.c ****             Cal_PrintSamples("Right-Forward", (int32 *) p_cal_eeprom->right_motor_fwd.cps_data, (ui
 1430              		.loc 1 318 0
 1431 0064 1D4D     		ldr	r5, .L116+8
 1432 0066 2A68     		ldr	r2, [r5]
 1433 0068 2048     		ldr	r0, .L116+24
 1434 006a 02F21441 		addw	r1, r2, #1044
 1435 006e 02F59C62 		add	r2, r2, #1248
 1436 0072 FFF7FEFF 		bl	Cal_PrintSamples
 1437              	.LVL176:
 319:..\source/cal.c ****             Ser_PutString("\r\n");
 1438              		.loc 1 319 0
 1439 0076 2A68     		ldr	r2, [r5]
 1440 0078 1D48     		ldr	r0, .L116+28
 1441 007a 02F53571 		add	r1, r2, #724
 1442 007e 02F56872 		add	r2, r2, #928
 1443 0082 FFF7FEFF 		bl	Cal_PrintSamples
 1444              	.LVL177:
 320:..\source/cal.c ****             
 1445              		.loc 1 320 0
 1446 0086 2046     		mov	r0, r4
 1447 0088 FFF7FEFF 		bl	Ser_PutString
 1448              	.LVL178:
 322:..\source/cal.c ****             break;
 1449              		.loc 1 322 0
 1450 008c FFF7FEFF 		bl	DisplaySettingsMenu
ARM GAS  C:\Users\Tim\AppData\Local\Temp\ccELkyeR.s 			page 40


 1451              	.LVL179:
 323:..\source/cal.c ****             
 1452              		.loc 1 323 0
 1453 0090 38BD     		pop	{r3, r4, r5, pc}
 1454              	.LVL180:
 1455              	.L113:
 326:..\source/cal.c ****             Ser_PutString("\r\nDisplaying all PID gains: left, right");
 1456              		.loc 1 326 0
 1457 0092 FFF7FEFF 		bl	Ser_WriteByte
 1458              	.LVL181:
 327:..\source/cal.c ****             Ser_PutString("\r\n");
 1459              		.loc 1 327 0
 1460 0096 1748     		ldr	r0, .L116+32
 1461 0098 FFF7FEFF 		bl	Ser_PutString
 1462              	.LVL182:
 328:..\source/cal.c ****             Cal_PrintGains("Left PID", (float *) &p_cal_eeprom->left_gains);
 1463              		.loc 1 328 0
 1464 009c 0E48     		ldr	r0, .L116+4
 1465 009e FFF7FEFF 		bl	Ser_PutString
 1466              	.LVL183:
 329:..\source/cal.c ****             Cal_PrintGains("Right PID", (float *) &p_cal_eeprom->right_gains);
 1467              		.loc 1 329 0
 1468 00a2 0E4C     		ldr	r4, .L116+8
 1469 00a4 2168     		ldr	r1, [r4]
 1470 00a6 1448     		ldr	r0, .L116+36
 1471 00a8 0831     		adds	r1, r1, #8
 1472 00aa FFF7FEFF 		bl	Cal_PrintGains
 1473              	.LVL184:
 330:..\source/cal.c **** 
 1474              		.loc 1 330 0
 1475 00ae 2168     		ldr	r1, [r4]
 1476 00b0 1248     		ldr	r0, .L116+40
 1477 00b2 1831     		adds	r1, r1, #24
 1478 00b4 FFF7FEFF 		bl	Cal_PrintGains
 1479              	.LVL185:
 332:..\source/cal.c ****             break;
 1480              		.loc 1 332 0
 1481 00b8 FFF7FEFF 		bl	DisplaySettingsMenu
 1482              	.LVL186:
 333:..\source/cal.c ****             
 1483              		.loc 1 333 0
 1484 00bc 38BD     		pop	{r3, r4, r5, pc}
 1485              	.LVL187:
 1486              	.L114:
 336:..\source/cal.c ****             Ser_PutString("\r\nDisplaying all calibration/settings");
 1487              		.loc 1 336 0
 1488 00be FFF7FEFF 		bl	Ser_WriteByte
 1489              	.LVL188:
 337:..\source/cal.c ****             Ser_PutString("\r\n");
 1490              		.loc 1 337 0
 1491 00c2 0F48     		ldr	r0, .L116+44
 1492 00c4 FFF7FEFF 		bl	Ser_PutString
 1493              	.LVL189:
 338:..\source/cal.c **** 
 1494              		.loc 1 338 0
 1495 00c8 0348     		ldr	r0, .L116+4
 1496 00ca FFF7FEFF 		bl	Ser_PutString
ARM GAS  C:\Users\Tim\AppData\Local\Temp\ccELkyeR.s 			page 41


 1497              	.LVL190:
 340:..\source/cal.c ****             break;        
 1498              		.loc 1 340 0
 1499 00ce FFF7FEFF 		bl	DisplaySettingsMenu
 1500              	.LVL191:
 1501              	.L108:
 1502 00d2 38BD     		pop	{r3, r4, r5, pc}
 1503              	.L117:
 1504              		.align	2
 1505              	.L116:
 1506 00d4 DC090000 		.word	.LC42
 1507 00d8 68010000 		.word	.LC5
 1508 00dc 00000000 		.word	p_cal_eeprom
 1509 00e0 180A0000 		.word	.LC43
 1510 00e4 280A0000 		.word	.LC44
 1511 00e8 380A0000 		.word	.LC45
 1512 00ec 780A0000 		.word	.LC46
 1513 00f0 880A0000 		.word	.LC47
 1514 00f4 980A0000 		.word	.LC48
 1515 00f8 C00A0000 		.word	.LC49
 1516 00fc CC0A0000 		.word	.LC50
 1517 0100 D80A0000 		.word	.LC51
 1518              		.cfi_endproc
 1519              	.LFE74:
 1520              		.size	ProcessSettingsCmd, .-ProcessSettingsCmd
 1521              		.section	.text.Cal_Init,"ax",%progbits
 1522              		.align	2
 1523              		.global	Cal_Init
 1524              		.thumb
 1525              		.thumb_func
 1526              		.type	Cal_Init, %function
 1527              	Cal_Init:
 1528              	.LFB81:
 643:..\source/cal.c **** 
 644:..\source/cal.c **** /*-------------------------------------------------------------------------------------------------
 645:..\source/cal.c ****  * Module Interface Routines
 646:..\source/cal.c ****  *-------------------------------------------------------------------------------------------------
 647:..\source/cal.c **** 
 648:..\source/cal.c **** /*-------------------------------------------------------------------------------------------------
 649:..\source/cal.c ****  * Name: Cal_Init
 650:..\source/cal.c ****  * Description: Initializes the calibration module and submodules.
 651:..\source/cal.c ****  * Parameters: None
 652:..\source/cal.c ****  * Return: None
 653:..\source/cal.c ****  * 
 654:..\source/cal.c ****  *-------------------------------------------------------------------------------------------------
 655:..\source/cal.c **** void Cal_Init()
 656:..\source/cal.c **** {
 1529              		.loc 1 656 0
 1530              		.cfi_startproc
 1531              		@ args = 0, pretend = 0, frame = 0
 1532              		@ frame_needed = 0, uses_anonymous_args = 0
 1533 0000 08B5     		push	{r3, lr}
 1534              		.cfi_def_cfa_offset 8
 1535              		.cfi_offset 3, -8
 1536              		.cfi_offset 14, -4
 657:..\source/cal.c ****     p_cal_eeprom = NVSTORE_CAL_EEPROM_BASE;
 1537              		.loc 1 657 0
ARM GAS  C:\Users\Tim\AppData\Local\Temp\ccELkyeR.s 			page 42


 1538 0002 084A     		ldr	r2, .L120
 1539 0004 084B     		ldr	r3, .L120+4
 1540 0006 1A60     		str	r2, [r3]
 658:..\source/cal.c ****     Cal_LeftTarget = LeftTarget;
 1541              		.loc 1 658 0
 1542 0008 084A     		ldr	r2, .L120+8
 1543 000a 094B     		ldr	r3, .L120+12
 1544 000c 1A60     		str	r2, [r3]
 659:..\source/cal.c ****     Cal_RightTarget = RightTarget;
 1545              		.loc 1 659 0
 1546 000e 094A     		ldr	r2, .L120+16
 1547 0010 094B     		ldr	r3, .L120+20
 1548 0012 1A60     		str	r2, [r3]
 660:..\source/cal.c ****     
 661:..\source/cal.c ****     CalMotor_Init();
 1549              		.loc 1 661 0
 1550 0014 FFF7FEFF 		bl	CalMotor_Init
 1551              	.LVL192:
 662:..\source/cal.c ****     CalPid_Init();
 1552              		.loc 1 662 0
 1553 0018 FFF7FEFF 		bl	CalPid_Init
 1554              	.LVL193:
 663:..\source/cal.c ****     CalLin_Init();
 1555              		.loc 1 663 0
 1556 001c FFF7FEFF 		bl	CalLin_Init
 1557              	.LVL194:
 1558 0020 08BD     		pop	{r3, pc}
 1559              	.L121:
 1560 0022 00BF     		.align	2
 1561              	.L120:
 1562 0024 00800040 		.word	1073774592
 1563 0028 00000000 		.word	p_cal_eeprom
 1564 002c 00000000 		.word	LeftTarget
 1565 0030 00000000 		.word	Cal_LeftTarget
 1566 0034 00000000 		.word	RightTarget
 1567 0038 00000000 		.word	Cal_RightTarget
 1568              		.cfi_endproc
 1569              	.LFE81:
 1570              		.size	Cal_Init, .-Cal_Init
 1571              		.section	.text.Cal_Start,"ax",%progbits
 1572              		.align	2
 1573              		.global	Cal_Start
 1574              		.thumb
 1575              		.thumb_func
 1576              		.type	Cal_Start, %function
 1577              	Cal_Start:
 1578              	.LFB82:
 664:..\source/cal.c **** }
 665:..\source/cal.c **** 
 666:..\source/cal.c **** /*-------------------------------------------------------------------------------------------------
 667:..\source/cal.c ****  * Name: Cal_Start
 668:..\source/cal.c ****  * Description: Reads the current calibration status from EEPROM and sets it into the I2C module. 
 669:..\source/cal.c ****  *              Note: This can only be done after the non-volatile memory module has been initializ
 670:..\source/cal.c ****  * Parameters: None
 671:..\source/cal.c ****  * Return: None
 672:..\source/cal.c ****  * 
 673:..\source/cal.c ****  *-------------------------------------------------------------------------------------------------
ARM GAS  C:\Users\Tim\AppData\Local\Temp\ccELkyeR.s 			page 43


 674:..\source/cal.c **** void Cal_Start()
 675:..\source/cal.c **** {
 1579              		.loc 1 675 0
 1580              		.cfi_startproc
 1581              		@ args = 0, pretend = 0, frame = 0
 1582              		@ frame_needed = 0, uses_anonymous_args = 0
 1583 0000 08B5     		push	{r3, lr}
 1584              		.cfi_def_cfa_offset 8
 1585              		.cfi_offset 3, -8
 1586              		.cfi_offset 14, -4
 676:..\source/cal.c ****     //Nvstore_WriteBytes((uint8 *) &left_fwd_cal_data, sizeof(CAL_DATA_TYPE), NVSTORE_CAL_EEPROM_AD
 677:..\source/cal.c ****     //Nvstore_WriteBytes((uint8 *) &left_bwd_cal_data, sizeof(CAL_DATA_TYPE), NVSTORE_CAL_EEPROM_AD
 678:..\source/cal.c ****     //Nvstore_WriteBytes((uint8 *) &right_fwd_cal_data, sizeof(CAL_DATA_TYPE), NVSTORE_CAL_EEPROM_A
 679:..\source/cal.c ****     //Nvstore_WriteBytes((uint8 *) &right_bwd_cal_data, sizeof(CAL_DATA_TYPE), NVSTORE_CAL_EEPROM_A
 680:..\source/cal.c ****     //Nvstore_WriteUint16(0, 0x000f);
 681:..\source/cal.c ****     //Nvstore_WriteFloat(1.07, NVSTORE_CAL_EEPROM_ADDR_TO_OFFSET(&p_cal_eeprom->linear_bias));
 682:..\source/cal.c ****     //Nvstore_WriteFloat(1.0625, NVSTORE_CAL_EEPROM_ADDR_TO_OFFSET(&p_cal_eeprom->angular_bias));
 683:..\source/cal.c **** 
 684:..\source/cal.c ****     uint16 status = p_cal_eeprom->status;
 1587              		.loc 1 684 0
 1588 0002 034B     		ldr	r3, .L124
 1589 0004 1B68     		ldr	r3, [r3]
 1590 0006 1888     		ldrh	r0, [r3]
 1591              	.LVL195:
 685:..\source/cal.c ****     I2c_SetCalibrationStatus(status);        
 1592              		.loc 1 685 0
 1593 0008 80B2     		uxth	r0, r0
 1594 000a FFF7FEFF 		bl	I2c_SetCalibrationStatus
 1595              	.LVL196:
 1596 000e 08BD     		pop	{r3, pc}
 1597              	.L125:
 1598              		.align	2
 1599              	.L124:
 1600 0010 00000000 		.word	p_cal_eeprom
 1601              		.cfi_endproc
 1602              	.LFE82:
 1603              		.size	Cal_Start, .-Cal_Start
 1604              		.section	.text.Cal_Update,"ax",%progbits
 1605              		.align	2
 1606              		.global	Cal_Update
 1607              		.thumb
 1608              		.thumb_func
 1609              		.type	Cal_Update, %function
 1610              	Cal_Update:
 1611              	.LFB83:
 686:..\source/cal.c **** }
 687:..\source/cal.c **** 
 688:..\source/cal.c **** /*-------------------------------------------------------------------------------------------------
 689:..\source/cal.c ****  * Name: Cal_Update
 690:..\source/cal.c ****  * Description: Called from the main loop to process calibration/validation. 
 691:..\source/cal.c ****  * Parameters: None
 692:..\source/cal.c ****  * Return: None
 693:..\source/cal.c ****  * 
 694:..\source/cal.c ****  *-------------------------------------------------------------------------------------------------
 695:..\source/cal.c **** void Cal_Update()
 696:..\source/cal.c **** /* 
 697:..\source/cal.c ****     The following options are available in this modules:
ARM GAS  C:\Users\Tim\AppData\Local\Temp\ccELkyeR.s 			page 44


 698:..\source/cal.c ****         1. Calibration
 699:..\source/cal.c ****         2. Validation
 700:..\source/cal.c ****         3. Settings Display
 701:..\source/cal.c ****     Only one can be active at a time
 702:..\source/cal.c **** 
 703:..\source/cal.c ****     State Machine:
 704:..\source/cal.c ****         STATE_INIT - waiting for command to engage one of the above functionalities.  
 705:..\source/cal.c ****             If command is 'c'|'C', then enter STATE_CALIBRATION
 706:..\source/cal.c ****             If command is 'v'|'V', then enter STATE_VALIDATION
 707:..\source/cal.c ****             If command is 'd'|'D', then enter STATE_SETTINGS
 708:..\source/cal.c ****             If command is 'x'|'X', then return to STATE_INIT
 709:..\source/cal.c **** 
 710:..\source/cal.c ****         STATE_CALIBRATION - waiting for calibration commands (as shown in calibration menu)
 711:..\source/cal.c ****             ...
 712:..\source/cal.c ****             If command is 'x'|'X', then return to STATE_INIT
 713:..\source/cal.c **** 
 714:..\source/cal.c ****         STATE_VALIDATION - waiting for validation commands (as shown in validation menu)
 715:..\source/cal.c ****             ...
 716:..\source/cal.c ****             If command is 'x'|'X', then return to STATE_INIT
 717:..\source/cal.c ****         
 718:..\source/cal.c ****         STATE_SETTINGS - waiting for setting commands (as shown in the settings menu)
 719:..\source/cal.c ****             ...
 720:..\source/cal.c ****             If command is 'x'|'X', then return to STATE_INIT
 721:..\source/cal.c **** 
 722:..\source/cal.c ****         STATE_EXIT - display exit menu and transitions to STATE_INIT
 723:..\source/cal.c ****  */
 724:..\source/cal.c **** {
 1612              		.loc 1 724 0
 1613              		.cfi_startproc
 1614              		@ args = 0, pretend = 0, frame = 0
 1615              		@ frame_needed = 0, uses_anonymous_args = 0
 1616 0000 10B5     		push	{r4, lr}
 1617              		.cfi_def_cfa_offset 8
 1618              		.cfi_offset 4, -8
 1619              		.cfi_offset 14, -4
 725:..\source/cal.c ****     uint8 cmd = GetCommand();
 1620              		.loc 1 725 0
 1621 0002 FFF7FEFF 		bl	GetCommand
 1622              	.LVL197:
 1623 0006 0446     		mov	r4, r0
 1624              	.LVL198:
 726:..\source/cal.c ****     
 727:..\source/cal.c ****     switch (ui_state)
 1625              		.loc 1 727 0
 1626 0008 314B     		ldr	r3, .L143
 1627 000a 1B7C     		ldrb	r3, [r3, #16]	@ zero_extendqisi2
 1628 000c 042B     		cmp	r3, #4
 1629 000e 5BD8     		bhi	.L127
 1630 0010 DFE803F0 		tbb	[pc, r3]
 1631              	.L129:
 1632 0014 03       		.byte	(.L128-.L129)/2
 1633 0015 1B       		.byte	(.L130-.L129)/2
 1634 0016 32       		.byte	(.L131-.L129)/2
 1635 0017 49       		.byte	(.L132-.L129)/2
 1636 0018 51       		.byte	(.L133-.L129)/2
 1637 0019 00       		.p2align 1
 1638              	.L128:
ARM GAS  C:\Users\Tim\AppData\Local\Temp\ccELkyeR.s 			page 45


 728:..\source/cal.c ****     {
 729:..\source/cal.c ****         case UI_STATE_INIT:
 730:..\source/cal.c ****             {        
 731:..\source/cal.c ****                 switch (cmd)
 1639              		.loc 1 731 0
 1640 001a 7328     		cmp	r0, #115
 1641 001c 0FD0     		beq	.L135
 1642 001e 7628     		cmp	r0, #118
 1643 0020 07D0     		beq	.L136
 1644 0022 6328     		cmp	r0, #99
 1645 0024 53D1     		bne	.L126
 732:..\source/cal.c ****                 {
 733:..\source/cal.c ****                     case CAL_REQUEST:
 734:..\source/cal.c ****                         DisplayCalMenu();
 1646              		.loc 1 734 0
 1647 0026 FFF7FEFF 		bl	DisplayCalMenu
 1648              	.LVL199:
 735:..\source/cal.c ****                         ui_state = UI_STATE_CALIBRATION;
 1649              		.loc 1 735 0
 1650 002a 0122     		movs	r2, #1
 1651 002c 284B     		ldr	r3, .L143
 1652 002e 1A74     		strb	r2, [r3, #16]
 736:..\source/cal.c ****                         break;
 1653              		.loc 1 736 0
 1654 0030 10BD     		pop	{r4, pc}
 1655              	.LVL200:
 1656              	.L136:
 737:..\source/cal.c ****                     
 738:..\source/cal.c ****                     case VAL_REQUEST:
 739:..\source/cal.c ****                         DisplayValMenu();
 1657              		.loc 1 739 0
 1658 0032 FFF7FEFF 		bl	DisplayValMenu
 1659              	.LVL201:
 740:..\source/cal.c ****                         ui_state = UI_STATE_VALIDATION;
 1660              		.loc 1 740 0
 1661 0036 0222     		movs	r2, #2
 1662 0038 254B     		ldr	r3, .L143
 1663 003a 1A74     		strb	r2, [r3, #16]
 741:..\source/cal.c ****                         break;
 1664              		.loc 1 741 0
 1665 003c 10BD     		pop	{r4, pc}
 1666              	.LVL202:
 1667              	.L135:
 742:..\source/cal.c ****                     
 743:..\source/cal.c ****                     case SETTING_REQUEST:
 744:..\source/cal.c ****                         DisplaySettingsMenu();
 1668              		.loc 1 744 0
 1669 003e FFF7FEFF 		bl	DisplaySettingsMenu
 1670              	.LVL203:
 745:..\source/cal.c ****                         ui_state = UI_STATE_SETTINGS;
 1671              		.loc 1 745 0
 1672 0042 0322     		movs	r2, #3
 1673 0044 224B     		ldr	r3, .L143
 1674 0046 1A74     		strb	r2, [r3, #16]
 746:..\source/cal.c ****                         break;
 1675              		.loc 1 746 0
 1676 0048 10BD     		pop	{r4, pc}
ARM GAS  C:\Users\Tim\AppData\Local\Temp\ccELkyeR.s 			page 46


 1677              	.LVL204:
 1678              	.L130:
 747:..\source/cal.c ****                 }
 748:..\source/cal.c ****                 break;
 749:..\source/cal.c ****             }
 750:..\source/cal.c ****             break;
 751:..\source/cal.c ****         
 752:..\source/cal.c ****         case UI_STATE_CALIBRATION:
 753:..\source/cal.c ****             if (!active_cal)
 1679              		.loc 1 753 0
 1680 004a 214B     		ldr	r3, .L143
 1681 004c 9B68     		ldr	r3, [r3, #8]
 1682 004e 1BB9     		cbnz	r3, .L138
 754:..\source/cal.c ****             {
 755:..\source/cal.c ****                 active_cal = GetCalibration(cmd);
 1683              		.loc 1 755 0
 1684 0050 FFF7FEFF 		bl	GetCalibration
 1685              	.LVL205:
 1686 0054 1E4B     		ldr	r3, .L143
 1687 0056 9860     		str	r0, [r3, #8]
 1688              	.L138:
 756:..\source/cal.c ****             }            
 757:..\source/cal.c ****                 
 758:..\source/cal.c ****             if (active_cal)
 1689              		.loc 1 758 0
 1690 0058 1D4B     		ldr	r3, .L143
 1691 005a 9B68     		ldr	r3, [r3, #8]
 1692 005c 33B1     		cbz	r3, .L139
 759:..\source/cal.c ****             {
 760:..\source/cal.c ****                 Control_OverrideDebug(TRUE);
 1693              		.loc 1 760 0
 1694 005e 0120     		movs	r0, #1
 1695 0060 FFF7FEFF 		bl	Control_OverrideDebug
 1696              	.LVL206:
 761:..\source/cal.c ****                 Process(active_cal);
 1697              		.loc 1 761 0
 1698 0064 1A4B     		ldr	r3, .L143
 1699 0066 9868     		ldr	r0, [r3, #8]
 1700 0068 FFF7FEFF 		bl	Process
 1701              	.LVL207:
 1702              	.L139:
 762:..\source/cal.c ****             }                        
 763:..\source/cal.c ****             
 764:..\source/cal.c ****             if (cmd == EXIT_CMD)
 1703              		.loc 1 764 0
 1704 006c 782C     		cmp	r4, #120
 1705 006e 2ED1     		bne	.L126
 765:..\source/cal.c ****             {
 766:..\source/cal.c ****                 ui_state = UI_STATE_EXIT;
 1706              		.loc 1 766 0
 1707 0070 0422     		movs	r2, #4
 1708 0072 174B     		ldr	r3, .L143
 1709 0074 1A74     		strb	r2, [r3, #16]
 1710 0076 10BD     		pop	{r4, pc}
 1711              	.LVL208:
 1712              	.L131:
 767:..\source/cal.c ****             }
ARM GAS  C:\Users\Tim\AppData\Local\Temp\ccELkyeR.s 			page 47


 768:..\source/cal.c ****             break;
 769:..\source/cal.c ****             
 770:..\source/cal.c ****         case UI_STATE_VALIDATION:
 771:..\source/cal.c ****             if (!active_val)
 1713              		.loc 1 771 0
 1714 0078 154B     		ldr	r3, .L143
 1715 007a DB68     		ldr	r3, [r3, #12]
 1716 007c 1BB9     		cbnz	r3, .L140
 772:..\source/cal.c ****             {
 773:..\source/cal.c ****                 active_val = GetValidation(cmd);
 1717              		.loc 1 773 0
 1718 007e FFF7FEFF 		bl	GetValidation
 1719              	.LVL209:
 1720 0082 134B     		ldr	r3, .L143
 1721 0084 D860     		str	r0, [r3, #12]
 1722              	.L140:
 774:..\source/cal.c ****             }
 775:..\source/cal.c ****             
 776:..\source/cal.c ****             if (active_val)
 1723              		.loc 1 776 0
 1724 0086 124B     		ldr	r3, .L143
 1725 0088 DB68     		ldr	r3, [r3, #12]
 1726 008a 33B1     		cbz	r3, .L141
 777:..\source/cal.c ****             {
 778:..\source/cal.c ****                 Control_OverrideDebug(TRUE);
 1727              		.loc 1 778 0
 1728 008c 0120     		movs	r0, #1
 1729 008e FFF7FEFF 		bl	Control_OverrideDebug
 1730              	.LVL210:
 779:..\source/cal.c ****                 Process(active_val);
 1731              		.loc 1 779 0
 1732 0092 0F4B     		ldr	r3, .L143
 1733 0094 D868     		ldr	r0, [r3, #12]
 1734 0096 FFF7FEFF 		bl	Process
 1735              	.LVL211:
 1736              	.L141:
 780:..\source/cal.c ****             }
 781:..\source/cal.c ****             
 782:..\source/cal.c ****             if (cmd == EXIT_CMD)
 1737              		.loc 1 782 0
 1738 009a 782C     		cmp	r4, #120
 1739 009c 17D1     		bne	.L126
 783:..\source/cal.c ****             {
 784:..\source/cal.c ****                 ui_state = UI_STATE_EXIT;
 1740              		.loc 1 784 0
 1741 009e 0422     		movs	r2, #4
 1742 00a0 0B4B     		ldr	r3, .L143
 1743 00a2 1A74     		strb	r2, [r3, #16]
 1744 00a4 10BD     		pop	{r4, pc}
 1745              	.LVL212:
 1746              	.L132:
 785:..\source/cal.c ****             }
 786:..\source/cal.c ****             break;
 787:..\source/cal.c ****             
 788:..\source/cal.c ****         case UI_STATE_SETTINGS:
 789:..\source/cal.c ****             ProcessSettingsCmd(cmd);
 1747              		.loc 1 789 0
ARM GAS  C:\Users\Tim\AppData\Local\Temp\ccELkyeR.s 			page 48


 1748 00a6 FFF7FEFF 		bl	ProcessSettingsCmd
 1749              	.LVL213:
 790:..\source/cal.c ****             
 791:..\source/cal.c ****             if (cmd == EXIT_CMD)
 1750              		.loc 1 791 0
 1751 00aa 782C     		cmp	r4, #120
 1752 00ac 0FD1     		bne	.L126
 792:..\source/cal.c ****             {
 793:..\source/cal.c ****                 ui_state = UI_STATE_EXIT;
 1753              		.loc 1 793 0
 1754 00ae 0422     		movs	r2, #4
 1755 00b0 074B     		ldr	r3, .L143
 1756 00b2 1A74     		strb	r2, [r3, #16]
 1757 00b4 10BD     		pop	{r4, pc}
 1758              	.LVL214:
 1759              	.L133:
 794:..\source/cal.c ****             }
 795:..\source/cal.c ****             break;
 796:..\source/cal.c **** 
 797:..\source/cal.c ****         case UI_STATE_EXIT:
 798:..\source/cal.c ****             DisplayExit();
 1760              		.loc 1 798 0
 1761 00b6 FFF7FEFF 		bl	DisplayExit
 1762              	.LVL215:
 799:..\source/cal.c ****             Control_OverrideDebug(FALSE);
 1763              		.loc 1 799 0
 1764 00ba 0020     		movs	r0, #0
 1765 00bc FFF7FEFF 		bl	Control_OverrideDebug
 1766              	.LVL216:
 800:..\source/cal.c ****             ui_state = UI_STATE_INIT;
 1767              		.loc 1 800 0
 1768 00c0 0022     		movs	r2, #0
 1769 00c2 034B     		ldr	r3, .L143
 1770 00c4 1A74     		strb	r2, [r3, #16]
 801:..\source/cal.c ****             break;
 1771              		.loc 1 801 0
 1772 00c6 10BD     		pop	{r4, pc}
 1773              	.LVL217:
 1774              	.L127:
 802:..\source/cal.c ****             
 803:..\source/cal.c ****         default:
 804:..\source/cal.c ****             ui_state = UI_STATE_INIT;                
 1775              		.loc 1 804 0
 1776 00c8 0022     		movs	r2, #0
 1777 00ca 014B     		ldr	r3, .L143
 1778 00cc 1A74     		strb	r2, [r3, #16]
 1779              	.LVL218:
 1780              	.L126:
 1781 00ce 10BD     		pop	{r4, pc}
 1782              	.L144:
 1783              		.align	2
 1784              	.L143:
 1785 00d0 00000000 		.word	.LANCHOR0
 1786              		.cfi_endproc
 1787              	.LFE83:
 1788              		.size	Cal_Update, .-Cal_Update
 1789              		.global	__aeabi_d2f
ARM GAS  C:\Users\Tim\AppData\Local\Temp\ccELkyeR.s 			page 49


 1790              		.section	.text.Cal_ReadResponse,"ax",%progbits
 1791              		.align	2
 1792              		.global	Cal_ReadResponse
 1793              		.thumb
 1794              		.thumb_func
 1795              		.type	Cal_ReadResponse, %function
 1796              	Cal_ReadResponse:
 1797              	.LFB84:
 805:..\source/cal.c ****             break;
 806:..\source/cal.c ****     }
 807:..\source/cal.c ****     
 808:..\source/cal.c **** }
 809:..\source/cal.c **** 
 810:..\source/cal.c **** /*-------------------------------------------------------------------------------------------------
 811:..\source/cal.c ****  * Name: Cal_ReadResponse
 812:..\source/cal.c ****  * Description: Read a floating point value from the serial port. 
 813:..\source/cal.c ****  * Parameters: None
 814:..\source/cal.c ****  * Return: None
 815:..\source/cal.c ****  * 
 816:..\source/cal.c ****  *-------------------------------------------------------------------------------------------------
 817:..\source/cal.c **** float Cal_ReadResponse()
 818:..\source/cal.c **** {
 1798              		.loc 1 818 0
 1799              		.cfi_startproc
 1800              		@ args = 0, pretend = 0, frame = 8
 1801              		@ frame_needed = 0, uses_anonymous_args = 0
 1802 0000 30B5     		push	{r4, r5, lr}
 1803              		.cfi_def_cfa_offset 12
 1804              		.cfi_offset 4, -12
 1805              		.cfi_offset 5, -8
 1806              		.cfi_offset 14, -4
 1807 0002 83B0     		sub	sp, sp, #12
 1808              		.cfi_def_cfa_offset 24
 1809              	.LVL219:
 819:..\source/cal.c ****     uint8 digits[6];
 820:..\source/cal.c ****     uint8 index = 0;
 1810              		.loc 1 820 0
 1811 0004 0024     		movs	r4, #0
 1812              	.LVL220:
 1813              	.L148:
 821:..\source/cal.c ****     uint8 value;
 822:..\source/cal.c ****     do
 823:..\source/cal.c ****     {
 824:..\source/cal.c ****         Ser_Update();
 1814              		.loc 1 824 0
 1815 0006 FFF7FEFF 		bl	Ser_Update
 1816              	.LVL221:
 825:..\source/cal.c ****         
 826:..\source/cal.c ****         value = Ser_ReadByte();
 1817              		.loc 1 826 0
 1818 000a FFF7FEFF 		bl	Ser_ReadByte
 1819              	.LVL222:
 1820 000e 0546     		mov	r5, r0
 1821              	.LVL223:
 827:..\source/cal.c ****         Ser_WriteByte(value);
 1822              		.loc 1 827 0
 1823 0010 FFF7FEFF 		bl	Ser_WriteByte
ARM GAS  C:\Users\Tim\AppData\Local\Temp\ccELkyeR.s 			page 50


 1824              	.LVL224:
 828:..\source/cal.c ****         if ( (value >= '0' && value <= '9') || value == '.')
 1825              		.loc 1 828 0
 1826 0014 A5F13003 		sub	r3, r5, #48
 1827 0018 DBB2     		uxtb	r3, r3
 1828 001a 092B     		cmp	r3, #9
 1829 001c 01D9     		bls	.L146
 1830              		.loc 1 828 0 is_stmt 0 discriminator 1
 1831 001e 2E2D     		cmp	r5, #46
 1832 0020 05D1     		bne	.L147
 1833              	.L146:
 829:..\source/cal.c ****         {
 830:..\source/cal.c ****             digits[index] = value;
 1834              		.loc 1 830 0 is_stmt 1
 1835 0022 02AB     		add	r3, sp, #8
 1836 0024 2344     		add	r3, r3, r4
 1837 0026 03F8085C 		strb	r5, [r3, #-8]
 831:..\source/cal.c ****             index++;
 1838              		.loc 1 831 0
 1839 002a 0134     		adds	r4, r4, #1
 1840              	.LVL225:
 1841 002c E4B2     		uxtb	r4, r4
 1842              	.LVL226:
 1843              	.L147:
 832:..\source/cal.c ****         }
 833:..\source/cal.c ****     } while (index < 5);
 1844              		.loc 1 833 0
 1845 002e 042C     		cmp	r4, #4
 1846 0030 E9D9     		bls	.L148
 834:..\source/cal.c ****     
 835:..\source/cal.c ****     digits[5] = '\0';
 1847              		.loc 1 835 0
 1848 0032 0023     		movs	r3, #0
 1849 0034 8DF80530 		strb	r3, [sp, #5]
 836:..\source/cal.c ****     
 837:..\source/cal.c ****     float result = atof((char *) digits);
 1850              		.loc 1 837 0
 1851 0038 6846     		mov	r0, sp
 1852 003a FFF7FEFF 		bl	atof
 1853              	.LVL227:
 1854 003e FFF7FEFF 		bl	__aeabi_d2f
 1855              	.LVL228:
 838:..\source/cal.c ****     
 839:..\source/cal.c ****     return result;
 840:..\source/cal.c **** }
 1856              		.loc 1 840 0
 1857 0042 03B0     		add	sp, sp, #12
 1858              		.cfi_def_cfa_offset 12
 1859              		@ sp needed
 1860 0044 30BD     		pop	{r4, r5, pc}
 1861              		.cfi_endproc
 1862              	.LFE84:
 1863              		.size	Cal_ReadResponse, .-Cal_ReadResponse
 1864 0046 00BF     		.section	.text.Cal_LeftGetPidGains,"ax",%progbits
 1865              		.align	2
 1866              		.global	Cal_LeftGetPidGains
 1867              		.thumb
ARM GAS  C:\Users\Tim\AppData\Local\Temp\ccELkyeR.s 			page 51


 1868              		.thumb_func
 1869              		.type	Cal_LeftGetPidGains, %function
 1870              	Cal_LeftGetPidGains:
 1871              	.LFB85:
 841:..\source/cal.c **** 
 842:..\source/cal.c **** /*-------------------------------------------------------------------------------------------------
 843:..\source/cal.c ****  * Name: Cal_LeftGetPidGains/Cal_RightGetPidGains
 844:..\source/cal.c ****  * Description: Returns the left/right PID gains from EEPROM. 
 845:..\source/cal.c ****  * Parameters: None
 846:..\source/cal.c ****  * Return: pointer to CAL_PID_TYPE
 847:..\source/cal.c ****  * 
 848:..\source/cal.c ****  *-------------------------------------------------------------------------------------------------
 849:..\source/cal.c **** CAL_PID_TYPE * Cal_LeftGetPidGains()
 850:..\source/cal.c **** {
 1872              		.loc 1 850 0
 1873              		.cfi_startproc
 1874              		@ args = 0, pretend = 0, frame = 0
 1875              		@ frame_needed = 0, uses_anonymous_args = 0
 1876              		@ link register save eliminated.
 851:..\source/cal.c ****     return (CAL_PID_TYPE *) &p_cal_eeprom->left_gains;
 1877              		.loc 1 851 0
 1878 0000 014B     		ldr	r3, .L151
 1879 0002 1868     		ldr	r0, [r3]
 852:..\source/cal.c **** }
 1880              		.loc 1 852 0
 1881 0004 0830     		adds	r0, r0, #8
 1882 0006 7047     		bx	lr
 1883              	.L152:
 1884              		.align	2
 1885              	.L151:
 1886 0008 00000000 		.word	p_cal_eeprom
 1887              		.cfi_endproc
 1888              	.LFE85:
 1889              		.size	Cal_LeftGetPidGains, .-Cal_LeftGetPidGains
 1890              		.section	.text.Cal_RightGetPidGains,"ax",%progbits
 1891              		.align	2
 1892              		.global	Cal_RightGetPidGains
 1893              		.thumb
 1894              		.thumb_func
 1895              		.type	Cal_RightGetPidGains, %function
 1896              	Cal_RightGetPidGains:
 1897              	.LFB86:
 853:..\source/cal.c **** 
 854:..\source/cal.c **** CAL_PID_TYPE * Cal_RightGetPidGains()
 855:..\source/cal.c **** {
 1898              		.loc 1 855 0
 1899              		.cfi_startproc
 1900              		@ args = 0, pretend = 0, frame = 0
 1901              		@ frame_needed = 0, uses_anonymous_args = 0
 1902              		@ link register save eliminated.
 856:..\source/cal.c ****     return (CAL_PID_TYPE *) &p_cal_eeprom->right_gains;
 1903              		.loc 1 856 0
 1904 0000 014B     		ldr	r3, .L154
 1905 0002 1868     		ldr	r0, [r3]
 857:..\source/cal.c **** }
 1906              		.loc 1 857 0
 1907 0004 1830     		adds	r0, r0, #24
ARM GAS  C:\Users\Tim\AppData\Local\Temp\ccELkyeR.s 			page 52


 1908 0006 7047     		bx	lr
 1909              	.L155:
 1910              		.align	2
 1911              	.L154:
 1912 0008 00000000 		.word	p_cal_eeprom
 1913              		.cfi_endproc
 1914              	.LFE86:
 1915              		.size	Cal_RightGetPidGains, .-Cal_RightGetPidGains
 1916              		.section	.text.Cal_SetLeftRightVelocity,"ax",%progbits
 1917              		.align	2
 1918              		.global	Cal_SetLeftRightVelocity
 1919              		.thumb
 1920              		.thumb_func
 1921              		.type	Cal_SetLeftRightVelocity, %function
 1922              	Cal_SetLeftRightVelocity:
 1923              	.LFB87:
 858:..\source/cal.c **** 
 859:..\source/cal.c **** /*-------------------------------------------------------------------------------------------------
 860:..\source/cal.c ****  * Name: Cal_SetLeftRightVelocity
 861:..\source/cal.c ****  * Description: Sets the left/right velocity for calibration/validation.  This routine is called fr
 862:..\source/cal.c ****  *              calibration submodules to set wheel speed. 
 863:..\source/cal.c ****  * Parameters: left - the left wheel speed in meter/second 
 864:..\source/cal.c ****  *             right - the right wheel speed in meter/second 
 865:..\source/cal.c ****  * Return: None
 866:..\source/cal.c ****  * 
 867:..\source/cal.c ****  *-------------------------------------------------------------------------------------------------
 868:..\source/cal.c **** void Cal_SetLeftRightVelocity(float left, float right)
 869:..\source/cal.c **** {
 1924              		.loc 1 869 0
 1925              		.cfi_startproc
 1926              		@ args = 0, pretend = 0, frame = 0
 1927              		@ frame_needed = 0, uses_anonymous_args = 0
 1928              		@ link register save eliminated.
 1929              	.LVL229:
 870:..\source/cal.c ****     left_cmd_velocity = left;
 1930              		.loc 1 870 0
 1931 0000 014B     		ldr	r3, .L157
 1932 0002 1860     		str	r0, [r3]	@ float
 871:..\source/cal.c ****     right_cmd_velocity = right;
 1933              		.loc 1 871 0
 1934 0004 5960     		str	r1, [r3, #4]	@ float
 1935 0006 7047     		bx	lr
 1936              	.L158:
 1937              		.align	2
 1938              	.L157:
 1939 0008 00000000 		.word	.LANCHOR0
 1940              		.cfi_endproc
 1941              	.LFE87:
 1942              		.size	Cal_SetLeftRightVelocity, .-Cal_SetLeftRightVelocity
 1943              		.global	__aeabi_fcmpgt
 1944              		.global	__aeabi_i2f
 1945              		.global	__aeabi_fmul
 1946              		.global	__aeabi_f2iz
 1947              		.section	.text.Cal_CpsToPwm,"ax",%progbits
 1948              		.align	2
 1949              		.global	Cal_CpsToPwm
 1950              		.thumb
ARM GAS  C:\Users\Tim\AppData\Local\Temp\ccELkyeR.s 			page 53


 1951              		.thumb_func
 1952              		.type	Cal_CpsToPwm, %function
 1953              	Cal_CpsToPwm:
 1954              	.LFB88:
 872:..\source/cal.c **** }
 873:..\source/cal.c **** 
 874:..\source/cal.c **** /*-------------------------------------------------------------------------------------------------
 875:..\source/cal.c ****  * Name: Cal_CpsToPwm
 876:..\source/cal.c ****  * Description: Public routine used to obtain a PWM value for a given wheel and count/sec 
 877:..\source/cal.c ****  * Parameters: wheel - left/right wheel 
 878:..\source/cal.c ****  *             cps - count/second
 879:..\source/cal.c ****  * Return: PWM_TYPE - PWM
 880:..\source/cal.c ****  * 
 881:..\source/cal.c ****  *-------------------------------------------------------------------------------------------------
 882:..\source/cal.c **** PWM_TYPE Cal_CpsToPwm(WHEEL_TYPE wheel, float cps)
 883:..\source/cal.c **** {
 1955              		.loc 1 883 0
 1956              		.cfi_startproc
 1957              		@ args = 0, pretend = 0, frame = 0
 1958              		@ frame_needed = 0, uses_anonymous_args = 0
 1959              	.LVL230:
 1960 0000 F8B5     		push	{r3, r4, r5, r6, r7, lr}
 1961              		.cfi_def_cfa_offset 24
 1962              		.cfi_offset 3, -24
 1963              		.cfi_offset 4, -20
 1964              		.cfi_offset 5, -16
 1965              		.cfi_offset 6, -12
 1966              		.cfi_offset 7, -8
 1967              		.cfi_offset 14, -4
 1968              	.LVL231:
 884:..\source/cal.c ****     static uint8 send_once = 0;
 885:..\source/cal.c ****     PWM_TYPE pwm;
 886:..\source/cal.c ****     
 887:..\source/cal.c ****     
 888:..\source/cal.c ****     pwm = PWM_STOP;
 889:..\source/cal.c ****     
 890:..\source/cal.c ****     /* The conversion from CPS to PWM is valid only when calibration has been performed */
 891:..\source/cal.c ****     
 892:..\source/cal.c ****     if (p_cal_eeprom->status & CAL_MOTOR_BIT)
 1969              		.loc 1 892 0
 1970 0002 224B     		ldr	r3, .L165
 1971 0004 1B68     		ldr	r3, [r3]
 1972 0006 1B88     		ldrh	r3, [r3]
 1973 0008 13F0010F 		tst	r3, #1
 1974 000c 2ED0     		beq	.L160
 1975 000e 0646     		mov	r6, r0
 1976 0010 0D46     		mov	r5, r1
 1977              	.LBB2:
 893:..\source/cal.c ****     {
 894:..\source/cal.c ****     
 895:..\source/cal.c ****         CAL_DATA_TYPE *p_cal_data = WHEEL_DIR_TO_CAL_DATA[wheel][cps > 0 ? 0 : 1];
 1978              		.loc 1 895 0
 1979 0012 4FF00104 		mov	r4, #1
 1980 0016 0846     		mov	r0, r1
 1981              	.LVL232:
 1982 0018 0021     		movs	r1, #0
 1983              	.LVL233:
ARM GAS  C:\Users\Tim\AppData\Local\Temp\ccELkyeR.s 			page 54


 1984 001a FFF7FEFF 		bl	__aeabi_fcmpgt
 1985              	.LVL234:
 1986 001e 08B9     		cbnz	r0, .L161
 1987 0020 4FF00004 		mov	r4, #0
 1988              	.L161:
 1989 0024 E0B2     		uxtb	r0, r4
 1990 0026 80F00100 		eor	r0, r0, #1
 1991 002a 00EB4600 		add	r0, r0, r6, lsl #1
 1992 002e 184B     		ldr	r3, .L165+4
 1993 0030 53F82040 		ldr	r4, [r3, r0, lsl #2]
 1994              	.LVL235:
 896:..\source/cal.c ****         
 897:..\source/cal.c ****         cps = constrain((int32)(cps * p_cal_data->cps_scale), p_cal_data->cps_min, p_cal_data->cps_
 1995              		.loc 1 897 0
 1996 0034 6768     		ldr	r7, [r4, #4]	@ unaligned
 1997 0036 2668     		ldr	r6, [r4]	@ unaligned
 1998 0038 A068     		ldr	r0, [r4, #8]	@ unaligned
 1999 003a FFF7FEFF 		bl	__aeabi_i2f
 2000              	.LVL236:
 2001 003e 2946     		mov	r1, r5
 2002 0040 FFF7FEFF 		bl	__aeabi_fmul
 2003              	.LVL237:
 2004 0044 FFF7FEFF 		bl	__aeabi_f2iz
 2005              	.LVL238:
 2006 0048 B042     		cmp	r0, r6
 2007 004a B8BF     		it	lt
 2008 004c 3046     		movlt	r0, r6
 2009 004e B842     		cmp	r0, r7
 2010 0050 A8BF     		it	ge
 2011 0052 3846     		movge	r0, r7
 2012 0054 FFF7FEFF 		bl	__aeabi_i2f
 2013              	.LVL239:
 898:..\source/cal.c ****         pwm = CpsToPwm(cps, &p_cal_data->cps_data[0], &p_cal_data->pwm_data[0], CAL_DATA_SIZE);
 2014              		.loc 1 898 0
 2015 0058 FFF7FEFF 		bl	__aeabi_f2iz
 2016              	.LVL240:
 2017 005c 04F10C01 		add	r1, r4, #12
 2018 0060 04F1D802 		add	r2, r4, #216
 2019 0064 3323     		movs	r3, #51
 2020 0066 FFF7FEFF 		bl	CpsToPwm
 2021              	.LVL241:
 2022              	.LBE2:
 2023 006a F8BD     		pop	{r3, r4, r5, r6, r7, pc}
 2024              	.LVL242:
 2025              	.L160:
 899:..\source/cal.c ****     }
 900:..\source/cal.c ****     else
 901:..\source/cal.c ****     {
 902:..\source/cal.c ****         if (!send_once)
 2026              		.loc 1 902 0
 2027 006c 094B     		ldr	r3, .L165+8
 2028 006e 5B7C     		ldrb	r3, [r3, #17]	@ zero_extendqisi2
 2029 0070 43B9     		cbnz	r3, .L163
 903:..\source/cal.c ****         {
 904:..\source/cal.c ****             Ser_PutString("Motor calibration status not set\r\n");
 2030              		.loc 1 904 0
 2031 0072 0948     		ldr	r0, .L165+12
ARM GAS  C:\Users\Tim\AppData\Local\Temp\ccELkyeR.s 			page 55


 2032              	.LVL243:
 2033 0074 FFF7FEFF 		bl	Ser_PutString
 2034              	.LVL244:
 905:..\source/cal.c ****             send_once = 1;
 2035              		.loc 1 905 0
 2036 0078 0122     		movs	r2, #1
 2037 007a 064B     		ldr	r3, .L165+8
 2038 007c 5A74     		strb	r2, [r3, #17]
 888:..\source/cal.c ****     
 2039              		.loc 1 888 0
 2040 007e 40F2DC50 		movw	r0, #1500
 2041 0082 F8BD     		pop	{r3, r4, r5, r6, r7, pc}
 2042              	.LVL245:
 2043              	.L163:
 2044 0084 40F2DC50 		movw	r0, #1500
 2045              	.LVL246:
 906:..\source/cal.c ****         }
 907:..\source/cal.c ****     }
 908:..\source/cal.c **** 
 909:..\source/cal.c ****     return pwm;
 910:..\source/cal.c **** }
 2046              		.loc 1 910 0
 2047 0088 F8BD     		pop	{r3, r4, r5, r6, r7, pc}
 2048              	.L166:
 2049 008a 00BF     		.align	2
 2050              	.L165:
 2051 008c 00000000 		.word	p_cal_eeprom
 2052 0090 00000000 		.word	WHEEL_DIR_TO_CAL_DATA
 2053 0094 00000000 		.word	.LANCHOR0
 2054 0098 000B0000 		.word	.LC52
 2055              		.cfi_endproc
 2056              	.LFE88:
 2057              		.size	Cal_CpsToPwm, .-Cal_CpsToPwm
 2058              		.section	.text.Cal_Clear,"ax",%progbits
 2059              		.align	2
 2060              		.global	Cal_Clear
 2061              		.thumb
 2062              		.thumb_func
 2063              		.type	Cal_Clear, %function
 2064              	Cal_Clear:
 2065              	.LFB89:
 911:..\source/cal.c **** 
 912:..\source/cal.c **** /*-------------------------------------------------------------------------------------------------
 913:..\source/cal.c ****  * Name: Cal_Clear
 914:..\source/cal.c ****  * Description: Clears the motor and PID calibration bits. 
 915:..\source/cal.c ****  * Parameters: None
 916:..\source/cal.c ****  * Return: None
 917:..\source/cal.c ****  * 
 918:..\source/cal.c ****  *-------------------------------------------------------------------------------------------------
 919:..\source/cal.c **** void Cal_Clear()
 920:..\source/cal.c **** {
 2066              		.loc 1 920 0
 2067              		.cfi_startproc
 2068              		@ args = 0, pretend = 0, frame = 0
 2069              		@ frame_needed = 0, uses_anonymous_args = 0
 2070 0000 08B5     		push	{r3, lr}
 2071              		.cfi_def_cfa_offset 8
ARM GAS  C:\Users\Tim\AppData\Local\Temp\ccELkyeR.s 			page 56


 2072              		.cfi_offset 3, -8
 2073              		.cfi_offset 14, -4
 921:..\source/cal.c ****     ClearCalibrationStatusBit(CAL_MOTOR_BIT);
 2074              		.loc 1 921 0
 2075 0002 0120     		movs	r0, #1
 2076 0004 FFF7FEFF 		bl	ClearCalibrationStatusBit
 2077              	.LVL247:
 922:..\source/cal.c ****     ClearCalibrationStatusBit(CAL_PID_BIT);
 2078              		.loc 1 922 0
 2079 0008 0220     		movs	r0, #2
 2080 000a FFF7FEFF 		bl	ClearCalibrationStatusBit
 2081              	.LVL248:
 2082 000e 08BD     		pop	{r3, pc}
 2083              		.cfi_endproc
 2084              	.LFE89:
 2085              		.size	Cal_Clear, .-Cal_Clear
 2086              		.global	__aeabi_fcmplt
 2087              		.global	__aeabi_fsub
 2088              		.global	__aeabi_fdiv
 2089              		.global	__aeabi_fadd
 2090              		.section	.text.Cal_CalcTriangularProfile,"ax",%progbits
 2091              		.align	2
 2092              		.global	Cal_CalcTriangularProfile
 2093              		.thumb
 2094              		.thumb_func
 2095              		.type	Cal_CalcTriangularProfile, %function
 2096              	Cal_CalcTriangularProfile:
 2097              	.LFB90:
 923:..\source/cal.c **** }
 924:..\source/cal.c **** 
 925:..\source/cal.c **** /*-------------------------------------------------------------------------------------------------
 926:..\source/cal.c ****  * Name: Cal_CalcTriangularProfile
 927:..\source/cal.c ****  * Description: Calculates an array of values using a triangle profile based on a calibrated motor 
 928:..\source/cal.c ****  *              values. 
 929:..\source/cal.c ****  * Parameters: num_points - the number of points in the profile (must be odd) 
 930:..\source/cal.c ****  *             lower_limit - the start/end value as a percentage of the maximum motor value
 931:..\source/cal.c ****  *             upper_limit - the maximum value as a percentage of the maximum motor value
 932:..\source/cal.c ****  *             forward_profile - profile for the forward direction
 933:..\source/cal.c ****  *             backward_profile - profile for the backward direction
 934:..\source/cal.c ****  * Return: None
 935:..\source/cal.c ****  * 
 936:..\source/cal.c ****  *-------------------------------------------------------------------------------------------------
 937:..\source/cal.c **** void Cal_CalcTriangularProfile(uint8 num_points, float lower_limit, float upper_limit, float *forwa
 938:..\source/cal.c **** /* This routine calculates a series of count/second values in a triangle profile (slow, fast, slow)
 939:..\source/cal.c ****    calibration data to determine a range  of forward and reverse values for each wheel.  The routin
 940:..\source/cal.c ****    motor validation to confirm that motor calibration conversion from count/second to pwm is reason
 941:..\source/cal.c ****  */
 942:..\source/cal.c **** {
 2098              		.loc 1 942 0
 2099              		.cfi_startproc
 2100              		@ args = 4, pretend = 0, frame = 16
 2101              		@ frame_needed = 0, uses_anonymous_args = 0
 2102              	.LVL249:
 2103 0000 2DE9F04F 		push	{r4, r5, r6, r7, r8, r9, r10, fp, lr}
 2104              		.cfi_def_cfa_offset 36
 2105              		.cfi_offset 4, -36
 2106              		.cfi_offset 5, -32
ARM GAS  C:\Users\Tim\AppData\Local\Temp\ccELkyeR.s 			page 57


 2107              		.cfi_offset 6, -28
 2108              		.cfi_offset 7, -24
 2109              		.cfi_offset 8, -20
 2110              		.cfi_offset 9, -16
 2111              		.cfi_offset 10, -12
 2112              		.cfi_offset 11, -8
 2113              		.cfi_offset 14, -4
 2114 0004 85B0     		sub	sp, sp, #20
 2115              		.cfi_def_cfa_offset 56
 2116 0006 8046     		mov	r8, r0
 2117 0008 0F46     		mov	r7, r1
 2118 000a 1446     		mov	r4, r2
 2119 000c 9A46     		mov	r10, r3
 2120 000e DDF838B0 		ldr	fp, [sp, #56]
 943:..\source/cal.c ****     uint8 ii;
 944:..\source/cal.c **** 
 945:..\source/cal.c ****     memset(forward_profile, 0, num_points * sizeof(float));
 2121              		.loc 1 945 0
 2122 0012 8500     		lsls	r5, r0, #2
 2123 0014 1846     		mov	r0, r3
 2124              	.LVL250:
 2125 0016 0021     		movs	r1, #0
 2126              	.LVL251:
 2127 0018 2A46     		mov	r2, r5
 2128              	.LVL252:
 2129 001a FFF7FEFF 		bl	memset
 2130              	.LVL253:
 946:..\source/cal.c ****     memset(backward_profile, 0, num_points * sizeof(float));
 2131              		.loc 1 946 0
 2132 001e 5846     		mov	r0, fp
 2133 0020 0021     		movs	r1, #0
 2134 0022 2A46     		mov	r2, r5
 2135 0024 FFF7FEFF 		bl	memset
 2136              	.LVL254:
 947:..\source/cal.c **** 
 948:..\source/cal.c ****     if( num_points % 2 == 0 )
 2137              		.loc 1 948 0
 2138 0028 18F0010F 		tst	r8, #1
 2139 002c 00F08D80 		beq	.L169
 949:..\source/cal.c ****     {
 950:..\source/cal.c ****         return;
 951:..\source/cal.c ****     }
 952:..\source/cal.c ****     
 953:..\source/cal.c ****     if (p_cal_eeprom->status & CAL_MOTOR_BIT)
 2140              		.loc 1 953 0
 2141 0030 474B     		ldr	r3, .L182
 2142 0032 1D68     		ldr	r5, [r3]
 2143 0034 2B88     		ldrh	r3, [r5]
 2144 0036 13F0010F 		tst	r3, #1
 2145 003a 00F08680 		beq	.L169
 2146              	.LBB3:
 954:..\source/cal.c ****     {    
 955:..\source/cal.c ****         float left_forward_cps_max = p_cal_eeprom->left_motor_fwd.cps_max / p_cal_eeprom->left_moto
 2147              		.loc 1 955 0
 2148 003e E86C     		ldr	r0, [r5, #76]
 2149 0040 2B6D     		ldr	r3, [r5, #80]
 2150 0042 90FBF3F0 		sdiv	r0, r0, r3
ARM GAS  C:\Users\Tim\AppData\Local\Temp\ccELkyeR.s 			page 58


 2151 0046 FFF7FEFF 		bl	__aeabi_i2f
 2152              	.LVL255:
 2153 004a 0190     		str	r0, [sp, #4]	@ float
 2154              	.LVL256:
 956:..\source/cal.c ****         float right_forward_cps_max = p_cal_eeprom->right_motor_fwd.cps_max / p_cal_eeprom->right_m
 2155              		.loc 1 956 0
 2156 004c D5F8CC02 		ldr	r0, [r5, #716]
 2157              	.LVL257:
 2158 0050 D5F8D032 		ldr	r3, [r5, #720]
 2159 0054 90FBF3F0 		sdiv	r0, r0, r3
 2160 0058 FFF7FEFF 		bl	__aeabi_i2f
 2161              	.LVL258:
 2162 005c 0646     		mov	r6, r0
 2163              	.LVL259:
 957:..\source/cal.c ****         float left_backward_cps_min = p_cal_eeprom->left_motor_bwd.cps_min / p_cal_eeprom->left_mot
 2164              		.loc 1 957 0
 2165 005e D5F88801 		ldr	r0, [r5, #392]
 2166              	.LVL260:
 2167 0062 D5F89031 		ldr	r3, [r5, #400]
 2168 0066 90FBF3F0 		sdiv	r0, r0, r3
 2169 006a FFF7FEFF 		bl	__aeabi_i2f
 2170              	.LVL261:
 2171 006e 8146     		mov	r9, r0
 2172              	.LVL262:
 958:..\source/cal.c ****         float right_backward_cps_min = p_cal_eeprom->right_motor_bwd.cps_min / p_cal_eeprom->right_
 2173              		.loc 1 958 0
 2174 0070 D5F80804 		ldr	r0, [r5, #1032]
 2175              	.LVL263:
 2176 0074 D5F81034 		ldr	r3, [r5, #1040]
 2177 0078 90FBF3F0 		sdiv	r0, r0, r3
 2178 007c FFF7FEFF 		bl	__aeabi_i2f
 2179              	.LVL264:
 2180 0080 0546     		mov	r5, r0
 2181              	.LVL265:
 959:..\source/cal.c **** 
 960:..\source/cal.c ****         float forward_cps_max = min(left_forward_cps_max, right_forward_cps_max);
 2182              		.loc 1 960 0
 2183 0082 0198     		ldr	r0, [sp, #4]	@ float
 2184              	.LVL266:
 2185 0084 3146     		mov	r1, r6
 2186 0086 FFF7FEFF 		bl	__aeabi_fcmplt
 2187              	.LVL267:
 2188 008a 00B1     		cbz	r0, .L171
 2189 008c 019E     		ldr	r6, [sp, #4]	@ float
 2190              	.LVL268:
 2191              	.L171:
 961:..\source/cal.c ****         /* Note: Backward values are negative */
 962:..\source/cal.c ****         float backward_cps_max = max(left_backward_cps_min, right_backward_cps_min);
 2192              		.loc 1 962 0 discriminator 4
 2193 008e 4846     		mov	r0, r9
 2194 0090 2946     		mov	r1, r5
 2195 0092 FFF7FEFF 		bl	__aeabi_fcmpgt
 2196              	.LVL269:
 2197 0096 00B1     		cbz	r0, .L173
 2198              		.loc 1 962 0 is_stmt 0
 2199 0098 4D46     		mov	r5, r9
 2200              	.LVL270:
ARM GAS  C:\Users\Tim\AppData\Local\Temp\ccELkyeR.s 			page 59


 2201              	.L173:
 963:..\source/cal.c ****         
 964:..\source/cal.c ****         float fwd_cps_start = lower_limit * forward_cps_max;
 2202              		.loc 1 964 0 is_stmt 1 discriminator 4
 2203 009a 3046     		mov	r0, r6
 2204 009c 3946     		mov	r1, r7
 2205 009e FFF7FEFF 		bl	__aeabi_fmul
 2206              	.LVL271:
 2207 00a2 8146     		mov	r9, r0
 2208              	.LVL272:
 965:..\source/cal.c ****         float fwd_cps_end = upper_limit * forward_cps_max;
 2209              		.loc 1 965 0 discriminator 4
 2210 00a4 3046     		mov	r0, r6
 2211              	.LVL273:
 2212 00a6 2146     		mov	r1, r4
 2213 00a8 FFF7FEFF 		bl	__aeabi_fmul
 2214              	.LVL274:
 2215 00ac 0646     		mov	r6, r0
 2216              	.LVL275:
 966:..\source/cal.c ****         float bwd_cps_start = lower_limit * backward_cps_max;
 2217              		.loc 1 966 0 discriminator 4
 2218 00ae 2846     		mov	r0, r5
 2219              	.LVL276:
 2220 00b0 3946     		mov	r1, r7
 2221 00b2 FFF7FEFF 		bl	__aeabi_fmul
 2222              	.LVL277:
 2223 00b6 0190     		str	r0, [sp, #4]	@ float
 2224              	.LVL278:
 967:..\source/cal.c ****         float bwd_cps_end = upper_limit * backward_cps_max;
 2225              		.loc 1 967 0 discriminator 4
 2226 00b8 2846     		mov	r0, r5
 2227              	.LVL279:
 2228 00ba 2146     		mov	r1, r4
 2229 00bc FFF7FEFF 		bl	__aeabi_fmul
 2230              	.LVL280:
 2231 00c0 0746     		mov	r7, r0
 2232              	.LVL281:
 968:..\source/cal.c **** 
 969:..\source/cal.c ****         uint8 mid_sample_offset = num_points / 2;
 2233              		.loc 1 969 0 discriminator 4
 2234 00c2 4FEA5804 		lsr	r4, r8, #1
 2235              	.LVL282:
 970:..\source/cal.c ****         
 971:..\source/cal.c ****         float fwd_cps_delta = (fwd_cps_end - fwd_cps_start)/mid_sample_offset;
 2236              		.loc 1 971 0 discriminator 4
 2237 00c6 3046     		mov	r0, r6
 2238              	.LVL283:
 2239 00c8 4946     		mov	r1, r9
 2240 00ca FFF7FEFF 		bl	__aeabi_fsub
 2241              	.LVL284:
 2242 00ce 0290     		str	r0, [sp, #8]	@ float
 2243 00d0 2046     		mov	r0, r4
 2244 00d2 FFF7FEFF 		bl	__aeabi_i2f
 2245              	.LVL285:
 2246 00d6 0546     		mov	r5, r0
 2247              	.LVL286:
 2248 00d8 0298     		ldr	r0, [sp, #8]	@ float
ARM GAS  C:\Users\Tim\AppData\Local\Temp\ccELkyeR.s 			page 60


 2249 00da 2946     		mov	r1, r5
 2250 00dc FFF7FEFF 		bl	__aeabi_fdiv
 2251              	.LVL287:
 2252 00e0 0290     		str	r0, [sp, #8]	@ float
 2253              	.LVL288:
 972:..\source/cal.c ****         float bwd_cps_delta = (bwd_cps_end - bwd_cps_start)/mid_sample_offset;
 2254              		.loc 1 972 0 discriminator 4
 2255 00e2 3846     		mov	r0, r7
 2256              	.LVL289:
 2257 00e4 0199     		ldr	r1, [sp, #4]	@ float
 2258 00e6 FFF7FEFF 		bl	__aeabi_fsub
 2259              	.LVL290:
 2260 00ea 2946     		mov	r1, r5
 2261 00ec FFF7FEFF 		bl	__aeabi_fdiv
 2262              	.LVL291:
 2263 00f0 0390     		str	r0, [sp, #12]	@ float
 2264              	.LVL292:
 973:..\source/cal.c **** 
 974:..\source/cal.c ****         
 975:..\source/cal.c ****         forward_profile[mid_sample_offset] = fwd_cps_end;
 2265              		.loc 1 975 0 discriminator 4
 2266 00f2 4AF82460 		str	r6, [r10, r4, lsl #2]	@ float
 976:..\source/cal.c ****         backward_profile[mid_sample_offset] = bwd_cps_end;
 2267              		.loc 1 976 0 discriminator 4
 2268 00f6 4BF82470 		str	r7, [fp, r4, lsl #2]	@ float
 2269              	.LVL293:
 977:..\source/cal.c ****         
 978:..\source/cal.c ****         float fwd_value = fwd_cps_start;
 979:..\source/cal.c ****         float bwd_value = bwd_cps_start;
 980:..\source/cal.c ****         for (ii = 0; ii < mid_sample_offset; ++ii)
 2270              		.loc 1 980 0 discriminator 4
 2271 00fa 0025     		movs	r5, #0
 2272 00fc 10E0     		b	.L175
 2273              	.LVL294:
 2274              	.L176:
 981:..\source/cal.c ****         {
 982:..\source/cal.c ****             forward_profile[ii] = fwd_value;
 2275              		.loc 1 982 0 discriminator 3
 2276 00fe 4AF82590 		str	r9, [r10, r5, lsl #2]	@ float
 983:..\source/cal.c ****             backward_profile[ii] = bwd_value;
 2277              		.loc 1 983 0 discriminator 3
 2278 0102 019B     		ldr	r3, [sp, #4]	@ float
 2279 0104 4BF82530 		str	r3, [fp, r5, lsl #2]	@ float
 984:..\source/cal.c ****             
 985:..\source/cal.c ****             fwd_value += fwd_cps_delta;
 2280              		.loc 1 985 0 discriminator 3
 2281 0108 4846     		mov	r0, r9
 2282 010a 0299     		ldr	r1, [sp, #8]	@ float
 2283 010c FFF7FEFF 		bl	__aeabi_fadd
 2284              	.LVL295:
 2285 0110 8146     		mov	r9, r0
 2286              	.LVL296:
 986:..\source/cal.c ****             bwd_value += bwd_cps_delta;
 2287              		.loc 1 986 0 discriminator 3
 2288 0112 0198     		ldr	r0, [sp, #4]	@ float
 2289              	.LVL297:
 2290 0114 0399     		ldr	r1, [sp, #12]	@ float
ARM GAS  C:\Users\Tim\AppData\Local\Temp\ccELkyeR.s 			page 61


 2291 0116 FFF7FEFF 		bl	__aeabi_fadd
 2292              	.LVL298:
 2293 011a 0190     		str	r0, [sp, #4]	@ float
 2294              	.LVL299:
 980:..\source/cal.c ****         {
 2295              		.loc 1 980 0 discriminator 3
 2296 011c 0135     		adds	r5, r5, #1
 2297              	.LVL300:
 2298 011e EDB2     		uxtb	r5, r5
 2299              	.LVL301:
 2300              	.L175:
 980:..\source/cal.c ****         {
 2301              		.loc 1 980 0 is_stmt 0 discriminator 1
 2302 0120 A542     		cmp	r5, r4
 2303 0122 ECD3     		bcc	.L176
 2304 0124 0FE0     		b	.L177
 2305              	.LVL302:
 2306              	.L178:
 987:..\source/cal.c ****         }
 988:..\source/cal.c ****         
 989:..\source/cal.c ****         fwd_value = fwd_cps_end;
 990:..\source/cal.c ****         bwd_value = bwd_cps_end;
 991:..\source/cal.c ****         for (ii = mid_sample_offset; ii < num_points; ++ii)
 992:..\source/cal.c ****         {
 993:..\source/cal.c ****             forward_profile[ii] = fwd_value;
 2307              		.loc 1 993 0 is_stmt 1 discriminator 3
 2308 0126 4AF82460 		str	r6, [r10, r4, lsl #2]	@ float
 994:..\source/cal.c ****             backward_profile[ii] = bwd_value;
 2309              		.loc 1 994 0 discriminator 3
 2310 012a 4BF82470 		str	r7, [fp, r4, lsl #2]	@ float
 995:..\source/cal.c **** 
 996:..\source/cal.c ****             fwd_value -= fwd_cps_delta;
 2311              		.loc 1 996 0 discriminator 3
 2312 012e 3046     		mov	r0, r6
 2313 0130 0299     		ldr	r1, [sp, #8]	@ float
 2314 0132 FFF7FEFF 		bl	__aeabi_fsub
 2315              	.LVL303:
 2316 0136 0646     		mov	r6, r0
 2317              	.LVL304:
 997:..\source/cal.c ****             bwd_value -= bwd_cps_delta;
 2318              		.loc 1 997 0 discriminator 3
 2319 0138 3846     		mov	r0, r7
 2320              	.LVL305:
 2321 013a 0399     		ldr	r1, [sp, #12]	@ float
 2322 013c FFF7FEFF 		bl	__aeabi_fsub
 2323              	.LVL306:
 2324 0140 0746     		mov	r7, r0
 2325              	.LVL307:
 991:..\source/cal.c ****         {
 2326              		.loc 1 991 0 discriminator 3
 2327 0142 0134     		adds	r4, r4, #1
 2328              	.LVL308:
 2329 0144 E4B2     		uxtb	r4, r4
 2330              	.LVL309:
 2331              	.L177:
 991:..\source/cal.c ****         {
 2332              		.loc 1 991 0 is_stmt 0 discriminator 1
ARM GAS  C:\Users\Tim\AppData\Local\Temp\ccELkyeR.s 			page 62


 2333 0146 4445     		cmp	r4, r8
 2334 0148 EDD3     		bcc	.L178
 2335              	.LVL310:
 2336              	.L169:
 2337              	.LBE3:
 998:..\source/cal.c ****         }
 999:..\source/cal.c ****     }
1000:..\source/cal.c **** }
 2338              		.loc 1 1000 0 is_stmt 1
 2339 014a 05B0     		add	sp, sp, #20
 2340              		.cfi_def_cfa_offset 36
 2341              		@ sp needed
 2342 014c BDE8F08F 		pop	{r4, r5, r6, r7, r8, r9, r10, fp, pc}
 2343              	.LVL311:
 2344              	.L183:
 2345              		.align	2
 2346              	.L182:
 2347 0150 00000000 		.word	p_cal_eeprom
 2348              		.cfi_endproc
 2349              	.LFE90:
 2350              		.size	Cal_CalcTriangularProfile, .-Cal_CalcTriangularProfile
 2351              		.global	cal_state_to_string
 2352              		.global	cal_stage_to_string
 2353              		.comm	debug_control_enabled,2,2
 2354              		.comm	formatted_string,256,4
 2355              		.comm	CalAng_Calibration,4,4
 2356              		.comm	CalLin_Validation,4,4
 2357              		.comm	CalPid_RightValidation,4,4
 2358              		.comm	CalPid_LeftValidation,4,4
 2359              		.comm	CalPid_RightCalibration,4,4
 2360              		.comm	CalPid_LeftCalibration,4,4
 2361              		.comm	CalMotor_Validation,4,4
 2362              		.comm	CalMotor_Calibration,4,4
 2363              		.comm	WHEEL_DIR_TO_CAL_DATA,16,4
 2364              		.comm	Cal_RightTarget,4,4
 2365              		.comm	Cal_LeftTarget,4,4
 2366              		.comm	p_cal_eeprom,4,4
 2367              		.data
 2368              		.align	2
 2369              		.set	.LANCHOR1,. + 0
 2370              		.type	cal_stage_to_string, %object
 2371              		.size	cal_stage_to_string, 8
 2372              	cal_stage_to_string:
 2373 0000 740B0000 		.word	.LC59
 2374 0004 800B0000 		.word	.LC60
 2375              		.type	cal_state_to_string, %object
 2376              		.size	cal_state_to_string, 24
 2377              	cal_state_to_string:
 2378 0008 240B0000 		.word	.LC53
 2379 000c 300B0000 		.word	.LC54
 2380 0010 3C0B0000 		.word	.LC55
 2381 0014 4C0B0000 		.word	.LC56
 2382 0018 580B0000 		.word	.LC57
 2383 001c 680B0000 		.word	.LC58
 2384              		.section	.rodata.str1.4,"aMS",%progbits,1
 2385              		.align	2
 2386              	.LC0:
ARM GAS  C:\Users\Tim\AppData\Local\Temp\ccELkyeR.s 			page 63


 2387 0000 0D0A5765 		.ascii	"\015\012Welcome to the Arlobot calibration interfac"
 2387      6C636F6D 
 2387      6520746F 
 2387      20746865 
 2387      2041726C 
 2388 002d 652E0D0A 		.ascii	"e.\015\012\000"
 2388      00
 2389 0032 0000     		.space	2
 2390              	.LC1:
 2391 0034 54686520 		.ascii	"The following calibration operations are allowed:\015"
 2391      666F6C6C 
 2391      6F77696E 
 2391      67206361 
 2391      6C696272 
 2392 0066 0A00     		.ascii	"\012\000"
 2393              	.LC2:
 2394 0068 20202020 		.ascii	"    1. Motor Calibration - creates mapping between "
 2394      312E204D 
 2394      6F746F72 
 2394      2043616C 
 2394      69627261 
 2395 009b 636F756E 		.ascii	"count/sec and PWM.\015\012\000"
 2395      742F7365 
 2395      6320616E 
 2395      64205057 
 2395      4D2E0D0A 
 2396              	.LC3:
 2397 00b0 20202020 		.ascii	"    2. PID Left Calibration - enter gains, execute "
 2397      322E2050 
 2397      4944204C 
 2397      65667420 
 2397      43616C69 
 2398 00e3 73746570 		.ascii	"step input, print velocity response.\015\012\000"
 2398      20696E70 
 2398      75742C20 
 2398      7072696E 
 2398      74207665 
 2399 010a 0000     		.space	2
 2400              	.LC4:
 2401 010c 20202020 		.ascii	"    3. PID Right Calibration - enter gains, execute"
 2401      332E2050 
 2401      49442052 
 2401      69676874 
 2401      2043616C 
 2402 013f 20737465 		.ascii	" step input, print velocity response.\015\012\000"
 2402      7020696E 
 2402      7075742C 
 2402      20707269 
 2402      6E742076 
 2403 0167 00       		.space	1
 2404              	.LC5:
 2405 0168 0D0A00   		.ascii	"\015\012\000"
 2406 016b 00       		.space	1
 2407              	.LC6:
 2408 016c 0D0A456E 		.ascii	"\015\012Enter X to exit calibration\015\012\000"
 2408      74657220 
 2408      5820746F 
ARM GAS  C:\Users\Tim\AppData\Local\Temp\ccELkyeR.s 			page 64


 2408      20657869 
 2408      74206361 
 2409              	.LC7:
 2410 018c 4D616B65 		.ascii	"Make an entry [1-3,X]: \000"
 2410      20616E20 
 2410      656E7472 
 2410      79205B31 
 2410      2D332C58 
 2411              	.LC8:
 2412 01a4 0D0A5765 		.ascii	"\015\012Welcome to the Arlobot validation interface"
 2412      6C636F6D 
 2412      6520746F 
 2412      20746865 
 2412      2041726C 
 2413 01d1 2E0D0A00 		.ascii	".\015\012\000"
 2414 01d5 000000   		.space	3
 2415              	.LC9:
 2416 01d8 54686520 		.ascii	"The following validation operations are allowed:\015"
 2416      666F6C6C 
 2416      6F77696E 
 2416      67207661 
 2416      6C696461 
 2417 0209 0A00     		.ascii	"\012\000"
 2418 020b 00       		.space	1
 2419              	.LC10:
 2420 020c 20202020 		.ascii	"    1. Motor Validation - operates the motors at va"
 2420      312E204D 
 2420      6F746F72 
 2420      2056616C 
 2420      69646174 
 2421 023f 7279696E 		.ascii	"rying velocities.\015\012\000"
 2421      67207665 
 2421      6C6F6369 
 2421      74696573 
 2421      2E0D0A00 
 2422 0253 00       		.space	1
 2423              	.LC11:
 2424 0254 20202020 		.ascii	"    2. PID Validation - operates the motors at vary"
 2424      322E2050 
 2424      49442056 
 2424      616C6964 
 2424      6174696F 
 2425 0287 696E6720 		.ascii	"ing velocities, moves in a straight line and rotate"
 2425      76656C6F 
 2425      63697469 
 2425      65732C20 
 2425      6D6F7665 
 2426 02ba 7320696E 		.ascii	"s in place.\015\012\000"
 2426      20706C61 
 2426      63652E0D 
 2426      0A00
 2427              	.LC12:
 2428 02c8 20202020 		.ascii	"    3. Left PID (forward) Validation - operates the"
 2428      332E204C 
 2428      65667420 
 2428      50494420 
 2428      28666F72 
ARM GAS  C:\Users\Tim\AppData\Local\Temp\ccELkyeR.s 			page 65


 2429 02fb 206C6566 		.ascii	" left motor in the forward direction at various vel"
 2429      74206D6F 
 2429      746F7220 
 2429      696E2074 
 2429      68652066 
 2430 032e 6F636974 		.ascii	"ocities.\015\012\000"
 2430      6965732E 
 2430      0D0A00
 2431 0339 000000   		.space	3
 2432              	.LC13:
 2433 033c 20202020 		.ascii	"    4. Left PID (backward) Validation - operates th"
 2433      342E204C 
 2433      65667420 
 2433      50494420 
 2433      28626163 
 2434 036f 65206C65 		.ascii	"e left motor in the backward direction at various v"
 2434      6674206D 
 2434      6F746F72 
 2434      20696E20 
 2434      74686520 
 2435 03a2 656C6F63 		.ascii	"elocities.\015\012\000"
 2435      69746965 
 2435      732E0D0A 
 2435      00
 2436 03af 00       		.space	1
 2437              	.LC14:
 2438 03b0 20202020 		.ascii	"    5. Right PID (forward) Validation - operates th"
 2438      352E2052 
 2438      69676874 
 2438      20504944 
 2438      2028666F 
 2439 03e3 65207269 		.ascii	"e right motor in the forward direction at various v"
 2439      67687420 
 2439      6D6F746F 
 2439      7220696E 
 2439      20746865 
 2440 0416 656C6F63 		.ascii	"elocities.\015\012\000"
 2440      69746965 
 2440      732E0D0A 
 2440      00
 2441 0423 00       		.space	1
 2442              	.LC15:
 2443 0424 20202020 		.ascii	"    6. Right PID (backward) Validation - operates t"
 2443      362E2052 
 2443      69676874 
 2443      20504944 
 2443      20286261 
 2444 0457 68652072 		.ascii	"he right motor in the backward direction at various"
 2444      69676874 
 2444      206D6F74 
 2444      6F722069 
 2444      6E207468 
 2445 048a 2076656C 		.ascii	" velocities.\015\012\000"
 2445      6F636974 
 2445      6965732E 
 2445      0D0A00
 2446 0499 000000   		.space	3
ARM GAS  C:\Users\Tim\AppData\Local\Temp\ccELkyeR.s 			page 66


 2447              	.LC16:
 2448 049c 20202020 		.ascii	"    7. Straight Line (forward) Validation - operate"
 2448      372E2053 
 2448      74726169 
 2448      67687420 
 2448      4C696E65 
 2449 04cf 73207468 		.ascii	"s the robot in the forward direction at a constant "
 2449      6520726F 
 2449      626F7420 
 2449      696E2074 
 2449      68652066 
 2450 0502 28736C6F 		.ascii	"(slow) velocity.\015\012\000"
 2450      77292076 
 2450      656C6F63 
 2450      6974792E 
 2450      0D0A00
 2451 0515 000000   		.space	3
 2452              	.LC17:
 2453 0518 20202020 		.ascii	"    8. Straight Line (backward) Validation - operat"
 2453      382E2053 
 2453      74726169 
 2453      67687420 
 2453      4C696E65 
 2454 054b 65732074 		.ascii	"es the robot in the backward direction at a constan"
 2454      68652072 
 2454      6F626F74 
 2454      20696E20 
 2454      74686520 
 2455 057e 74202873 		.ascii	"t (slow) velocity.\015\012\000"
 2455      6C6F7729 
 2455      2076656C 
 2455      6F636974 
 2455      792E0D0A 
 2456 0593 00       		.space	1
 2457              	.LC18:
 2458 0594 0D0A456E 		.ascii	"\015\012Enter X to exit validation\015\012\000"
 2458      74657220 
 2458      5820746F 
 2458      20657869 
 2458      74207661 
 2459 05b3 00       		.space	1
 2460              	.LC19:
 2461 05b4 4D616B65 		.ascii	"Make an entry [1-8,X]: \000"
 2461      20616E20 
 2461      656E7472 
 2461      79205B31 
 2461      2D382C58 
 2462              	.LC20:
 2463 05cc 0D0A5765 		.ascii	"\015\012Welcome to the Arlobot settings display\015"
 2463      6C636F6D 
 2463      6520746F 
 2463      20746865 
 2463      2041726C 
 2464 05f6 0A00     		.ascii	"\012\000"
 2465              	.LC21:
 2466 05f8 54686520 		.ascii	"The following settings can be displayed\015\012\000"
 2466      666F6C6C 
ARM GAS  C:\Users\Tim\AppData\Local\Temp\ccELkyeR.s 			page 67


 2466      6F77696E 
 2466      67207365 
 2466      7474696E 
 2467 0622 0000     		.space	2
 2468              	.LC22:
 2469 0624 20202020 		.ascii	"    1. Left Motor Calibration\015\012\000"
 2469      312E204C 
 2469      65667420 
 2469      4D6F746F 
 2469      72204361 
 2470              	.LC23:
 2471 0644 20202020 		.ascii	"    2. Right Motor Calibration\015\012\000"
 2471      322E2052 
 2471      69676874 
 2471      204D6F74 
 2471      6F722043 
 2472 0665 000000   		.space	3
 2473              	.LC24:
 2474 0668 20202020 		.ascii	"    3. PID Gains: left pid and right pid\015\012\000"
 2474      332E2050 
 2474      49442047 
 2474      61696E73 
 2474      3A206C65 
 2475 0693 00       		.space	1
 2476              	.LC25:
 2477 0694 20202020 		.ascii	"    4. Display All\015\012\000"
 2477      342E2044 
 2477      6973706C 
 2477      61792041 
 2477      6C6C0D0A 
 2478 06a9 000000   		.space	3
 2479              	.LC26:
 2480 06ac 4D616B65 		.ascii	"Make an entry [1-4,X]: \000"
 2480      20616E20 
 2480      656E7472 
 2480      79205B31 
 2480      2D342C58 
 2481              	.LC27:
 2482 06c4 4572726F 		.ascii	"Error processing stage %s, state %s\015\012\000"
 2482      72207072 
 2482      6F636573 
 2482      73696E67 
 2482      20737461 
 2483 06ea 0000     		.space	2
 2484              	.LC28:
 2485 06ec 0D0A4578 		.ascii	"\015\012Exiting Arlobot calibration/validation inte"
 2485      6974696E 
 2485      67204172 
 2485      6C6F626F 
 2485      74206361 
 2486 0719 72666163 		.ascii	"rface.\000"
 2486      652E00
 2487              	.LC29:
 2488 0720 0D0A5479 		.ascii	"\015\012Type 'C' to enter calibration, 'V' to enter"
 2488      70652027 
 2488      43272074 
 2488      6F20656E 
ARM GAS  C:\Users\Tim\AppData\Local\Temp\ccELkyeR.s 			page 68


 2488      74657220 
 2489 074d 2076616C 		.ascii	" validation, 'D' to display settings\015\012\000"
 2489      69646174 
 2489      696F6E2C 
 2489      20274427 
 2489      20746F20 
 2490              	.LC30:
 2491 0774 0D0A5065 		.ascii	"\015\012Performing Motor Validation by operating th"
 2491      72666F72 
 2491      6D696E67 
 2491      204D6F74 
 2491      6F722056 
 2492 07a1 65206D6F 		.ascii	"e motors at varying velocities.\015\012\000"
 2492      746F7273 
 2492      20617420 
 2492      76617279 
 2492      696E6720 
 2493 07c3 00       		.space	1
 2494              	.LC31:
 2495 07c4 0D0A5065 		.ascii	"\015\012Performing Left/Right PID Validation by ope"
 2495      72666F72 
 2495      6D696E67 
 2495      204C6566 
 2495      742F5269 
 2496 07f1 72617469 		.ascii	"rating the motors at varying velocities.\015\012\000"
 2496      6E672074 
 2496      6865206D 
 2496      6F746F72 
 2496      73206174 
 2497              	.LC32:
 2498 081c 0D0A5065 		.ascii	"\015\012Performing Left PID validation in the forwa"
 2498      72666F72 
 2498      6D696E67 
 2498      204C6566 
 2498      74205049 
 2499 0849 72642064 		.ascii	"rd direction.\015\012\000"
 2499      69726563 
 2499      74696F6E 
 2499      2E0D0A00 
 2500 0859 000000   		.space	3
 2501              	.LC33:
 2502 085c 0D0A5065 		.ascii	"\015\012Performing Left PID validation in the backw"
 2502      72666F72 
 2502      6D696E67 
 2502      204C6566 
 2502      74205049 
 2503 0889 61726420 		.ascii	"ard direction.\015\012\000"
 2503      64697265 
 2503      6374696F 
 2503      6E2E0D0A 
 2503      00
 2504 089a 0000     		.space	2
 2505              	.LC34:
 2506 089c 0D0A5065 		.ascii	"\015\012Performing Right PID validation in the forw"
 2506      72666F72 
 2506      6D696E67 
 2506      20526967 
ARM GAS  C:\Users\Tim\AppData\Local\Temp\ccELkyeR.s 			page 69


 2506      68742050 
 2507 08c9 61726420 		.ascii	"ard direction.\015\012\000"
 2507      64697265 
 2507      6374696F 
 2507      6E2E0D0A 
 2507      00
 2508 08da 0000     		.space	2
 2509              	.LC35:
 2510 08dc 0D0A5065 		.ascii	"\015\012Performing Right PID validation in the back"
 2510      72666F72 
 2510      6D696E67 
 2510      20526967 
 2510      68742050 
 2511 0909 77617264 		.ascii	"ward direction.\015\012\000"
 2511      20646972 
 2511      65637469 
 2511      6F6E2E0D 
 2511      0A00
 2512 091b 00       		.space	1
 2513              	.LC36:
 2514 091c 0D0A5065 		.ascii	"\015\012Performing straight line validation in the "
 2514      72666F72 
 2514      6D696E67 
 2514      20737472 
 2514      61696768 
 2515 0949 666F7277 		.ascii	"forward direction.\015\012\000"
 2515      61726420 
 2515      64697265 
 2515      6374696F 
 2515      6E2E0D0A 
 2516 095e 0000     		.space	2
 2517              	.LC37:
 2518 0960 0D0A5065 		.ascii	"\015\012Performing straight line validation in the "
 2518      72666F72 
 2518      6D696E67 
 2518      20737472 
 2518      61696768 
 2519 098d 6261636B 		.ascii	"backward direction.\015\012\000"
 2519      77617264 
 2519      20646972 
 2519      65637469 
 2519      6F6E2E0D 
 2520 09a3 00       		.space	1
 2521              	.LC38:
 2522 09a4 25730D0A 		.ascii	"%s\015\012\000"
 2522      00
 2523 09a9 000000   		.space	3
 2524              	.LC39:
 2525 09ac 256C643A 		.ascii	"%ld:%d \000"
 2525      25642000 
 2526              	.LC40:
 2527 09b4 256C643A 		.ascii	"%ld:%d\015\012\015\012\000"
 2527      25640D0A 
 2527      0D0A00
 2528 09bf 00       		.space	1
 2529              	.LC41:
 2530 09c0 2573202D 		.ascii	"%s - P: %s, I: %s, D: %s\015\012\000"
ARM GAS  C:\Users\Tim\AppData\Local\Temp\ccELkyeR.s 			page 70


 2530      20503A20 
 2530      25732C20 
 2530      493A2025 
 2530      732C2044 
 2531 09db 00       		.space	1
 2532              	.LC42:
 2533 09dc 0D0A4469 		.ascii	"\015\012Displaying left motor calibration: count/se"
 2533      73706C61 
 2533      79696E67 
 2533      206C6566 
 2533      74206D6F 
 2534 0a09 632C2070 		.ascii	"c, pwm mapping\000"
 2534      776D206D 
 2534      61707069 
 2534      6E6700
 2535              	.LC43:
 2536 0a18 4C656674 		.ascii	"Left-Backward\000"
 2536      2D426163 
 2536      6B776172 
 2536      6400
 2537 0a26 0000     		.space	2
 2538              	.LC44:
 2539 0a28 4C656674 		.ascii	"Left-Forward\000"
 2539      2D466F72 
 2539      77617264 
 2539      00
 2540 0a35 000000   		.space	3
 2541              	.LC45:
 2542 0a38 0D0A4469 		.ascii	"\015\012Displaying right motor calibration: count/s"
 2542      73706C61 
 2542      79696E67 
 2542      20726967 
 2542      6874206D 
 2543 0a65 65632C20 		.ascii	"ec, pwm mapping\000"
 2543      70776D20 
 2543      6D617070 
 2543      696E6700 
 2544 0a75 000000   		.space	3
 2545              	.LC46:
 2546 0a78 52696768 		.ascii	"Right-Backward\000"
 2546      742D4261 
 2546      636B7761 
 2546      726400
 2547 0a87 00       		.space	1
 2548              	.LC47:
 2549 0a88 52696768 		.ascii	"Right-Forward\000"
 2549      742D466F 
 2549      72776172 
 2549      6400
 2550 0a96 0000     		.space	2
 2551              	.LC48:
 2552 0a98 0D0A4469 		.ascii	"\015\012Displaying all PID gains: left, right\000"
 2552      73706C61 
 2552      79696E67 
 2552      20616C6C 
 2552      20504944 
 2553              	.LC49:
ARM GAS  C:\Users\Tim\AppData\Local\Temp\ccELkyeR.s 			page 71


 2554 0ac0 4C656674 		.ascii	"Left PID\000"
 2554      20504944 
 2554      00
 2555 0ac9 000000   		.space	3
 2556              	.LC50:
 2557 0acc 52696768 		.ascii	"Right PID\000"
 2557      74205049 
 2557      4400
 2558 0ad6 0000     		.space	2
 2559              	.LC51:
 2560 0ad8 0D0A4469 		.ascii	"\015\012Displaying all calibration/settings\000"
 2560      73706C61 
 2560      79696E67 
 2560      20616C6C 
 2560      2063616C 
 2561 0afe 0000     		.space	2
 2562              	.LC52:
 2563 0b00 4D6F746F 		.ascii	"Motor calibration status not set\015\012\000"
 2563      72206361 
 2563      6C696272 
 2563      6174696F 
 2563      6E207374 
 2564 0b23 00       		.space	1
 2565              	.LC53:
 2566 0b24 494E4954 		.ascii	"INIT STATE\000"
 2566      20535441 
 2566      544500
 2567 0b2f 00       		.space	1
 2568              	.LC54:
 2569 0b30 53544152 		.ascii	"START STATE\000"
 2569      54205354 
 2569      41544500 
 2570              	.LC55:
 2571 0b3c 52554E4E 		.ascii	"RUNNING STATE\000"
 2571      494E4720 
 2571      53544154 
 2571      4500
 2572 0b4a 0000     		.space	2
 2573              	.LC56:
 2574 0b4c 53544F50 		.ascii	"STOP STATE\000"
 2574      20535441 
 2574      544500
 2575 0b57 00       		.space	1
 2576              	.LC57:
 2577 0b58 52455355 		.ascii	"RESULTS STATE\000"
 2577      4C545320 
 2577      53544154 
 2577      4500
 2578 0b66 0000     		.space	2
 2579              	.LC58:
 2580 0b68 444F4E45 		.ascii	"DONE STATE\000"
 2580      20535441 
 2580      544500
 2581 0b73 00       		.space	1
 2582              	.LC59:
 2583 0b74 43414C49 		.ascii	"CALIBRATION\000"
 2583      42524154 
ARM GAS  C:\Users\Tim\AppData\Local\Temp\ccELkyeR.s 			page 72


 2583      494F4E00 
 2584              	.LC60:
 2585 0b80 56414C49 		.ascii	"VALIDATE\000"
 2585      44415445 
 2585      00
 2586 0b89 000000   		.bss
 2587              		.align	2
 2588              		.set	.LANCHOR0,. + 0
 2589              		.type	left_cmd_velocity, %object
 2590              		.size	left_cmd_velocity, 4
 2591              	left_cmd_velocity:
 2592 0000 00000000 		.space	4
 2593              		.type	right_cmd_velocity, %object
 2594              		.size	right_cmd_velocity, 4
 2595              	right_cmd_velocity:
 2596 0004 00000000 		.space	4
 2597              		.type	active_cal, %object
 2598              		.size	active_cal, 4
 2599              	active_cal:
 2600 0008 00000000 		.space	4
 2601              		.type	active_val, %object
 2602              		.size	active_val, 4
 2603              	active_val:
 2604 000c 00000000 		.space	4
 2605              		.type	ui_state, %object
 2606              		.size	ui_state, 1
 2607              	ui_state:
 2608 0010 00       		.space	1
 2609              		.type	send_once.8154, %object
 2610              		.size	send_once.8154, 1
 2611              	send_once.8154:
 2612 0011 00       		.space	1
 2613 0012 0000     		.text
 2614              	.Letext0:
 2615              		.file 2 "c:\\program files (x86)\\cypress\\psoc creator\\3.3\\psoc creator\\import\\gnu\\arm\\4.9.
 2616              		.file 3 "c:\\program files (x86)\\cypress\\psoc creator\\3.3\\psoc creator\\import\\gnu\\arm\\4.9.
 2617              		.file 4 "Generated_Source\\PSoC5/cytypes.h"
 2618              		.file 5 "..\\source\\config.h"
 2619              		.file 6 "..\\source\\calstore.h"
 2620              		.file 7 "..\\source\\pwm.h"
 2621              		.file 8 "..\\source\\cal.h"
 2622              		.file 9 "..\\source\\calpid.h"
 2623              		.file 10 "..\\source\\callin.h"
 2624              		.file 11 "Generated_Source\\PSoC5/core_cm3.h"
 2625              		.file 12 "..\\source\\calmotor.h"
 2626              		.file 13 "..\\source\\calang.h"
 2627              		.file 14 "..\\source\\debug.h"
 2628              		.file 15 "..\\source\\serial.h"
 2629              		.file 16 "..\\source\\utils.h"
 2630              		.file 17 "c:\\program files (x86)\\cypress\\psoc creator\\3.3\\psoc creator\\import\\gnu\\arm\\4.9
 2631              		.file 18 "..\\source\\nvstore.h"
 2632              		.file 19 "..\\source\\i2c.h"
 2633              		.file 20 "..\\source\\control.h"
 2634              		.file 21 "c:\\program files (x86)\\cypress\\psoc creator\\3.3\\psoc creator\\import\\gnu\\arm\\4.9
 2635              		.section	.debug_info,"",%progbits
 2636              	.Ldebug_info0:
 2637 0000 E3180000 		.4byte	0x18e3
ARM GAS  C:\Users\Tim\AppData\Local\Temp\ccELkyeR.s 			page 73


 2638 0004 0400     		.2byte	0x4
 2639 0006 00000000 		.4byte	.Ldebug_abbrev0
 2640 000a 04       		.byte	0x4
 2641 000b 01       		.uleb128 0x1
 2642 000c 57090000 		.4byte	.LASF206
 2643 0010 01       		.byte	0x1
 2644 0011 E6060000 		.4byte	.LASF207
 2645 0015 DD0A0000 		.4byte	.LASF208
 2646 0019 00000000 		.4byte	.Ldebug_ranges0+0
 2647 001d 00000000 		.4byte	0
 2648 0021 00000000 		.4byte	.Ldebug_line0
 2649 0025 02       		.uleb128 0x2
 2650 0026 04       		.byte	0x4
 2651 0027 04       		.byte	0x4
 2652 0028 80020000 		.4byte	.LASF0
 2653 002c 02       		.uleb128 0x2
 2654 002d 01       		.byte	0x1
 2655 002e 06       		.byte	0x6
 2656 002f 430A0000 		.4byte	.LASF1
 2657 0033 02       		.uleb128 0x2
 2658 0034 01       		.byte	0x1
 2659 0035 08       		.byte	0x8
 2660 0036 1A090000 		.4byte	.LASF2
 2661 003a 02       		.uleb128 0x2
 2662 003b 02       		.byte	0x2
 2663 003c 05       		.byte	0x5
 2664 003d AF070000 		.4byte	.LASF3
 2665 0041 02       		.uleb128 0x2
 2666 0042 02       		.byte	0x2
 2667 0043 07       		.byte	0x7
 2668 0044 5F0A0000 		.4byte	.LASF4
 2669 0048 03       		.uleb128 0x3
 2670 0049 53010000 		.4byte	.LASF12
 2671 004d 02       		.byte	0x2
 2672 004e 3F       		.byte	0x3f
 2673 004f 53000000 		.4byte	0x53
 2674 0053 02       		.uleb128 0x2
 2675 0054 04       		.byte	0x4
 2676 0055 05       		.byte	0x5
 2677 0056 C8070000 		.4byte	.LASF5
 2678 005a 02       		.uleb128 0x2
 2679 005b 04       		.byte	0x4
 2680 005c 07       		.byte	0x7
 2681 005d CA080000 		.4byte	.LASF6
 2682 0061 02       		.uleb128 0x2
 2683 0062 08       		.byte	0x8
 2684 0063 05       		.byte	0x5
 2685 0064 E4050000 		.4byte	.LASF7
 2686 0068 02       		.uleb128 0x2
 2687 0069 08       		.byte	0x8
 2688 006a 07       		.byte	0x7
 2689 006b D4020000 		.4byte	.LASF8
 2690 006f 04       		.uleb128 0x4
 2691 0070 04       		.byte	0x4
 2692 0071 05       		.byte	0x5
 2693 0072 696E7400 		.ascii	"int\000"
 2694 0076 02       		.uleb128 0x2
ARM GAS  C:\Users\Tim\AppData\Local\Temp\ccELkyeR.s 			page 74


 2695 0077 04       		.byte	0x4
 2696 0078 07       		.byte	0x7
 2697 0079 EA000000 		.4byte	.LASF9
 2698 007d 05       		.uleb128 0x5
 2699 007e 04       		.byte	0x4
 2700 007f 02       		.uleb128 0x2
 2701 0080 04       		.byte	0x4
 2702 0081 07       		.byte	0x7
 2703 0082 C1080000 		.4byte	.LASF10
 2704 0086 06       		.uleb128 0x6
 2705 0087 04       		.byte	0x4
 2706 0088 8C000000 		.4byte	0x8c
 2707 008c 02       		.uleb128 0x2
 2708 008d 01       		.byte	0x1
 2709 008e 08       		.byte	0x8
 2710 008f DF040000 		.4byte	.LASF11
 2711 0093 06       		.uleb128 0x6
 2712 0094 04       		.byte	0x4
 2713 0095 99000000 		.4byte	0x99
 2714 0099 07       		.uleb128 0x7
 2715 009a 8C000000 		.4byte	0x8c
 2716 009e 03       		.uleb128 0x3
 2717 009f FE080000 		.4byte	.LASF13
 2718 00a3 03       		.byte	0x3
 2719 00a4 2C       		.byte	0x2c
 2720 00a5 48000000 		.4byte	0x48
 2721 00a9 08       		.uleb128 0x8
 2722 00aa B10A0000 		.4byte	.LASF14
 2723 00ae 04       		.byte	0x4
 2724 00af 3801     		.2byte	0x138
 2725 00b1 33000000 		.4byte	0x33
 2726 00b5 08       		.uleb128 0x8
 2727 00b6 34050000 		.4byte	.LASF15
 2728 00ba 04       		.byte	0x4
 2729 00bb 3901     		.2byte	0x139
 2730 00bd 41000000 		.4byte	0x41
 2731 00c1 08       		.uleb128 0x8
 2732 00c2 F6060000 		.4byte	.LASF16
 2733 00c6 04       		.byte	0x4
 2734 00c7 3A01     		.2byte	0x13a
 2735 00c9 5A000000 		.4byte	0x5a
 2736 00cd 08       		.uleb128 0x8
 2737 00ce 5D010000 		.4byte	.LASF17
 2738 00d2 04       		.byte	0x4
 2739 00d3 3C01     		.2byte	0x13c
 2740 00d5 3A000000 		.4byte	0x3a
 2741 00d9 08       		.uleb128 0x8
 2742 00da 8F020000 		.4byte	.LASF18
 2743 00de 04       		.byte	0x4
 2744 00df 3D01     		.2byte	0x13d
 2745 00e1 53000000 		.4byte	0x53
 2746 00e5 02       		.uleb128 0x2
 2747 00e6 08       		.byte	0x8
 2748 00e7 04       		.byte	0x4
 2749 00e8 B70A0000 		.4byte	.LASF19
 2750 00ec 09       		.uleb128 0x9
 2751 00ed A9000000 		.4byte	0xa9
ARM GAS  C:\Users\Tim\AppData\Local\Temp\ccELkyeR.s 			page 75


 2752 00f1 FC000000 		.4byte	0xfc
 2753 00f5 0A       		.uleb128 0xa
 2754 00f6 7F000000 		.4byte	0x7f
 2755 00fa 03       		.byte	0x3
 2756 00fb 00       		.byte	0
 2757 00fc 03       		.uleb128 0x3
 2758 00fd 10060000 		.4byte	.LASF20
 2759 0101 05       		.byte	0x5
 2760 0102 22       		.byte	0x22
 2761 0103 07010000 		.4byte	0x107
 2762 0107 06       		.uleb128 0x6
 2763 0108 04       		.byte	0x4
 2764 0109 0D010000 		.4byte	0x10d
 2765 010d 0B       		.uleb128 0xb
 2766 010e 25000000 		.4byte	0x25
 2767 0112 18010000 		.4byte	0x118
 2768 0116 0C       		.uleb128 0xc
 2769 0117 00       		.byte	0
 2770 0118 0D       		.uleb128 0xd
 2771 0119 01       		.byte	0x1
 2772 011a 05       		.byte	0x5
 2773 011b 24       		.byte	0x24
 2774 011c 33010000 		.4byte	0x133
 2775 0120 0E       		.uleb128 0xe
 2776 0121 380A0000 		.4byte	.LASF21
 2777 0125 00       		.sleb128 0
 2778 0126 0E       		.uleb128 0xe
 2779 0127 79010000 		.4byte	.LASF22
 2780 012b 01       		.sleb128 1
 2781 012c 0E       		.uleb128 0xe
 2782 012d 37000000 		.4byte	.LASF23
 2783 0131 02       		.sleb128 2
 2784 0132 00       		.byte	0
 2785 0133 03       		.uleb128 0x3
 2786 0134 48010000 		.4byte	.LASF24
 2787 0138 05       		.byte	0x5
 2788 0139 24       		.byte	0x24
 2789 013a 18010000 		.4byte	0x118
 2790 013e 0D       		.uleb128 0xd
 2791 013f 01       		.byte	0x1
 2792 0140 05       		.byte	0x5
 2793 0141 25       		.byte	0x25
 2794 0142 53010000 		.4byte	0x153
 2795 0146 0E       		.uleb128 0xe
 2796 0147 3A020000 		.4byte	.LASF25
 2797 014b 00       		.sleb128 0
 2798 014c 0E       		.uleb128 0xe
 2799 014d 6E020000 		.4byte	.LASF26
 2800 0151 01       		.sleb128 1
 2801 0152 00       		.byte	0
 2802 0153 03       		.uleb128 0x3
 2803 0154 D5050000 		.4byte	.LASF27
 2804 0158 05       		.byte	0x5
 2805 0159 25       		.byte	0x25
 2806 015a 3E010000 		.4byte	0x13e
 2807 015e 0F       		.uleb128 0xf
 2808 015f A3030000 		.4byte	.LASF35
ARM GAS  C:\Users\Tim\AppData\Local\Temp\ccELkyeR.s 			page 76


 2809 0163 4001     		.2byte	0x140
 2810 0165 06       		.byte	0x6
 2811 0166 1F       		.byte	0x1f
 2812 0167 B5010000 		.4byte	0x1b5
 2813 016b 10       		.uleb128 0x10
 2814 016c 82060000 		.4byte	.LASF28
 2815 0170 06       		.byte	0x6
 2816 0171 21       		.byte	0x21
 2817 0172 D9000000 		.4byte	0xd9
 2818 0176 00       		.byte	0
 2819 0177 10       		.uleb128 0x10
 2820 0178 310B0000 		.4byte	.LASF29
 2821 017c 06       		.byte	0x6
 2822 017d 22       		.byte	0x22
 2823 017e D9000000 		.4byte	0xd9
 2824 0182 04       		.byte	0x4
 2825 0183 10       		.uleb128 0x10
 2826 0184 F3040000 		.4byte	.LASF30
 2827 0188 06       		.byte	0x6
 2828 0189 23       		.byte	0x23
 2829 018a 6F000000 		.4byte	0x6f
 2830 018e 08       		.byte	0x8
 2831 018f 10       		.uleb128 0x10
 2832 0190 26030000 		.4byte	.LASF31
 2833 0194 06       		.byte	0x6
 2834 0195 24       		.byte	0x24
 2835 0196 B5010000 		.4byte	0x1b5
 2836 019a 0C       		.byte	0xc
 2837 019b 10       		.uleb128 0x10
 2838 019c 1D030000 		.4byte	.LASF32
 2839 01a0 06       		.byte	0x6
 2840 01a1 25       		.byte	0x25
 2841 01a2 C5010000 		.4byte	0x1c5
 2842 01a6 D8       		.byte	0xd8
 2843 01a7 11       		.uleb128 0x11
 2844 01a8 960A0000 		.4byte	.LASF33
 2845 01ac 06       		.byte	0x6
 2846 01ad 27       		.byte	0x27
 2847 01ae B5000000 		.4byte	0xb5
 2848 01b2 3E01     		.2byte	0x13e
 2849 01b4 00       		.byte	0
 2850 01b5 09       		.uleb128 0x9
 2851 01b6 D9000000 		.4byte	0xd9
 2852 01ba C5010000 		.4byte	0x1c5
 2853 01be 0A       		.uleb128 0xa
 2854 01bf 7F000000 		.4byte	0x7f
 2855 01c3 32       		.byte	0x32
 2856 01c4 00       		.byte	0
 2857 01c5 09       		.uleb128 0x9
 2858 01c6 B5000000 		.4byte	0xb5
 2859 01ca D5010000 		.4byte	0x1d5
 2860 01ce 0A       		.uleb128 0xa
 2861 01cf 7F000000 		.4byte	0x7f
 2862 01d3 32       		.byte	0x32
 2863 01d4 00       		.byte	0
 2864 01d5 03       		.uleb128 0x3
 2865 01d6 DC000000 		.4byte	.LASF34
ARM GAS  C:\Users\Tim\AppData\Local\Temp\ccELkyeR.s 			page 77


 2866 01da 06       		.byte	0x6
 2867 01db 29       		.byte	0x29
 2868 01dc 5E010000 		.4byte	0x15e
 2869 01e0 12       		.uleb128 0x12
 2870 01e1 2E040000 		.4byte	.LASF36
 2871 01e5 10       		.byte	0x10
 2872 01e6 06       		.byte	0x6
 2873 01e7 2B       		.byte	0x2b
 2874 01e8 1A020000 		.4byte	0x21a
 2875 01ec 13       		.uleb128 0x13
 2876 01ed 6B7000   		.ascii	"kp\000"
 2877 01f0 06       		.byte	0x6
 2878 01f1 2D       		.byte	0x2d
 2879 01f2 25000000 		.4byte	0x25
 2880 01f6 00       		.byte	0
 2881 01f7 13       		.uleb128 0x13
 2882 01f8 6B6900   		.ascii	"ki\000"
 2883 01fb 06       		.byte	0x6
 2884 01fc 2E       		.byte	0x2e
 2885 01fd 25000000 		.4byte	0x25
 2886 0201 04       		.byte	0x4
 2887 0202 13       		.uleb128 0x13
 2888 0203 6B6400   		.ascii	"kd\000"
 2889 0206 06       		.byte	0x6
 2890 0207 2F       		.byte	0x2f
 2891 0208 25000000 		.4byte	0x25
 2892 020c 08       		.byte	0x8
 2893 020d 10       		.uleb128 0x10
 2894 020e D3060000 		.4byte	.LASF37
 2895 0212 06       		.byte	0x6
 2896 0213 31       		.byte	0x31
 2897 0214 EC000000 		.4byte	0xec
 2898 0218 0C       		.byte	0xc
 2899 0219 00       		.byte	0
 2900 021a 03       		.uleb128 0x3
 2901 021b 60070000 		.4byte	.LASF38
 2902 021f 06       		.byte	0x6
 2903 0220 33       		.byte	0x33
 2904 0221 E0010000 		.4byte	0x1e0
 2905 0225 0F       		.uleb128 0xf
 2906 0226 A6000000 		.4byte	.LASF39
 2907 022a 4805     		.2byte	0x548
 2908 022c 06       		.byte	0x6
 2909 022d 35       		.byte	0x35
 2910 022e AE020000 		.4byte	0x2ae
 2911 0232 10       		.uleb128 0x10
 2912 0233 65050000 		.4byte	.LASF40
 2913 0237 06       		.byte	0x6
 2914 0238 38       		.byte	0x38
 2915 0239 B5000000 		.4byte	0xb5
 2916 023d 00       		.byte	0
 2917 023e 10       		.uleb128 0x10
 2918 023f 86020000 		.4byte	.LASF41
 2919 0243 06       		.byte	0x6
 2920 0244 3B       		.byte	0x3b
 2921 0245 B5000000 		.4byte	0xb5
 2922 0249 02       		.byte	0x2
ARM GAS  C:\Users\Tim\AppData\Local\Temp\ccELkyeR.s 			page 78


 2923 024a 10       		.uleb128 0x10
 2924 024b 4F050000 		.4byte	.LASF42
 2925 024f 06       		.byte	0x6
 2926 0250 3C       		.byte	0x3c
 2927 0251 EC000000 		.4byte	0xec
 2928 0255 04       		.byte	0x4
 2929 0256 10       		.uleb128 0x10
 2930 0257 B3010000 		.4byte	.LASF43
 2931 025b 06       		.byte	0x6
 2932 025c 3D       		.byte	0x3d
 2933 025d 1A020000 		.4byte	0x21a
 2934 0261 08       		.byte	0x8
 2935 0262 10       		.uleb128 0x10
 2936 0263 41060000 		.4byte	.LASF44
 2937 0267 06       		.byte	0x6
 2938 0268 3E       		.byte	0x3e
 2939 0269 1A020000 		.4byte	0x21a
 2940 026d 18       		.byte	0x18
 2941 026e 10       		.uleb128 0x10
 2942 026f 81030000 		.4byte	.LASF45
 2943 0273 06       		.byte	0x6
 2944 0274 3F       		.byte	0x3f
 2945 0275 AE020000 		.4byte	0x2ae
 2946 0279 28       		.byte	0x28
 2947 027a 10       		.uleb128 0x10
 2948 027b F2050000 		.4byte	.LASF46
 2949 027f 06       		.byte	0x6
 2950 0280 40       		.byte	0x40
 2951 0281 D5010000 		.4byte	0x1d5
 2952 0285 48       		.byte	0x48
 2953 0286 11       		.uleb128 0x11
 2954 0287 73040000 		.4byte	.LASF47
 2955 028b 06       		.byte	0x6
 2956 028c 41       		.byte	0x41
 2957 028d D5010000 		.4byte	0x1d5
 2958 0291 8801     		.2byte	0x188
 2959 0293 11       		.uleb128 0x11
 2960 0294 63010000 		.4byte	.LASF48
 2961 0298 06       		.byte	0x6
 2962 0299 42       		.byte	0x42
 2963 029a D5010000 		.4byte	0x1d5
 2964 029e C802     		.2byte	0x2c8
 2965 02a0 11       		.uleb128 0x11
 2966 02a1 31060000 		.4byte	.LASF49
 2967 02a5 06       		.byte	0x6
 2968 02a6 43       		.byte	0x43
 2969 02a7 D5010000 		.4byte	0x1d5
 2970 02ab 0804     		.2byte	0x408
 2971 02ad 00       		.byte	0
 2972 02ae 09       		.uleb128 0x9
 2973 02af A9000000 		.4byte	0xa9
 2974 02b3 BE020000 		.4byte	0x2be
 2975 02b7 0A       		.uleb128 0xa
 2976 02b8 7F000000 		.4byte	0x7f
 2977 02bc 1F       		.byte	0x1f
 2978 02bd 00       		.byte	0
 2979 02be 03       		.uleb128 0x3
ARM GAS  C:\Users\Tim\AppData\Local\Temp\ccELkyeR.s 			page 79


 2980 02bf 7E050000 		.4byte	.LASF50
 2981 02c3 06       		.byte	0x6
 2982 02c4 44       		.byte	0x44
 2983 02c5 25020000 		.4byte	0x225
 2984 02c9 03       		.uleb128 0x3
 2985 02ca 0F070000 		.4byte	.LASF51
 2986 02ce 07       		.byte	0x7
 2987 02cf 42       		.byte	0x42
 2988 02d0 B5000000 		.4byte	0xb5
 2989 02d4 0D       		.uleb128 0xd
 2990 02d5 01       		.byte	0x1
 2991 02d6 08       		.byte	0x8
 2992 02d7 46       		.byte	0x46
 2993 02d8 01030000 		.4byte	0x301
 2994 02dc 0E       		.uleb128 0xe
 2995 02dd 420B0000 		.4byte	.LASF52
 2996 02e1 00       		.sleb128 0
 2997 02e2 0E       		.uleb128 0xe
 2998 02e3 0D0A0000 		.4byte	.LASF53
 2999 02e7 01       		.sleb128 1
 3000 02e8 0E       		.uleb128 0xe
 3001 02e9 9A010000 		.4byte	.LASF54
 3002 02ed 02       		.sleb128 2
 3003 02ee 0E       		.uleb128 0xe
 3004 02ef CD000000 		.4byte	.LASF55
 3005 02f3 03       		.sleb128 3
 3006 02f4 0E       		.uleb128 0xe
 3007 02f5 5C020000 		.4byte	.LASF56
 3008 02f9 04       		.sleb128 4
 3009 02fa 0E       		.uleb128 0xe
 3010 02fb 8A060000 		.4byte	.LASF57
 3011 02ff 05       		.sleb128 5
 3012 0300 00       		.byte	0
 3013 0301 03       		.uleb128 0x3
 3014 0302 01060000 		.4byte	.LASF58
 3015 0306 08       		.byte	0x8
 3016 0307 46       		.byte	0x46
 3017 0308 D4020000 		.4byte	0x2d4
 3018 030c 0D       		.uleb128 0xd
 3019 030d 01       		.byte	0x1
 3020 030e 08       		.byte	0x8
 3021 030f 47       		.byte	0x47
 3022 0310 21030000 		.4byte	0x321
 3023 0314 0E       		.uleb128 0xe
 3024 0315 A7060000 		.4byte	.LASF59
 3025 0319 00       		.sleb128 0
 3026 031a 0E       		.uleb128 0xe
 3027 031b A9040000 		.4byte	.LASF60
 3028 031f 01       		.sleb128 1
 3029 0320 00       		.byte	0
 3030 0321 03       		.uleb128 0x3
 3031 0322 FC020000 		.4byte	.LASF61
 3032 0326 08       		.byte	0x8
 3033 0327 47       		.byte	0x47
 3034 0328 0C030000 		.4byte	0x30c
 3035 032c 03       		.uleb128 0x3
 3036 032d 2B020000 		.4byte	.LASF62
ARM GAS  C:\Users\Tim\AppData\Local\Temp\ccELkyeR.s 			page 80


 3037 0331 08       		.byte	0x8
 3038 0332 49       		.byte	0x49
 3039 0333 37030000 		.4byte	0x337
 3040 0337 06       		.uleb128 0x6
 3041 0338 04       		.byte	0x4
 3042 0339 3D030000 		.4byte	0x33d
 3043 033d 14       		.uleb128 0x14
 3044 033e A9000000 		.4byte	0xa9
 3045 0342 51030000 		.4byte	0x351
 3046 0346 15       		.uleb128 0x15
 3047 0347 21030000 		.4byte	0x321
 3048 034b 15       		.uleb128 0x15
 3049 034c 7D000000 		.4byte	0x7d
 3050 0350 00       		.byte	0
 3051 0351 03       		.uleb128 0x3
 3052 0352 5F000000 		.4byte	.LASF63
 3053 0356 08       		.byte	0x8
 3054 0357 4A       		.byte	0x4a
 3055 0358 37030000 		.4byte	0x337
 3056 035c 03       		.uleb128 0x3
 3057 035d 98040000 		.4byte	.LASF64
 3058 0361 08       		.byte	0x8
 3059 0362 4B       		.byte	0x4b
 3060 0363 37030000 		.4byte	0x337
 3061 0367 03       		.uleb128 0x3
 3062 0368 31080000 		.4byte	.LASF65
 3063 036c 08       		.byte	0x8
 3064 036d 4C       		.byte	0x4c
 3065 036e 37030000 		.4byte	0x337
 3066 0372 03       		.uleb128 0x3
 3067 0373 B1020000 		.4byte	.LASF66
 3068 0377 08       		.byte	0x8
 3069 0378 4D       		.byte	0x4d
 3070 0379 37030000 		.4byte	0x337
 3071 037d 12       		.uleb128 0x12
 3072 037e 770B0000 		.4byte	.LASF67
 3073 0382 1C       		.byte	0x1c
 3074 0383 08       		.byte	0x8
 3075 0384 4F       		.byte	0x4f
 3076 0385 EA030000 		.4byte	0x3ea
 3077 0389 10       		.uleb128 0x10
 3078 038a 010A0000 		.4byte	.LASF68
 3079 038e 08       		.byte	0x8
 3080 038f 51       		.byte	0x51
 3081 0390 01030000 		.4byte	0x301
 3082 0394 00       		.byte	0
 3083 0395 10       		.uleb128 0x10
 3084 0396 73010000 		.4byte	.LASF69
 3085 039a 08       		.byte	0x8
 3086 039b 52       		.byte	0x52
 3087 039c 21030000 		.4byte	0x321
 3088 03a0 01       		.byte	0x1
 3089 03a1 10       		.uleb128 0x10
 3090 03a2 58000000 		.4byte	.LASF70
 3091 03a6 08       		.byte	0x8
 3092 03a7 53       		.byte	0x53
 3093 03a8 7D000000 		.4byte	0x7d
ARM GAS  C:\Users\Tim\AppData\Local\Temp\ccELkyeR.s 			page 81


 3094 03ac 04       		.byte	0x4
 3095 03ad 10       		.uleb128 0x10
 3096 03ae A6080000 		.4byte	.LASF71
 3097 03b2 08       		.byte	0x8
 3098 03b3 54       		.byte	0x54
 3099 03b4 2C030000 		.4byte	0x32c
 3100 03b8 08       		.byte	0x8
 3101 03b9 10       		.uleb128 0x10
 3102 03ba 4A080000 		.4byte	.LASF72
 3103 03be 08       		.byte	0x8
 3104 03bf 55       		.byte	0x55
 3105 03c0 51030000 		.4byte	0x351
 3106 03c4 0C       		.byte	0xc
 3107 03c5 10       		.uleb128 0x10
 3108 03c6 E0010000 		.4byte	.LASF73
 3109 03ca 08       		.byte	0x8
 3110 03cb 56       		.byte	0x56
 3111 03cc 5C030000 		.4byte	0x35c
 3112 03d0 10       		.byte	0x10
 3113 03d1 10       		.uleb128 0x10
 3114 03d2 7B020000 		.4byte	.LASF74
 3115 03d6 08       		.byte	0x8
 3116 03d7 57       		.byte	0x57
 3117 03d8 67030000 		.4byte	0x367
 3118 03dc 14       		.byte	0x14
 3119 03dd 10       		.uleb128 0x10
 3120 03de F3010000 		.4byte	.LASF75
 3121 03e2 08       		.byte	0x8
 3122 03e3 58       		.byte	0x58
 3123 03e4 72030000 		.4byte	0x372
 3124 03e8 18       		.byte	0x18
 3125 03e9 00       		.byte	0
 3126 03ea 03       		.uleb128 0x3
 3127 03eb 770A0000 		.4byte	.LASF76
 3128 03ef 08       		.byte	0x8
 3129 03f0 59       		.byte	0x59
 3130 03f1 7D030000 		.4byte	0x37d
 3131 03f5 0D       		.uleb128 0xd
 3132 03f6 01       		.byte	0x1
 3133 03f7 09       		.byte	0x9
 3134 03f8 1A       		.byte	0x1a
 3135 03f9 0A040000 		.4byte	0x40a
 3136 03fd 0E       		.uleb128 0xe
 3137 03fe 2A0A0000 		.4byte	.LASF77
 3138 0402 00       		.sleb128 0
 3139 0403 0E       		.uleb128 0xe
 3140 0404 25050000 		.4byte	.LASF78
 3141 0408 01       		.sleb128 1
 3142 0409 00       		.byte	0
 3143 040a 03       		.uleb128 0x3
 3144 040b 19040000 		.4byte	.LASF79
 3145 040f 09       		.byte	0x9
 3146 0410 1A       		.byte	0x1a
 3147 0411 F5030000 		.4byte	0x3f5
 3148 0415 12       		.uleb128 0x12
 3149 0416 B7050000 		.4byte	.LASF80
 3150 041a 0C       		.byte	0xc
ARM GAS  C:\Users\Tim\AppData\Local\Temp\ccELkyeR.s 			page 82


 3151 041b 09       		.byte	0x9
 3152 041c 1C       		.byte	0x1c
 3153 041d 52040000 		.4byte	0x452
 3154 0421 10       		.uleb128 0x10
 3155 0422 45080000 		.4byte	.LASF81
 3156 0426 09       		.byte	0x9
 3157 0427 1E       		.byte	0x1e
 3158 0428 52040000 		.4byte	0x452
 3159 042c 00       		.byte	0
 3160 042d 10       		.uleb128 0x10
 3161 042e 46050000 		.4byte	.LASF82
 3162 0432 09       		.byte	0x9
 3163 0433 1F       		.byte	0x1f
 3164 0434 0A040000 		.4byte	0x40a
 3165 0438 06       		.byte	0x6
 3166 0439 10       		.uleb128 0x10
 3167 043a 16000000 		.4byte	.LASF83
 3168 043e 09       		.byte	0x9
 3169 043f 20       		.byte	0x20
 3170 0440 53010000 		.4byte	0x153
 3171 0444 07       		.byte	0x7
 3172 0445 10       		.uleb128 0x10
 3173 0446 55040000 		.4byte	.LASF84
 3174 044a 09       		.byte	0x9
 3175 044b 21       		.byte	0x21
 3176 044c C1000000 		.4byte	0xc1
 3177 0450 08       		.byte	0x8
 3178 0451 00       		.byte	0
 3179 0452 09       		.uleb128 0x9
 3180 0453 8C000000 		.4byte	0x8c
 3181 0457 62040000 		.4byte	0x462
 3182 045b 0A       		.uleb128 0xa
 3183 045c 7F000000 		.4byte	0x7f
 3184 0460 05       		.byte	0x5
 3185 0461 00       		.byte	0
 3186 0462 03       		.uleb128 0x3
 3187 0463 39010000 		.4byte	.LASF85
 3188 0467 09       		.byte	0x9
 3189 0468 22       		.byte	0x22
 3190 0469 15040000 		.4byte	0x415
 3191 046d 12       		.uleb128 0x12
 3192 046e E4040000 		.4byte	.LASF86
 3193 0472 10       		.byte	0x10
 3194 0473 0A       		.byte	0xa
 3195 0474 19       		.byte	0x19
 3196 0475 AA040000 		.4byte	0x4aa
 3197 0479 10       		.uleb128 0x10
 3198 047a 16000000 		.4byte	.LASF83
 3199 047e 0A       		.byte	0xa
 3200 047f 1B       		.byte	0x1b
 3201 0480 53010000 		.4byte	0x153
 3202 0484 00       		.byte	0
 3203 0485 10       		.uleb128 0x10
 3204 0486 55040000 		.4byte	.LASF84
 3205 048a 0A       		.byte	0xa
 3206 048b 1C       		.byte	0x1c
 3207 048c C1000000 		.4byte	0xc1
ARM GAS  C:\Users\Tim\AppData\Local\Temp\ccELkyeR.s 			page 83


 3208 0490 04       		.byte	0x4
 3209 0491 10       		.uleb128 0x10
 3210 0492 EA070000 		.4byte	.LASF87
 3211 0496 0A       		.byte	0xa
 3212 0497 1D       		.byte	0x1d
 3213 0498 25000000 		.4byte	0x25
 3214 049c 08       		.byte	0x8
 3215 049d 13       		.uleb128 0x13
 3216 049e 6D707300 		.ascii	"mps\000"
 3217 04a2 0A       		.byte	0xa
 3218 04a3 1E       		.byte	0x1e
 3219 04a4 25000000 		.4byte	0x25
 3220 04a8 0C       		.byte	0xc
 3221 04a9 00       		.byte	0
 3222 04aa 03       		.uleb128 0x3
 3223 04ab 0B090000 		.4byte	.LASF88
 3224 04af 0A       		.byte	0xa
 3225 04b0 1F       		.byte	0x1f
 3226 04b1 6D040000 		.4byte	0x46d
 3227 04b5 06       		.uleb128 0x6
 3228 04b6 04       		.byte	0x4
 3229 04b7 25000000 		.4byte	0x25
 3230 04bb 0D       		.uleb128 0xd
 3231 04bc 01       		.byte	0x1
 3232 04bd 01       		.byte	0x1
 3233 04be 42       		.byte	0x42
 3234 04bf E2040000 		.4byte	0x4e2
 3235 04c3 0E       		.uleb128 0xe
 3236 04c4 50080000 		.4byte	.LASF89
 3237 04c8 00       		.sleb128 0
 3238 04c9 0E       		.uleb128 0xe
 3239 04ca 20070000 		.4byte	.LASF90
 3240 04ce 01       		.sleb128 1
 3241 04cf 0E       		.uleb128 0xe
 3242 04d0 0B080000 		.4byte	.LASF91
 3243 04d4 02       		.sleb128 2
 3244 04d5 0E       		.uleb128 0xe
 3245 04d6 6D070000 		.4byte	.LASF92
 3246 04da 03       		.sleb128 3
 3247 04db 0E       		.uleb128 0xe
 3248 04dc 85010000 		.4byte	.LASF93
 3249 04e0 04       		.sleb128 4
 3250 04e1 00       		.byte	0
 3251 04e2 03       		.uleb128 0x3
 3252 04e3 880A0000 		.4byte	.LASF94
 3253 04e7 01       		.byte	0x1
 3254 04e8 42       		.byte	0x42
 3255 04e9 BB040000 		.4byte	0x4bb
 3256 04ed 16       		.uleb128 0x16
 3257 04ee 5A050000 		.4byte	.LASF95
 3258 04f2 01       		.byte	0x1
 3259 04f3 61       		.byte	0x61
 3260 04f4 25000000 		.4byte	0x25
 3261 04f8 00000000 		.4byte	.LFB63
 3262 04fc 0C000000 		.4byte	.LFE63-.LFB63
 3263 0500 01       		.uleb128 0x1
 3264 0501 9C       		.byte	0x9c
ARM GAS  C:\Users\Tim\AppData\Local\Temp\ccELkyeR.s 			page 84


 3265 0502 16       		.uleb128 0x16
 3266 0503 0A000000 		.4byte	.LASF96
 3267 0507 01       		.byte	0x1
 3268 0508 66       		.byte	0x66
 3269 0509 25000000 		.4byte	0x25
 3270 050d 00000000 		.4byte	.LFB64
 3271 0511 0C000000 		.4byte	.LFE64-.LFB64
 3272 0515 01       		.uleb128 0x1
 3273 0516 9C       		.byte	0x9c
 3274 0517 17       		.uleb128 0x17
 3275 0518 95050000 		.4byte	.LASF97
 3276 051c 01       		.byte	0x1
 3277 051d C6       		.byte	0xc6
 3278 051e 00000000 		.4byte	.LFB69
 3279 0522 5C000000 		.4byte	.LFE69-.LFB69
 3280 0526 01       		.uleb128 0x1
 3281 0527 9C       		.byte	0x9c
 3282 0528 F2050000 		.4byte	0x5f2
 3283 052c 18       		.uleb128 0x18
 3284 052d 08000000 		.4byte	.LVL0
 3285 0531 6D170000 		.4byte	0x176d
 3286 0535 43050000 		.4byte	0x543
 3287 0539 19       		.uleb128 0x19
 3288 053a 01       		.uleb128 0x1
 3289 053b 50       		.byte	0x50
 3290 053c 05       		.uleb128 0x5
 3291 053d 03       		.byte	0x3
 3292 053e 00000000 		.4byte	.LC0
 3293 0542 00       		.byte	0
 3294 0543 18       		.uleb128 0x18
 3295 0544 0E000000 		.4byte	.LVL1
 3296 0548 6D170000 		.4byte	0x176d
 3297 054c 5A050000 		.4byte	0x55a
 3298 0550 19       		.uleb128 0x19
 3299 0551 01       		.uleb128 0x1
 3300 0552 50       		.byte	0x50
 3301 0553 05       		.uleb128 0x5
 3302 0554 03       		.byte	0x3
 3303 0555 34000000 		.4byte	.LC1
 3304 0559 00       		.byte	0
 3305 055a 18       		.uleb128 0x18
 3306 055b 14000000 		.4byte	.LVL2
 3307 055f 6D170000 		.4byte	0x176d
 3308 0563 71050000 		.4byte	0x571
 3309 0567 19       		.uleb128 0x19
 3310 0568 01       		.uleb128 0x1
 3311 0569 50       		.byte	0x50
 3312 056a 05       		.uleb128 0x5
 3313 056b 03       		.byte	0x3
 3314 056c 68000000 		.4byte	.LC2
 3315 0570 00       		.byte	0
 3316 0571 18       		.uleb128 0x18
 3317 0572 1A000000 		.4byte	.LVL3
 3318 0576 6D170000 		.4byte	0x176d
 3319 057a 88050000 		.4byte	0x588
 3320 057e 19       		.uleb128 0x19
 3321 057f 01       		.uleb128 0x1
ARM GAS  C:\Users\Tim\AppData\Local\Temp\ccELkyeR.s 			page 85


 3322 0580 50       		.byte	0x50
 3323 0581 05       		.uleb128 0x5
 3324 0582 03       		.byte	0x3
 3325 0583 B0000000 		.4byte	.LC3
 3326 0587 00       		.byte	0
 3327 0588 18       		.uleb128 0x18
 3328 0589 20000000 		.4byte	.LVL4
 3329 058d 6D170000 		.4byte	0x176d
 3330 0591 9F050000 		.4byte	0x59f
 3331 0595 19       		.uleb128 0x19
 3332 0596 01       		.uleb128 0x1
 3333 0597 50       		.byte	0x50
 3334 0598 05       		.uleb128 0x5
 3335 0599 03       		.byte	0x3
 3336 059a 0C010000 		.4byte	.LC4
 3337 059e 00       		.byte	0
 3338 059f 18       		.uleb128 0x18
 3339 05a0 28000000 		.4byte	.LVL5
 3340 05a4 6D170000 		.4byte	0x176d
 3341 05a8 B3050000 		.4byte	0x5b3
 3342 05ac 19       		.uleb128 0x19
 3343 05ad 01       		.uleb128 0x1
 3344 05ae 50       		.byte	0x50
 3345 05af 02       		.uleb128 0x2
 3346 05b0 74       		.byte	0x74
 3347 05b1 00       		.sleb128 0
 3348 05b2 00       		.byte	0
 3349 05b3 18       		.uleb128 0x18
 3350 05b4 2E000000 		.4byte	.LVL6
 3351 05b8 6D170000 		.4byte	0x176d
 3352 05bc CA050000 		.4byte	0x5ca
 3353 05c0 19       		.uleb128 0x19
 3354 05c1 01       		.uleb128 0x1
 3355 05c2 50       		.byte	0x50
 3356 05c3 05       		.uleb128 0x5
 3357 05c4 03       		.byte	0x3
 3358 05c5 6C010000 		.4byte	.LC6
 3359 05c9 00       		.byte	0
 3360 05ca 18       		.uleb128 0x18
 3361 05cb 34000000 		.4byte	.LVL7
 3362 05cf 6D170000 		.4byte	0x176d
 3363 05d3 DE050000 		.4byte	0x5de
 3364 05d7 19       		.uleb128 0x19
 3365 05d8 01       		.uleb128 0x1
 3366 05d9 50       		.byte	0x50
 3367 05da 02       		.uleb128 0x2
 3368 05db 74       		.byte	0x74
 3369 05dc 00       		.sleb128 0
 3370 05dd 00       		.byte	0
 3371 05de 1A       		.uleb128 0x1a
 3372 05df 3A000000 		.4byte	.LVL8
 3373 05e3 6D170000 		.4byte	0x176d
 3374 05e7 19       		.uleb128 0x19
 3375 05e8 01       		.uleb128 0x1
 3376 05e9 50       		.byte	0x50
 3377 05ea 05       		.uleb128 0x5
 3378 05eb 03       		.byte	0x3
ARM GAS  C:\Users\Tim\AppData\Local\Temp\ccELkyeR.s 			page 86


 3379 05ec 8C010000 		.4byte	.LC7
 3380 05f0 00       		.byte	0
 3381 05f1 00       		.byte	0
 3382 05f2 17       		.uleb128 0x17
 3383 05f3 06010000 		.4byte	.LASF98
 3384 05f7 01       		.byte	0x1
 3385 05f8 DA       		.byte	0xda
 3386 05f9 00000000 		.4byte	.LFB70
 3387 05fd 90000000 		.4byte	.LFE70-.LFB70
 3388 0601 01       		.uleb128 0x1
 3389 0602 9C       		.byte	0x9c
 3390 0603 40070000 		.4byte	0x740
 3391 0607 18       		.uleb128 0x18
 3392 0608 08000000 		.4byte	.LVL9
 3393 060c 6D170000 		.4byte	0x176d
 3394 0610 1E060000 		.4byte	0x61e
 3395 0614 19       		.uleb128 0x19
 3396 0615 01       		.uleb128 0x1
 3397 0616 50       		.byte	0x50
 3398 0617 05       		.uleb128 0x5
 3399 0618 03       		.byte	0x3
 3400 0619 A4010000 		.4byte	.LC8
 3401 061d 00       		.byte	0
 3402 061e 18       		.uleb128 0x18
 3403 061f 0E000000 		.4byte	.LVL10
 3404 0623 6D170000 		.4byte	0x176d
 3405 0627 35060000 		.4byte	0x635
 3406 062b 19       		.uleb128 0x19
 3407 062c 01       		.uleb128 0x1
 3408 062d 50       		.byte	0x50
 3409 062e 05       		.uleb128 0x5
 3410 062f 03       		.byte	0x3
 3411 0630 D8010000 		.4byte	.LC9
 3412 0634 00       		.byte	0
 3413 0635 18       		.uleb128 0x18
 3414 0636 14000000 		.4byte	.LVL11
 3415 063a 6D170000 		.4byte	0x176d
 3416 063e 4C060000 		.4byte	0x64c
 3417 0642 19       		.uleb128 0x19
 3418 0643 01       		.uleb128 0x1
 3419 0644 50       		.byte	0x50
 3420 0645 05       		.uleb128 0x5
 3421 0646 03       		.byte	0x3
 3422 0647 0C020000 		.4byte	.LC10
 3423 064b 00       		.byte	0
 3424 064c 18       		.uleb128 0x18
 3425 064d 1A000000 		.4byte	.LVL12
 3426 0651 6D170000 		.4byte	0x176d
 3427 0655 63060000 		.4byte	0x663
 3428 0659 19       		.uleb128 0x19
 3429 065a 01       		.uleb128 0x1
 3430 065b 50       		.byte	0x50
 3431 065c 05       		.uleb128 0x5
 3432 065d 03       		.byte	0x3
 3433 065e 54020000 		.4byte	.LC11
 3434 0662 00       		.byte	0
 3435 0663 18       		.uleb128 0x18
ARM GAS  C:\Users\Tim\AppData\Local\Temp\ccELkyeR.s 			page 87


 3436 0664 20000000 		.4byte	.LVL13
 3437 0668 6D170000 		.4byte	0x176d
 3438 066c 7A060000 		.4byte	0x67a
 3439 0670 19       		.uleb128 0x19
 3440 0671 01       		.uleb128 0x1
 3441 0672 50       		.byte	0x50
 3442 0673 05       		.uleb128 0x5
 3443 0674 03       		.byte	0x3
 3444 0675 C8020000 		.4byte	.LC12
 3445 0679 00       		.byte	0
 3446 067a 18       		.uleb128 0x18
 3447 067b 26000000 		.4byte	.LVL14
 3448 067f 6D170000 		.4byte	0x176d
 3449 0683 91060000 		.4byte	0x691
 3450 0687 19       		.uleb128 0x19
 3451 0688 01       		.uleb128 0x1
 3452 0689 50       		.byte	0x50
 3453 068a 05       		.uleb128 0x5
 3454 068b 03       		.byte	0x3
 3455 068c 3C030000 		.4byte	.LC13
 3456 0690 00       		.byte	0
 3457 0691 18       		.uleb128 0x18
 3458 0692 2C000000 		.4byte	.LVL15
 3459 0696 6D170000 		.4byte	0x176d
 3460 069a A8060000 		.4byte	0x6a8
 3461 069e 19       		.uleb128 0x19
 3462 069f 01       		.uleb128 0x1
 3463 06a0 50       		.byte	0x50
 3464 06a1 05       		.uleb128 0x5
 3465 06a2 03       		.byte	0x3
 3466 06a3 B0030000 		.4byte	.LC14
 3467 06a7 00       		.byte	0
 3468 06a8 18       		.uleb128 0x18
 3469 06a9 32000000 		.4byte	.LVL16
 3470 06ad 6D170000 		.4byte	0x176d
 3471 06b1 BF060000 		.4byte	0x6bf
 3472 06b5 19       		.uleb128 0x19
 3473 06b6 01       		.uleb128 0x1
 3474 06b7 50       		.byte	0x50
 3475 06b8 05       		.uleb128 0x5
 3476 06b9 03       		.byte	0x3
 3477 06ba 24040000 		.4byte	.LC15
 3478 06be 00       		.byte	0
 3479 06bf 18       		.uleb128 0x18
 3480 06c0 38000000 		.4byte	.LVL17
 3481 06c4 6D170000 		.4byte	0x176d
 3482 06c8 D6060000 		.4byte	0x6d6
 3483 06cc 19       		.uleb128 0x19
 3484 06cd 01       		.uleb128 0x1
 3485 06ce 50       		.byte	0x50
 3486 06cf 05       		.uleb128 0x5
 3487 06d0 03       		.byte	0x3
 3488 06d1 9C040000 		.4byte	.LC16
 3489 06d5 00       		.byte	0
 3490 06d6 18       		.uleb128 0x18
 3491 06d7 3E000000 		.4byte	.LVL18
 3492 06db 6D170000 		.4byte	0x176d
ARM GAS  C:\Users\Tim\AppData\Local\Temp\ccELkyeR.s 			page 88


 3493 06df ED060000 		.4byte	0x6ed
 3494 06e3 19       		.uleb128 0x19
 3495 06e4 01       		.uleb128 0x1
 3496 06e5 50       		.byte	0x50
 3497 06e6 05       		.uleb128 0x5
 3498 06e7 03       		.byte	0x3
 3499 06e8 18050000 		.4byte	.LC17
 3500 06ec 00       		.byte	0
 3501 06ed 18       		.uleb128 0x18
 3502 06ee 46000000 		.4byte	.LVL19
 3503 06f2 6D170000 		.4byte	0x176d
 3504 06f6 01070000 		.4byte	0x701
 3505 06fa 19       		.uleb128 0x19
 3506 06fb 01       		.uleb128 0x1
 3507 06fc 50       		.byte	0x50
 3508 06fd 02       		.uleb128 0x2
 3509 06fe 74       		.byte	0x74
 3510 06ff 00       		.sleb128 0
 3511 0700 00       		.byte	0
 3512 0701 18       		.uleb128 0x18
 3513 0702 4C000000 		.4byte	.LVL20
 3514 0706 6D170000 		.4byte	0x176d
 3515 070a 18070000 		.4byte	0x718
 3516 070e 19       		.uleb128 0x19
 3517 070f 01       		.uleb128 0x1
 3518 0710 50       		.byte	0x50
 3519 0711 05       		.uleb128 0x5
 3520 0712 03       		.byte	0x3
 3521 0713 94050000 		.4byte	.LC18
 3522 0717 00       		.byte	0
 3523 0718 18       		.uleb128 0x18
 3524 0719 52000000 		.4byte	.LVL21
 3525 071d 6D170000 		.4byte	0x176d
 3526 0721 2C070000 		.4byte	0x72c
 3527 0725 19       		.uleb128 0x19
 3528 0726 01       		.uleb128 0x1
 3529 0727 50       		.byte	0x50
 3530 0728 02       		.uleb128 0x2
 3531 0729 74       		.byte	0x74
 3532 072a 00       		.sleb128 0
 3533 072b 00       		.byte	0
 3534 072c 1A       		.uleb128 0x1a
 3535 072d 58000000 		.4byte	.LVL22
 3536 0731 6D170000 		.4byte	0x176d
 3537 0735 19       		.uleb128 0x19
 3538 0736 01       		.uleb128 0x1
 3539 0737 50       		.byte	0x50
 3540 0738 05       		.uleb128 0x5
 3541 0739 03       		.byte	0x3
 3542 073a B4050000 		.4byte	.LC19
 3543 073e 00       		.byte	0
 3544 073f 00       		.byte	0
 3545 0740 1B       		.uleb128 0x1b
 3546 0741 46020000 		.4byte	.LASF100
 3547 0745 01       		.byte	0x1
 3548 0746 1501     		.2byte	0x115
 3549 0748 00000000 		.4byte	.LFB73
ARM GAS  C:\Users\Tim\AppData\Local\Temp\ccELkyeR.s 			page 89


 3550 074c 20000000 		.4byte	.LFE73-.LFB73
 3551 0750 01       		.uleb128 0x1
 3552 0751 9C       		.byte	0x9c
 3553 0752 79070000 		.4byte	0x779
 3554 0756 1C       		.uleb128 0x1c
 3555 0757 73010000 		.4byte	.LASF69
 3556 075b 01       		.byte	0x1
 3557 075c 1501     		.2byte	0x115
 3558 075e 21030000 		.4byte	0x321
 3559 0762 00000000 		.4byte	.LLST0
 3560 0766 1D       		.uleb128 0x1d
 3561 0767 0E000000 		.4byte	.LVL24
 3562 076b 17050000 		.4byte	0x517
 3563 076f 1D       		.uleb128 0x1d
 3564 0770 18000000 		.4byte	.LVL26
 3565 0774 F2050000 		.4byte	0x5f2
 3566 0778 00       		.byte	0
 3567 0779 17       		.uleb128 0x17
 3568 077a 1D0B0000 		.4byte	.LASF99
 3569 077e 01       		.byte	0x1
 3570 077f F3       		.byte	0xf3
 3571 0780 00000000 		.4byte	.LFB71
 3572 0784 68000000 		.4byte	.LFE71-.LFB71
 3573 0788 01       		.uleb128 0x1
 3574 0789 9C       		.byte	0x9c
 3575 078a 6B080000 		.4byte	0x86b
 3576 078e 18       		.uleb128 0x18
 3577 078f 08000000 		.4byte	.LVL27
 3578 0793 6D170000 		.4byte	0x176d
 3579 0797 A5070000 		.4byte	0x7a5
 3580 079b 19       		.uleb128 0x19
 3581 079c 01       		.uleb128 0x1
 3582 079d 50       		.byte	0x50
 3583 079e 05       		.uleb128 0x5
 3584 079f 03       		.byte	0x3
 3585 07a0 CC050000 		.4byte	.LC20
 3586 07a4 00       		.byte	0
 3587 07a5 18       		.uleb128 0x18
 3588 07a6 0E000000 		.4byte	.LVL28
 3589 07aa 6D170000 		.4byte	0x176d
 3590 07ae BC070000 		.4byte	0x7bc
 3591 07b2 19       		.uleb128 0x19
 3592 07b3 01       		.uleb128 0x1
 3593 07b4 50       		.byte	0x50
 3594 07b5 05       		.uleb128 0x5
 3595 07b6 03       		.byte	0x3
 3596 07b7 F8050000 		.4byte	.LC21
 3597 07bb 00       		.byte	0
 3598 07bc 18       		.uleb128 0x18
 3599 07bd 14000000 		.4byte	.LVL29
 3600 07c1 6D170000 		.4byte	0x176d
 3601 07c5 D3070000 		.4byte	0x7d3
 3602 07c9 19       		.uleb128 0x19
 3603 07ca 01       		.uleb128 0x1
 3604 07cb 50       		.byte	0x50
 3605 07cc 05       		.uleb128 0x5
 3606 07cd 03       		.byte	0x3
ARM GAS  C:\Users\Tim\AppData\Local\Temp\ccELkyeR.s 			page 90


 3607 07ce 24060000 		.4byte	.LC22
 3608 07d2 00       		.byte	0
 3609 07d3 18       		.uleb128 0x18
 3610 07d4 1A000000 		.4byte	.LVL30
 3611 07d8 6D170000 		.4byte	0x176d
 3612 07dc EA070000 		.4byte	0x7ea
 3613 07e0 19       		.uleb128 0x19
 3614 07e1 01       		.uleb128 0x1
 3615 07e2 50       		.byte	0x50
 3616 07e3 05       		.uleb128 0x5
 3617 07e4 03       		.byte	0x3
 3618 07e5 44060000 		.4byte	.LC23
 3619 07e9 00       		.byte	0
 3620 07ea 18       		.uleb128 0x18
 3621 07eb 20000000 		.4byte	.LVL31
 3622 07ef 6D170000 		.4byte	0x176d
 3623 07f3 01080000 		.4byte	0x801
 3624 07f7 19       		.uleb128 0x19
 3625 07f8 01       		.uleb128 0x1
 3626 07f9 50       		.byte	0x50
 3627 07fa 05       		.uleb128 0x5
 3628 07fb 03       		.byte	0x3
 3629 07fc 68060000 		.4byte	.LC24
 3630 0800 00       		.byte	0
 3631 0801 18       		.uleb128 0x18
 3632 0802 26000000 		.4byte	.LVL32
 3633 0806 6D170000 		.4byte	0x176d
 3634 080a 18080000 		.4byte	0x818
 3635 080e 19       		.uleb128 0x19
 3636 080f 01       		.uleb128 0x1
 3637 0810 50       		.byte	0x50
 3638 0811 05       		.uleb128 0x5
 3639 0812 03       		.byte	0x3
 3640 0813 94060000 		.4byte	.LC25
 3641 0817 00       		.byte	0
 3642 0818 18       		.uleb128 0x18
 3643 0819 2E000000 		.4byte	.LVL33
 3644 081d 6D170000 		.4byte	0x176d
 3645 0821 2C080000 		.4byte	0x82c
 3646 0825 19       		.uleb128 0x19
 3647 0826 01       		.uleb128 0x1
 3648 0827 50       		.byte	0x50
 3649 0828 02       		.uleb128 0x2
 3650 0829 74       		.byte	0x74
 3651 082a 00       		.sleb128 0
 3652 082b 00       		.byte	0
 3653 082c 18       		.uleb128 0x18
 3654 082d 34000000 		.4byte	.LVL34
 3655 0831 6D170000 		.4byte	0x176d
 3656 0835 43080000 		.4byte	0x843
 3657 0839 19       		.uleb128 0x19
 3658 083a 01       		.uleb128 0x1
 3659 083b 50       		.byte	0x50
 3660 083c 05       		.uleb128 0x5
 3661 083d 03       		.byte	0x3
 3662 083e 94050000 		.4byte	.LC18
 3663 0842 00       		.byte	0
ARM GAS  C:\Users\Tim\AppData\Local\Temp\ccELkyeR.s 			page 91


 3664 0843 18       		.uleb128 0x18
 3665 0844 3A000000 		.4byte	.LVL35
 3666 0848 6D170000 		.4byte	0x176d
 3667 084c 57080000 		.4byte	0x857
 3668 0850 19       		.uleb128 0x19
 3669 0851 01       		.uleb128 0x1
 3670 0852 50       		.byte	0x50
 3671 0853 02       		.uleb128 0x2
 3672 0854 74       		.byte	0x74
 3673 0855 00       		.sleb128 0
 3674 0856 00       		.byte	0
 3675 0857 1A       		.uleb128 0x1a
 3676 0858 40000000 		.4byte	.LVL36
 3677 085c 6D170000 		.4byte	0x176d
 3678 0860 19       		.uleb128 0x19
 3679 0861 01       		.uleb128 0x1
 3680 0862 50       		.byte	0x50
 3681 0863 05       		.uleb128 0x5
 3682 0864 03       		.byte	0x3
 3683 0865 AC060000 		.4byte	.LC26
 3684 0869 00       		.byte	0
 3685 086a 00       		.byte	0
 3686 086b 1B       		.uleb128 0x1b
 3687 086c 4C000000 		.4byte	.LASF101
 3688 0870 01       		.byte	0x1
 3689 0871 0302     		.2byte	0x203
 3690 0873 00000000 		.4byte	.LFB78
 3691 0877 30000000 		.4byte	.LFE78-.LFB78
 3692 087b 01       		.uleb128 0x1
 3693 087c 9C       		.byte	0x9c
 3694 087d CF080000 		.4byte	0x8cf
 3695 0881 1C       		.uleb128 0x1c
 3696 0882 AC010000 		.4byte	.LASF102
 3697 0886 01       		.byte	0x1
 3698 0887 0302     		.2byte	0x203
 3699 0889 CF080000 		.4byte	0x8cf
 3700 088d 3A000000 		.4byte	.LLST1
 3701 0891 1E       		.uleb128 0x1e
 3702 0892 8E050000 		.4byte	.LASF104
 3703 0896 01       		.byte	0x1
 3704 0897 0502     		.2byte	0x205
 3705 0899 D5080000 		.4byte	0x8d5
 3706 089d 03       		.uleb128 0x3
 3707 089e 91       		.byte	0x91
 3708 089f B87F     		.sleb128 -72
 3709 08a1 18       		.uleb128 0x18
 3710 08a2 1C000000 		.4byte	.LVL39
 3711 08a6 7E170000 		.4byte	0x177e
 3712 08aa BE080000 		.4byte	0x8be
 3713 08ae 19       		.uleb128 0x19
 3714 08af 01       		.uleb128 0x1
 3715 08b0 51       		.byte	0x51
 3716 08b1 05       		.uleb128 0x5
 3717 08b2 03       		.byte	0x3
 3718 08b3 C4060000 		.4byte	.LC27
 3719 08b7 19       		.uleb128 0x19
 3720 08b8 01       		.uleb128 0x1
ARM GAS  C:\Users\Tim\AppData\Local\Temp\ccELkyeR.s 			page 92


 3721 08b9 50       		.byte	0x50
 3722 08ba 02       		.uleb128 0x2
 3723 08bb 7D       		.byte	0x7d
 3724 08bc 00       		.sleb128 0
 3725 08bd 00       		.byte	0
 3726 08be 1A       		.uleb128 0x1a
 3727 08bf 22000000 		.4byte	.LVL40
 3728 08c3 6D170000 		.4byte	0x176d
 3729 08c7 19       		.uleb128 0x19
 3730 08c8 01       		.uleb128 0x1
 3731 08c9 50       		.byte	0x50
 3732 08ca 02       		.uleb128 0x2
 3733 08cb 7D       		.byte	0x7d
 3734 08cc 00       		.sleb128 0
 3735 08cd 00       		.byte	0
 3736 08ce 00       		.byte	0
 3737 08cf 06       		.uleb128 0x6
 3738 08d0 04       		.byte	0x4
 3739 08d1 EA030000 		.4byte	0x3ea
 3740 08d5 09       		.uleb128 0x9
 3741 08d6 8C000000 		.4byte	0x8c
 3742 08da E5080000 		.4byte	0x8e5
 3743 08de 0A       		.uleb128 0xa
 3744 08df 7F000000 		.4byte	0x7f
 3745 08e3 3F       		.byte	0x3f
 3746 08e4 00       		.byte	0
 3747 08e5 1F       		.uleb128 0x1f
 3748 08e6 A9020000 		.4byte	.LASF103
 3749 08ea 01       		.byte	0x1
 3750 08eb 1502     		.2byte	0x215
 3751 08ed 00000000 		.4byte	.LFB79
 3752 08f1 A4000000 		.4byte	.LFE79-.LFB79
 3753 08f5 01       		.uleb128 0x1
 3754 08f6 9C       		.byte	0x9c
 3755 08f7 89090000 		.4byte	0x989
 3756 08fb 1C       		.uleb128 0x1c
 3757 08fc AC010000 		.4byte	.LASF102
 3758 0900 01       		.byte	0x1
 3759 0901 1502     		.2byte	0x215
 3760 0903 CF080000 		.4byte	0x8cf
 3761 0907 5B000000 		.4byte	.LLST2
 3762 090b 20       		.uleb128 0x20
 3763 090c C3020000 		.4byte	.LASF105
 3764 0910 01       		.byte	0x1
 3765 0911 1702     		.2byte	0x217
 3766 0913 A9000000 		.4byte	0xa9
 3767 0917 F5000000 		.4byte	.LLST3
 3768 091b 18       		.uleb128 0x18
 3769 091c 2A000000 		.4byte	.LVL46
 3770 0920 6B080000 		.4byte	0x86b
 3771 0924 2F090000 		.4byte	0x92f
 3772 0928 19       		.uleb128 0x19
 3773 0929 01       		.uleb128 0x1
 3774 092a 50       		.byte	0x50
 3775 092b 02       		.uleb128 0x2
 3776 092c 74       		.byte	0x74
 3777 092d 00       		.sleb128 0
ARM GAS  C:\Users\Tim\AppData\Local\Temp\ccELkyeR.s 			page 93


 3778 092e 00       		.byte	0
 3779 092f 18       		.uleb128 0x18
 3780 0930 42000000 		.4byte	.LVL52
 3781 0934 6B080000 		.4byte	0x86b
 3782 0938 43090000 		.4byte	0x943
 3783 093c 19       		.uleb128 0x19
 3784 093d 01       		.uleb128 0x1
 3785 093e 50       		.byte	0x50
 3786 093f 02       		.uleb128 0x2
 3787 0940 74       		.byte	0x74
 3788 0941 00       		.sleb128 0
 3789 0942 00       		.byte	0
 3790 0943 18       		.uleb128 0x18
 3791 0944 5E000000 		.4byte	.LVL58
 3792 0948 6B080000 		.4byte	0x86b
 3793 094c 57090000 		.4byte	0x957
 3794 0950 19       		.uleb128 0x19
 3795 0951 01       		.uleb128 0x1
 3796 0952 50       		.byte	0x50
 3797 0953 02       		.uleb128 0x2
 3798 0954 74       		.byte	0x74
 3799 0955 00       		.sleb128 0
 3800 0956 00       		.byte	0
 3801 0957 18       		.uleb128 0x18
 3802 0958 76000000 		.4byte	.LVL64
 3803 095c 6B080000 		.4byte	0x86b
 3804 0960 6B090000 		.4byte	0x96b
 3805 0964 19       		.uleb128 0x19
 3806 0965 01       		.uleb128 0x1
 3807 0966 50       		.byte	0x50
 3808 0967 02       		.uleb128 0x2
 3809 0968 74       		.byte	0x74
 3810 0969 00       		.sleb128 0
 3811 096a 00       		.byte	0
 3812 096b 18       		.uleb128 0x18
 3813 096c 8E000000 		.4byte	.LVL70
 3814 0970 6B080000 		.4byte	0x86b
 3815 0974 7F090000 		.4byte	0x97f
 3816 0978 19       		.uleb128 0x19
 3817 0979 01       		.uleb128 0x1
 3818 097a 50       		.byte	0x50
 3819 097b 02       		.uleb128 0x2
 3820 097c 74       		.byte	0x74
 3821 097d 00       		.sleb128 0
 3822 097e 00       		.byte	0
 3823 097f 1D       		.uleb128 0x1d
 3824 0980 9E000000 		.4byte	.LVL73
 3825 0984 40070000 		.4byte	0x740
 3826 0988 00       		.byte	0
 3827 0989 21       		.uleb128 0x21
 3828 098a B5080000 		.4byte	.LASF106
 3829 098e 01       		.byte	0x1
 3830 098f 0801     		.2byte	0x108
 3831 0991 00000000 		.4byte	.LFB72
 3832 0995 18000000 		.4byte	.LFE72-.LFB72
 3833 0999 01       		.uleb128 0x1
 3834 099a 9C       		.byte	0x9c
ARM GAS  C:\Users\Tim\AppData\Local\Temp\ccELkyeR.s 			page 94


 3835 099b CA090000 		.4byte	0x9ca
 3836 099f 18       		.uleb128 0x18
 3837 09a0 08000000 		.4byte	.LVL75
 3838 09a4 6D170000 		.4byte	0x176d
 3839 09a8 B6090000 		.4byte	0x9b6
 3840 09ac 19       		.uleb128 0x19
 3841 09ad 01       		.uleb128 0x1
 3842 09ae 50       		.byte	0x50
 3843 09af 05       		.uleb128 0x5
 3844 09b0 03       		.byte	0x3
 3845 09b1 EC060000 		.4byte	.LC28
 3846 09b5 00       		.byte	0
 3847 09b6 1A       		.uleb128 0x1a
 3848 09b7 0E000000 		.4byte	.LVL76
 3849 09bb 6D170000 		.4byte	0x176d
 3850 09bf 19       		.uleb128 0x19
 3851 09c0 01       		.uleb128 0x1
 3852 09c1 50       		.byte	0x50
 3853 09c2 05       		.uleb128 0x5
 3854 09c3 03       		.byte	0x3
 3855 09c4 20070000 		.4byte	.LC29
 3856 09c8 00       		.byte	0
 3857 09c9 00       		.byte	0
 3858 09ca 22       		.uleb128 0x22
 3859 09cb 3B050000 		.4byte	.LASF107
 3860 09cf 01       		.byte	0x1
 3861 09d0 6001     		.2byte	0x160
 3862 09d2 A9000000 		.4byte	0xa9
 3863 09d6 00000000 		.4byte	.LFB75
 3864 09da 58000000 		.4byte	.LFE75-.LFB75
 3865 09de 01       		.uleb128 0x1
 3866 09df 9C       		.byte	0x9c
 3867 09e0 FE090000 		.4byte	0x9fe
 3868 09e4 20       		.uleb128 0x20
 3869 09e5 46030000 		.4byte	.LASF108
 3870 09e9 01       		.byte	0x1
 3871 09ea 6201     		.2byte	0x162
 3872 09ec 8C000000 		.4byte	0x8c
 3873 09f0 34010000 		.4byte	.LLST4
 3874 09f4 1D       		.uleb128 0x1d
 3875 09f5 06000000 		.4byte	.LVL77
 3876 09f9 99170000 		.4byte	0x1799
 3877 09fd 00       		.byte	0
 3878 09fe 23       		.uleb128 0x23
 3879 09ff BE0A0000 		.4byte	.LASF109
 3880 0a03 01       		.byte	0x1
 3881 0a04 8501     		.2byte	0x185
 3882 0a06 CF080000 		.4byte	0x8cf
 3883 0a0a 00000000 		.4byte	.LFB76
 3884 0a0e 50000000 		.4byte	.LFE76-.LFB76
 3885 0a12 01       		.uleb128 0x1
 3886 0a13 9C       		.byte	0x9c
 3887 0a14 500A0000 		.4byte	0xa50
 3888 0a18 24       		.uleb128 0x24
 3889 0a19 636D6400 		.ascii	"cmd\000"
 3890 0a1d 01       		.byte	0x1
 3891 0a1e 8501     		.2byte	0x185
ARM GAS  C:\Users\Tim\AppData\Local\Temp\ccELkyeR.s 			page 95


 3892 0a20 A9000000 		.4byte	0xa9
 3893 0a24 79010000 		.4byte	.LLST5
 3894 0a28 25       		.uleb128 0x25
 3895 0a29 4D060000 		.4byte	.LASF209
 3896 0a2d 01       		.byte	0x1
 3897 0a2e 8701     		.2byte	0x187
 3898 0a30 500A0000 		.4byte	0xa50
 3899 0a34 1D       		.uleb128 0x1d
 3900 0a35 12000000 		.4byte	.LVL84
 3901 0a39 AA170000 		.4byte	0x17aa
 3902 0a3d 1D       		.uleb128 0x1d
 3903 0a3e 22000000 		.4byte	.LVL86
 3904 0a42 AA170000 		.4byte	0x17aa
 3905 0a46 1D       		.uleb128 0x1d
 3906 0a47 32000000 		.4byte	.LVL88
 3907 0a4b AA170000 		.4byte	0x17aa
 3908 0a4f 00       		.byte	0
 3909 0a50 06       		.uleb128 0x6
 3910 0a51 04       		.byte	0x4
 3911 0a52 62040000 		.4byte	0x462
 3912 0a56 23       		.uleb128 0x23
 3913 0a57 99060000 		.4byte	.LASF110
 3914 0a5b 01       		.byte	0x1
 3915 0a5c AA01     		.2byte	0x1aa
 3916 0a5e CF080000 		.4byte	0x8cf
 3917 0a62 00000000 		.4byte	.LFB77
 3918 0a66 48010000 		.4byte	.LFE77-.LFB77
 3919 0a6a 01       		.uleb128 0x1
 3920 0a6b 9C       		.byte	0x9c
 3921 0a6c 7D0B0000 		.4byte	0xb7d
 3922 0a70 24       		.uleb128 0x24
 3923 0a71 636D6400 		.ascii	"cmd\000"
 3924 0a75 01       		.byte	0x1
 3925 0a76 AA01     		.2byte	0x1aa
 3926 0a78 A9000000 		.4byte	0xa9
 3927 0a7c E5010000 		.4byte	.LLST6
 3928 0a80 1D       		.uleb128 0x1d
 3929 0a81 1C000000 		.4byte	.LVL92
 3930 0a85 AA170000 		.4byte	0x17aa
 3931 0a89 18       		.uleb128 0x18
 3932 0a8a 22000000 		.4byte	.LVL93
 3933 0a8e 6D170000 		.4byte	0x176d
 3934 0a92 A00A0000 		.4byte	0xaa0
 3935 0a96 19       		.uleb128 0x19
 3936 0a97 01       		.uleb128 0x1
 3937 0a98 50       		.byte	0x50
 3938 0a99 05       		.uleb128 0x5
 3939 0a9a 03       		.byte	0x3
 3940 0a9b 74070000 		.4byte	.LC30
 3941 0a9f 00       		.byte	0
 3942 0aa0 1D       		.uleb128 0x1d
 3943 0aa1 38000000 		.4byte	.LVL95
 3944 0aa5 AA170000 		.4byte	0x17aa
 3945 0aa9 18       		.uleb128 0x18
 3946 0aaa 3E000000 		.4byte	.LVL96
 3947 0aae 6D170000 		.4byte	0x176d
 3948 0ab2 C00A0000 		.4byte	0xac0
ARM GAS  C:\Users\Tim\AppData\Local\Temp\ccELkyeR.s 			page 96


 3949 0ab6 19       		.uleb128 0x19
 3950 0ab7 01       		.uleb128 0x1
 3951 0ab8 50       		.byte	0x50
 3952 0ab9 05       		.uleb128 0x5
 3953 0aba 03       		.byte	0x3
 3954 0abb C4070000 		.4byte	.LC31
 3955 0abf 00       		.byte	0
 3956 0ac0 1D       		.uleb128 0x1d
 3957 0ac1 54000000 		.4byte	.LVL98
 3958 0ac5 AA170000 		.4byte	0x17aa
 3959 0ac9 18       		.uleb128 0x18
 3960 0aca 5A000000 		.4byte	.LVL99
 3961 0ace 6D170000 		.4byte	0x176d
 3962 0ad2 E00A0000 		.4byte	0xae0
 3963 0ad6 19       		.uleb128 0x19
 3964 0ad7 01       		.uleb128 0x1
 3965 0ad8 50       		.byte	0x50
 3966 0ad9 05       		.uleb128 0x5
 3967 0ada 03       		.byte	0x3
 3968 0adb 1C080000 		.4byte	.LC32
 3969 0adf 00       		.byte	0
 3970 0ae0 1D       		.uleb128 0x1d
 3971 0ae1 74000000 		.4byte	.LVL101
 3972 0ae5 AA170000 		.4byte	0x17aa
 3973 0ae9 18       		.uleb128 0x18
 3974 0aea 7A000000 		.4byte	.LVL102
 3975 0aee 6D170000 		.4byte	0x176d
 3976 0af2 000B0000 		.4byte	0xb00
 3977 0af6 19       		.uleb128 0x19
 3978 0af7 01       		.uleb128 0x1
 3979 0af8 50       		.byte	0x50
 3980 0af9 05       		.uleb128 0x5
 3981 0afa 03       		.byte	0x3
 3982 0afb 5C080000 		.4byte	.LC33
 3983 0aff 00       		.byte	0
 3984 0b00 1D       		.uleb128 0x1d
 3985 0b01 94000000 		.4byte	.LVL104
 3986 0b05 AA170000 		.4byte	0x17aa
 3987 0b09 18       		.uleb128 0x18
 3988 0b0a 9A000000 		.4byte	.LVL105
 3989 0b0e 6D170000 		.4byte	0x176d
 3990 0b12 200B0000 		.4byte	0xb20
 3991 0b16 19       		.uleb128 0x19
 3992 0b17 01       		.uleb128 0x1
 3993 0b18 50       		.byte	0x50
 3994 0b19 05       		.uleb128 0x5
 3995 0b1a 03       		.byte	0x3
 3996 0b1b 9C080000 		.4byte	.LC34
 3997 0b1f 00       		.byte	0
 3998 0b20 1D       		.uleb128 0x1d
 3999 0b21 B4000000 		.4byte	.LVL107
 4000 0b25 AA170000 		.4byte	0x17aa
 4001 0b29 18       		.uleb128 0x18
 4002 0b2a BA000000 		.4byte	.LVL108
 4003 0b2e 6D170000 		.4byte	0x176d
 4004 0b32 400B0000 		.4byte	0xb40
 4005 0b36 19       		.uleb128 0x19
ARM GAS  C:\Users\Tim\AppData\Local\Temp\ccELkyeR.s 			page 97


 4006 0b37 01       		.uleb128 0x1
 4007 0b38 50       		.byte	0x50
 4008 0b39 05       		.uleb128 0x5
 4009 0b3a 03       		.byte	0x3
 4010 0b3b DC080000 		.4byte	.LC35
 4011 0b3f 00       		.byte	0
 4012 0b40 1D       		.uleb128 0x1d
 4013 0b41 D4000000 		.4byte	.LVL110
 4014 0b45 AA170000 		.4byte	0x17aa
 4015 0b49 18       		.uleb128 0x18
 4016 0b4a DA000000 		.4byte	.LVL111
 4017 0b4e 6D170000 		.4byte	0x176d
 4018 0b52 600B0000 		.4byte	0xb60
 4019 0b56 19       		.uleb128 0x19
 4020 0b57 01       		.uleb128 0x1
 4021 0b58 50       		.byte	0x50
 4022 0b59 05       		.uleb128 0x5
 4023 0b5a 03       		.byte	0x3
 4024 0b5b 1C090000 		.4byte	.LC36
 4025 0b5f 00       		.byte	0
 4026 0b60 1D       		.uleb128 0x1d
 4027 0b61 F6000000 		.4byte	.LVL113
 4028 0b65 AA170000 		.4byte	0x17aa
 4029 0b69 1A       		.uleb128 0x1a
 4030 0b6a FC000000 		.4byte	.LVL114
 4031 0b6e 6D170000 		.4byte	0x176d
 4032 0b72 19       		.uleb128 0x19
 4033 0b73 01       		.uleb128 0x1
 4034 0b74 50       		.byte	0x50
 4035 0b75 05       		.uleb128 0x5
 4036 0b76 03       		.byte	0x3
 4037 0b77 60090000 		.4byte	.LC37
 4038 0b7b 00       		.byte	0
 4039 0b7c 00       		.byte	0
 4040 0b7d 23       		.uleb128 0x23
 4041 0b7e E9030000 		.4byte	.LASF111
 4042 0b82 01       		.byte	0x1
 4043 0b83 7202     		.2byte	0x272
 4044 0b85 B5000000 		.4byte	0xb5
 4045 0b89 00000000 		.4byte	.LFB80
 4046 0b8d 72000000 		.4byte	.LFE80-.LFB80
 4047 0b91 01       		.uleb128 0x1
 4048 0b92 9C       		.byte	0x9c
 4049 0b93 3D0C0000 		.4byte	0xc3d
 4050 0b97 24       		.uleb128 0x24
 4051 0b98 63707300 		.ascii	"cps\000"
 4052 0b9c 01       		.byte	0x1
 4053 0b9d 7202     		.2byte	0x272
 4054 0b9f D9000000 		.4byte	0xd9
 4055 0ba3 CE020000 		.4byte	.LLST7
 4056 0ba7 1C       		.uleb128 0x1c
 4057 0ba8 26030000 		.4byte	.LASF31
 4058 0bac 01       		.byte	0x1
 4059 0bad 7202     		.2byte	0x272
 4060 0baf 3D0C0000 		.4byte	0xc3d
 4061 0bb3 05030000 		.4byte	.LLST8
 4062 0bb7 1C       		.uleb128 0x1c
ARM GAS  C:\Users\Tim\AppData\Local\Temp\ccELkyeR.s 			page 98


 4063 0bb8 1D030000 		.4byte	.LASF32
 4064 0bbc 01       		.byte	0x1
 4065 0bbd 7202     		.2byte	0x272
 4066 0bbf 430C0000 		.4byte	0xc43
 4067 0bc3 23030000 		.4byte	.LLST9
 4068 0bc7 1C       		.uleb128 0x1c
 4069 0bc8 99030000 		.4byte	.LASF112
 4070 0bcc 01       		.byte	0x1
 4071 0bcd 7202     		.2byte	0x272
 4072 0bcf A9000000 		.4byte	0xa9
 4073 0bd3 5A030000 		.4byte	.LLST10
 4074 0bd7 26       		.uleb128 0x26
 4075 0bd8 70776D00 		.ascii	"pwm\000"
 4076 0bdc 01       		.byte	0x1
 4077 0bdd 7402     		.2byte	0x274
 4078 0bdf C9020000 		.4byte	0x2c9
 4079 0be3 94030000 		.4byte	.LLST11
 4080 0be7 1E       		.uleb128 0x1e
 4081 0be8 2F030000 		.4byte	.LASF113
 4082 0bec 01       		.byte	0x1
 4083 0bed 7502     		.2byte	0x275
 4084 0bef A9000000 		.4byte	0xa9
 4085 0bf3 02       		.uleb128 0x2
 4086 0bf4 91       		.byte	0x91
 4087 0bf5 6F       		.sleb128 -17
 4088 0bf6 1E       		.uleb128 0x1e
 4089 0bf7 E5090000 		.4byte	.LASF114
 4090 0bfb 01       		.byte	0x1
 4091 0bfc 7602     		.2byte	0x276
 4092 0bfe A9000000 		.4byte	0xa9
 4093 0c02 02       		.uleb128 0x2
 4094 0c03 91       		.byte	0x91
 4095 0c04 6E       		.sleb128 -18
 4096 0c05 18       		.uleb128 0x18
 4097 0c06 28000000 		.4byte	.LVL122
 4098 0c0a BB170000 		.4byte	0x17bb
 4099 0c0e 2C0C0000 		.4byte	0xc2c
 4100 0c12 19       		.uleb128 0x19
 4101 0c13 01       		.uleb128 0x1
 4102 0c14 53       		.byte	0x53
 4103 0c15 02       		.uleb128 0x2
 4104 0c16 91       		.byte	0x91
 4105 0c17 6F       		.sleb128 -17
 4106 0c18 19       		.uleb128 0x19
 4107 0c19 01       		.uleb128 0x1
 4108 0c1a 51       		.byte	0x51
 4109 0c1b 02       		.uleb128 0x2
 4110 0c1c 74       		.byte	0x74
 4111 0c1d 00       		.sleb128 0
 4112 0c1e 19       		.uleb128 0x19
 4113 0c1f 01       		.uleb128 0x1
 4114 0c20 50       		.byte	0x50
 4115 0c21 02       		.uleb128 0x2
 4116 0c22 75       		.byte	0x75
 4117 0c23 00       		.sleb128 0
 4118 0c24 19       		.uleb128 0x19
 4119 0c25 02       		.uleb128 0x2
ARM GAS  C:\Users\Tim\AppData\Local\Temp\ccELkyeR.s 			page 99


 4120 0c26 7D       		.byte	0x7d
 4121 0c27 00       		.sleb128 0
 4122 0c28 02       		.uleb128 0x2
 4123 0c29 91       		.byte	0x91
 4124 0c2a 6E       		.sleb128 -18
 4125 0c2b 00       		.byte	0
 4126 0c2c 1A       		.uleb128 0x1a
 4127 0c2d 48000000 		.4byte	.LVL123
 4128 0c31 E6170000 		.4byte	0x17e6
 4129 0c35 19       		.uleb128 0x19
 4130 0c36 01       		.uleb128 0x1
 4131 0c37 50       		.byte	0x50
 4132 0c38 02       		.uleb128 0x2
 4133 0c39 75       		.byte	0x75
 4134 0c3a 00       		.sleb128 0
 4135 0c3b 00       		.byte	0
 4136 0c3c 00       		.byte	0
 4137 0c3d 06       		.uleb128 0x6
 4138 0c3e 04       		.byte	0x4
 4139 0c3f D9000000 		.4byte	0xd9
 4140 0c43 06       		.uleb128 0x6
 4141 0c44 04       		.byte	0x4
 4142 0c45 B5000000 		.4byte	0xb5
 4143 0c49 27       		.uleb128 0x27
 4144 0c4a 76000000 		.4byte	.LASF115
 4145 0c4e 01       		.byte	0x1
 4146 0c4f 73       		.byte	0x73
 4147 0c50 00000000 		.4byte	.LFB65
 4148 0c54 2C000000 		.4byte	.LFE65-.LFB65
 4149 0c58 01       		.uleb128 0x1
 4150 0c59 9C       		.byte	0x9c
 4151 0c5a 960C0000 		.4byte	0xc96
 4152 0c5e 28       		.uleb128 0x28
 4153 0c5f 62697400 		.ascii	"bit\000"
 4154 0c63 01       		.byte	0x1
 4155 0c64 73       		.byte	0x73
 4156 0c65 B5000000 		.4byte	0xb5
 4157 0c69 CE030000 		.4byte	.LLST12
 4158 0c6d 29       		.uleb128 0x29
 4159 0c6e 65050000 		.4byte	.LASF40
 4160 0c72 01       		.byte	0x1
 4161 0c73 75       		.byte	0x75
 4162 0c74 B5000000 		.4byte	0xb5
 4163 0c78 EF030000 		.4byte	.LLST13
 4164 0c7c 1D       		.uleb128 0x1d
 4165 0c7d 1E000000 		.4byte	.LVL133
 4166 0c81 0F180000 		.4byte	0x180f
 4167 0c85 1A       		.uleb128 0x1a
 4168 0c86 24000000 		.4byte	.LVL134
 4169 0c8a 25180000 		.4byte	0x1825
 4170 0c8e 19       		.uleb128 0x19
 4171 0c8f 01       		.uleb128 0x1
 4172 0c90 50       		.byte	0x50
 4173 0c91 02       		.uleb128 0x2
 4174 0c92 74       		.byte	0x74
 4175 0c93 00       		.sleb128 0
 4176 0c94 00       		.byte	0
ARM GAS  C:\Users\Tim\AppData\Local\Temp\ccELkyeR.s 			page 100


 4177 0c95 00       		.byte	0
 4178 0c96 27       		.uleb128 0x27
 4179 0c97 D1030000 		.4byte	.LASF116
 4180 0c9b 01       		.byte	0x1
 4181 0c9c 7A       		.byte	0x7a
 4182 0c9d 00000000 		.4byte	.LFB66
 4183 0ca1 24000000 		.4byte	.LFE66-.LFB66
 4184 0ca5 01       		.uleb128 0x1
 4185 0ca6 9C       		.byte	0x9c
 4186 0ca7 E30C0000 		.4byte	0xce3
 4187 0cab 28       		.uleb128 0x28
 4188 0cac 62697400 		.ascii	"bit\000"
 4189 0cb0 01       		.byte	0x1
 4190 0cb1 7A       		.byte	0x7a
 4191 0cb2 B5000000 		.4byte	0xb5
 4192 0cb6 02040000 		.4byte	.LLST14
 4193 0cba 29       		.uleb128 0x29
 4194 0cbb 65050000 		.4byte	.LASF40
 4195 0cbf 01       		.byte	0x1
 4196 0cc0 7C       		.byte	0x7c
 4197 0cc1 B5000000 		.4byte	0xb5
 4198 0cc5 23040000 		.4byte	.LLST15
 4199 0cc9 1D       		.uleb128 0x1d
 4200 0cca 18000000 		.4byte	.LVL139
 4201 0cce 0F180000 		.4byte	0x180f
 4202 0cd2 1A       		.uleb128 0x1a
 4203 0cd3 1E000000 		.4byte	.LVL140
 4204 0cd7 36180000 		.4byte	0x1836
 4205 0cdb 19       		.uleb128 0x19
 4206 0cdc 01       		.uleb128 0x1
 4207 0cdd 50       		.byte	0x50
 4208 0cde 02       		.uleb128 0x2
 4209 0cdf 74       		.byte	0x74
 4210 0ce0 00       		.sleb128 0
 4211 0ce1 00       		.byte	0
 4212 0ce2 00       		.byte	0
 4213 0ce3 27       		.uleb128 0x27
 4214 0ce4 8C0B0000 		.4byte	.LASF117
 4215 0ce8 01       		.byte	0x1
 4216 0ce9 92       		.byte	0x92
 4217 0cea 00000000 		.4byte	.LFB67
 4218 0cee 64000000 		.4byte	.LFE67-.LFB67
 4219 0cf2 01       		.uleb128 0x1
 4220 0cf3 9C       		.byte	0x9c
 4221 0cf4 EC0D0000 		.4byte	0xdec
 4222 0cf8 2A       		.uleb128 0x2a
 4223 0cf9 070A0000 		.4byte	.LASF118
 4224 0cfd 01       		.byte	0x1
 4225 0cfe 92       		.byte	0x92
 4226 0cff 86000000 		.4byte	0x86
 4227 0d03 3B040000 		.4byte	.LLST16
 4228 0d07 2A       		.uleb128 0x2a
 4229 0d08 F2080000 		.4byte	.LASF119
 4230 0d0c 01       		.byte	0x1
 4231 0d0d 92       		.byte	0x92
 4232 0d0e 3D0C0000 		.4byte	0xc3d
 4233 0d12 67040000 		.4byte	.LLST17
ARM GAS  C:\Users\Tim\AppData\Local\Temp\ccELkyeR.s 			page 101


 4234 0d16 2A       		.uleb128 0x2a
 4235 0d17 8D030000 		.4byte	.LASF120
 4236 0d1b 01       		.byte	0x1
 4237 0d1c 92       		.byte	0x92
 4238 0d1d 430C0000 		.4byte	0xc43
 4239 0d21 93040000 		.4byte	.LLST18
 4240 0d25 2B       		.uleb128 0x2b
 4241 0d26 696900   		.ascii	"ii\000"
 4242 0d29 01       		.byte	0x1
 4243 0d2a 94       		.byte	0x94
 4244 0d2b A9000000 		.4byte	0xa9
 4245 0d2f BF040000 		.4byte	.LLST19
 4246 0d33 2C       		.uleb128 0x2c
 4247 0d34 B2000000 		.4byte	.LASF121
 4248 0d38 01       		.byte	0x1
 4249 0d39 95       		.byte	0x95
 4250 0d3a EC0D0000 		.4byte	0xdec
 4251 0d3e 03       		.uleb128 0x3
 4252 0d3f 91       		.byte	0x91
 4253 0d40 8C7F     		.sleb128 -116
 4254 0d42 2C       		.uleb128 0x2c
 4255 0d43 5A060000 		.4byte	.LASF122
 4256 0d47 01       		.byte	0x1
 4257 0d48 96       		.byte	0x96
 4258 0d49 FC0D0000 		.4byte	0xdfc
 4259 0d4d 03       		.uleb128 0x3
 4260 0d4e 91       		.byte	0x91
 4261 0d4f F87E     		.sleb128 -136
 4262 0d51 18       		.uleb128 0x18
 4263 0d52 14000000 		.4byte	.LVL145
 4264 0d56 7E170000 		.4byte	0x177e
 4265 0d5a 750D0000 		.4byte	0xd75
 4266 0d5e 19       		.uleb128 0x19
 4267 0d5f 01       		.uleb128 0x1
 4268 0d60 52       		.byte	0x52
 4269 0d61 03       		.uleb128 0x3
 4270 0d62 F3       		.byte	0xf3
 4271 0d63 01       		.uleb128 0x1
 4272 0d64 50       		.byte	0x50
 4273 0d65 19       		.uleb128 0x19
 4274 0d66 01       		.uleb128 0x1
 4275 0d67 51       		.byte	0x51
 4276 0d68 05       		.uleb128 0x5
 4277 0d69 03       		.byte	0x3
 4278 0d6a A4090000 		.4byte	.LC38
 4279 0d6e 19       		.uleb128 0x19
 4280 0d6f 01       		.uleb128 0x1
 4281 0d70 50       		.byte	0x50
 4282 0d71 02       		.uleb128 0x2
 4283 0d72 7D       		.byte	0x7d
 4284 0d73 00       		.sleb128 0
 4285 0d74 00       		.byte	0
 4286 0d75 18       		.uleb128 0x18
 4287 0d76 1A000000 		.4byte	.LVL146
 4288 0d7a 6D170000 		.4byte	0x176d
 4289 0d7e 890D0000 		.4byte	0xd89
 4290 0d82 19       		.uleb128 0x19
ARM GAS  C:\Users\Tim\AppData\Local\Temp\ccELkyeR.s 			page 102


 4291 0d83 01       		.uleb128 0x1
 4292 0d84 50       		.byte	0x50
 4293 0d85 02       		.uleb128 0x2
 4294 0d86 7D       		.byte	0x7d
 4295 0d87 00       		.sleb128 0
 4296 0d88 00       		.byte	0
 4297 0d89 18       		.uleb128 0x18
 4298 0d8a 2E000000 		.4byte	.LVL148
 4299 0d8e 7E170000 		.4byte	0x177e
 4300 0d92 A70D0000 		.4byte	0xda7
 4301 0d96 19       		.uleb128 0x19
 4302 0d97 01       		.uleb128 0x1
 4303 0d98 51       		.byte	0x51
 4304 0d99 05       		.uleb128 0x5
 4305 0d9a 03       		.byte	0x3
 4306 0d9b AC090000 		.4byte	.LC39
 4307 0d9f 19       		.uleb128 0x19
 4308 0da0 01       		.uleb128 0x1
 4309 0da1 50       		.byte	0x50
 4310 0da2 03       		.uleb128 0x3
 4311 0da3 91       		.byte	0x91
 4312 0da4 8C7F     		.sleb128 -116
 4313 0da6 00       		.byte	0
 4314 0da7 18       		.uleb128 0x18
 4315 0da8 34000000 		.4byte	.LVL149
 4316 0dac 6D170000 		.4byte	0x176d
 4317 0db0 BC0D0000 		.4byte	0xdbc
 4318 0db4 19       		.uleb128 0x19
 4319 0db5 01       		.uleb128 0x1
 4320 0db6 50       		.byte	0x50
 4321 0db7 03       		.uleb128 0x3
 4322 0db8 91       		.byte	0x91
 4323 0db9 8C7F     		.sleb128 -116
 4324 0dbb 00       		.byte	0
 4325 0dbc 18       		.uleb128 0x18
 4326 0dbd 4C000000 		.4byte	.LVL152
 4327 0dc1 7E170000 		.4byte	0x177e
 4328 0dc5 DA0D0000 		.4byte	0xdda
 4329 0dc9 19       		.uleb128 0x19
 4330 0dca 01       		.uleb128 0x1
 4331 0dcb 51       		.byte	0x51
 4332 0dcc 05       		.uleb128 0x5
 4333 0dcd 03       		.byte	0x3
 4334 0dce B4090000 		.4byte	.LC40
 4335 0dd2 19       		.uleb128 0x19
 4336 0dd3 01       		.uleb128 0x1
 4337 0dd4 50       		.byte	0x50
 4338 0dd5 03       		.uleb128 0x3
 4339 0dd6 91       		.byte	0x91
 4340 0dd7 8C7F     		.sleb128 -116
 4341 0dd9 00       		.byte	0
 4342 0dda 1A       		.uleb128 0x1a
 4343 0ddb 52000000 		.4byte	.LVL153
 4344 0ddf 6D170000 		.4byte	0x176d
 4345 0de3 19       		.uleb128 0x19
 4346 0de4 01       		.uleb128 0x1
 4347 0de5 50       		.byte	0x50
ARM GAS  C:\Users\Tim\AppData\Local\Temp\ccELkyeR.s 			page 103


 4348 0de6 03       		.uleb128 0x3
 4349 0de7 91       		.byte	0x91
 4350 0de8 8C7F     		.sleb128 -116
 4351 0dea 00       		.byte	0
 4352 0deb 00       		.byte	0
 4353 0dec 09       		.uleb128 0x9
 4354 0ded 8C000000 		.4byte	0x8c
 4355 0df1 FC0D0000 		.4byte	0xdfc
 4356 0df5 0A       		.uleb128 0xa
 4357 0df6 7F000000 		.4byte	0x7f
 4358 0dfa 63       		.byte	0x63
 4359 0dfb 00       		.byte	0
 4360 0dfc 09       		.uleb128 0x9
 4361 0dfd 8C000000 		.4byte	0x8c
 4362 0e01 0C0E0000 		.4byte	0xe0c
 4363 0e05 0A       		.uleb128 0xa
 4364 0e06 7F000000 		.4byte	0x7f
 4365 0e0a 13       		.byte	0x13
 4366 0e0b 00       		.byte	0
 4367 0e0c 27       		.uleb128 0x27
 4368 0e0d F7000000 		.4byte	.LASF123
 4369 0e11 01       		.byte	0x1
 4370 0e12 AC       		.byte	0xac
 4371 0e13 00000000 		.4byte	.LFB68
 4372 0e17 48000000 		.4byte	.LFE68-.LFB68
 4373 0e1b 01       		.uleb128 0x1
 4374 0e1c 9C       		.byte	0x9c
 4375 0e1d 120F0000 		.4byte	0xf12
 4376 0e21 2A       		.uleb128 0x2a
 4377 0e22 070A0000 		.4byte	.LASF118
 4378 0e26 01       		.byte	0x1
 4379 0e27 AC       		.byte	0xac
 4380 0e28 86000000 		.4byte	0x86
 4381 0e2c E9040000 		.4byte	.LLST20
 4382 0e30 2A       		.uleb128 0x2a
 4383 0e31 9D0B0000 		.4byte	.LASF124
 4384 0e35 01       		.byte	0x1
 4385 0e36 AC       		.byte	0xac
 4386 0e37 B5040000 		.4byte	0x4b5
 4387 0e3b 15050000 		.4byte	.LLST21
 4388 0e3f 2C       		.uleb128 0x2c
 4389 0e40 6F000000 		.4byte	.LASF125
 4390 0e44 01       		.byte	0x1
 4391 0e45 AE       		.byte	0xae
 4392 0e46 D5080000 		.4byte	0x8d5
 4393 0e4a 03       		.uleb128 0x3
 4394 0e4b 91       		.byte	0x91
 4395 0e4c A87F     		.sleb128 -88
 4396 0e4e 2C       		.uleb128 0x2c
 4397 0e4f 42000000 		.4byte	.LASF126
 4398 0e53 01       		.byte	0x1
 4399 0e54 AF       		.byte	0xaf
 4400 0e55 120F0000 		.4byte	0xf12
 4401 0e59 03       		.uleb128 0x3
 4402 0e5a 91       		.byte	0x91
 4403 0e5b 9C7F     		.sleb128 -100
 4404 0e5d 2C       		.uleb128 0x2c
ARM GAS  C:\Users\Tim\AppData\Local\Temp\ccELkyeR.s 			page 104


 4405 0e5e 00000000 		.4byte	.LASF127
 4406 0e62 01       		.byte	0x1
 4407 0e63 B0       		.byte	0xb0
 4408 0e64 120F0000 		.4byte	0xf12
 4409 0e68 03       		.uleb128 0x3
 4410 0e69 91       		.byte	0x91
 4411 0e6a 907F     		.sleb128 -112
 4412 0e6c 2C       		.uleb128 0x2c
 4413 0e6d DC060000 		.4byte	.LASF128
 4414 0e71 01       		.byte	0x1
 4415 0e72 B1       		.byte	0xb1
 4416 0e73 120F0000 		.4byte	0xf12
 4417 0e77 03       		.uleb128 0x3
 4418 0e78 91       		.byte	0x91
 4419 0e79 847F     		.sleb128 -124
 4420 0e7b 18       		.uleb128 0x18
 4421 0e7c 12000000 		.4byte	.LVL158
 4422 0e80 47180000 		.4byte	0x1847
 4423 0e84 950E0000 		.4byte	0xe95
 4424 0e88 19       		.uleb128 0x19
 4425 0e89 01       		.uleb128 0x1
 4426 0e8a 52       		.byte	0x52
 4427 0e8b 01       		.uleb128 0x1
 4428 0e8c 33       		.byte	0x33
 4429 0e8d 19       		.uleb128 0x19
 4430 0e8e 01       		.uleb128 0x1
 4431 0e8f 51       		.byte	0x51
 4432 0e90 03       		.uleb128 0x3
 4433 0e91 91       		.byte	0x91
 4434 0e92 9C7F     		.sleb128 -100
 4435 0e94 00       		.byte	0
 4436 0e95 18       		.uleb128 0x18
 4437 0e96 1E000000 		.4byte	.LVL159
 4438 0e9a 47180000 		.4byte	0x1847
 4439 0e9e AE0E0000 		.4byte	0xeae
 4440 0ea2 19       		.uleb128 0x19
 4441 0ea3 01       		.uleb128 0x1
 4442 0ea4 52       		.byte	0x52
 4443 0ea5 01       		.uleb128 0x1
 4444 0ea6 33       		.byte	0x33
 4445 0ea7 19       		.uleb128 0x19
 4446 0ea8 01       		.uleb128 0x1
 4447 0ea9 51       		.byte	0x51
 4448 0eaa 02       		.uleb128 0x2
 4449 0eab 76       		.byte	0x76
 4450 0eac 00       		.sleb128 0
 4451 0ead 00       		.byte	0
 4452 0eae 18       		.uleb128 0x18
 4453 0eaf 2A000000 		.4byte	.LVL160
 4454 0eb3 47180000 		.4byte	0x1847
 4455 0eb7 C70E0000 		.4byte	0xec7
 4456 0ebb 19       		.uleb128 0x19
 4457 0ebc 01       		.uleb128 0x1
 4458 0ebd 52       		.byte	0x52
 4459 0ebe 01       		.uleb128 0x1
 4460 0ebf 33       		.byte	0x33
 4461 0ec0 19       		.uleb128 0x19
ARM GAS  C:\Users\Tim\AppData\Local\Temp\ccELkyeR.s 			page 105


 4462 0ec1 01       		.uleb128 0x1
 4463 0ec2 51       		.byte	0x51
 4464 0ec3 02       		.uleb128 0x2
 4465 0ec4 75       		.byte	0x75
 4466 0ec5 00       		.sleb128 0
 4467 0ec6 00       		.byte	0
 4468 0ec7 18       		.uleb128 0x18
 4469 0ec8 3A000000 		.4byte	.LVL161
 4470 0ecc 7E170000 		.4byte	0x177e
 4471 0ed0 000F0000 		.4byte	0xf00
 4472 0ed4 19       		.uleb128 0x19
 4473 0ed5 01       		.uleb128 0x1
 4474 0ed6 53       		.byte	0x53
 4475 0ed7 03       		.uleb128 0x3
 4476 0ed8 91       		.byte	0x91
 4477 0ed9 9C7F     		.sleb128 -100
 4478 0edb 19       		.uleb128 0x19
 4479 0edc 01       		.uleb128 0x1
 4480 0edd 52       		.byte	0x52
 4481 0ede 02       		.uleb128 0x2
 4482 0edf 77       		.byte	0x77
 4483 0ee0 00       		.sleb128 0
 4484 0ee1 19       		.uleb128 0x19
 4485 0ee2 01       		.uleb128 0x1
 4486 0ee3 51       		.byte	0x51
 4487 0ee4 05       		.uleb128 0x5
 4488 0ee5 03       		.byte	0x3
 4489 0ee6 C0090000 		.4byte	.LC41
 4490 0eea 19       		.uleb128 0x19
 4491 0eeb 01       		.uleb128 0x1
 4492 0eec 50       		.byte	0x50
 4493 0eed 03       		.uleb128 0x3
 4494 0eee 91       		.byte	0x91
 4495 0eef A87F     		.sleb128 -88
 4496 0ef1 19       		.uleb128 0x19
 4497 0ef2 02       		.uleb128 0x2
 4498 0ef3 7D       		.byte	0x7d
 4499 0ef4 04       		.sleb128 4
 4500 0ef5 02       		.uleb128 0x2
 4501 0ef6 75       		.byte	0x75
 4502 0ef7 00       		.sleb128 0
 4503 0ef8 19       		.uleb128 0x19
 4504 0ef9 02       		.uleb128 0x2
 4505 0efa 7D       		.byte	0x7d
 4506 0efb 00       		.sleb128 0
 4507 0efc 02       		.uleb128 0x2
 4508 0efd 76       		.byte	0x76
 4509 0efe 00       		.sleb128 0
 4510 0eff 00       		.byte	0
 4511 0f00 1A       		.uleb128 0x1a
 4512 0f01 40000000 		.4byte	.LVL162
 4513 0f05 6D170000 		.4byte	0x176d
 4514 0f09 19       		.uleb128 0x19
 4515 0f0a 01       		.uleb128 0x1
 4516 0f0b 50       		.byte	0x50
 4517 0f0c 03       		.uleb128 0x3
 4518 0f0d 91       		.byte	0x91
ARM GAS  C:\Users\Tim\AppData\Local\Temp\ccELkyeR.s 			page 106


 4519 0f0e A87F     		.sleb128 -88
 4520 0f10 00       		.byte	0
 4521 0f11 00       		.byte	0
 4522 0f12 09       		.uleb128 0x9
 4523 0f13 8C000000 		.4byte	0x8c
 4524 0f17 220F0000 		.4byte	0xf22
 4525 0f1b 0A       		.uleb128 0xa
 4526 0f1c 7F000000 		.4byte	0x7f
 4527 0f20 09       		.byte	0x9
 4528 0f21 00       		.byte	0
 4529 0f22 1B       		.uleb128 0x1b
 4530 0f23 15010000 		.4byte	.LASF129
 4531 0f27 01       		.byte	0x1
 4532 0f28 2B01     		.2byte	0x12b
 4533 0f2a 00000000 		.4byte	.LFB74
 4534 0f2e 04010000 		.4byte	.LFE74-.LFB74
 4535 0f32 01       		.uleb128 0x1
 4536 0f33 9C       		.byte	0x9c
 4537 0f34 F5100000 		.4byte	0x10f5
 4538 0f38 24       		.uleb128 0x24
 4539 0f39 636D6400 		.ascii	"cmd\000"
 4540 0f3d 01       		.byte	0x1
 4541 0f3e 2B01     		.2byte	0x12b
 4542 0f40 A9000000 		.4byte	0xa9
 4543 0f44 41050000 		.4byte	.LLST22
 4544 0f48 1D       		.uleb128 0x1d
 4545 0f49 16000000 		.4byte	.LVL165
 4546 0f4d AA170000 		.4byte	0x17aa
 4547 0f51 18       		.uleb128 0x18
 4548 0f52 1C000000 		.4byte	.LVL166
 4549 0f56 6D170000 		.4byte	0x176d
 4550 0f5a 680F0000 		.4byte	0xf68
 4551 0f5e 19       		.uleb128 0x19
 4552 0f5f 01       		.uleb128 0x1
 4553 0f60 50       		.byte	0x50
 4554 0f61 05       		.uleb128 0x5
 4555 0f62 03       		.byte	0x3
 4556 0f63 DC090000 		.4byte	.LC42
 4557 0f67 00       		.byte	0
 4558 0f68 18       		.uleb128 0x18
 4559 0f69 24000000 		.4byte	.LVL167
 4560 0f6d 6D170000 		.4byte	0x176d
 4561 0f71 7C0F0000 		.4byte	0xf7c
 4562 0f75 19       		.uleb128 0x19
 4563 0f76 01       		.uleb128 0x1
 4564 0f77 50       		.byte	0x50
 4565 0f78 02       		.uleb128 0x2
 4566 0f79 74       		.byte	0x74
 4567 0f7a 00       		.sleb128 0
 4568 0f7b 00       		.byte	0
 4569 0f7c 18       		.uleb128 0x18
 4570 0f7d 36000000 		.4byte	.LVL168
 4571 0f81 E30C0000 		.4byte	0xce3
 4572 0f85 930F0000 		.4byte	0xf93
 4573 0f89 19       		.uleb128 0x19
 4574 0f8a 01       		.uleb128 0x1
 4575 0f8b 50       		.byte	0x50
ARM GAS  C:\Users\Tim\AppData\Local\Temp\ccELkyeR.s 			page 107


 4576 0f8c 05       		.uleb128 0x5
 4577 0f8d 03       		.byte	0x3
 4578 0f8e 180A0000 		.4byte	.LC43
 4579 0f92 00       		.byte	0
 4580 0f93 18       		.uleb128 0x18
 4581 0f94 46000000 		.4byte	.LVL169
 4582 0f98 E30C0000 		.4byte	0xce3
 4583 0f9c AA0F0000 		.4byte	0xfaa
 4584 0fa0 19       		.uleb128 0x19
 4585 0fa1 01       		.uleb128 0x1
 4586 0fa2 50       		.byte	0x50
 4587 0fa3 05       		.uleb128 0x5
 4588 0fa4 03       		.byte	0x3
 4589 0fa5 280A0000 		.4byte	.LC44
 4590 0fa9 00       		.byte	0
 4591 0faa 18       		.uleb128 0x18
 4592 0fab 4C000000 		.4byte	.LVL170
 4593 0faf 6D170000 		.4byte	0x176d
 4594 0fb3 BE0F0000 		.4byte	0xfbe
 4595 0fb7 19       		.uleb128 0x19
 4596 0fb8 01       		.uleb128 0x1
 4597 0fb9 50       		.byte	0x50
 4598 0fba 02       		.uleb128 0x2
 4599 0fbb 74       		.byte	0x74
 4600 0fbc 00       		.sleb128 0
 4601 0fbd 00       		.byte	0
 4602 0fbe 1D       		.uleb128 0x1d
 4603 0fbf 50000000 		.4byte	.LVL171
 4604 0fc3 79070000 		.4byte	0x779
 4605 0fc7 1D       		.uleb128 0x1d
 4606 0fc8 56000000 		.4byte	.LVL173
 4607 0fcc AA170000 		.4byte	0x17aa
 4608 0fd0 18       		.uleb128 0x18
 4609 0fd1 5C000000 		.4byte	.LVL174
 4610 0fd5 6D170000 		.4byte	0x176d
 4611 0fd9 E70F0000 		.4byte	0xfe7
 4612 0fdd 19       		.uleb128 0x19
 4613 0fde 01       		.uleb128 0x1
 4614 0fdf 50       		.byte	0x50
 4615 0fe0 05       		.uleb128 0x5
 4616 0fe1 03       		.byte	0x3
 4617 0fe2 380A0000 		.4byte	.LC45
 4618 0fe6 00       		.byte	0
 4619 0fe7 18       		.uleb128 0x18
 4620 0fe8 64000000 		.4byte	.LVL175
 4621 0fec 6D170000 		.4byte	0x176d
 4622 0ff0 FB0F0000 		.4byte	0xffb
 4623 0ff4 19       		.uleb128 0x19
 4624 0ff5 01       		.uleb128 0x1
 4625 0ff6 50       		.byte	0x50
 4626 0ff7 02       		.uleb128 0x2
 4627 0ff8 74       		.byte	0x74
 4628 0ff9 00       		.sleb128 0
 4629 0ffa 00       		.byte	0
 4630 0ffb 18       		.uleb128 0x18
 4631 0ffc 76000000 		.4byte	.LVL176
 4632 1000 E30C0000 		.4byte	0xce3
ARM GAS  C:\Users\Tim\AppData\Local\Temp\ccELkyeR.s 			page 108


 4633 1004 12100000 		.4byte	0x1012
 4634 1008 19       		.uleb128 0x19
 4635 1009 01       		.uleb128 0x1
 4636 100a 50       		.byte	0x50
 4637 100b 05       		.uleb128 0x5
 4638 100c 03       		.byte	0x3
 4639 100d 780A0000 		.4byte	.LC46
 4640 1011 00       		.byte	0
 4641 1012 18       		.uleb128 0x18
 4642 1013 86000000 		.4byte	.LVL177
 4643 1017 E30C0000 		.4byte	0xce3
 4644 101b 29100000 		.4byte	0x1029
 4645 101f 19       		.uleb128 0x19
 4646 1020 01       		.uleb128 0x1
 4647 1021 50       		.byte	0x50
 4648 1022 05       		.uleb128 0x5
 4649 1023 03       		.byte	0x3
 4650 1024 880A0000 		.4byte	.LC47
 4651 1028 00       		.byte	0
 4652 1029 18       		.uleb128 0x18
 4653 102a 8C000000 		.4byte	.LVL178
 4654 102e 6D170000 		.4byte	0x176d
 4655 1032 3D100000 		.4byte	0x103d
 4656 1036 19       		.uleb128 0x19
 4657 1037 01       		.uleb128 0x1
 4658 1038 50       		.byte	0x50
 4659 1039 02       		.uleb128 0x2
 4660 103a 74       		.byte	0x74
 4661 103b 00       		.sleb128 0
 4662 103c 00       		.byte	0
 4663 103d 1D       		.uleb128 0x1d
 4664 103e 90000000 		.4byte	.LVL179
 4665 1042 79070000 		.4byte	0x779
 4666 1046 1D       		.uleb128 0x1d
 4667 1047 96000000 		.4byte	.LVL181
 4668 104b AA170000 		.4byte	0x17aa
 4669 104f 18       		.uleb128 0x18
 4670 1050 9C000000 		.4byte	.LVL182
 4671 1054 6D170000 		.4byte	0x176d
 4672 1058 66100000 		.4byte	0x1066
 4673 105c 19       		.uleb128 0x19
 4674 105d 01       		.uleb128 0x1
 4675 105e 50       		.byte	0x50
 4676 105f 05       		.uleb128 0x5
 4677 1060 03       		.byte	0x3
 4678 1061 980A0000 		.4byte	.LC48
 4679 1065 00       		.byte	0
 4680 1066 18       		.uleb128 0x18
 4681 1067 A2000000 		.4byte	.LVL183
 4682 106b 6D170000 		.4byte	0x176d
 4683 106f 7D100000 		.4byte	0x107d
 4684 1073 19       		.uleb128 0x19
 4685 1074 01       		.uleb128 0x1
 4686 1075 50       		.byte	0x50
 4687 1076 05       		.uleb128 0x5
 4688 1077 03       		.byte	0x3
 4689 1078 68010000 		.4byte	.LC5
ARM GAS  C:\Users\Tim\AppData\Local\Temp\ccELkyeR.s 			page 109


 4690 107c 00       		.byte	0
 4691 107d 18       		.uleb128 0x18
 4692 107e AE000000 		.4byte	.LVL184
 4693 1082 0C0E0000 		.4byte	0xe0c
 4694 1086 94100000 		.4byte	0x1094
 4695 108a 19       		.uleb128 0x19
 4696 108b 01       		.uleb128 0x1
 4697 108c 50       		.byte	0x50
 4698 108d 05       		.uleb128 0x5
 4699 108e 03       		.byte	0x3
 4700 108f C00A0000 		.4byte	.LC49
 4701 1093 00       		.byte	0
 4702 1094 18       		.uleb128 0x18
 4703 1095 B8000000 		.4byte	.LVL185
 4704 1099 0C0E0000 		.4byte	0xe0c
 4705 109d AB100000 		.4byte	0x10ab
 4706 10a1 19       		.uleb128 0x19
 4707 10a2 01       		.uleb128 0x1
 4708 10a3 50       		.byte	0x50
 4709 10a4 05       		.uleb128 0x5
 4710 10a5 03       		.byte	0x3
 4711 10a6 CC0A0000 		.4byte	.LC50
 4712 10aa 00       		.byte	0
 4713 10ab 1D       		.uleb128 0x1d
 4714 10ac BC000000 		.4byte	.LVL186
 4715 10b0 79070000 		.4byte	0x779
 4716 10b4 1D       		.uleb128 0x1d
 4717 10b5 C2000000 		.4byte	.LVL188
 4718 10b9 AA170000 		.4byte	0x17aa
 4719 10bd 18       		.uleb128 0x18
 4720 10be C8000000 		.4byte	.LVL189
 4721 10c2 6D170000 		.4byte	0x176d
 4722 10c6 D4100000 		.4byte	0x10d4
 4723 10ca 19       		.uleb128 0x19
 4724 10cb 01       		.uleb128 0x1
 4725 10cc 50       		.byte	0x50
 4726 10cd 05       		.uleb128 0x5
 4727 10ce 03       		.byte	0x3
 4728 10cf D80A0000 		.4byte	.LC51
 4729 10d3 00       		.byte	0
 4730 10d4 18       		.uleb128 0x18
 4731 10d5 CE000000 		.4byte	.LVL190
 4732 10d9 6D170000 		.4byte	0x176d
 4733 10dd EB100000 		.4byte	0x10eb
 4734 10e1 19       		.uleb128 0x19
 4735 10e2 01       		.uleb128 0x1
 4736 10e3 50       		.byte	0x50
 4737 10e4 05       		.uleb128 0x5
 4738 10e5 03       		.byte	0x3
 4739 10e6 68010000 		.4byte	.LC5
 4740 10ea 00       		.byte	0
 4741 10eb 1D       		.uleb128 0x1d
 4742 10ec D2000000 		.4byte	.LVL191
 4743 10f0 79070000 		.4byte	0x779
 4744 10f4 00       		.byte	0
 4745 10f5 2D       		.uleb128 0x2d
 4746 10f6 390B0000 		.4byte	.LASF130
ARM GAS  C:\Users\Tim\AppData\Local\Temp\ccELkyeR.s 			page 110


 4747 10fa 01       		.byte	0x1
 4748 10fb 8F02     		.2byte	0x28f
 4749 10fd 00000000 		.4byte	.LFB81
 4750 1101 3C000000 		.4byte	.LFE81-.LFB81
 4751 1105 01       		.uleb128 0x1
 4752 1106 9C       		.byte	0x9c
 4753 1107 27110000 		.4byte	0x1127
 4754 110b 1D       		.uleb128 0x1d
 4755 110c 18000000 		.4byte	.LVL192
 4756 1110 62180000 		.4byte	0x1862
 4757 1114 1D       		.uleb128 0x1d
 4758 1115 1C000000 		.4byte	.LVL193
 4759 1119 6F180000 		.4byte	0x186f
 4760 111d 1D       		.uleb128 0x1d
 4761 111e 20000000 		.4byte	.LVL194
 4762 1122 7C180000 		.4byte	0x187c
 4763 1126 00       		.byte	0
 4764 1127 2D       		.uleb128 0x2d
 4765 1128 CA020000 		.4byte	.LASF131
 4766 112c 01       		.byte	0x1
 4767 112d A202     		.2byte	0x2a2
 4768 112f 00000000 		.4byte	.LFB82
 4769 1133 14000000 		.4byte	.LFE82-.LFB82
 4770 1137 01       		.uleb128 0x1
 4771 1138 9C       		.byte	0x9c
 4772 1139 57110000 		.4byte	0x1157
 4773 113d 20       		.uleb128 0x20
 4774 113e 65050000 		.4byte	.LASF40
 4775 1142 01       		.byte	0x1
 4776 1143 AC02     		.2byte	0x2ac
 4777 1145 B5000000 		.4byte	0xb5
 4778 1149 AD050000 		.4byte	.LLST23
 4779 114d 1D       		.uleb128 0x1d
 4780 114e 0E000000 		.4byte	.LVL196
 4781 1152 89180000 		.4byte	0x1889
 4782 1156 00       		.byte	0
 4783 1157 2D       		.uleb128 0x2d
 4784 1158 8C070000 		.4byte	.LASF132
 4785 115c 01       		.byte	0x1
 4786 115d B702     		.2byte	0x2b7
 4787 115f 00000000 		.4byte	.LFB83
 4788 1163 D4000000 		.4byte	.LFE83-.LFB83
 4789 1167 01       		.uleb128 0x1
 4790 1168 9C       		.byte	0x9c
 4791 1169 0D120000 		.4byte	0x120d
 4792 116d 26       		.uleb128 0x26
 4793 116e 636D6400 		.ascii	"cmd\000"
 4794 1172 01       		.byte	0x1
 4795 1173 D502     		.2byte	0x2d5
 4796 1175 A9000000 		.4byte	0xa9
 4797 1179 C0050000 		.4byte	.LLST24
 4798 117d 1D       		.uleb128 0x1d
 4799 117e 06000000 		.4byte	.LVL197
 4800 1182 CA090000 		.4byte	0x9ca
 4801 1186 1D       		.uleb128 0x1d
 4802 1187 2A000000 		.4byte	.LVL199
 4803 118b 17050000 		.4byte	0x517
ARM GAS  C:\Users\Tim\AppData\Local\Temp\ccELkyeR.s 			page 111


 4804 118f 1D       		.uleb128 0x1d
 4805 1190 36000000 		.4byte	.LVL201
 4806 1194 F2050000 		.4byte	0x5f2
 4807 1198 1D       		.uleb128 0x1d
 4808 1199 42000000 		.4byte	.LVL203
 4809 119d 79070000 		.4byte	0x779
 4810 11a1 1D       		.uleb128 0x1d
 4811 11a2 54000000 		.4byte	.LVL205
 4812 11a6 FE090000 		.4byte	0x9fe
 4813 11aa 18       		.uleb128 0x18
 4814 11ab 64000000 		.4byte	.LVL206
 4815 11af 9A180000 		.4byte	0x189a
 4816 11b3 BD110000 		.4byte	0x11bd
 4817 11b7 19       		.uleb128 0x19
 4818 11b8 01       		.uleb128 0x1
 4819 11b9 50       		.byte	0x50
 4820 11ba 01       		.uleb128 0x1
 4821 11bb 31       		.byte	0x31
 4822 11bc 00       		.byte	0
 4823 11bd 1D       		.uleb128 0x1d
 4824 11be 6C000000 		.4byte	.LVL207
 4825 11c2 E5080000 		.4byte	0x8e5
 4826 11c6 1D       		.uleb128 0x1d
 4827 11c7 82000000 		.4byte	.LVL209
 4828 11cb 560A0000 		.4byte	0xa56
 4829 11cf 18       		.uleb128 0x18
 4830 11d0 92000000 		.4byte	.LVL210
 4831 11d4 9A180000 		.4byte	0x189a
 4832 11d8 E2110000 		.4byte	0x11e2
 4833 11dc 19       		.uleb128 0x19
 4834 11dd 01       		.uleb128 0x1
 4835 11de 50       		.byte	0x50
 4836 11df 01       		.uleb128 0x1
 4837 11e0 31       		.byte	0x31
 4838 11e1 00       		.byte	0
 4839 11e2 1D       		.uleb128 0x1d
 4840 11e3 9A000000 		.4byte	.LVL211
 4841 11e7 E5080000 		.4byte	0x8e5
 4842 11eb 1D       		.uleb128 0x1d
 4843 11ec AA000000 		.4byte	.LVL213
 4844 11f0 220F0000 		.4byte	0xf22
 4845 11f4 1D       		.uleb128 0x1d
 4846 11f5 BA000000 		.4byte	.LVL215
 4847 11f9 89090000 		.4byte	0x989
 4848 11fd 1A       		.uleb128 0x1a
 4849 11fe C0000000 		.4byte	.LVL216
 4850 1202 9A180000 		.4byte	0x189a
 4851 1206 19       		.uleb128 0x19
 4852 1207 01       		.uleb128 0x1
 4853 1208 50       		.byte	0x50
 4854 1209 01       		.uleb128 0x1
 4855 120a 30       		.byte	0x30
 4856 120b 00       		.byte	0
 4857 120c 00       		.byte	0
 4858 120d 2E       		.uleb128 0x2e
 4859 120e 28010000 		.4byte	.LASF133
 4860 1212 01       		.byte	0x1
ARM GAS  C:\Users\Tim\AppData\Local\Temp\ccELkyeR.s 			page 112


 4861 1213 3103     		.2byte	0x331
 4862 1215 25000000 		.4byte	0x25
 4863 1219 00000000 		.4byte	.LFB84
 4864 121d 46000000 		.4byte	.LFE84-.LFB84
 4865 1221 01       		.uleb128 0x1
 4866 1222 9C       		.byte	0x9c
 4867 1223 99120000 		.4byte	0x1299
 4868 1227 1E       		.uleb128 0x1e
 4869 1228 0B030000 		.4byte	.LASF134
 4870 122c 01       		.byte	0x1
 4871 122d 3303     		.2byte	0x333
 4872 122f 99120000 		.4byte	0x1299
 4873 1233 02       		.uleb128 0x2
 4874 1234 91       		.byte	0x91
 4875 1235 68       		.sleb128 -24
 4876 1236 20       		.uleb128 0x20
 4877 1237 170B0000 		.4byte	.LASF135
 4878 123b 01       		.byte	0x1
 4879 123c 3403     		.2byte	0x334
 4880 123e A9000000 		.4byte	0xa9
 4881 1242 20060000 		.4byte	.LLST25
 4882 1246 1E       		.uleb128 0x1e
 4883 1247 46030000 		.4byte	.LASF108
 4884 124b 01       		.byte	0x1
 4885 124c 3503     		.2byte	0x335
 4886 124e A9000000 		.4byte	0xa9
 4887 1252 01       		.uleb128 0x1
 4888 1253 55       		.byte	0x55
 4889 1254 1E       		.uleb128 0x1e
 4890 1255 C3020000 		.4byte	.LASF105
 4891 1259 01       		.byte	0x1
 4892 125a 4503     		.2byte	0x345
 4893 125c 25000000 		.4byte	0x25
 4894 1260 01       		.uleb128 0x1
 4895 1261 50       		.byte	0x50
 4896 1262 1D       		.uleb128 0x1d
 4897 1263 0A000000 		.4byte	.LVL221
 4898 1267 AB180000 		.4byte	0x18ab
 4899 126b 1D       		.uleb128 0x1d
 4900 126c 0E000000 		.4byte	.LVL222
 4901 1270 99170000 		.4byte	0x1799
 4902 1274 18       		.uleb128 0x18
 4903 1275 14000000 		.4byte	.LVL224
 4904 1279 AA170000 		.4byte	0x17aa
 4905 127d 88120000 		.4byte	0x1288
 4906 1281 19       		.uleb128 0x19
 4907 1282 01       		.uleb128 0x1
 4908 1283 50       		.byte	0x50
 4909 1284 02       		.uleb128 0x2
 4910 1285 75       		.byte	0x75
 4911 1286 00       		.sleb128 0
 4912 1287 00       		.byte	0
 4913 1288 1A       		.uleb128 0x1a
 4914 1289 3E000000 		.4byte	.LVL227
 4915 128d B8180000 		.4byte	0x18b8
 4916 1291 19       		.uleb128 0x19
 4917 1292 01       		.uleb128 0x1
ARM GAS  C:\Users\Tim\AppData\Local\Temp\ccELkyeR.s 			page 113


 4918 1293 50       		.byte	0x50
 4919 1294 02       		.uleb128 0x2
 4920 1295 7D       		.byte	0x7d
 4921 1296 00       		.sleb128 0
 4922 1297 00       		.byte	0
 4923 1298 00       		.byte	0
 4924 1299 09       		.uleb128 0x9
 4925 129a A9000000 		.4byte	0xa9
 4926 129e A9120000 		.4byte	0x12a9
 4927 12a2 0A       		.uleb128 0xa
 4928 12a3 7F000000 		.4byte	0x7f
 4929 12a7 05       		.byte	0x5
 4930 12a8 00       		.byte	0
 4931 12a9 2F       		.uleb128 0x2f
 4932 12aa 95020000 		.4byte	.LASF136
 4933 12ae 01       		.byte	0x1
 4934 12af 5103     		.2byte	0x351
 4935 12b1 BF120000 		.4byte	0x12bf
 4936 12b5 00000000 		.4byte	.LFB85
 4937 12b9 0C000000 		.4byte	.LFE85-.LFB85
 4938 12bd 01       		.uleb128 0x1
 4939 12be 9C       		.byte	0x9c
 4940 12bf 06       		.uleb128 0x6
 4941 12c0 04       		.byte	0x4
 4942 12c1 1A020000 		.4byte	0x21a
 4943 12c5 2F       		.uleb128 0x2f
 4944 12c6 BC040000 		.4byte	.LASF137
 4945 12ca 01       		.byte	0x1
 4946 12cb 5603     		.2byte	0x356
 4947 12cd BF120000 		.4byte	0x12bf
 4948 12d1 00000000 		.4byte	.LFB86
 4949 12d5 0C000000 		.4byte	.LFE86-.LFB86
 4950 12d9 01       		.uleb128 0x1
 4951 12da 9C       		.byte	0x9c
 4952 12db 30       		.uleb128 0x30
 4953 12dc 00040000 		.4byte	.LASF138
 4954 12e0 01       		.byte	0x1
 4955 12e1 6403     		.2byte	0x364
 4956 12e3 00000000 		.4byte	.LFB87
 4957 12e7 0C000000 		.4byte	.LFE87-.LFB87
 4958 12eb 01       		.uleb128 0x1
 4959 12ec 9C       		.byte	0x9c
 4960 12ed 0E130000 		.4byte	0x130e
 4961 12f1 31       		.uleb128 0x31
 4962 12f2 40080000 		.4byte	.LASF139
 4963 12f6 01       		.byte	0x1
 4964 12f7 6403     		.2byte	0x364
 4965 12f9 25000000 		.4byte	0x25
 4966 12fd 01       		.uleb128 0x1
 4967 12fe 50       		.byte	0x50
 4968 12ff 31       		.uleb128 0x31
 4969 1300 DE050000 		.4byte	.LASF140
 4970 1304 01       		.byte	0x1
 4971 1305 6403     		.2byte	0x364
 4972 1307 25000000 		.4byte	0x25
 4973 130b 01       		.uleb128 0x1
 4974 130c 51       		.byte	0x51
ARM GAS  C:\Users\Tim\AppData\Local\Temp\ccELkyeR.s 			page 114


 4975 130d 00       		.byte	0
 4976 130e 32       		.uleb128 0x32
 4977 130f 7F070000 		.4byte	.LASF210
 4978 1313 01       		.byte	0x1
 4979 1314 7203     		.2byte	0x372
 4980 1316 C9020000 		.4byte	0x2c9
 4981 131a 00000000 		.4byte	.LFB88
 4982 131e 9C000000 		.4byte	.LFE88-.LFB88
 4983 1322 01       		.uleb128 0x1
 4984 1323 9C       		.byte	0x9c
 4985 1324 B9130000 		.4byte	0x13b9
 4986 1328 1C       		.uleb128 0x1c
 4987 1329 0F020000 		.4byte	.LASF141
 4988 132d 01       		.byte	0x1
 4989 132e 7203     		.2byte	0x372
 4990 1330 33010000 		.4byte	0x133
 4991 1334 4A060000 		.4byte	.LLST26
 4992 1338 24       		.uleb128 0x24
 4993 1339 63707300 		.ascii	"cps\000"
 4994 133d 01       		.byte	0x1
 4995 133e 7203     		.2byte	0x372
 4996 1340 25000000 		.4byte	0x25
 4997 1344 9D060000 		.4byte	.LLST27
 4998 1348 1E       		.uleb128 0x1e
 4999 1349 01080000 		.4byte	.LASF142
 5000 134d 01       		.byte	0x1
 5001 134e 7403     		.2byte	0x374
 5002 1350 A9000000 		.4byte	0xa9
 5003 1354 05       		.uleb128 0x5
 5004 1355 03       		.byte	0x3
 5005 1356 11000000 		.4byte	send_once.8154
 5006 135a 26       		.uleb128 0x26
 5007 135b 70776D00 		.ascii	"pwm\000"
 5008 135f 01       		.byte	0x1
 5009 1360 7503     		.2byte	0x375
 5010 1362 C9020000 		.4byte	0x2c9
 5011 1366 F7060000 		.4byte	.LLST28
 5012 136a 33       		.uleb128 0x33
 5013 136b 12000000 		.4byte	.LBB2
 5014 136f 58000000 		.4byte	.LBE2-.LBB2
 5015 1373 A5130000 		.4byte	0x13a5
 5016 1377 20       		.uleb128 0x20
 5017 1378 12030000 		.4byte	.LASF143
 5018 137c 01       		.byte	0x1
 5019 137d 7F03     		.2byte	0x37f
 5020 137f B9130000 		.4byte	0x13b9
 5021 1383 31070000 		.4byte	.LLST29
 5022 1387 1A       		.uleb128 0x1a
 5023 1388 6A000000 		.4byte	.LVL241
 5024 138c 7D0B0000 		.4byte	0xb7d
 5025 1390 19       		.uleb128 0x19
 5026 1391 01       		.uleb128 0x1
 5027 1392 53       		.byte	0x53
 5028 1393 02       		.uleb128 0x2
 5029 1394 08       		.byte	0x8
 5030 1395 33       		.byte	0x33
 5031 1396 19       		.uleb128 0x19
ARM GAS  C:\Users\Tim\AppData\Local\Temp\ccELkyeR.s 			page 115


 5032 1397 01       		.uleb128 0x1
 5033 1398 52       		.byte	0x52
 5034 1399 03       		.uleb128 0x3
 5035 139a 74       		.byte	0x74
 5036 139b D801     		.sleb128 216
 5037 139d 19       		.uleb128 0x19
 5038 139e 01       		.uleb128 0x1
 5039 139f 51       		.byte	0x51
 5040 13a0 02       		.uleb128 0x2
 5041 13a1 74       		.byte	0x74
 5042 13a2 0C       		.sleb128 12
 5043 13a3 00       		.byte	0
 5044 13a4 00       		.byte	0
 5045 13a5 1A       		.uleb128 0x1a
 5046 13a6 78000000 		.4byte	.LVL244
 5047 13aa 6D170000 		.4byte	0x176d
 5048 13ae 19       		.uleb128 0x19
 5049 13af 01       		.uleb128 0x1
 5050 13b0 50       		.byte	0x50
 5051 13b1 05       		.uleb128 0x5
 5052 13b2 03       		.byte	0x3
 5053 13b3 000B0000 		.4byte	.LC52
 5054 13b7 00       		.byte	0
 5055 13b8 00       		.byte	0
 5056 13b9 06       		.uleb128 0x6
 5057 13ba 04       		.byte	0x4
 5058 13bb D5010000 		.4byte	0x1d5
 5059 13bf 2D       		.uleb128 0x2d
 5060 13c0 AB080000 		.4byte	.LASF144
 5061 13c4 01       		.byte	0x1
 5062 13c5 9703     		.2byte	0x397
 5063 13c7 00000000 		.4byte	.LFB89
 5064 13cb 10000000 		.4byte	.LFE89-.LFB89
 5065 13cf 01       		.uleb128 0x1
 5066 13d0 9C       		.byte	0x9c
 5067 13d1 F8130000 		.4byte	0x13f8
 5068 13d5 18       		.uleb128 0x18
 5069 13d6 08000000 		.4byte	.LVL247
 5070 13da 490C0000 		.4byte	0xc49
 5071 13de E8130000 		.4byte	0x13e8
 5072 13e2 19       		.uleb128 0x19
 5073 13e3 01       		.uleb128 0x1
 5074 13e4 50       		.byte	0x50
 5075 13e5 01       		.uleb128 0x1
 5076 13e6 31       		.byte	0x31
 5077 13e7 00       		.byte	0
 5078 13e8 1A       		.uleb128 0x1a
 5079 13e9 0E000000 		.4byte	.LVL248
 5080 13ed 490C0000 		.4byte	0xc49
 5081 13f1 19       		.uleb128 0x19
 5082 13f2 01       		.uleb128 0x1
 5083 13f3 50       		.byte	0x50
 5084 13f4 01       		.uleb128 0x1
 5085 13f5 32       		.byte	0x32
 5086 13f6 00       		.byte	0
 5087 13f7 00       		.byte	0
 5088 13f8 34       		.uleb128 0x34
ARM GAS  C:\Users\Tim\AppData\Local\Temp\ccELkyeR.s 			page 116


 5089 13f9 FD040000 		.4byte	.LASF145
 5090 13fd 01       		.byte	0x1
 5091 13fe A903     		.2byte	0x3a9
 5092 1400 00000000 		.4byte	.LFB90
 5093 1404 54010000 		.4byte	.LFE90-.LFB90
 5094 1408 01       		.uleb128 0x1
 5095 1409 9C       		.byte	0x9c
 5096 140a A6150000 		.4byte	0x15a6
 5097 140e 1C       		.uleb128 0x1c
 5098 140f CA050000 		.4byte	.LASF146
 5099 1413 01       		.byte	0x1
 5100 1414 A903     		.2byte	0x3a9
 5101 1416 A9000000 		.4byte	0xa9
 5102 141a 44070000 		.4byte	.LLST30
 5103 141e 1C       		.uleb128 0x1c
 5104 141f 25060000 		.4byte	.LASF147
 5105 1423 01       		.byte	0x1
 5106 1424 A903     		.2byte	0x3a9
 5107 1426 25000000 		.4byte	0x25
 5108 142a 65070000 		.4byte	.LLST31
 5109 142e 1C       		.uleb128 0x1c
 5110 142f E7010000 		.4byte	.LASF148
 5111 1433 01       		.byte	0x1
 5112 1434 A903     		.2byte	0x3a9
 5113 1436 25000000 		.4byte	0x25
 5114 143a 93070000 		.4byte	.LLST32
 5115 143e 1C       		.uleb128 0x1c
 5116 143f 4F0A0000 		.4byte	.LASF149
 5117 1443 01       		.byte	0x1
 5118 1444 A903     		.2byte	0x3a9
 5119 1446 B5040000 		.4byte	0x4b5
 5120 144a C1070000 		.4byte	.LLST33
 5121 144e 1C       		.uleb128 0x1c
 5122 144f 35030000 		.4byte	.LASF150
 5123 1453 01       		.byte	0x1
 5124 1454 A903     		.2byte	0x3a9
 5125 1456 B5040000 		.4byte	0x4b5
 5126 145a ED070000 		.4byte	.LLST34
 5127 145e 26       		.uleb128 0x26
 5128 145f 696900   		.ascii	"ii\000"
 5129 1462 01       		.byte	0x1
 5130 1463 AF03     		.2byte	0x3af
 5131 1465 A9000000 		.4byte	0xa9
 5132 1469 0D080000 		.4byte	.LLST35
 5133 146d 33       		.uleb128 0x33
 5134 146e 3E000000 		.4byte	.LBB3
 5135 1472 0C010000 		.4byte	.LBE3-.LBB3
 5136 1476 6B150000 		.4byte	0x156b
 5137 147a 20       		.uleb128 0x20
 5138 147b 5E040000 		.4byte	.LASF151
 5139 147f 01       		.byte	0x1
 5140 1480 BB03     		.2byte	0x3bb
 5141 1482 25000000 		.4byte	0x25
 5142 1486 4D080000 		.4byte	.LLST36
 5143 148a 20       		.uleb128 0x20
 5144 148b 82040000 		.4byte	.LASF152
 5145 148f 01       		.byte	0x1
ARM GAS  C:\Users\Tim\AppData\Local\Temp\ccELkyeR.s 			page 117


 5146 1490 BC03     		.2byte	0x3bc
 5147 1492 25000000 		.4byte	0x25
 5148 1496 6C080000 		.4byte	.LLST37
 5149 149a 20       		.uleb128 0x20
 5150 149b DC080000 		.4byte	.LASF153
 5151 149f 01       		.byte	0x1
 5152 14a0 BD03     		.2byte	0x3bd
 5153 14a2 25000000 		.4byte	0x25
 5154 14a6 8A080000 		.4byte	.LLST38
 5155 14aa 20       		.uleb128 0x20
 5156 14ab 8F080000 		.4byte	.LASF154
 5157 14af 01       		.byte	0x1
 5158 14b0 BE03     		.2byte	0x3be
 5159 14b2 25000000 		.4byte	0x25
 5160 14b6 A8080000 		.4byte	.LLST39
 5161 14ba 20       		.uleb128 0x20
 5162 14bb CD0A0000 		.4byte	.LASF155
 5163 14bf 01       		.byte	0x1
 5164 14c0 C003     		.2byte	0x3c0
 5165 14c2 25000000 		.4byte	0x25
 5166 14c6 C6080000 		.4byte	.LLST40
 5167 14ca 20       		.uleb128 0x20
 5168 14cb C0030000 		.4byte	.LASF156
 5169 14cf 01       		.byte	0x1
 5170 14d0 C203     		.2byte	0x3c2
 5171 14d2 25000000 		.4byte	0x25
 5172 14d6 D9080000 		.4byte	.LLST41
 5173 14da 20       		.uleb128 0x20
 5174 14db 3B040000 		.4byte	.LASF157
 5175 14df 01       		.byte	0x1
 5176 14e0 C403     		.2byte	0x3c4
 5177 14e2 25000000 		.4byte	0x25
 5178 14e6 EC080000 		.4byte	.LLST42
 5179 14ea 20       		.uleb128 0x20
 5180 14eb DE070000 		.4byte	.LASF158
 5181 14ef 01       		.byte	0x1
 5182 14f0 C503     		.2byte	0x3c5
 5183 14f2 25000000 		.4byte	0x25
 5184 14f6 0A090000 		.4byte	.LLST43
 5185 14fa 20       		.uleb128 0x20
 5186 14fb F2030000 		.4byte	.LASF159
 5187 14ff 01       		.byte	0x1
 5188 1500 C603     		.2byte	0x3c6
 5189 1502 25000000 		.4byte	0x25
 5190 1506 28090000 		.4byte	.LLST44
 5191 150a 20       		.uleb128 0x20
 5192 150b 22040000 		.4byte	.LASF160
 5193 150f 01       		.byte	0x1
 5194 1510 C703     		.2byte	0x3c7
 5195 1512 25000000 		.4byte	0x25
 5196 1516 47090000 		.4byte	.LLST45
 5197 151a 20       		.uleb128 0x20
 5198 151b 6C050000 		.4byte	.LASF161
 5199 151f 01       		.byte	0x1
 5200 1520 C903     		.2byte	0x3c9
 5201 1522 A9000000 		.4byte	0xa9
 5202 1526 65090000 		.4byte	.LLST46
ARM GAS  C:\Users\Tim\AppData\Local\Temp\ccELkyeR.s 			page 118


 5203 152a 20       		.uleb128 0x20
 5204 152b 17050000 		.4byte	.LASF162
 5205 152f 01       		.byte	0x1
 5206 1530 CB03     		.2byte	0x3cb
 5207 1532 25000000 		.4byte	0x25
 5208 1536 87090000 		.4byte	.LLST47
 5209 153a 20       		.uleb128 0x20
 5210 153b D1040000 		.4byte	.LASF163
 5211 153f 01       		.byte	0x1
 5212 1540 CC03     		.2byte	0x3cc
 5213 1542 25000000 		.4byte	0x25
 5214 1546 A6090000 		.4byte	.LLST48
 5215 154a 20       		.uleb128 0x20
 5216 154b 52020000 		.4byte	.LASF164
 5217 154f 01       		.byte	0x1
 5218 1550 D203     		.2byte	0x3d2
 5219 1552 25000000 		.4byte	0x25
 5220 1556 C5090000 		.4byte	.LLST49
 5221 155a 20       		.uleb128 0x20
 5222 155b 9C000000 		.4byte	.LASF165
 5223 155f 01       		.byte	0x1
 5224 1560 D303     		.2byte	0x3d3
 5225 1562 25000000 		.4byte	0x25
 5226 1566 0F0A0000 		.4byte	.LLST50
 5227 156a 00       		.byte	0
 5228 156b 18       		.uleb128 0x18
 5229 156c 1E000000 		.4byte	.LVL253
 5230 1570 CD180000 		.4byte	0x18cd
 5231 1574 8A150000 		.4byte	0x158a
 5232 1578 19       		.uleb128 0x19
 5233 1579 01       		.uleb128 0x1
 5234 157a 52       		.byte	0x52
 5235 157b 02       		.uleb128 0x2
 5236 157c 75       		.byte	0x75
 5237 157d 00       		.sleb128 0
 5238 157e 19       		.uleb128 0x19
 5239 157f 01       		.uleb128 0x1
 5240 1580 51       		.byte	0x51
 5241 1581 01       		.uleb128 0x1
 5242 1582 30       		.byte	0x30
 5243 1583 19       		.uleb128 0x19
 5244 1584 01       		.uleb128 0x1
 5245 1585 50       		.byte	0x50
 5246 1586 02       		.uleb128 0x2
 5247 1587 7A       		.byte	0x7a
 5248 1588 00       		.sleb128 0
 5249 1589 00       		.byte	0
 5250 158a 1A       		.uleb128 0x1a
 5251 158b 28000000 		.4byte	.LVL254
 5252 158f CD180000 		.4byte	0x18cd
 5253 1593 19       		.uleb128 0x19
 5254 1594 01       		.uleb128 0x1
 5255 1595 52       		.byte	0x52
 5256 1596 02       		.uleb128 0x2
 5257 1597 75       		.byte	0x75
 5258 1598 00       		.sleb128 0
 5259 1599 19       		.uleb128 0x19
ARM GAS  C:\Users\Tim\AppData\Local\Temp\ccELkyeR.s 			page 119


 5260 159a 01       		.uleb128 0x1
 5261 159b 51       		.byte	0x51
 5262 159c 01       		.uleb128 0x1
 5263 159d 30       		.byte	0x30
 5264 159e 19       		.uleb128 0x19
 5265 159f 01       		.uleb128 0x1
 5266 15a0 50       		.byte	0x50
 5267 15a1 02       		.uleb128 0x2
 5268 15a2 7B       		.byte	0x7b
 5269 15a3 00       		.sleb128 0
 5270 15a4 00       		.byte	0
 5271 15a5 00       		.byte	0
 5272 15a6 2C       		.uleb128 0x2c
 5273 15a7 A30B0000 		.4byte	.LASF166
 5274 15ab 01       		.byte	0x1
 5275 15ac 4B       		.byte	0x4b
 5276 15ad E2040000 		.4byte	0x4e2
 5277 15b1 05       		.uleb128 0x5
 5278 15b2 03       		.byte	0x3
 5279 15b3 10000000 		.4byte	ui_state
 5280 15b7 2C       		.uleb128 0x2c
 5281 15b8 D5010000 		.4byte	.LASF167
 5282 15bc 01       		.byte	0x1
 5283 15bd 4D       		.byte	0x4d
 5284 15be CF080000 		.4byte	0x8cf
 5285 15c2 05       		.uleb128 0x5
 5286 15c3 03       		.byte	0x3
 5287 15c4 08000000 		.4byte	active_cal
 5288 15c8 2C       		.uleb128 0x2c
 5289 15c9 97070000 		.4byte	.LASF168
 5290 15cd 01       		.byte	0x1
 5291 15ce 4E       		.byte	0x4e
 5292 15cf CF080000 		.4byte	0x8cf
 5293 15d3 05       		.uleb128 0x5
 5294 15d4 03       		.byte	0x3
 5295 15d5 0C000000 		.4byte	active_val
 5296 15d9 2C       		.uleb128 0x2c
 5297 15da 9F0A0000 		.4byte	.LASF169
 5298 15de 01       		.byte	0x1
 5299 15df 50       		.byte	0x50
 5300 15e0 25000000 		.4byte	0x25
 5301 15e4 05       		.uleb128 0x5
 5302 15e5 03       		.byte	0x3
 5303 15e6 00000000 		.4byte	left_cmd_velocity
 5304 15ea 2C       		.uleb128 0x2c
 5305 15eb 4C030000 		.4byte	.LASF170
 5306 15ef 01       		.byte	0x1
 5307 15f0 51       		.byte	0x51
 5308 15f1 25000000 		.4byte	0x25
 5309 15f5 05       		.uleb128 0x5
 5310 15f6 03       		.byte	0x3
 5311 15f7 04000000 		.4byte	right_cmd_velocity
 5312 15fb 35       		.uleb128 0x35
 5313 15fc D1070000 		.4byte	.LASF171
 5314 1600 0B       		.byte	0xb
 5315 1601 5506     		.2byte	0x655
 5316 1603 07160000 		.4byte	0x1607
ARM GAS  C:\Users\Tim\AppData\Local\Temp\ccELkyeR.s 			page 120


 5317 1607 36       		.uleb128 0x36
 5318 1608 9E000000 		.4byte	0x9e
 5319 160c 09       		.uleb128 0x9
 5320 160d 86000000 		.4byte	0x86
 5321 1611 1C160000 		.4byte	0x161c
 5322 1615 0A       		.uleb128 0xa
 5323 1616 7F000000 		.4byte	0x7f
 5324 161a 01       		.byte	0x1
 5325 161b 00       		.byte	0
 5326 161c 37       		.uleb128 0x37
 5327 161d B9000000 		.4byte	.LASF172
 5328 1621 01       		.byte	0x1
 5329 1622 48       		.byte	0x48
 5330 1623 0C160000 		.4byte	0x160c
 5331 1627 05       		.uleb128 0x5
 5332 1628 03       		.byte	0x3
 5333 1629 00000000 		.4byte	cal_stage_to_string
 5334 162d 09       		.uleb128 0x9
 5335 162e 86000000 		.4byte	0x86
 5336 1632 3D160000 		.4byte	0x163d
 5337 1636 0A       		.uleb128 0xa
 5338 1637 7F000000 		.4byte	0x7f
 5339 163b 05       		.byte	0x5
 5340 163c 00       		.byte	0
 5341 163d 37       		.uleb128 0x37
 5342 163e 4C070000 		.4byte	.LASF173
 5343 1642 01       		.byte	0x1
 5344 1643 49       		.byte	0x49
 5345 1644 2D160000 		.4byte	0x162d
 5346 1648 05       		.uleb128 0x5
 5347 1649 03       		.byte	0x3
 5348 164a 00000000 		.4byte	cal_state_to_string
 5349 164e 37       		.uleb128 0x37
 5350 164f A2070000 		.4byte	.LASF174
 5351 1653 08       		.byte	0x8
 5352 1654 61       		.byte	0x61
 5353 1655 5F160000 		.4byte	0x165f
 5354 1659 05       		.uleb128 0x5
 5355 165a 03       		.byte	0x3
 5356 165b 00000000 		.4byte	p_cal_eeprom
 5357 165f 06       		.uleb128 0x6
 5358 1660 04       		.byte	0x4
 5359 1661 65160000 		.4byte	0x1665
 5360 1665 36       		.uleb128 0x36
 5361 1666 BE020000 		.4byte	0x2be
 5362 166a 37       		.uleb128 0x37
 5363 166b B9070000 		.4byte	.LASF175
 5364 166f 08       		.byte	0x8
 5365 1670 63       		.byte	0x63
 5366 1671 FC000000 		.4byte	0xfc
 5367 1675 05       		.uleb128 0x5
 5368 1676 03       		.byte	0x3
 5369 1677 00000000 		.4byte	Cal_LeftTarget
 5370 167b 37       		.uleb128 0x37
 5371 167c 670B0000 		.4byte	.LASF176
 5372 1680 08       		.byte	0x8
 5373 1681 64       		.byte	0x64
ARM GAS  C:\Users\Tim\AppData\Local\Temp\ccELkyeR.s 			page 121


 5374 1682 FC000000 		.4byte	0xfc
 5375 1686 05       		.uleb128 0x5
 5376 1687 03       		.byte	0x3
 5377 1688 00000000 		.4byte	Cal_RightTarget
 5378 168c 09       		.uleb128 0x9
 5379 168d B9130000 		.4byte	0x13b9
 5380 1691 A2160000 		.4byte	0x16a2
 5381 1695 0A       		.uleb128 0xa
 5382 1696 7F000000 		.4byte	0x7f
 5383 169a 01       		.byte	0x1
 5384 169b 0A       		.uleb128 0xa
 5385 169c 7F000000 		.4byte	0x7f
 5386 16a0 01       		.byte	0x1
 5387 16a1 00       		.byte	0
 5388 16a2 37       		.uleb128 0x37
 5389 16a3 15020000 		.4byte	.LASF177
 5390 16a7 0C       		.byte	0xc
 5391 16a8 21       		.byte	0x21
 5392 16a9 8C160000 		.4byte	0x168c
 5393 16ad 05       		.uleb128 0x5
 5394 16ae 03       		.byte	0x3
 5395 16af 00000000 		.4byte	WHEEL_DIR_TO_CAL_DATA
 5396 16b3 37       		.uleb128 0x37
 5397 16b4 5E080000 		.4byte	.LASF178
 5398 16b8 0C       		.byte	0xc
 5399 16b9 23       		.byte	0x23
 5400 16ba CF080000 		.4byte	0x8cf
 5401 16be 05       		.uleb128 0x5
 5402 16bf 03       		.byte	0x3
 5403 16c0 00000000 		.4byte	CalMotor_Calibration
 5404 16c4 37       		.uleb128 0x37
 5405 16c5 5F030000 		.4byte	.LASF179
 5406 16c9 0C       		.byte	0xc
 5407 16ca 24       		.byte	0x24
 5408 16cb CF080000 		.4byte	0x8cf
 5409 16cf 05       		.uleb128 0x5
 5410 16d0 03       		.byte	0x3
 5411 16d1 00000000 		.4byte	CalMotor_Validation
 5412 16d5 37       		.uleb128 0x37
 5413 16d6 20000000 		.4byte	.LASF180
 5414 16da 09       		.byte	0x9
 5415 16db 27       		.byte	0x27
 5416 16dc CF080000 		.4byte	0x8cf
 5417 16e0 05       		.uleb128 0x5
 5418 16e1 03       		.byte	0x3
 5419 16e2 00000000 		.4byte	CalPid_LeftCalibration
 5420 16e6 37       		.uleb128 0x37
 5421 16e7 BB060000 		.4byte	.LASF181
 5422 16eb 09       		.byte	0x9
 5423 16ec 28       		.byte	0x28
 5424 16ed CF080000 		.4byte	0x8cf
 5425 16f1 05       		.uleb128 0x5
 5426 16f2 03       		.byte	0x3
 5427 16f3 00000000 		.4byte	CalPid_RightCalibration
 5428 16f7 37       		.uleb128 0x37
 5429 16f8 28090000 		.4byte	.LASF182
 5430 16fc 09       		.byte	0x9
ARM GAS  C:\Users\Tim\AppData\Local\Temp\ccELkyeR.s 			page 122


 5431 16fd 29       		.byte	0x29
 5432 16fe CF080000 		.4byte	0x8cf
 5433 1702 05       		.uleb128 0x5
 5434 1703 03       		.byte	0x3
 5435 1704 00000000 		.4byte	CalPid_LeftValidation
 5436 1708 37       		.uleb128 0x37
 5437 1709 BE010000 		.4byte	.LASF183
 5438 170d 09       		.byte	0x9
 5439 170e 2A       		.byte	0x2a
 5440 170f CF080000 		.4byte	0x8cf
 5441 1713 05       		.uleb128 0x5
 5442 1714 03       		.byte	0x3
 5443 1715 00000000 		.4byte	CalPid_RightValidation
 5444 1719 37       		.uleb128 0x37
 5445 171a FD060000 		.4byte	.LASF184
 5446 171e 0A       		.byte	0xa
 5447 171f 24       		.byte	0x24
 5448 1720 CF080000 		.4byte	0x8cf
 5449 1724 05       		.uleb128 0x5
 5450 1725 03       		.byte	0x3
 5451 1726 00000000 		.4byte	CalLin_Validation
 5452 172a 37       		.uleb128 0x37
 5453 172b A4050000 		.4byte	.LASF185
 5454 172f 0D       		.byte	0xd
 5455 1730 07       		.byte	0x7
 5456 1731 CF080000 		.4byte	0x8cf
 5457 1735 05       		.uleb128 0x5
 5458 1736 03       		.byte	0x3
 5459 1737 00000000 		.4byte	CalAng_Calibration
 5460 173b 09       		.uleb128 0x9
 5461 173c 8C000000 		.4byte	0x8c
 5462 1740 4B170000 		.4byte	0x174b
 5463 1744 0A       		.uleb128 0xa
 5464 1745 7F000000 		.4byte	0x7f
 5465 1749 FF       		.byte	0xff
 5466 174a 00       		.byte	0
 5467 174b 37       		.uleb128 0x37
 5468 174c EB020000 		.4byte	.LASF186
 5469 1750 0E       		.byte	0xe
 5470 1751 38       		.byte	0x38
 5471 1752 3B170000 		.4byte	0x173b
 5472 1756 05       		.uleb128 0x5
 5473 1757 03       		.byte	0x3
 5474 1758 00000000 		.4byte	formatted_string
 5475 175c 37       		.uleb128 0x37
 5476 175d EB090000 		.4byte	.LASF187
 5477 1761 0E       		.byte	0xe
 5478 1762 89       		.byte	0x89
 5479 1763 B5000000 		.4byte	0xb5
 5480 1767 05       		.uleb128 0x5
 5481 1768 03       		.byte	0x3
 5482 1769 00000000 		.4byte	debug_control_enabled
 5483 176d 38       		.uleb128 0x38
 5484 176e B2030000 		.4byte	.LASF188
 5485 1772 0F       		.byte	0xf
 5486 1773 16       		.byte	0x16
 5487 1774 7E170000 		.4byte	0x177e
ARM GAS  C:\Users\Tim\AppData\Local\Temp\ccELkyeR.s 			page 123


 5488 1778 15       		.uleb128 0x15
 5489 1779 86000000 		.4byte	0x86
 5490 177d 00       		.byte	0
 5491 177e 39       		.uleb128 0x39
 5492 177f 18070000 		.4byte	.LASF192
 5493 1783 11       		.byte	0x11
 5494 1784 DE       		.byte	0xde
 5495 1785 6F000000 		.4byte	0x6f
 5496 1789 99170000 		.4byte	0x1799
 5497 178d 15       		.uleb128 0x15
 5498 178e 86000000 		.4byte	0x86
 5499 1792 15       		.uleb128 0x15
 5500 1793 93000000 		.4byte	0x93
 5501 1797 0C       		.uleb128 0xc
 5502 1798 00       		.byte	0
 5503 1799 3A       		.uleb128 0x3a
 5504 179a 1D0A0000 		.4byte	.LASF189
 5505 179e 0F       		.byte	0xf
 5506 179f 17       		.byte	0x17
 5507 17a0 A9000000 		.4byte	0xa9
 5508 17a4 AA170000 		.4byte	0x17aa
 5509 17a8 0C       		.uleb128 0xc
 5510 17a9 00       		.byte	0
 5511 17aa 38       		.uleb128 0x38
 5512 17ab 73030000 		.4byte	.LASF190
 5513 17af 0F       		.byte	0xf
 5514 17b0 18       		.byte	0x18
 5515 17b1 BB170000 		.4byte	0x17bb
 5516 17b5 15       		.uleb128 0x15
 5517 17b6 A9000000 		.4byte	0xa9
 5518 17ba 00       		.byte	0
 5519 17bb 38       		.uleb128 0x38
 5520 17bc 1F080000 		.4byte	.LASF191
 5521 17c0 10       		.byte	0x10
 5522 17c1 61       		.byte	0x61
 5523 17c2 E0170000 		.4byte	0x17e0
 5524 17c6 15       		.uleb128 0x15
 5525 17c7 D9000000 		.4byte	0xd9
 5526 17cb 15       		.uleb128 0x15
 5527 17cc 3D0C0000 		.4byte	0xc3d
 5528 17d0 15       		.uleb128 0x15
 5529 17d1 A9000000 		.4byte	0xa9
 5530 17d5 15       		.uleb128 0x15
 5531 17d6 E0170000 		.4byte	0x17e0
 5532 17da 15       		.uleb128 0x15
 5533 17db E0170000 		.4byte	0x17e0
 5534 17df 00       		.byte	0
 5535 17e0 06       		.uleb128 0x6
 5536 17e1 04       		.byte	0x4
 5537 17e2 A9000000 		.4byte	0xa9
 5538 17e6 39       		.uleb128 0x39
 5539 17e7 49040000 		.4byte	.LASF193
 5540 17eb 10       		.byte	0x10
 5541 17ec 66       		.byte	0x66
 5542 17ed CD000000 		.4byte	0xcd
 5543 17f1 0F180000 		.4byte	0x180f
 5544 17f5 15       		.uleb128 0x15
ARM GAS  C:\Users\Tim\AppData\Local\Temp\ccELkyeR.s 			page 124


 5545 17f6 CD000000 		.4byte	0xcd
 5546 17fa 15       		.uleb128 0x15
 5547 17fb CD000000 		.4byte	0xcd
 5548 17ff 15       		.uleb128 0x15
 5549 1800 CD000000 		.4byte	0xcd
 5550 1804 15       		.uleb128 0x15
 5551 1805 B5000000 		.4byte	0xb5
 5552 1809 15       		.uleb128 0x15
 5553 180a B5000000 		.4byte	0xb5
 5554 180e 00       		.byte	0
 5555 180f 38       		.uleb128 0x38
 5556 1810 FB010000 		.4byte	.LASF194
 5557 1814 12       		.byte	0x12
 5558 1815 34       		.byte	0x34
 5559 1816 25180000 		.4byte	0x1825
 5560 181a 15       		.uleb128 0x15
 5561 181b B5000000 		.4byte	0xb5
 5562 181f 15       		.uleb128 0x15
 5563 1820 B5000000 		.4byte	0xb5
 5564 1824 00       		.byte	0
 5565 1825 38       		.uleb128 0x38
 5566 1826 64060000 		.4byte	.LASF195
 5567 182a 13       		.byte	0x13
 5568 182b 28       		.byte	0x28
 5569 182c 36180000 		.4byte	0x1836
 5570 1830 15       		.uleb128 0x15
 5571 1831 B5000000 		.4byte	0xb5
 5572 1835 00       		.byte	0
 5573 1836 38       		.uleb128 0x38
 5574 1837 73080000 		.4byte	.LASF196
 5575 183b 13       		.byte	0x13
 5576 183c 27       		.byte	0x27
 5577 183d 47180000 		.4byte	0x1847
 5578 1841 15       		.uleb128 0x15
 5579 1842 B5000000 		.4byte	0xb5
 5580 1846 00       		.byte	0
 5581 1847 38       		.uleb128 0x38
 5582 1848 06090000 		.4byte	.LASF197
 5583 184c 10       		.byte	0x10
 5584 184d 5E       		.byte	0x5e
 5585 184e 62180000 		.4byte	0x1862
 5586 1852 15       		.uleb128 0x15
 5587 1853 25000000 		.4byte	0x25
 5588 1857 15       		.uleb128 0x15
 5589 1858 86000000 		.4byte	0x86
 5590 185c 15       		.uleb128 0x15
 5591 185d 6F000000 		.4byte	0x6f
 5592 1861 00       		.byte	0
 5593 1862 3B       		.uleb128 0x3b
 5594 1863 F3070000 		.4byte	.LASF198
 5595 1867 0C       		.byte	0xc
 5596 1868 29       		.byte	0x29
 5597 1869 6F180000 		.4byte	0x186f
 5598 186d 0C       		.uleb128 0xc
 5599 186e 00       		.byte	0
 5600 186f 3B       		.uleb128 0x3b
 5601 1870 90000000 		.4byte	.LASF199
ARM GAS  C:\Users\Tim\AppData\Local\Temp\ccELkyeR.s 			page 125


 5602 1874 09       		.byte	0x9
 5603 1875 2F       		.byte	0x2f
 5604 1876 7C180000 		.4byte	0x187c
 5605 187a 0C       		.uleb128 0xc
 5606 187b 00       		.byte	0
 5607 187c 3B       		.uleb128 0x3b
 5608 187d 35070000 		.4byte	.LASF200
 5609 1881 0A       		.byte	0xa
 5610 1882 29       		.byte	0x29
 5611 1883 89180000 		.4byte	0x1889
 5612 1887 0C       		.uleb128 0xc
 5613 1888 00       		.byte	0
 5614 1889 38       		.uleb128 0x38
 5615 188a 3E090000 		.4byte	.LASF201
 5616 188e 13       		.byte	0x13
 5617 188f 29       		.byte	0x29
 5618 1890 9A180000 		.4byte	0x189a
 5619 1894 15       		.uleb128 0x15
 5620 1895 B5000000 		.4byte	0xb5
 5621 1899 00       		.byte	0
 5622 189a 38       		.uleb128 0x38
 5623 189b 510B0000 		.4byte	.LASF202
 5624 189f 14       		.byte	0x14
 5625 18a0 2B       		.byte	0x2b
 5626 18a1 AB180000 		.4byte	0x18ab
 5627 18a5 15       		.uleb128 0x15
 5628 18a6 A9000000 		.4byte	0xa9
 5629 18aa 00       		.byte	0
 5630 18ab 3B       		.uleb128 0x3b
 5631 18ac 41070000 		.4byte	.LASF203
 5632 18b0 0F       		.byte	0xf
 5633 18b1 14       		.byte	0x14
 5634 18b2 B8180000 		.4byte	0x18b8
 5635 18b6 0C       		.uleb128 0xc
 5636 18b7 00       		.byte	0
 5637 18b8 39       		.uleb128 0x39
 5638 18b9 720A0000 		.4byte	.LASF204
 5639 18bd 15       		.byte	0x15
 5640 18be 46       		.byte	0x46
 5641 18bf E5000000 		.4byte	0xe5
 5642 18c3 CD180000 		.4byte	0x18cd
 5643 18c7 15       		.uleb128 0x15
 5644 18c8 93000000 		.4byte	0x93
 5645 18cc 00       		.byte	0
 5646 18cd 3C       		.uleb128 0x3c
 5647 18ce 93010000 		.4byte	.LASF205
 5648 18d2 7D000000 		.4byte	0x7d
 5649 18d6 15       		.uleb128 0x15
 5650 18d7 7D000000 		.4byte	0x7d
 5651 18db 15       		.uleb128 0x15
 5652 18dc 6F000000 		.4byte	0x6f
 5653 18e0 15       		.uleb128 0x15
 5654 18e1 7F000000 		.4byte	0x7f
 5655 18e5 00       		.byte	0
 5656 18e6 00       		.byte	0
 5657              		.section	.debug_abbrev,"",%progbits
 5658              	.Ldebug_abbrev0:
ARM GAS  C:\Users\Tim\AppData\Local\Temp\ccELkyeR.s 			page 126


 5659 0000 01       		.uleb128 0x1
 5660 0001 11       		.uleb128 0x11
 5661 0002 01       		.byte	0x1
 5662 0003 25       		.uleb128 0x25
 5663 0004 0E       		.uleb128 0xe
 5664 0005 13       		.uleb128 0x13
 5665 0006 0B       		.uleb128 0xb
 5666 0007 03       		.uleb128 0x3
 5667 0008 0E       		.uleb128 0xe
 5668 0009 1B       		.uleb128 0x1b
 5669 000a 0E       		.uleb128 0xe
 5670 000b 55       		.uleb128 0x55
 5671 000c 17       		.uleb128 0x17
 5672 000d 11       		.uleb128 0x11
 5673 000e 01       		.uleb128 0x1
 5674 000f 10       		.uleb128 0x10
 5675 0010 17       		.uleb128 0x17
 5676 0011 00       		.byte	0
 5677 0012 00       		.byte	0
 5678 0013 02       		.uleb128 0x2
 5679 0014 24       		.uleb128 0x24
 5680 0015 00       		.byte	0
 5681 0016 0B       		.uleb128 0xb
 5682 0017 0B       		.uleb128 0xb
 5683 0018 3E       		.uleb128 0x3e
 5684 0019 0B       		.uleb128 0xb
 5685 001a 03       		.uleb128 0x3
 5686 001b 0E       		.uleb128 0xe
 5687 001c 00       		.byte	0
 5688 001d 00       		.byte	0
 5689 001e 03       		.uleb128 0x3
 5690 001f 16       		.uleb128 0x16
 5691 0020 00       		.byte	0
 5692 0021 03       		.uleb128 0x3
 5693 0022 0E       		.uleb128 0xe
 5694 0023 3A       		.uleb128 0x3a
 5695 0024 0B       		.uleb128 0xb
 5696 0025 3B       		.uleb128 0x3b
 5697 0026 0B       		.uleb128 0xb
 5698 0027 49       		.uleb128 0x49
 5699 0028 13       		.uleb128 0x13
 5700 0029 00       		.byte	0
 5701 002a 00       		.byte	0
 5702 002b 04       		.uleb128 0x4
 5703 002c 24       		.uleb128 0x24
 5704 002d 00       		.byte	0
 5705 002e 0B       		.uleb128 0xb
 5706 002f 0B       		.uleb128 0xb
 5707 0030 3E       		.uleb128 0x3e
 5708 0031 0B       		.uleb128 0xb
 5709 0032 03       		.uleb128 0x3
 5710 0033 08       		.uleb128 0x8
 5711 0034 00       		.byte	0
 5712 0035 00       		.byte	0
 5713 0036 05       		.uleb128 0x5
 5714 0037 0F       		.uleb128 0xf
 5715 0038 00       		.byte	0
ARM GAS  C:\Users\Tim\AppData\Local\Temp\ccELkyeR.s 			page 127


 5716 0039 0B       		.uleb128 0xb
 5717 003a 0B       		.uleb128 0xb
 5718 003b 00       		.byte	0
 5719 003c 00       		.byte	0
 5720 003d 06       		.uleb128 0x6
 5721 003e 0F       		.uleb128 0xf
 5722 003f 00       		.byte	0
 5723 0040 0B       		.uleb128 0xb
 5724 0041 0B       		.uleb128 0xb
 5725 0042 49       		.uleb128 0x49
 5726 0043 13       		.uleb128 0x13
 5727 0044 00       		.byte	0
 5728 0045 00       		.byte	0
 5729 0046 07       		.uleb128 0x7
 5730 0047 26       		.uleb128 0x26
 5731 0048 00       		.byte	0
 5732 0049 49       		.uleb128 0x49
 5733 004a 13       		.uleb128 0x13
 5734 004b 00       		.byte	0
 5735 004c 00       		.byte	0
 5736 004d 08       		.uleb128 0x8
 5737 004e 16       		.uleb128 0x16
 5738 004f 00       		.byte	0
 5739 0050 03       		.uleb128 0x3
 5740 0051 0E       		.uleb128 0xe
 5741 0052 3A       		.uleb128 0x3a
 5742 0053 0B       		.uleb128 0xb
 5743 0054 3B       		.uleb128 0x3b
 5744 0055 05       		.uleb128 0x5
 5745 0056 49       		.uleb128 0x49
 5746 0057 13       		.uleb128 0x13
 5747 0058 00       		.byte	0
 5748 0059 00       		.byte	0
 5749 005a 09       		.uleb128 0x9
 5750 005b 01       		.uleb128 0x1
 5751 005c 01       		.byte	0x1
 5752 005d 49       		.uleb128 0x49
 5753 005e 13       		.uleb128 0x13
 5754 005f 01       		.uleb128 0x1
 5755 0060 13       		.uleb128 0x13
 5756 0061 00       		.byte	0
 5757 0062 00       		.byte	0
 5758 0063 0A       		.uleb128 0xa
 5759 0064 21       		.uleb128 0x21
 5760 0065 00       		.byte	0
 5761 0066 49       		.uleb128 0x49
 5762 0067 13       		.uleb128 0x13
 5763 0068 2F       		.uleb128 0x2f
 5764 0069 0B       		.uleb128 0xb
 5765 006a 00       		.byte	0
 5766 006b 00       		.byte	0
 5767 006c 0B       		.uleb128 0xb
 5768 006d 15       		.uleb128 0x15
 5769 006e 01       		.byte	0x1
 5770 006f 49       		.uleb128 0x49
 5771 0070 13       		.uleb128 0x13
 5772 0071 01       		.uleb128 0x1
ARM GAS  C:\Users\Tim\AppData\Local\Temp\ccELkyeR.s 			page 128


 5773 0072 13       		.uleb128 0x13
 5774 0073 00       		.byte	0
 5775 0074 00       		.byte	0
 5776 0075 0C       		.uleb128 0xc
 5777 0076 18       		.uleb128 0x18
 5778 0077 00       		.byte	0
 5779 0078 00       		.byte	0
 5780 0079 00       		.byte	0
 5781 007a 0D       		.uleb128 0xd
 5782 007b 04       		.uleb128 0x4
 5783 007c 01       		.byte	0x1
 5784 007d 0B       		.uleb128 0xb
 5785 007e 0B       		.uleb128 0xb
 5786 007f 3A       		.uleb128 0x3a
 5787 0080 0B       		.uleb128 0xb
 5788 0081 3B       		.uleb128 0x3b
 5789 0082 0B       		.uleb128 0xb
 5790 0083 01       		.uleb128 0x1
 5791 0084 13       		.uleb128 0x13
 5792 0085 00       		.byte	0
 5793 0086 00       		.byte	0
 5794 0087 0E       		.uleb128 0xe
 5795 0088 28       		.uleb128 0x28
 5796 0089 00       		.byte	0
 5797 008a 03       		.uleb128 0x3
 5798 008b 0E       		.uleb128 0xe
 5799 008c 1C       		.uleb128 0x1c
 5800 008d 0D       		.uleb128 0xd
 5801 008e 00       		.byte	0
 5802 008f 00       		.byte	0
 5803 0090 0F       		.uleb128 0xf
 5804 0091 13       		.uleb128 0x13
 5805 0092 01       		.byte	0x1
 5806 0093 03       		.uleb128 0x3
 5807 0094 0E       		.uleb128 0xe
 5808 0095 0B       		.uleb128 0xb
 5809 0096 05       		.uleb128 0x5
 5810 0097 3A       		.uleb128 0x3a
 5811 0098 0B       		.uleb128 0xb
 5812 0099 3B       		.uleb128 0x3b
 5813 009a 0B       		.uleb128 0xb
 5814 009b 01       		.uleb128 0x1
 5815 009c 13       		.uleb128 0x13
 5816 009d 00       		.byte	0
 5817 009e 00       		.byte	0
 5818 009f 10       		.uleb128 0x10
 5819 00a0 0D       		.uleb128 0xd
 5820 00a1 00       		.byte	0
 5821 00a2 03       		.uleb128 0x3
 5822 00a3 0E       		.uleb128 0xe
 5823 00a4 3A       		.uleb128 0x3a
 5824 00a5 0B       		.uleb128 0xb
 5825 00a6 3B       		.uleb128 0x3b
 5826 00a7 0B       		.uleb128 0xb
 5827 00a8 49       		.uleb128 0x49
 5828 00a9 13       		.uleb128 0x13
 5829 00aa 38       		.uleb128 0x38
ARM GAS  C:\Users\Tim\AppData\Local\Temp\ccELkyeR.s 			page 129


 5830 00ab 0B       		.uleb128 0xb
 5831 00ac 00       		.byte	0
 5832 00ad 00       		.byte	0
 5833 00ae 11       		.uleb128 0x11
 5834 00af 0D       		.uleb128 0xd
 5835 00b0 00       		.byte	0
 5836 00b1 03       		.uleb128 0x3
 5837 00b2 0E       		.uleb128 0xe
 5838 00b3 3A       		.uleb128 0x3a
 5839 00b4 0B       		.uleb128 0xb
 5840 00b5 3B       		.uleb128 0x3b
 5841 00b6 0B       		.uleb128 0xb
 5842 00b7 49       		.uleb128 0x49
 5843 00b8 13       		.uleb128 0x13
 5844 00b9 38       		.uleb128 0x38
 5845 00ba 05       		.uleb128 0x5
 5846 00bb 00       		.byte	0
 5847 00bc 00       		.byte	0
 5848 00bd 12       		.uleb128 0x12
 5849 00be 13       		.uleb128 0x13
 5850 00bf 01       		.byte	0x1
 5851 00c0 03       		.uleb128 0x3
 5852 00c1 0E       		.uleb128 0xe
 5853 00c2 0B       		.uleb128 0xb
 5854 00c3 0B       		.uleb128 0xb
 5855 00c4 3A       		.uleb128 0x3a
 5856 00c5 0B       		.uleb128 0xb
 5857 00c6 3B       		.uleb128 0x3b
 5858 00c7 0B       		.uleb128 0xb
 5859 00c8 01       		.uleb128 0x1
 5860 00c9 13       		.uleb128 0x13
 5861 00ca 00       		.byte	0
 5862 00cb 00       		.byte	0
 5863 00cc 13       		.uleb128 0x13
 5864 00cd 0D       		.uleb128 0xd
 5865 00ce 00       		.byte	0
 5866 00cf 03       		.uleb128 0x3
 5867 00d0 08       		.uleb128 0x8
 5868 00d1 3A       		.uleb128 0x3a
 5869 00d2 0B       		.uleb128 0xb
 5870 00d3 3B       		.uleb128 0x3b
 5871 00d4 0B       		.uleb128 0xb
 5872 00d5 49       		.uleb128 0x49
 5873 00d6 13       		.uleb128 0x13
 5874 00d7 38       		.uleb128 0x38
 5875 00d8 0B       		.uleb128 0xb
 5876 00d9 00       		.byte	0
 5877 00da 00       		.byte	0
 5878 00db 14       		.uleb128 0x14
 5879 00dc 15       		.uleb128 0x15
 5880 00dd 01       		.byte	0x1
 5881 00de 27       		.uleb128 0x27
 5882 00df 19       		.uleb128 0x19
 5883 00e0 49       		.uleb128 0x49
 5884 00e1 13       		.uleb128 0x13
 5885 00e2 01       		.uleb128 0x1
 5886 00e3 13       		.uleb128 0x13
ARM GAS  C:\Users\Tim\AppData\Local\Temp\ccELkyeR.s 			page 130


 5887 00e4 00       		.byte	0
 5888 00e5 00       		.byte	0
 5889 00e6 15       		.uleb128 0x15
 5890 00e7 05       		.uleb128 0x5
 5891 00e8 00       		.byte	0
 5892 00e9 49       		.uleb128 0x49
 5893 00ea 13       		.uleb128 0x13
 5894 00eb 00       		.byte	0
 5895 00ec 00       		.byte	0
 5896 00ed 16       		.uleb128 0x16
 5897 00ee 2E       		.uleb128 0x2e
 5898 00ef 00       		.byte	0
 5899 00f0 03       		.uleb128 0x3
 5900 00f1 0E       		.uleb128 0xe
 5901 00f2 3A       		.uleb128 0x3a
 5902 00f3 0B       		.uleb128 0xb
 5903 00f4 3B       		.uleb128 0x3b
 5904 00f5 0B       		.uleb128 0xb
 5905 00f6 49       		.uleb128 0x49
 5906 00f7 13       		.uleb128 0x13
 5907 00f8 11       		.uleb128 0x11
 5908 00f9 01       		.uleb128 0x1
 5909 00fa 12       		.uleb128 0x12
 5910 00fb 06       		.uleb128 0x6
 5911 00fc 40       		.uleb128 0x40
 5912 00fd 18       		.uleb128 0x18
 5913 00fe 9742     		.uleb128 0x2117
 5914 0100 19       		.uleb128 0x19
 5915 0101 00       		.byte	0
 5916 0102 00       		.byte	0
 5917 0103 17       		.uleb128 0x17
 5918 0104 2E       		.uleb128 0x2e
 5919 0105 01       		.byte	0x1
 5920 0106 03       		.uleb128 0x3
 5921 0107 0E       		.uleb128 0xe
 5922 0108 3A       		.uleb128 0x3a
 5923 0109 0B       		.uleb128 0xb
 5924 010a 3B       		.uleb128 0x3b
 5925 010b 0B       		.uleb128 0xb
 5926 010c 11       		.uleb128 0x11
 5927 010d 01       		.uleb128 0x1
 5928 010e 12       		.uleb128 0x12
 5929 010f 06       		.uleb128 0x6
 5930 0110 40       		.uleb128 0x40
 5931 0111 18       		.uleb128 0x18
 5932 0112 9742     		.uleb128 0x2117
 5933 0114 19       		.uleb128 0x19
 5934 0115 01       		.uleb128 0x1
 5935 0116 13       		.uleb128 0x13
 5936 0117 00       		.byte	0
 5937 0118 00       		.byte	0
 5938 0119 18       		.uleb128 0x18
 5939 011a 898201   		.uleb128 0x4109
 5940 011d 01       		.byte	0x1
 5941 011e 11       		.uleb128 0x11
 5942 011f 01       		.uleb128 0x1
 5943 0120 31       		.uleb128 0x31
ARM GAS  C:\Users\Tim\AppData\Local\Temp\ccELkyeR.s 			page 131


 5944 0121 13       		.uleb128 0x13
 5945 0122 01       		.uleb128 0x1
 5946 0123 13       		.uleb128 0x13
 5947 0124 00       		.byte	0
 5948 0125 00       		.byte	0
 5949 0126 19       		.uleb128 0x19
 5950 0127 8A8201   		.uleb128 0x410a
 5951 012a 00       		.byte	0
 5952 012b 02       		.uleb128 0x2
 5953 012c 18       		.uleb128 0x18
 5954 012d 9142     		.uleb128 0x2111
 5955 012f 18       		.uleb128 0x18
 5956 0130 00       		.byte	0
 5957 0131 00       		.byte	0
 5958 0132 1A       		.uleb128 0x1a
 5959 0133 898201   		.uleb128 0x4109
 5960 0136 01       		.byte	0x1
 5961 0137 11       		.uleb128 0x11
 5962 0138 01       		.uleb128 0x1
 5963 0139 31       		.uleb128 0x31
 5964 013a 13       		.uleb128 0x13
 5965 013b 00       		.byte	0
 5966 013c 00       		.byte	0
 5967 013d 1B       		.uleb128 0x1b
 5968 013e 2E       		.uleb128 0x2e
 5969 013f 01       		.byte	0x1
 5970 0140 03       		.uleb128 0x3
 5971 0141 0E       		.uleb128 0xe
 5972 0142 3A       		.uleb128 0x3a
 5973 0143 0B       		.uleb128 0xb
 5974 0144 3B       		.uleb128 0x3b
 5975 0145 05       		.uleb128 0x5
 5976 0146 27       		.uleb128 0x27
 5977 0147 19       		.uleb128 0x19
 5978 0148 11       		.uleb128 0x11
 5979 0149 01       		.uleb128 0x1
 5980 014a 12       		.uleb128 0x12
 5981 014b 06       		.uleb128 0x6
 5982 014c 40       		.uleb128 0x40
 5983 014d 18       		.uleb128 0x18
 5984 014e 9742     		.uleb128 0x2117
 5985 0150 19       		.uleb128 0x19
 5986 0151 01       		.uleb128 0x1
 5987 0152 13       		.uleb128 0x13
 5988 0153 00       		.byte	0
 5989 0154 00       		.byte	0
 5990 0155 1C       		.uleb128 0x1c
 5991 0156 05       		.uleb128 0x5
 5992 0157 00       		.byte	0
 5993 0158 03       		.uleb128 0x3
 5994 0159 0E       		.uleb128 0xe
 5995 015a 3A       		.uleb128 0x3a
 5996 015b 0B       		.uleb128 0xb
 5997 015c 3B       		.uleb128 0x3b
 5998 015d 05       		.uleb128 0x5
 5999 015e 49       		.uleb128 0x49
 6000 015f 13       		.uleb128 0x13
ARM GAS  C:\Users\Tim\AppData\Local\Temp\ccELkyeR.s 			page 132


 6001 0160 02       		.uleb128 0x2
 6002 0161 17       		.uleb128 0x17
 6003 0162 00       		.byte	0
 6004 0163 00       		.byte	0
 6005 0164 1D       		.uleb128 0x1d
 6006 0165 898201   		.uleb128 0x4109
 6007 0168 00       		.byte	0
 6008 0169 11       		.uleb128 0x11
 6009 016a 01       		.uleb128 0x1
 6010 016b 31       		.uleb128 0x31
 6011 016c 13       		.uleb128 0x13
 6012 016d 00       		.byte	0
 6013 016e 00       		.byte	0
 6014 016f 1E       		.uleb128 0x1e
 6015 0170 34       		.uleb128 0x34
 6016 0171 00       		.byte	0
 6017 0172 03       		.uleb128 0x3
 6018 0173 0E       		.uleb128 0xe
 6019 0174 3A       		.uleb128 0x3a
 6020 0175 0B       		.uleb128 0xb
 6021 0176 3B       		.uleb128 0x3b
 6022 0177 05       		.uleb128 0x5
 6023 0178 49       		.uleb128 0x49
 6024 0179 13       		.uleb128 0x13
 6025 017a 02       		.uleb128 0x2
 6026 017b 18       		.uleb128 0x18
 6027 017c 00       		.byte	0
 6028 017d 00       		.byte	0
 6029 017e 1F       		.uleb128 0x1f
 6030 017f 2E       		.uleb128 0x2e
 6031 0180 01       		.byte	0x1
 6032 0181 03       		.uleb128 0x3
 6033 0182 0E       		.uleb128 0xe
 6034 0183 3A       		.uleb128 0x3a
 6035 0184 0B       		.uleb128 0xb
 6036 0185 3B       		.uleb128 0x3b
 6037 0186 05       		.uleb128 0x5
 6038 0187 27       		.uleb128 0x27
 6039 0188 19       		.uleb128 0x19
 6040 0189 11       		.uleb128 0x11
 6041 018a 01       		.uleb128 0x1
 6042 018b 12       		.uleb128 0x12
 6043 018c 06       		.uleb128 0x6
 6044 018d 40       		.uleb128 0x40
 6045 018e 18       		.uleb128 0x18
 6046 018f 9642     		.uleb128 0x2116
 6047 0191 19       		.uleb128 0x19
 6048 0192 01       		.uleb128 0x1
 6049 0193 13       		.uleb128 0x13
 6050 0194 00       		.byte	0
 6051 0195 00       		.byte	0
 6052 0196 20       		.uleb128 0x20
 6053 0197 34       		.uleb128 0x34
 6054 0198 00       		.byte	0
 6055 0199 03       		.uleb128 0x3
 6056 019a 0E       		.uleb128 0xe
 6057 019b 3A       		.uleb128 0x3a
ARM GAS  C:\Users\Tim\AppData\Local\Temp\ccELkyeR.s 			page 133


 6058 019c 0B       		.uleb128 0xb
 6059 019d 3B       		.uleb128 0x3b
 6060 019e 05       		.uleb128 0x5
 6061 019f 49       		.uleb128 0x49
 6062 01a0 13       		.uleb128 0x13
 6063 01a1 02       		.uleb128 0x2
 6064 01a2 17       		.uleb128 0x17
 6065 01a3 00       		.byte	0
 6066 01a4 00       		.byte	0
 6067 01a5 21       		.uleb128 0x21
 6068 01a6 2E       		.uleb128 0x2e
 6069 01a7 01       		.byte	0x1
 6070 01a8 03       		.uleb128 0x3
 6071 01a9 0E       		.uleb128 0xe
 6072 01aa 3A       		.uleb128 0x3a
 6073 01ab 0B       		.uleb128 0xb
 6074 01ac 3B       		.uleb128 0x3b
 6075 01ad 05       		.uleb128 0x5
 6076 01ae 11       		.uleb128 0x11
 6077 01af 01       		.uleb128 0x1
 6078 01b0 12       		.uleb128 0x12
 6079 01b1 06       		.uleb128 0x6
 6080 01b2 40       		.uleb128 0x40
 6081 01b3 18       		.uleb128 0x18
 6082 01b4 9742     		.uleb128 0x2117
 6083 01b6 19       		.uleb128 0x19
 6084 01b7 01       		.uleb128 0x1
 6085 01b8 13       		.uleb128 0x13
 6086 01b9 00       		.byte	0
 6087 01ba 00       		.byte	0
 6088 01bb 22       		.uleb128 0x22
 6089 01bc 2E       		.uleb128 0x2e
 6090 01bd 01       		.byte	0x1
 6091 01be 03       		.uleb128 0x3
 6092 01bf 0E       		.uleb128 0xe
 6093 01c0 3A       		.uleb128 0x3a
 6094 01c1 0B       		.uleb128 0xb
 6095 01c2 3B       		.uleb128 0x3b
 6096 01c3 05       		.uleb128 0x5
 6097 01c4 49       		.uleb128 0x49
 6098 01c5 13       		.uleb128 0x13
 6099 01c6 11       		.uleb128 0x11
 6100 01c7 01       		.uleb128 0x1
 6101 01c8 12       		.uleb128 0x12
 6102 01c9 06       		.uleb128 0x6
 6103 01ca 40       		.uleb128 0x40
 6104 01cb 18       		.uleb128 0x18
 6105 01cc 9742     		.uleb128 0x2117
 6106 01ce 19       		.uleb128 0x19
 6107 01cf 01       		.uleb128 0x1
 6108 01d0 13       		.uleb128 0x13
 6109 01d1 00       		.byte	0
 6110 01d2 00       		.byte	0
 6111 01d3 23       		.uleb128 0x23
 6112 01d4 2E       		.uleb128 0x2e
 6113 01d5 01       		.byte	0x1
 6114 01d6 03       		.uleb128 0x3
ARM GAS  C:\Users\Tim\AppData\Local\Temp\ccELkyeR.s 			page 134


 6115 01d7 0E       		.uleb128 0xe
 6116 01d8 3A       		.uleb128 0x3a
 6117 01d9 0B       		.uleb128 0xb
 6118 01da 3B       		.uleb128 0x3b
 6119 01db 05       		.uleb128 0x5
 6120 01dc 27       		.uleb128 0x27
 6121 01dd 19       		.uleb128 0x19
 6122 01de 49       		.uleb128 0x49
 6123 01df 13       		.uleb128 0x13
 6124 01e0 11       		.uleb128 0x11
 6125 01e1 01       		.uleb128 0x1
 6126 01e2 12       		.uleb128 0x12
 6127 01e3 06       		.uleb128 0x6
 6128 01e4 40       		.uleb128 0x40
 6129 01e5 18       		.uleb128 0x18
 6130 01e6 9742     		.uleb128 0x2117
 6131 01e8 19       		.uleb128 0x19
 6132 01e9 01       		.uleb128 0x1
 6133 01ea 13       		.uleb128 0x13
 6134 01eb 00       		.byte	0
 6135 01ec 00       		.byte	0
 6136 01ed 24       		.uleb128 0x24
 6137 01ee 05       		.uleb128 0x5
 6138 01ef 00       		.byte	0
 6139 01f0 03       		.uleb128 0x3
 6140 01f1 08       		.uleb128 0x8
 6141 01f2 3A       		.uleb128 0x3a
 6142 01f3 0B       		.uleb128 0xb
 6143 01f4 3B       		.uleb128 0x3b
 6144 01f5 05       		.uleb128 0x5
 6145 01f6 49       		.uleb128 0x49
 6146 01f7 13       		.uleb128 0x13
 6147 01f8 02       		.uleb128 0x2
 6148 01f9 17       		.uleb128 0x17
 6149 01fa 00       		.byte	0
 6150 01fb 00       		.byte	0
 6151 01fc 25       		.uleb128 0x25
 6152 01fd 34       		.uleb128 0x34
 6153 01fe 00       		.byte	0
 6154 01ff 03       		.uleb128 0x3
 6155 0200 0E       		.uleb128 0xe
 6156 0201 3A       		.uleb128 0x3a
 6157 0202 0B       		.uleb128 0xb
 6158 0203 3B       		.uleb128 0x3b
 6159 0204 05       		.uleb128 0x5
 6160 0205 49       		.uleb128 0x49
 6161 0206 13       		.uleb128 0x13
 6162 0207 00       		.byte	0
 6163 0208 00       		.byte	0
 6164 0209 26       		.uleb128 0x26
 6165 020a 34       		.uleb128 0x34
 6166 020b 00       		.byte	0
 6167 020c 03       		.uleb128 0x3
 6168 020d 08       		.uleb128 0x8
 6169 020e 3A       		.uleb128 0x3a
 6170 020f 0B       		.uleb128 0xb
 6171 0210 3B       		.uleb128 0x3b
ARM GAS  C:\Users\Tim\AppData\Local\Temp\ccELkyeR.s 			page 135


 6172 0211 05       		.uleb128 0x5
 6173 0212 49       		.uleb128 0x49
 6174 0213 13       		.uleb128 0x13
 6175 0214 02       		.uleb128 0x2
 6176 0215 17       		.uleb128 0x17
 6177 0216 00       		.byte	0
 6178 0217 00       		.byte	0
 6179 0218 27       		.uleb128 0x27
 6180 0219 2E       		.uleb128 0x2e
 6181 021a 01       		.byte	0x1
 6182 021b 3F       		.uleb128 0x3f
 6183 021c 19       		.uleb128 0x19
 6184 021d 03       		.uleb128 0x3
 6185 021e 0E       		.uleb128 0xe
 6186 021f 3A       		.uleb128 0x3a
 6187 0220 0B       		.uleb128 0xb
 6188 0221 3B       		.uleb128 0x3b
 6189 0222 0B       		.uleb128 0xb
 6190 0223 27       		.uleb128 0x27
 6191 0224 19       		.uleb128 0x19
 6192 0225 11       		.uleb128 0x11
 6193 0226 01       		.uleb128 0x1
 6194 0227 12       		.uleb128 0x12
 6195 0228 06       		.uleb128 0x6
 6196 0229 40       		.uleb128 0x40
 6197 022a 18       		.uleb128 0x18
 6198 022b 9742     		.uleb128 0x2117
 6199 022d 19       		.uleb128 0x19
 6200 022e 01       		.uleb128 0x1
 6201 022f 13       		.uleb128 0x13
 6202 0230 00       		.byte	0
 6203 0231 00       		.byte	0
 6204 0232 28       		.uleb128 0x28
 6205 0233 05       		.uleb128 0x5
 6206 0234 00       		.byte	0
 6207 0235 03       		.uleb128 0x3
 6208 0236 08       		.uleb128 0x8
 6209 0237 3A       		.uleb128 0x3a
 6210 0238 0B       		.uleb128 0xb
 6211 0239 3B       		.uleb128 0x3b
 6212 023a 0B       		.uleb128 0xb
 6213 023b 49       		.uleb128 0x49
 6214 023c 13       		.uleb128 0x13
 6215 023d 02       		.uleb128 0x2
 6216 023e 17       		.uleb128 0x17
 6217 023f 00       		.byte	0
 6218 0240 00       		.byte	0
 6219 0241 29       		.uleb128 0x29
 6220 0242 34       		.uleb128 0x34
 6221 0243 00       		.byte	0
 6222 0244 03       		.uleb128 0x3
 6223 0245 0E       		.uleb128 0xe
 6224 0246 3A       		.uleb128 0x3a
 6225 0247 0B       		.uleb128 0xb
 6226 0248 3B       		.uleb128 0x3b
 6227 0249 0B       		.uleb128 0xb
 6228 024a 49       		.uleb128 0x49
ARM GAS  C:\Users\Tim\AppData\Local\Temp\ccELkyeR.s 			page 136


 6229 024b 13       		.uleb128 0x13
 6230 024c 02       		.uleb128 0x2
 6231 024d 17       		.uleb128 0x17
 6232 024e 00       		.byte	0
 6233 024f 00       		.byte	0
 6234 0250 2A       		.uleb128 0x2a
 6235 0251 05       		.uleb128 0x5
 6236 0252 00       		.byte	0
 6237 0253 03       		.uleb128 0x3
 6238 0254 0E       		.uleb128 0xe
 6239 0255 3A       		.uleb128 0x3a
 6240 0256 0B       		.uleb128 0xb
 6241 0257 3B       		.uleb128 0x3b
 6242 0258 0B       		.uleb128 0xb
 6243 0259 49       		.uleb128 0x49
 6244 025a 13       		.uleb128 0x13
 6245 025b 02       		.uleb128 0x2
 6246 025c 17       		.uleb128 0x17
 6247 025d 00       		.byte	0
 6248 025e 00       		.byte	0
 6249 025f 2B       		.uleb128 0x2b
 6250 0260 34       		.uleb128 0x34
 6251 0261 00       		.byte	0
 6252 0262 03       		.uleb128 0x3
 6253 0263 08       		.uleb128 0x8
 6254 0264 3A       		.uleb128 0x3a
 6255 0265 0B       		.uleb128 0xb
 6256 0266 3B       		.uleb128 0x3b
 6257 0267 0B       		.uleb128 0xb
 6258 0268 49       		.uleb128 0x49
 6259 0269 13       		.uleb128 0x13
 6260 026a 02       		.uleb128 0x2
 6261 026b 17       		.uleb128 0x17
 6262 026c 00       		.byte	0
 6263 026d 00       		.byte	0
 6264 026e 2C       		.uleb128 0x2c
 6265 026f 34       		.uleb128 0x34
 6266 0270 00       		.byte	0
 6267 0271 03       		.uleb128 0x3
 6268 0272 0E       		.uleb128 0xe
 6269 0273 3A       		.uleb128 0x3a
 6270 0274 0B       		.uleb128 0xb
 6271 0275 3B       		.uleb128 0x3b
 6272 0276 0B       		.uleb128 0xb
 6273 0277 49       		.uleb128 0x49
 6274 0278 13       		.uleb128 0x13
 6275 0279 02       		.uleb128 0x2
 6276 027a 18       		.uleb128 0x18
 6277 027b 00       		.byte	0
 6278 027c 00       		.byte	0
 6279 027d 2D       		.uleb128 0x2d
 6280 027e 2E       		.uleb128 0x2e
 6281 027f 01       		.byte	0x1
 6282 0280 3F       		.uleb128 0x3f
 6283 0281 19       		.uleb128 0x19
 6284 0282 03       		.uleb128 0x3
 6285 0283 0E       		.uleb128 0xe
ARM GAS  C:\Users\Tim\AppData\Local\Temp\ccELkyeR.s 			page 137


 6286 0284 3A       		.uleb128 0x3a
 6287 0285 0B       		.uleb128 0xb
 6288 0286 3B       		.uleb128 0x3b
 6289 0287 05       		.uleb128 0x5
 6290 0288 11       		.uleb128 0x11
 6291 0289 01       		.uleb128 0x1
 6292 028a 12       		.uleb128 0x12
 6293 028b 06       		.uleb128 0x6
 6294 028c 40       		.uleb128 0x40
 6295 028d 18       		.uleb128 0x18
 6296 028e 9742     		.uleb128 0x2117
 6297 0290 19       		.uleb128 0x19
 6298 0291 01       		.uleb128 0x1
 6299 0292 13       		.uleb128 0x13
 6300 0293 00       		.byte	0
 6301 0294 00       		.byte	0
 6302 0295 2E       		.uleb128 0x2e
 6303 0296 2E       		.uleb128 0x2e
 6304 0297 01       		.byte	0x1
 6305 0298 3F       		.uleb128 0x3f
 6306 0299 19       		.uleb128 0x19
 6307 029a 03       		.uleb128 0x3
 6308 029b 0E       		.uleb128 0xe
 6309 029c 3A       		.uleb128 0x3a
 6310 029d 0B       		.uleb128 0xb
 6311 029e 3B       		.uleb128 0x3b
 6312 029f 05       		.uleb128 0x5
 6313 02a0 49       		.uleb128 0x49
 6314 02a1 13       		.uleb128 0x13
 6315 02a2 11       		.uleb128 0x11
 6316 02a3 01       		.uleb128 0x1
 6317 02a4 12       		.uleb128 0x12
 6318 02a5 06       		.uleb128 0x6
 6319 02a6 40       		.uleb128 0x40
 6320 02a7 18       		.uleb128 0x18
 6321 02a8 9642     		.uleb128 0x2116
 6322 02aa 19       		.uleb128 0x19
 6323 02ab 01       		.uleb128 0x1
 6324 02ac 13       		.uleb128 0x13
 6325 02ad 00       		.byte	0
 6326 02ae 00       		.byte	0
 6327 02af 2F       		.uleb128 0x2f
 6328 02b0 2E       		.uleb128 0x2e
 6329 02b1 00       		.byte	0
 6330 02b2 3F       		.uleb128 0x3f
 6331 02b3 19       		.uleb128 0x19
 6332 02b4 03       		.uleb128 0x3
 6333 02b5 0E       		.uleb128 0xe
 6334 02b6 3A       		.uleb128 0x3a
 6335 02b7 0B       		.uleb128 0xb
 6336 02b8 3B       		.uleb128 0x3b
 6337 02b9 05       		.uleb128 0x5
 6338 02ba 49       		.uleb128 0x49
 6339 02bb 13       		.uleb128 0x13
 6340 02bc 11       		.uleb128 0x11
 6341 02bd 01       		.uleb128 0x1
 6342 02be 12       		.uleb128 0x12
ARM GAS  C:\Users\Tim\AppData\Local\Temp\ccELkyeR.s 			page 138


 6343 02bf 06       		.uleb128 0x6
 6344 02c0 40       		.uleb128 0x40
 6345 02c1 18       		.uleb128 0x18
 6346 02c2 9742     		.uleb128 0x2117
 6347 02c4 19       		.uleb128 0x19
 6348 02c5 00       		.byte	0
 6349 02c6 00       		.byte	0
 6350 02c7 30       		.uleb128 0x30
 6351 02c8 2E       		.uleb128 0x2e
 6352 02c9 01       		.byte	0x1
 6353 02ca 3F       		.uleb128 0x3f
 6354 02cb 19       		.uleb128 0x19
 6355 02cc 03       		.uleb128 0x3
 6356 02cd 0E       		.uleb128 0xe
 6357 02ce 3A       		.uleb128 0x3a
 6358 02cf 0B       		.uleb128 0xb
 6359 02d0 3B       		.uleb128 0x3b
 6360 02d1 05       		.uleb128 0x5
 6361 02d2 27       		.uleb128 0x27
 6362 02d3 19       		.uleb128 0x19
 6363 02d4 11       		.uleb128 0x11
 6364 02d5 01       		.uleb128 0x1
 6365 02d6 12       		.uleb128 0x12
 6366 02d7 06       		.uleb128 0x6
 6367 02d8 40       		.uleb128 0x40
 6368 02d9 18       		.uleb128 0x18
 6369 02da 9742     		.uleb128 0x2117
 6370 02dc 19       		.uleb128 0x19
 6371 02dd 01       		.uleb128 0x1
 6372 02de 13       		.uleb128 0x13
 6373 02df 00       		.byte	0
 6374 02e0 00       		.byte	0
 6375 02e1 31       		.uleb128 0x31
 6376 02e2 05       		.uleb128 0x5
 6377 02e3 00       		.byte	0
 6378 02e4 03       		.uleb128 0x3
 6379 02e5 0E       		.uleb128 0xe
 6380 02e6 3A       		.uleb128 0x3a
 6381 02e7 0B       		.uleb128 0xb
 6382 02e8 3B       		.uleb128 0x3b
 6383 02e9 05       		.uleb128 0x5
 6384 02ea 49       		.uleb128 0x49
 6385 02eb 13       		.uleb128 0x13
 6386 02ec 02       		.uleb128 0x2
 6387 02ed 18       		.uleb128 0x18
 6388 02ee 00       		.byte	0
 6389 02ef 00       		.byte	0
 6390 02f0 32       		.uleb128 0x32
 6391 02f1 2E       		.uleb128 0x2e
 6392 02f2 01       		.byte	0x1
 6393 02f3 3F       		.uleb128 0x3f
 6394 02f4 19       		.uleb128 0x19
 6395 02f5 03       		.uleb128 0x3
 6396 02f6 0E       		.uleb128 0xe
 6397 02f7 3A       		.uleb128 0x3a
 6398 02f8 0B       		.uleb128 0xb
 6399 02f9 3B       		.uleb128 0x3b
ARM GAS  C:\Users\Tim\AppData\Local\Temp\ccELkyeR.s 			page 139


 6400 02fa 05       		.uleb128 0x5
 6401 02fb 27       		.uleb128 0x27
 6402 02fc 19       		.uleb128 0x19
 6403 02fd 49       		.uleb128 0x49
 6404 02fe 13       		.uleb128 0x13
 6405 02ff 11       		.uleb128 0x11
 6406 0300 01       		.uleb128 0x1
 6407 0301 12       		.uleb128 0x12
 6408 0302 06       		.uleb128 0x6
 6409 0303 40       		.uleb128 0x40
 6410 0304 18       		.uleb128 0x18
 6411 0305 9642     		.uleb128 0x2116
 6412 0307 19       		.uleb128 0x19
 6413 0308 01       		.uleb128 0x1
 6414 0309 13       		.uleb128 0x13
 6415 030a 00       		.byte	0
 6416 030b 00       		.byte	0
 6417 030c 33       		.uleb128 0x33
 6418 030d 0B       		.uleb128 0xb
 6419 030e 01       		.byte	0x1
 6420 030f 11       		.uleb128 0x11
 6421 0310 01       		.uleb128 0x1
 6422 0311 12       		.uleb128 0x12
 6423 0312 06       		.uleb128 0x6
 6424 0313 01       		.uleb128 0x1
 6425 0314 13       		.uleb128 0x13
 6426 0315 00       		.byte	0
 6427 0316 00       		.byte	0
 6428 0317 34       		.uleb128 0x34
 6429 0318 2E       		.uleb128 0x2e
 6430 0319 01       		.byte	0x1
 6431 031a 3F       		.uleb128 0x3f
 6432 031b 19       		.uleb128 0x19
 6433 031c 03       		.uleb128 0x3
 6434 031d 0E       		.uleb128 0xe
 6435 031e 3A       		.uleb128 0x3a
 6436 031f 0B       		.uleb128 0xb
 6437 0320 3B       		.uleb128 0x3b
 6438 0321 05       		.uleb128 0x5
 6439 0322 27       		.uleb128 0x27
 6440 0323 19       		.uleb128 0x19
 6441 0324 11       		.uleb128 0x11
 6442 0325 01       		.uleb128 0x1
 6443 0326 12       		.uleb128 0x12
 6444 0327 06       		.uleb128 0x6
 6445 0328 40       		.uleb128 0x40
 6446 0329 18       		.uleb128 0x18
 6447 032a 9642     		.uleb128 0x2116
 6448 032c 19       		.uleb128 0x19
 6449 032d 01       		.uleb128 0x1
 6450 032e 13       		.uleb128 0x13
 6451 032f 00       		.byte	0
 6452 0330 00       		.byte	0
 6453 0331 35       		.uleb128 0x35
 6454 0332 34       		.uleb128 0x34
 6455 0333 00       		.byte	0
 6456 0334 03       		.uleb128 0x3
ARM GAS  C:\Users\Tim\AppData\Local\Temp\ccELkyeR.s 			page 140


 6457 0335 0E       		.uleb128 0xe
 6458 0336 3A       		.uleb128 0x3a
 6459 0337 0B       		.uleb128 0xb
 6460 0338 3B       		.uleb128 0x3b
 6461 0339 05       		.uleb128 0x5
 6462 033a 49       		.uleb128 0x49
 6463 033b 13       		.uleb128 0x13
 6464 033c 3F       		.uleb128 0x3f
 6465 033d 19       		.uleb128 0x19
 6466 033e 3C       		.uleb128 0x3c
 6467 033f 19       		.uleb128 0x19
 6468 0340 00       		.byte	0
 6469 0341 00       		.byte	0
 6470 0342 36       		.uleb128 0x36
 6471 0343 35       		.uleb128 0x35
 6472 0344 00       		.byte	0
 6473 0345 49       		.uleb128 0x49
 6474 0346 13       		.uleb128 0x13
 6475 0347 00       		.byte	0
 6476 0348 00       		.byte	0
 6477 0349 37       		.uleb128 0x37
 6478 034a 34       		.uleb128 0x34
 6479 034b 00       		.byte	0
 6480 034c 03       		.uleb128 0x3
 6481 034d 0E       		.uleb128 0xe
 6482 034e 3A       		.uleb128 0x3a
 6483 034f 0B       		.uleb128 0xb
 6484 0350 3B       		.uleb128 0x3b
 6485 0351 0B       		.uleb128 0xb
 6486 0352 49       		.uleb128 0x49
 6487 0353 13       		.uleb128 0x13
 6488 0354 3F       		.uleb128 0x3f
 6489 0355 19       		.uleb128 0x19
 6490 0356 02       		.uleb128 0x2
 6491 0357 18       		.uleb128 0x18
 6492 0358 00       		.byte	0
 6493 0359 00       		.byte	0
 6494 035a 38       		.uleb128 0x38
 6495 035b 2E       		.uleb128 0x2e
 6496 035c 01       		.byte	0x1
 6497 035d 3F       		.uleb128 0x3f
 6498 035e 19       		.uleb128 0x19
 6499 035f 03       		.uleb128 0x3
 6500 0360 0E       		.uleb128 0xe
 6501 0361 3A       		.uleb128 0x3a
 6502 0362 0B       		.uleb128 0xb
 6503 0363 3B       		.uleb128 0x3b
 6504 0364 0B       		.uleb128 0xb
 6505 0365 27       		.uleb128 0x27
 6506 0366 19       		.uleb128 0x19
 6507 0367 3C       		.uleb128 0x3c
 6508 0368 19       		.uleb128 0x19
 6509 0369 01       		.uleb128 0x1
 6510 036a 13       		.uleb128 0x13
 6511 036b 00       		.byte	0
 6512 036c 00       		.byte	0
 6513 036d 39       		.uleb128 0x39
ARM GAS  C:\Users\Tim\AppData\Local\Temp\ccELkyeR.s 			page 141


 6514 036e 2E       		.uleb128 0x2e
 6515 036f 01       		.byte	0x1
 6516 0370 3F       		.uleb128 0x3f
 6517 0371 19       		.uleb128 0x19
 6518 0372 03       		.uleb128 0x3
 6519 0373 0E       		.uleb128 0xe
 6520 0374 3A       		.uleb128 0x3a
 6521 0375 0B       		.uleb128 0xb
 6522 0376 3B       		.uleb128 0x3b
 6523 0377 0B       		.uleb128 0xb
 6524 0378 27       		.uleb128 0x27
 6525 0379 19       		.uleb128 0x19
 6526 037a 49       		.uleb128 0x49
 6527 037b 13       		.uleb128 0x13
 6528 037c 3C       		.uleb128 0x3c
 6529 037d 19       		.uleb128 0x19
 6530 037e 01       		.uleb128 0x1
 6531 037f 13       		.uleb128 0x13
 6532 0380 00       		.byte	0
 6533 0381 00       		.byte	0
 6534 0382 3A       		.uleb128 0x3a
 6535 0383 2E       		.uleb128 0x2e
 6536 0384 01       		.byte	0x1
 6537 0385 3F       		.uleb128 0x3f
 6538 0386 19       		.uleb128 0x19
 6539 0387 03       		.uleb128 0x3
 6540 0388 0E       		.uleb128 0xe
 6541 0389 3A       		.uleb128 0x3a
 6542 038a 0B       		.uleb128 0xb
 6543 038b 3B       		.uleb128 0x3b
 6544 038c 0B       		.uleb128 0xb
 6545 038d 49       		.uleb128 0x49
 6546 038e 13       		.uleb128 0x13
 6547 038f 3C       		.uleb128 0x3c
 6548 0390 19       		.uleb128 0x19
 6549 0391 01       		.uleb128 0x1
 6550 0392 13       		.uleb128 0x13
 6551 0393 00       		.byte	0
 6552 0394 00       		.byte	0
 6553 0395 3B       		.uleb128 0x3b
 6554 0396 2E       		.uleb128 0x2e
 6555 0397 01       		.byte	0x1
 6556 0398 3F       		.uleb128 0x3f
 6557 0399 19       		.uleb128 0x19
 6558 039a 03       		.uleb128 0x3
 6559 039b 0E       		.uleb128 0xe
 6560 039c 3A       		.uleb128 0x3a
 6561 039d 0B       		.uleb128 0xb
 6562 039e 3B       		.uleb128 0x3b
 6563 039f 0B       		.uleb128 0xb
 6564 03a0 3C       		.uleb128 0x3c
 6565 03a1 19       		.uleb128 0x19
 6566 03a2 01       		.uleb128 0x1
 6567 03a3 13       		.uleb128 0x13
 6568 03a4 00       		.byte	0
 6569 03a5 00       		.byte	0
 6570 03a6 3C       		.uleb128 0x3c
ARM GAS  C:\Users\Tim\AppData\Local\Temp\ccELkyeR.s 			page 142


 6571 03a7 2E       		.uleb128 0x2e
 6572 03a8 01       		.byte	0x1
 6573 03a9 3F       		.uleb128 0x3f
 6574 03aa 19       		.uleb128 0x19
 6575 03ab 03       		.uleb128 0x3
 6576 03ac 0E       		.uleb128 0xe
 6577 03ad 27       		.uleb128 0x27
 6578 03ae 19       		.uleb128 0x19
 6579 03af 49       		.uleb128 0x49
 6580 03b0 13       		.uleb128 0x13
 6581 03b1 34       		.uleb128 0x34
 6582 03b2 19       		.uleb128 0x19
 6583 03b3 3C       		.uleb128 0x3c
 6584 03b4 19       		.uleb128 0x19
 6585 03b5 00       		.byte	0
 6586 03b6 00       		.byte	0
 6587 03b7 00       		.byte	0
 6588              		.section	.debug_loc,"",%progbits
 6589              	.Ldebug_loc0:
 6590              	.LLST0:
 6591 0000 00000000 		.4byte	.LVL23
 6592 0004 0D000000 		.4byte	.LVL24-1
 6593 0008 0100     		.2byte	0x1
 6594 000a 50       		.byte	0x50
 6595 000b 0D000000 		.4byte	.LVL24-1
 6596 000f 10000000 		.4byte	.LVL25
 6597 0013 0400     		.2byte	0x4
 6598 0015 F3       		.byte	0xf3
 6599 0016 01       		.uleb128 0x1
 6600 0017 50       		.byte	0x50
 6601 0018 9F       		.byte	0x9f
 6602 0019 10000000 		.4byte	.LVL25
 6603 001d 17000000 		.4byte	.LVL26-1
 6604 0021 0100     		.2byte	0x1
 6605 0023 50       		.byte	0x50
 6606 0024 17000000 		.4byte	.LVL26-1
 6607 0028 20000000 		.4byte	.LFE73
 6608 002c 0400     		.2byte	0x4
 6609 002e F3       		.byte	0xf3
 6610 002f 01       		.uleb128 0x1
 6611 0030 50       		.byte	0x50
 6612 0031 9F       		.byte	0x9f
 6613 0032 00000000 		.4byte	0
 6614 0036 00000000 		.4byte	0
 6615              	.LLST1:
 6616 003a 00000000 		.4byte	.LVL37
 6617 003e 10000000 		.4byte	.LVL38
 6618 0042 0100     		.2byte	0x1
 6619 0044 50       		.byte	0x50
 6620 0045 10000000 		.4byte	.LVL38
 6621 0049 30000000 		.4byte	.LFE78
 6622 004d 0400     		.2byte	0x4
 6623 004f F3       		.byte	0xf3
 6624 0050 01       		.uleb128 0x1
 6625 0051 50       		.byte	0x50
 6626 0052 9F       		.byte	0x9f
 6627 0053 00000000 		.4byte	0
ARM GAS  C:\Users\Tim\AppData\Local\Temp\ccELkyeR.s 			page 143


 6628 0057 00000000 		.4byte	0
 6629              	.LLST2:
 6630 005b 00000000 		.4byte	.LVL41
 6631 005f 18000000 		.4byte	.LVL42
 6632 0063 0100     		.2byte	0x1
 6633 0065 50       		.byte	0x50
 6634 0066 18000000 		.4byte	.LVL42
 6635 006a 2C000000 		.4byte	.LVL47
 6636 006e 0100     		.2byte	0x1
 6637 0070 54       		.byte	0x54
 6638 0071 2C000000 		.4byte	.LVL47
 6639 0075 30000000 		.4byte	.LVL48
 6640 0079 0100     		.2byte	0x1
 6641 007b 50       		.byte	0x50
 6642 007c 30000000 		.4byte	.LVL48
 6643 0080 44000000 		.4byte	.LVL53
 6644 0084 0100     		.2byte	0x1
 6645 0086 54       		.byte	0x54
 6646 0087 44000000 		.4byte	.LVL53
 6647 008b 48000000 		.4byte	.LVL54
 6648 008f 0100     		.2byte	0x1
 6649 0091 50       		.byte	0x50
 6650 0092 48000000 		.4byte	.LVL54
 6651 0096 60000000 		.4byte	.LVL59
 6652 009a 0100     		.2byte	0x1
 6653 009c 54       		.byte	0x54
 6654 009d 60000000 		.4byte	.LVL59
 6655 00a1 64000000 		.4byte	.LVL60
 6656 00a5 0100     		.2byte	0x1
 6657 00a7 50       		.byte	0x50
 6658 00a8 64000000 		.4byte	.LVL60
 6659 00ac 78000000 		.4byte	.LVL65
 6660 00b0 0100     		.2byte	0x1
 6661 00b2 54       		.byte	0x54
 6662 00b3 78000000 		.4byte	.LVL65
 6663 00b7 7C000000 		.4byte	.LVL66
 6664 00bb 0100     		.2byte	0x1
 6665 00bd 50       		.byte	0x50
 6666 00be 7C000000 		.4byte	.LVL66
 6667 00c2 90000000 		.4byte	.LVL71
 6668 00c6 0100     		.2byte	0x1
 6669 00c8 54       		.byte	0x54
 6670 00c9 90000000 		.4byte	.LVL71
 6671 00cd 9A000000 		.4byte	.LVL72
 6672 00d1 0100     		.2byte	0x1
 6673 00d3 50       		.byte	0x50
 6674 00d4 9A000000 		.4byte	.LVL72
 6675 00d8 A0000000 		.4byte	.LVL74
 6676 00dc 0100     		.2byte	0x1
 6677 00de 54       		.byte	0x54
 6678 00df A0000000 		.4byte	.LVL74
 6679 00e3 A4000000 		.4byte	.LFE79
 6680 00e7 0400     		.2byte	0x4
 6681 00e9 F3       		.byte	0xf3
 6682 00ea 01       		.uleb128 0x1
 6683 00eb 50       		.byte	0x50
 6684 00ec 9F       		.byte	0x9f
ARM GAS  C:\Users\Tim\AppData\Local\Temp\ccELkyeR.s 			page 144


 6685 00ed 00000000 		.4byte	0
 6686 00f1 00000000 		.4byte	0
 6687              	.LLST3:
 6688 00f5 1C000000 		.4byte	.LVL43
 6689 00f9 26000000 		.4byte	.LVL45
 6690 00fd 0100     		.2byte	0x1
 6691 00ff 50       		.byte	0x50
 6692 0100 34000000 		.4byte	.LVL49
 6693 0104 3E000000 		.4byte	.LVL51
 6694 0108 0100     		.2byte	0x1
 6695 010a 50       		.byte	0x50
 6696 010b 4C000000 		.4byte	.LVL55
 6697 010f 5A000000 		.4byte	.LVL57
 6698 0113 0100     		.2byte	0x1
 6699 0115 50       		.byte	0x50
 6700 0116 68000000 		.4byte	.LVL61
 6701 011a 72000000 		.4byte	.LVL63
 6702 011e 0100     		.2byte	0x1
 6703 0120 50       		.byte	0x50
 6704 0121 80000000 		.4byte	.LVL67
 6705 0125 8A000000 		.4byte	.LVL69
 6706 0129 0100     		.2byte	0x1
 6707 012b 50       		.byte	0x50
 6708 012c 00000000 		.4byte	0
 6709 0130 00000000 		.4byte	0
 6710              	.LLST4:
 6711 0134 06000000 		.4byte	.LVL77
 6712 0138 48000000 		.4byte	.LVL78
 6713 013c 0100     		.2byte	0x1
 6714 013e 50       		.byte	0x50
 6715 013f 48000000 		.4byte	.LVL78
 6716 0143 4C000000 		.4byte	.LVL79
 6717 0147 0300     		.2byte	0x3
 6718 0149 08       		.byte	0x8
 6719 014a 76       		.byte	0x76
 6720 014b 9F       		.byte	0x9f
 6721 014c 4C000000 		.4byte	.LVL79
 6722 0150 50000000 		.4byte	.LVL80
 6723 0154 0300     		.2byte	0x3
 6724 0156 08       		.byte	0x8
 6725 0157 73       		.byte	0x73
 6726 0158 9F       		.byte	0x9f
 6727 0159 50000000 		.4byte	.LVL80
 6728 015d 54000000 		.4byte	.LVL81
 6729 0161 0300     		.2byte	0x3
 6730 0163 08       		.byte	0x8
 6731 0164 78       		.byte	0x78
 6732 0165 9F       		.byte	0x9f
 6733 0166 54000000 		.4byte	.LVL81
 6734 016a 58000000 		.4byte	.LFE75
 6735 016e 0100     		.2byte	0x1
 6736 0170 50       		.byte	0x50
 6737 0171 00000000 		.4byte	0
 6738 0175 00000000 		.4byte	0
 6739              	.LLST5:
 6740 0179 00000000 		.4byte	.LVL83
 6741 017d 11000000 		.4byte	.LVL84-1
ARM GAS  C:\Users\Tim\AppData\Local\Temp\ccELkyeR.s 			page 145


 6742 0181 0100     		.2byte	0x1
 6743 0183 50       		.byte	0x50
 6744 0184 11000000 		.4byte	.LVL84-1
 6745 0188 1E000000 		.4byte	.LVL85
 6746 018c 0400     		.2byte	0x4
 6747 018e F3       		.byte	0xf3
 6748 018f 01       		.uleb128 0x1
 6749 0190 50       		.byte	0x50
 6750 0191 9F       		.byte	0x9f
 6751 0192 1E000000 		.4byte	.LVL85
 6752 0196 21000000 		.4byte	.LVL86-1
 6753 019a 0100     		.2byte	0x1
 6754 019c 50       		.byte	0x50
 6755 019d 21000000 		.4byte	.LVL86-1
 6756 01a1 2E000000 		.4byte	.LVL87
 6757 01a5 0400     		.2byte	0x4
 6758 01a7 F3       		.byte	0xf3
 6759 01a8 01       		.uleb128 0x1
 6760 01a9 50       		.byte	0x50
 6761 01aa 9F       		.byte	0x9f
 6762 01ab 2E000000 		.4byte	.LVL87
 6763 01af 31000000 		.4byte	.LVL88-1
 6764 01b3 0100     		.2byte	0x1
 6765 01b5 50       		.byte	0x50
 6766 01b6 31000000 		.4byte	.LVL88-1
 6767 01ba 3E000000 		.4byte	.LVL89
 6768 01be 0400     		.2byte	0x4
 6769 01c0 F3       		.byte	0xf3
 6770 01c1 01       		.uleb128 0x1
 6771 01c2 50       		.byte	0x50
 6772 01c3 9F       		.byte	0x9f
 6773 01c4 3E000000 		.4byte	.LVL89
 6774 01c8 40000000 		.4byte	.LVL90
 6775 01cc 0100     		.2byte	0x1
 6776 01ce 50       		.byte	0x50
 6777 01cf 40000000 		.4byte	.LVL90
 6778 01d3 50000000 		.4byte	.LFE76
 6779 01d7 0400     		.2byte	0x4
 6780 01d9 F3       		.byte	0xf3
 6781 01da 01       		.uleb128 0x1
 6782 01db 50       		.byte	0x50
 6783 01dc 9F       		.byte	0x9f
 6784 01dd 00000000 		.4byte	0
 6785 01e1 00000000 		.4byte	0
 6786              	.LLST6:
 6787 01e5 00000000 		.4byte	.LVL91
 6788 01e9 1B000000 		.4byte	.LVL92-1
 6789 01ed 0100     		.2byte	0x1
 6790 01ef 50       		.byte	0x50
 6791 01f0 1B000000 		.4byte	.LVL92-1
 6792 01f4 34000000 		.4byte	.LVL94
 6793 01f8 0400     		.2byte	0x4
 6794 01fa F3       		.byte	0xf3
 6795 01fb 01       		.uleb128 0x1
 6796 01fc 50       		.byte	0x50
 6797 01fd 9F       		.byte	0x9f
 6798 01fe 34000000 		.4byte	.LVL94
ARM GAS  C:\Users\Tim\AppData\Local\Temp\ccELkyeR.s 			page 146


 6799 0202 37000000 		.4byte	.LVL95-1
 6800 0206 0100     		.2byte	0x1
 6801 0208 50       		.byte	0x50
 6802 0209 37000000 		.4byte	.LVL95-1
 6803 020d 50000000 		.4byte	.LVL97
 6804 0211 0400     		.2byte	0x4
 6805 0213 F3       		.byte	0xf3
 6806 0214 01       		.uleb128 0x1
 6807 0215 50       		.byte	0x50
 6808 0216 9F       		.byte	0x9f
 6809 0217 50000000 		.4byte	.LVL97
 6810 021b 53000000 		.4byte	.LVL98-1
 6811 021f 0100     		.2byte	0x1
 6812 0221 50       		.byte	0x50
 6813 0222 53000000 		.4byte	.LVL98-1
 6814 0226 70000000 		.4byte	.LVL100
 6815 022a 0400     		.2byte	0x4
 6816 022c F3       		.byte	0xf3
 6817 022d 01       		.uleb128 0x1
 6818 022e 50       		.byte	0x50
 6819 022f 9F       		.byte	0x9f
 6820 0230 70000000 		.4byte	.LVL100
 6821 0234 73000000 		.4byte	.LVL101-1
 6822 0238 0100     		.2byte	0x1
 6823 023a 50       		.byte	0x50
 6824 023b 73000000 		.4byte	.LVL101-1
 6825 023f 90000000 		.4byte	.LVL103
 6826 0243 0400     		.2byte	0x4
 6827 0245 F3       		.byte	0xf3
 6828 0246 01       		.uleb128 0x1
 6829 0247 50       		.byte	0x50
 6830 0248 9F       		.byte	0x9f
 6831 0249 90000000 		.4byte	.LVL103
 6832 024d 93000000 		.4byte	.LVL104-1
 6833 0251 0100     		.2byte	0x1
 6834 0253 50       		.byte	0x50
 6835 0254 93000000 		.4byte	.LVL104-1
 6836 0258 B0000000 		.4byte	.LVL106
 6837 025c 0400     		.2byte	0x4
 6838 025e F3       		.byte	0xf3
 6839 025f 01       		.uleb128 0x1
 6840 0260 50       		.byte	0x50
 6841 0261 9F       		.byte	0x9f
 6842 0262 B0000000 		.4byte	.LVL106
 6843 0266 B3000000 		.4byte	.LVL107-1
 6844 026a 0100     		.2byte	0x1
 6845 026c 50       		.byte	0x50
 6846 026d B3000000 		.4byte	.LVL107-1
 6847 0271 D0000000 		.4byte	.LVL109
 6848 0275 0400     		.2byte	0x4
 6849 0277 F3       		.byte	0xf3
 6850 0278 01       		.uleb128 0x1
 6851 0279 50       		.byte	0x50
 6852 027a 9F       		.byte	0x9f
 6853 027b D0000000 		.4byte	.LVL109
 6854 027f D3000000 		.4byte	.LVL110-1
 6855 0283 0100     		.2byte	0x1
ARM GAS  C:\Users\Tim\AppData\Local\Temp\ccELkyeR.s 			page 147


 6856 0285 50       		.byte	0x50
 6857 0286 D3000000 		.4byte	.LVL110-1
 6858 028a F2000000 		.4byte	.LVL112
 6859 028e 0400     		.2byte	0x4
 6860 0290 F3       		.byte	0xf3
 6861 0291 01       		.uleb128 0x1
 6862 0292 50       		.byte	0x50
 6863 0293 9F       		.byte	0x9f
 6864 0294 F2000000 		.4byte	.LVL112
 6865 0298 F5000000 		.4byte	.LVL113-1
 6866 029c 0100     		.2byte	0x1
 6867 029e 50       		.byte	0x50
 6868 029f F5000000 		.4byte	.LVL113-1
 6869 02a3 14010000 		.4byte	.LVL115
 6870 02a7 0400     		.2byte	0x4
 6871 02a9 F3       		.byte	0xf3
 6872 02aa 01       		.uleb128 0x1
 6873 02ab 50       		.byte	0x50
 6874 02ac 9F       		.byte	0x9f
 6875 02ad 14010000 		.4byte	.LVL115
 6876 02b1 16010000 		.4byte	.LVL116
 6877 02b5 0100     		.2byte	0x1
 6878 02b7 50       		.byte	0x50
 6879 02b8 16010000 		.4byte	.LVL116
 6880 02bc 48010000 		.4byte	.LFE77
 6881 02c0 0400     		.2byte	0x4
 6882 02c2 F3       		.byte	0xf3
 6883 02c3 01       		.uleb128 0x1
 6884 02c4 50       		.byte	0x50
 6885 02c5 9F       		.byte	0x9f
 6886 02c6 00000000 		.4byte	0
 6887 02ca 00000000 		.4byte	0
 6888              	.LLST7:
 6889 02ce 00000000 		.4byte	.LVL117
 6890 02d2 27000000 		.4byte	.LVL122-1
 6891 02d6 0100     		.2byte	0x1
 6892 02d8 50       		.byte	0x50
 6893 02d9 27000000 		.4byte	.LVL122-1
 6894 02dd 6A000000 		.4byte	.LVL128
 6895 02e1 0100     		.2byte	0x1
 6896 02e3 55       		.byte	0x55
 6897 02e4 6A000000 		.4byte	.LVL128
 6898 02e8 6E000000 		.4byte	.LVL129
 6899 02ec 0100     		.2byte	0x1
 6900 02ee 50       		.byte	0x50
 6901 02ef 6E000000 		.4byte	.LVL129
 6902 02f3 72000000 		.4byte	.LFE80
 6903 02f7 0400     		.2byte	0x4
 6904 02f9 F3       		.byte	0xf3
 6905 02fa 01       		.uleb128 0x1
 6906 02fb 50       		.byte	0x50
 6907 02fc 9F       		.byte	0x9f
 6908 02fd 00000000 		.4byte	0
 6909 0301 00000000 		.4byte	0
 6910              	.LLST8:
 6911 0305 00000000 		.4byte	.LVL117
 6912 0309 08000000 		.4byte	.LVL119
ARM GAS  C:\Users\Tim\AppData\Local\Temp\ccELkyeR.s 			page 148


 6913 030d 0100     		.2byte	0x1
 6914 030f 51       		.byte	0x51
 6915 0310 08000000 		.4byte	.LVL119
 6916 0314 72000000 		.4byte	.LFE80
 6917 0318 0100     		.2byte	0x1
 6918 031a 54       		.byte	0x54
 6919 031b 00000000 		.4byte	0
 6920 031f 00000000 		.4byte	0
 6921              	.LLST9:
 6922 0323 00000000 		.4byte	.LVL117
 6923 0327 1A000000 		.4byte	.LVL120
 6924 032b 0100     		.2byte	0x1
 6925 032d 52       		.byte	0x52
 6926 032e 1A000000 		.4byte	.LVL120
 6927 0332 6A000000 		.4byte	.LVL128
 6928 0336 0100     		.2byte	0x1
 6929 0338 56       		.byte	0x56
 6930 0339 6A000000 		.4byte	.LVL128
 6931 033d 6E000000 		.4byte	.LVL129
 6932 0341 0100     		.2byte	0x1
 6933 0343 52       		.byte	0x52
 6934 0344 6E000000 		.4byte	.LVL129
 6935 0348 72000000 		.4byte	.LFE80
 6936 034c 0400     		.2byte	0x4
 6937 034e F3       		.byte	0xf3
 6938 034f 01       		.uleb128 0x1
 6939 0350 52       		.byte	0x52
 6940 0351 9F       		.byte	0x9f
 6941 0352 00000000 		.4byte	0
 6942 0356 00000000 		.4byte	0
 6943              	.LLST10:
 6944 035a 00000000 		.4byte	.LVL117
 6945 035e 24000000 		.4byte	.LVL121
 6946 0362 0100     		.2byte	0x1
 6947 0364 53       		.byte	0x53
 6948 0365 24000000 		.4byte	.LVL121
 6949 0369 6A000000 		.4byte	.LVL128
 6950 036d 0400     		.2byte	0x4
 6951 036f F3       		.byte	0xf3
 6952 0370 01       		.uleb128 0x1
 6953 0371 53       		.byte	0x53
 6954 0372 9F       		.byte	0x9f
 6955 0373 6A000000 		.4byte	.LVL128
 6956 0377 6E000000 		.4byte	.LVL129
 6957 037b 0100     		.2byte	0x1
 6958 037d 53       		.byte	0x53
 6959 037e 6E000000 		.4byte	.LVL129
 6960 0382 72000000 		.4byte	.LFE80
 6961 0386 0400     		.2byte	0x4
 6962 0388 F3       		.byte	0xf3
 6963 0389 01       		.uleb128 0x1
 6964 038a 53       		.byte	0x53
 6965 038b 9F       		.byte	0x9f
 6966 038c 00000000 		.4byte	0
 6967 0390 00000000 		.4byte	0
 6968              	.LLST11:
 6969 0394 06000000 		.4byte	.LVL118
ARM GAS  C:\Users\Tim\AppData\Local\Temp\ccELkyeR.s 			page 149


 6970 0398 4A000000 		.4byte	.LVL124
 6971 039c 0400     		.2byte	0x4
 6972 039e 0A       		.byte	0xa
 6973 039f DC05     		.2byte	0x5dc
 6974 03a1 9F       		.byte	0x9f
 6975 03a2 4A000000 		.4byte	.LVL124
 6976 03a6 62000000 		.4byte	.LVL125
 6977 03aa 0100     		.2byte	0x1
 6978 03ac 50       		.byte	0x50
 6979 03ad 64000000 		.4byte	.LVL126
 6980 03b1 68000000 		.4byte	.LVL127
 6981 03b5 0100     		.2byte	0x1
 6982 03b7 50       		.byte	0x50
 6983 03b8 6A000000 		.4byte	.LVL128
 6984 03bc 6E000000 		.4byte	.LVL129
 6985 03c0 0400     		.2byte	0x4
 6986 03c2 0A       		.byte	0xa
 6987 03c3 DC05     		.2byte	0x5dc
 6988 03c5 9F       		.byte	0x9f
 6989 03c6 00000000 		.4byte	0
 6990 03ca 00000000 		.4byte	0
 6991              	.LLST12:
 6992 03ce 00000000 		.4byte	.LVL130
 6993 03d2 0A000000 		.4byte	.LVL131
 6994 03d6 0100     		.2byte	0x1
 6995 03d8 50       		.byte	0x50
 6996 03d9 0A000000 		.4byte	.LVL131
 6997 03dd 2C000000 		.4byte	.LFE65
 6998 03e1 0400     		.2byte	0x4
 6999 03e3 F3       		.byte	0xf3
 7000 03e4 01       		.uleb128 0x1
 7001 03e5 50       		.byte	0x50
 7002 03e6 9F       		.byte	0x9f
 7003 03e7 00000000 		.4byte	0
 7004 03eb 00000000 		.4byte	0
 7005              	.LLST13:
 7006 03ef 14000000 		.4byte	.LVL132
 7007 03f3 1D000000 		.4byte	.LVL133-1
 7008 03f7 0100     		.2byte	0x1
 7009 03f9 50       		.byte	0x50
 7010 03fa 00000000 		.4byte	0
 7011 03fe 00000000 		.4byte	0
 7012              	.LLST14:
 7013 0402 00000000 		.4byte	.LVL135
 7014 0406 0A000000 		.4byte	.LVL136
 7015 040a 0100     		.2byte	0x1
 7016 040c 50       		.byte	0x50
 7017 040d 0A000000 		.4byte	.LVL136
 7018 0411 24000000 		.4byte	.LFE66
 7019 0415 0400     		.2byte	0x4
 7020 0417 F3       		.byte	0xf3
 7021 0418 01       		.uleb128 0x1
 7022 0419 50       		.byte	0x50
 7023 041a 9F       		.byte	0x9f
 7024 041b 00000000 		.4byte	0
 7025 041f 00000000 		.4byte	0
 7026              	.LLST15:
ARM GAS  C:\Users\Tim\AppData\Local\Temp\ccELkyeR.s 			page 150


 7027 0423 0C000000 		.4byte	.LVL137
 7028 0427 12000000 		.4byte	.LVL138
 7029 042b 0600     		.2byte	0x6
 7030 042d 70       		.byte	0x70
 7031 042e 00       		.sleb128 0
 7032 042f 74       		.byte	0x74
 7033 0430 00       		.sleb128 0
 7034 0431 21       		.byte	0x21
 7035 0432 9F       		.byte	0x9f
 7036 0433 00000000 		.4byte	0
 7037 0437 00000000 		.4byte	0
 7038              	.LLST16:
 7039 043b 00000000 		.4byte	.LVL141
 7040 043f 0C000000 		.4byte	.LVL142
 7041 0443 0100     		.2byte	0x1
 7042 0445 50       		.byte	0x50
 7043 0446 0C000000 		.4byte	.LVL142
 7044 044a 13000000 		.4byte	.LVL145-1
 7045 044e 0100     		.2byte	0x1
 7046 0450 53       		.byte	0x53
 7047 0451 13000000 		.4byte	.LVL145-1
 7048 0455 64000000 		.4byte	.LFE67
 7049 0459 0400     		.2byte	0x4
 7050 045b F3       		.byte	0xf3
 7051 045c 01       		.uleb128 0x1
 7052 045d 50       		.byte	0x50
 7053 045e 9F       		.byte	0x9f
 7054 045f 00000000 		.4byte	0
 7055 0463 00000000 		.4byte	0
 7056              	.LLST17:
 7057 0467 00000000 		.4byte	.LVL141
 7058 046b 0E000000 		.4byte	.LVL143
 7059 046f 0100     		.2byte	0x1
 7060 0471 51       		.byte	0x51
 7061 0472 0E000000 		.4byte	.LVL143
 7062 0476 56000000 		.4byte	.LVL154
 7063 047a 0100     		.2byte	0x1
 7064 047c 56       		.byte	0x56
 7065 047d 56000000 		.4byte	.LVL154
 7066 0481 64000000 		.4byte	.LFE67
 7067 0485 0400     		.2byte	0x4
 7068 0487 F3       		.byte	0xf3
 7069 0488 01       		.uleb128 0x1
 7070 0489 51       		.byte	0x51
 7071 048a 9F       		.byte	0x9f
 7072 048b 00000000 		.4byte	0
 7073 048f 00000000 		.4byte	0
 7074              	.LLST18:
 7075 0493 00000000 		.4byte	.LVL141
 7076 0497 10000000 		.4byte	.LVL144
 7077 049b 0100     		.2byte	0x1
 7078 049d 52       		.byte	0x52
 7079 049e 10000000 		.4byte	.LVL144
 7080 04a2 56000000 		.4byte	.LVL154
 7081 04a6 0100     		.2byte	0x1
 7082 04a8 55       		.byte	0x55
 7083 04a9 56000000 		.4byte	.LVL154
ARM GAS  C:\Users\Tim\AppData\Local\Temp\ccELkyeR.s 			page 151


 7084 04ad 64000000 		.4byte	.LFE67
 7085 04b1 0400     		.2byte	0x4
 7086 04b3 F3       		.byte	0xf3
 7087 04b4 01       		.uleb128 0x1
 7088 04b5 52       		.byte	0x52
 7089 04b6 9F       		.byte	0x9f
 7090 04b7 00000000 		.4byte	0
 7091 04bb 00000000 		.4byte	0
 7092              	.LLST19:
 7093 04bf 1A000000 		.4byte	.LVL146
 7094 04c3 1E000000 		.4byte	.LVL147
 7095 04c7 0200     		.2byte	0x2
 7096 04c9 30       		.byte	0x30
 7097 04ca 9F       		.byte	0x9f
 7098 04cb 1E000000 		.4byte	.LVL147
 7099 04cf 36000000 		.4byte	.LVL150
 7100 04d3 0100     		.2byte	0x1
 7101 04d5 54       		.byte	0x54
 7102 04d6 38000000 		.4byte	.LVL151
 7103 04da 56000000 		.4byte	.LVL154
 7104 04de 0100     		.2byte	0x1
 7105 04e0 54       		.byte	0x54
 7106 04e1 00000000 		.4byte	0
 7107 04e5 00000000 		.4byte	0
 7108              	.LLST20:
 7109 04e9 00000000 		.4byte	.LVL155
 7110 04ed 0A000000 		.4byte	.LVL156
 7111 04f1 0100     		.2byte	0x1
 7112 04f3 50       		.byte	0x50
 7113 04f4 0A000000 		.4byte	.LVL156
 7114 04f8 44000000 		.4byte	.LVL163
 7115 04fc 0100     		.2byte	0x1
 7116 04fe 57       		.byte	0x57
 7117 04ff 44000000 		.4byte	.LVL163
 7118 0503 48000000 		.4byte	.LFE68
 7119 0507 0400     		.2byte	0x4
 7120 0509 F3       		.byte	0xf3
 7121 050a 01       		.uleb128 0x1
 7122 050b 50       		.byte	0x50
 7123 050c 9F       		.byte	0x9f
 7124 050d 00000000 		.4byte	0
 7125 0511 00000000 		.4byte	0
 7126              	.LLST21:
 7127 0515 00000000 		.4byte	.LVL155
 7128 0519 0C000000 		.4byte	.LVL157
 7129 051d 0100     		.2byte	0x1
 7130 051f 51       		.byte	0x51
 7131 0520 0C000000 		.4byte	.LVL157
 7132 0524 44000000 		.4byte	.LVL163
 7133 0528 0100     		.2byte	0x1
 7134 052a 54       		.byte	0x54
 7135 052b 44000000 		.4byte	.LVL163
 7136 052f 48000000 		.4byte	.LFE68
 7137 0533 0400     		.2byte	0x4
 7138 0535 F3       		.byte	0xf3
 7139 0536 01       		.uleb128 0x1
 7140 0537 51       		.byte	0x51
ARM GAS  C:\Users\Tim\AppData\Local\Temp\ccELkyeR.s 			page 152


 7141 0538 9F       		.byte	0x9f
 7142 0539 00000000 		.4byte	0
 7143 053d 00000000 		.4byte	0
 7144              	.LLST22:
 7145 0541 00000000 		.4byte	.LVL164
 7146 0545 15000000 		.4byte	.LVL165-1
 7147 0549 0100     		.2byte	0x1
 7148 054b 50       		.byte	0x50
 7149 054c 15000000 		.4byte	.LVL165-1
 7150 0550 52000000 		.4byte	.LVL172
 7151 0554 0400     		.2byte	0x4
 7152 0556 F3       		.byte	0xf3
 7153 0557 01       		.uleb128 0x1
 7154 0558 50       		.byte	0x50
 7155 0559 9F       		.byte	0x9f
 7156 055a 52000000 		.4byte	.LVL172
 7157 055e 55000000 		.4byte	.LVL173-1
 7158 0562 0100     		.2byte	0x1
 7159 0564 50       		.byte	0x50
 7160 0565 55000000 		.4byte	.LVL173-1
 7161 0569 92000000 		.4byte	.LVL180
 7162 056d 0400     		.2byte	0x4
 7163 056f F3       		.byte	0xf3
 7164 0570 01       		.uleb128 0x1
 7165 0571 50       		.byte	0x50
 7166 0572 9F       		.byte	0x9f
 7167 0573 92000000 		.4byte	.LVL180
 7168 0577 95000000 		.4byte	.LVL181-1
 7169 057b 0100     		.2byte	0x1
 7170 057d 50       		.byte	0x50
 7171 057e 95000000 		.4byte	.LVL181-1
 7172 0582 BE000000 		.4byte	.LVL187
 7173 0586 0400     		.2byte	0x4
 7174 0588 F3       		.byte	0xf3
 7175 0589 01       		.uleb128 0x1
 7176 058a 50       		.byte	0x50
 7177 058b 9F       		.byte	0x9f
 7178 058c BE000000 		.4byte	.LVL187
 7179 0590 C1000000 		.4byte	.LVL188-1
 7180 0594 0100     		.2byte	0x1
 7181 0596 50       		.byte	0x50
 7182 0597 C1000000 		.4byte	.LVL188-1
 7183 059b 04010000 		.4byte	.LFE74
 7184 059f 0400     		.2byte	0x4
 7185 05a1 F3       		.byte	0xf3
 7186 05a2 01       		.uleb128 0x1
 7187 05a3 50       		.byte	0x50
 7188 05a4 9F       		.byte	0x9f
 7189 05a5 00000000 		.4byte	0
 7190 05a9 00000000 		.4byte	0
 7191              	.LLST23:
 7192 05ad 08000000 		.4byte	.LVL195
 7193 05b1 0D000000 		.4byte	.LVL196-1
 7194 05b5 0100     		.2byte	0x1
 7195 05b7 50       		.byte	0x50
 7196 05b8 00000000 		.4byte	0
 7197 05bc 00000000 		.4byte	0
ARM GAS  C:\Users\Tim\AppData\Local\Temp\ccELkyeR.s 			page 153


 7198              	.LLST24:
 7199 05c0 08000000 		.4byte	.LVL198
 7200 05c4 29000000 		.4byte	.LVL199-1
 7201 05c8 0100     		.2byte	0x1
 7202 05ca 50       		.byte	0x50
 7203 05cb 32000000 		.4byte	.LVL200
 7204 05cf 35000000 		.4byte	.LVL201-1
 7205 05d3 0100     		.2byte	0x1
 7206 05d5 50       		.byte	0x50
 7207 05d6 3E000000 		.4byte	.LVL202
 7208 05da 41000000 		.4byte	.LVL203-1
 7209 05de 0100     		.2byte	0x1
 7210 05e0 50       		.byte	0x50
 7211 05e1 4A000000 		.4byte	.LVL204
 7212 05e5 53000000 		.4byte	.LVL205-1
 7213 05e9 0100     		.2byte	0x1
 7214 05eb 50       		.byte	0x50
 7215 05ec 78000000 		.4byte	.LVL208
 7216 05f0 81000000 		.4byte	.LVL209-1
 7217 05f4 0100     		.2byte	0x1
 7218 05f6 50       		.byte	0x50
 7219 05f7 A6000000 		.4byte	.LVL212
 7220 05fb A9000000 		.4byte	.LVL213-1
 7221 05ff 0100     		.2byte	0x1
 7222 0601 50       		.byte	0x50
 7223 0602 B6000000 		.4byte	.LVL214
 7224 0606 B9000000 		.4byte	.LVL215-1
 7225 060a 0100     		.2byte	0x1
 7226 060c 50       		.byte	0x50
 7227 060d C8000000 		.4byte	.LVL217
 7228 0611 CE000000 		.4byte	.LVL218
 7229 0615 0100     		.2byte	0x1
 7230 0617 50       		.byte	0x50
 7231 0618 00000000 		.4byte	0
 7232 061c 00000000 		.4byte	0
 7233              	.LLST25:
 7234 0620 04000000 		.4byte	.LVL219
 7235 0624 06000000 		.4byte	.LVL220
 7236 0628 0200     		.2byte	0x2
 7237 062a 30       		.byte	0x30
 7238 062b 9F       		.byte	0x9f
 7239 062c 06000000 		.4byte	.LVL220
 7240 0630 2C000000 		.4byte	.LVL225
 7241 0634 0100     		.2byte	0x1
 7242 0636 54       		.byte	0x54
 7243 0637 2E000000 		.4byte	.LVL226
 7244 063b 46000000 		.4byte	.LFE84
 7245 063f 0100     		.2byte	0x1
 7246 0641 54       		.byte	0x54
 7247 0642 00000000 		.4byte	0
 7248 0646 00000000 		.4byte	0
 7249              	.LLST26:
 7250 064a 00000000 		.4byte	.LVL230
 7251 064e 18000000 		.4byte	.LVL232
 7252 0652 0100     		.2byte	0x1
 7253 0654 50       		.byte	0x50
 7254 0655 18000000 		.4byte	.LVL232
ARM GAS  C:\Users\Tim\AppData\Local\Temp\ccELkyeR.s 			page 154


 7255 0659 6C000000 		.4byte	.LVL242
 7256 065d 0400     		.2byte	0x4
 7257 065f F3       		.byte	0xf3
 7258 0660 01       		.uleb128 0x1
 7259 0661 50       		.byte	0x50
 7260 0662 9F       		.byte	0x9f
 7261 0663 6C000000 		.4byte	.LVL242
 7262 0667 74000000 		.4byte	.LVL243
 7263 066b 0100     		.2byte	0x1
 7264 066d 50       		.byte	0x50
 7265 066e 74000000 		.4byte	.LVL243
 7266 0672 84000000 		.4byte	.LVL245
 7267 0676 0400     		.2byte	0x4
 7268 0678 F3       		.byte	0xf3
 7269 0679 01       		.uleb128 0x1
 7270 067a 50       		.byte	0x50
 7271 067b 9F       		.byte	0x9f
 7272 067c 84000000 		.4byte	.LVL245
 7273 0680 88000000 		.4byte	.LVL246
 7274 0684 0100     		.2byte	0x1
 7275 0686 50       		.byte	0x50
 7276 0687 88000000 		.4byte	.LVL246
 7277 068b 9C000000 		.4byte	.LFE88
 7278 068f 0400     		.2byte	0x4
 7279 0691 F3       		.byte	0xf3
 7280 0692 01       		.uleb128 0x1
 7281 0693 50       		.byte	0x50
 7282 0694 9F       		.byte	0x9f
 7283 0695 00000000 		.4byte	0
 7284 0699 00000000 		.4byte	0
 7285              	.LLST27:
 7286 069d 00000000 		.4byte	.LVL230
 7287 06a1 1A000000 		.4byte	.LVL233
 7288 06a5 0100     		.2byte	0x1
 7289 06a7 51       		.byte	0x51
 7290 06a8 1A000000 		.4byte	.LVL233
 7291 06ac 1D000000 		.4byte	.LVL234-1
 7292 06b0 0100     		.2byte	0x1
 7293 06b2 50       		.byte	0x50
 7294 06b3 1D000000 		.4byte	.LVL234-1
 7295 06b7 58000000 		.4byte	.LVL239
 7296 06bb 0100     		.2byte	0x1
 7297 06bd 55       		.byte	0x55
 7298 06be 58000000 		.4byte	.LVL239
 7299 06c2 5B000000 		.4byte	.LVL240-1
 7300 06c6 0100     		.2byte	0x1
 7301 06c8 50       		.byte	0x50
 7302 06c9 6C000000 		.4byte	.LVL242
 7303 06cd 77000000 		.4byte	.LVL244-1
 7304 06d1 0100     		.2byte	0x1
 7305 06d3 51       		.byte	0x51
 7306 06d4 77000000 		.4byte	.LVL244-1
 7307 06d8 84000000 		.4byte	.LVL245
 7308 06dc 0600     		.2byte	0x6
 7309 06de F3       		.byte	0xf3
 7310 06df 03       		.uleb128 0x3
 7311 06e0 F5       		.byte	0xf5
ARM GAS  C:\Users\Tim\AppData\Local\Temp\ccELkyeR.s 			page 155


 7312 06e1 01       		.uleb128 0x1
 7313 06e2 25       		.uleb128 0x25
 7314 06e3 9F       		.byte	0x9f
 7315 06e4 84000000 		.4byte	.LVL245
 7316 06e8 9C000000 		.4byte	.LFE88
 7317 06ec 0100     		.2byte	0x1
 7318 06ee 51       		.byte	0x51
 7319 06ef 00000000 		.4byte	0
 7320 06f3 00000000 		.4byte	0
 7321              	.LLST28:
 7322 06f7 02000000 		.4byte	.LVL231
 7323 06fb 6A000000 		.4byte	.LVL241
 7324 06ff 0400     		.2byte	0x4
 7325 0701 0A       		.byte	0xa
 7326 0702 DC05     		.2byte	0x5dc
 7327 0704 9F       		.byte	0x9f
 7328 0705 6A000000 		.4byte	.LVL241
 7329 0709 6C000000 		.4byte	.LVL242
 7330 070d 0100     		.2byte	0x1
 7331 070f 50       		.byte	0x50
 7332 0710 6C000000 		.4byte	.LVL242
 7333 0714 88000000 		.4byte	.LVL246
 7334 0718 0400     		.2byte	0x4
 7335 071a 0A       		.byte	0xa
 7336 071b DC05     		.2byte	0x5dc
 7337 071d 9F       		.byte	0x9f
 7338 071e 88000000 		.4byte	.LVL246
 7339 0722 9C000000 		.4byte	.LFE88
 7340 0726 0100     		.2byte	0x1
 7341 0728 50       		.byte	0x50
 7342 0729 00000000 		.4byte	0
 7343 072d 00000000 		.4byte	0
 7344              	.LLST29:
 7345 0731 34000000 		.4byte	.LVL235
 7346 0735 6C000000 		.4byte	.LVL242
 7347 0739 0100     		.2byte	0x1
 7348 073b 54       		.byte	0x54
 7349 073c 00000000 		.4byte	0
 7350 0740 00000000 		.4byte	0
 7351              	.LLST30:
 7352 0744 00000000 		.4byte	.LVL249
 7353 0748 16000000 		.4byte	.LVL250
 7354 074c 0100     		.2byte	0x1
 7355 074e 50       		.byte	0x50
 7356 074f 16000000 		.4byte	.LVL250
 7357 0753 54010000 		.4byte	.LFE90
 7358 0757 0400     		.2byte	0x4
 7359 0759 F3       		.byte	0xf3
 7360 075a 01       		.uleb128 0x1
 7361 075b 50       		.byte	0x50
 7362 075c 9F       		.byte	0x9f
 7363 075d 00000000 		.4byte	0
 7364 0761 00000000 		.4byte	0
 7365              	.LLST31:
 7366 0765 00000000 		.4byte	.LVL249
 7367 0769 18000000 		.4byte	.LVL251
 7368 076d 0100     		.2byte	0x1
ARM GAS  C:\Users\Tim\AppData\Local\Temp\ccELkyeR.s 			page 156


 7369 076f 51       		.byte	0x51
 7370 0770 18000000 		.4byte	.LVL251
 7371 0774 C2000000 		.4byte	.LVL281
 7372 0778 0100     		.2byte	0x1
 7373 077a 57       		.byte	0x57
 7374 077b C2000000 		.4byte	.LVL281
 7375 077f 54010000 		.4byte	.LFE90
 7376 0783 0600     		.2byte	0x6
 7377 0785 F3       		.byte	0xf3
 7378 0786 03       		.uleb128 0x3
 7379 0787 F5       		.byte	0xf5
 7380 0788 01       		.uleb128 0x1
 7381 0789 25       		.uleb128 0x25
 7382 078a 9F       		.byte	0x9f
 7383 078b 00000000 		.4byte	0
 7384 078f 00000000 		.4byte	0
 7385              	.LLST32:
 7386 0793 00000000 		.4byte	.LVL249
 7387 0797 1A000000 		.4byte	.LVL252
 7388 079b 0100     		.2byte	0x1
 7389 079d 52       		.byte	0x52
 7390 079e 1A000000 		.4byte	.LVL252
 7391 07a2 C6000000 		.4byte	.LVL282
 7392 07a6 0100     		.2byte	0x1
 7393 07a8 54       		.byte	0x54
 7394 07a9 C6000000 		.4byte	.LVL282
 7395 07ad 54010000 		.4byte	.LFE90
 7396 07b1 0600     		.2byte	0x6
 7397 07b3 F3       		.byte	0xf3
 7398 07b4 03       		.uleb128 0x3
 7399 07b5 F5       		.byte	0xf5
 7400 07b6 02       		.uleb128 0x2
 7401 07b7 25       		.uleb128 0x25
 7402 07b8 9F       		.byte	0x9f
 7403 07b9 00000000 		.4byte	0
 7404 07bd 00000000 		.4byte	0
 7405              	.LLST33:
 7406 07c1 00000000 		.4byte	.LVL249
 7407 07c5 1D000000 		.4byte	.LVL253-1
 7408 07c9 0100     		.2byte	0x1
 7409 07cb 53       		.byte	0x53
 7410 07cc 1D000000 		.4byte	.LVL253-1
 7411 07d0 50010000 		.4byte	.LVL311
 7412 07d4 0100     		.2byte	0x1
 7413 07d6 5A       		.byte	0x5a
 7414 07d7 50010000 		.4byte	.LVL311
 7415 07db 54010000 		.4byte	.LFE90
 7416 07df 0400     		.2byte	0x4
 7417 07e1 F3       		.byte	0xf3
 7418 07e2 01       		.uleb128 0x1
 7419 07e3 53       		.byte	0x53
 7420 07e4 9F       		.byte	0x9f
 7421 07e5 00000000 		.4byte	0
 7422 07e9 00000000 		.4byte	0
 7423              	.LLST34:
 7424 07ed 00000000 		.4byte	.LVL249
 7425 07f1 50010000 		.4byte	.LVL311
ARM GAS  C:\Users\Tim\AppData\Local\Temp\ccELkyeR.s 			page 157


 7426 07f5 0200     		.2byte	0x2
 7427 07f7 91       		.byte	0x91
 7428 07f8 00       		.sleb128 0
 7429 07f9 50010000 		.4byte	.LVL311
 7430 07fd 54010000 		.4byte	.LFE90
 7431 0801 0200     		.2byte	0x2
 7432 0803 7D       		.byte	0x7d
 7433 0804 00       		.sleb128 0
 7434 0805 00000000 		.4byte	0
 7435 0809 00000000 		.4byte	0
 7436              	.LLST35:
 7437 080d FA000000 		.4byte	.LVL293
 7438 0811 FE000000 		.4byte	.LVL294
 7439 0815 0200     		.2byte	0x2
 7440 0817 30       		.byte	0x30
 7441 0818 9F       		.byte	0x9f
 7442 0819 FE000000 		.4byte	.LVL294
 7443 081d 1E010000 		.4byte	.LVL300
 7444 0821 0100     		.2byte	0x1
 7445 0823 55       		.byte	0x55
 7446 0824 20010000 		.4byte	.LVL301
 7447 0828 26010000 		.4byte	.LVL302
 7448 082c 0100     		.2byte	0x1
 7449 082e 55       		.byte	0x55
 7450 082f 26010000 		.4byte	.LVL302
 7451 0833 44010000 		.4byte	.LVL308
 7452 0837 0100     		.2byte	0x1
 7453 0839 54       		.byte	0x54
 7454 083a 46010000 		.4byte	.LVL309
 7455 083e 4A010000 		.4byte	.LVL310
 7456 0842 0100     		.2byte	0x1
 7457 0844 54       		.byte	0x54
 7458 0845 00000000 		.4byte	0
 7459 0849 00000000 		.4byte	0
 7460              	.LLST36:
 7461 084d 4C000000 		.4byte	.LVL256
 7462 0851 50000000 		.4byte	.LVL257
 7463 0855 0100     		.2byte	0x1
 7464 0857 50       		.byte	0x50
 7465 0858 50000000 		.4byte	.LVL257
 7466 085c B8000000 		.4byte	.LVL278
 7467 0860 0200     		.2byte	0x2
 7468 0862 91       		.byte	0x91
 7469 0863 4C       		.sleb128 -52
 7470 0864 00000000 		.4byte	0
 7471 0868 00000000 		.4byte	0
 7472              	.LLST37:
 7473 086c 5E000000 		.4byte	.LVL259
 7474 0870 62000000 		.4byte	.LVL260
 7475 0874 0100     		.2byte	0x1
 7476 0876 50       		.byte	0x50
 7477 0877 62000000 		.4byte	.LVL260
 7478 087b 8E000000 		.4byte	.LVL268
 7479 087f 0100     		.2byte	0x1
 7480 0881 56       		.byte	0x56
 7481 0882 00000000 		.4byte	0
 7482 0886 00000000 		.4byte	0
ARM GAS  C:\Users\Tim\AppData\Local\Temp\ccELkyeR.s 			page 158


 7483              	.LLST38:
 7484 088a 70000000 		.4byte	.LVL262
 7485 088e 74000000 		.4byte	.LVL263
 7486 0892 0100     		.2byte	0x1
 7487 0894 50       		.byte	0x50
 7488 0895 74000000 		.4byte	.LVL263
 7489 0899 A4000000 		.4byte	.LVL272
 7490 089d 0100     		.2byte	0x1
 7491 089f 59       		.byte	0x59
 7492 08a0 00000000 		.4byte	0
 7493 08a4 00000000 		.4byte	0
 7494              	.LLST39:
 7495 08a8 82000000 		.4byte	.LVL265
 7496 08ac 84000000 		.4byte	.LVL266
 7497 08b0 0100     		.2byte	0x1
 7498 08b2 50       		.byte	0x50
 7499 08b3 84000000 		.4byte	.LVL266
 7500 08b7 9A000000 		.4byte	.LVL270
 7501 08bb 0100     		.2byte	0x1
 7502 08bd 55       		.byte	0x55
 7503 08be 00000000 		.4byte	0
 7504 08c2 00000000 		.4byte	0
 7505              	.LLST40:
 7506 08c6 8E000000 		.4byte	.LVL268
 7507 08ca AE000000 		.4byte	.LVL275
 7508 08ce 0100     		.2byte	0x1
 7509 08d0 56       		.byte	0x56
 7510 08d1 00000000 		.4byte	0
 7511 08d5 00000000 		.4byte	0
 7512              	.LLST41:
 7513 08d9 9A000000 		.4byte	.LVL270
 7514 08dd D8000000 		.4byte	.LVL286
 7515 08e1 0100     		.2byte	0x1
 7516 08e3 55       		.byte	0x55
 7517 08e4 00000000 		.4byte	0
 7518 08e8 00000000 		.4byte	0
 7519              	.LLST42:
 7520 08ec A4000000 		.4byte	.LVL272
 7521 08f0 A6000000 		.4byte	.LVL273
 7522 08f4 0100     		.2byte	0x1
 7523 08f6 50       		.byte	0x50
 7524 08f7 A6000000 		.4byte	.LVL273
 7525 08fb FE000000 		.4byte	.LVL294
 7526 08ff 0100     		.2byte	0x1
 7527 0901 59       		.byte	0x59
 7528 0902 00000000 		.4byte	0
 7529 0906 00000000 		.4byte	0
 7530              	.LLST43:
 7531 090a AE000000 		.4byte	.LVL275
 7532 090e B0000000 		.4byte	.LVL276
 7533 0912 0100     		.2byte	0x1
 7534 0914 50       		.byte	0x50
 7535 0915 B0000000 		.4byte	.LVL276
 7536 0919 26010000 		.4byte	.LVL302
 7537 091d 0100     		.2byte	0x1
 7538 091f 56       		.byte	0x56
 7539 0920 00000000 		.4byte	0
ARM GAS  C:\Users\Tim\AppData\Local\Temp\ccELkyeR.s 			page 159


 7540 0924 00000000 		.4byte	0
 7541              	.LLST44:
 7542 0928 B8000000 		.4byte	.LVL278
 7543 092c BA000000 		.4byte	.LVL279
 7544 0930 0100     		.2byte	0x1
 7545 0932 50       		.byte	0x50
 7546 0933 BA000000 		.4byte	.LVL279
 7547 0937 FE000000 		.4byte	.LVL294
 7548 093b 0200     		.2byte	0x2
 7549 093d 91       		.byte	0x91
 7550 093e 4C       		.sleb128 -52
 7551 093f 00000000 		.4byte	0
 7552 0943 00000000 		.4byte	0
 7553              	.LLST45:
 7554 0947 C2000000 		.4byte	.LVL281
 7555 094b C8000000 		.4byte	.LVL283
 7556 094f 0100     		.2byte	0x1
 7557 0951 50       		.byte	0x50
 7558 0952 C8000000 		.4byte	.LVL283
 7559 0956 26010000 		.4byte	.LVL302
 7560 095a 0100     		.2byte	0x1
 7561 095c 57       		.byte	0x57
 7562 095d 00000000 		.4byte	0
 7563 0961 00000000 		.4byte	0
 7564              	.LLST46:
 7565 0965 C6000000 		.4byte	.LVL282
 7566 0969 26010000 		.4byte	.LVL302
 7567 096d 0100     		.2byte	0x1
 7568 096f 54       		.byte	0x54
 7569 0970 26010000 		.4byte	.LVL302
 7570 0974 4A010000 		.4byte	.LVL310
 7571 0978 0500     		.2byte	0x5
 7572 097a 78       		.byte	0x78
 7573 097b 00       		.sleb128 0
 7574 097c 31       		.byte	0x31
 7575 097d 25       		.byte	0x25
 7576 097e 9F       		.byte	0x9f
 7577 097f 00000000 		.4byte	0
 7578 0983 00000000 		.4byte	0
 7579              	.LLST47:
 7580 0987 E2000000 		.4byte	.LVL288
 7581 098b E4000000 		.4byte	.LVL289
 7582 098f 0100     		.2byte	0x1
 7583 0991 50       		.byte	0x50
 7584 0992 E4000000 		.4byte	.LVL289
 7585 0996 4A010000 		.4byte	.LVL310
 7586 099a 0200     		.2byte	0x2
 7587 099c 91       		.byte	0x91
 7588 099d 50       		.sleb128 -48
 7589 099e 00000000 		.4byte	0
 7590 09a2 00000000 		.4byte	0
 7591              	.LLST48:
 7592 09a6 F2000000 		.4byte	.LVL292
 7593 09aa FE000000 		.4byte	.LVL294
 7594 09ae 0100     		.2byte	0x1
 7595 09b0 50       		.byte	0x50
 7596 09b1 FE000000 		.4byte	.LVL294
ARM GAS  C:\Users\Tim\AppData\Local\Temp\ccELkyeR.s 			page 160


 7597 09b5 4A010000 		.4byte	.LVL310
 7598 09b9 0200     		.2byte	0x2
 7599 09bb 91       		.byte	0x91
 7600 09bc 54       		.sleb128 -44
 7601 09bd 00000000 		.4byte	0
 7602 09c1 00000000 		.4byte	0
 7603              	.LLST49:
 7604 09c5 FA000000 		.4byte	.LVL293
 7605 09c9 12010000 		.4byte	.LVL296
 7606 09cd 0100     		.2byte	0x1
 7607 09cf 59       		.byte	0x59
 7608 09d0 12010000 		.4byte	.LVL296
 7609 09d4 14010000 		.4byte	.LVL297
 7610 09d8 0100     		.2byte	0x1
 7611 09da 50       		.byte	0x50
 7612 09db 14010000 		.4byte	.LVL297
 7613 09df 26010000 		.4byte	.LVL302
 7614 09e3 0100     		.2byte	0x1
 7615 09e5 59       		.byte	0x59
 7616 09e6 26010000 		.4byte	.LVL302
 7617 09ea 38010000 		.4byte	.LVL304
 7618 09ee 0100     		.2byte	0x1
 7619 09f0 56       		.byte	0x56
 7620 09f1 38010000 		.4byte	.LVL304
 7621 09f5 3A010000 		.4byte	.LVL305
 7622 09f9 0100     		.2byte	0x1
 7623 09fb 50       		.byte	0x50
 7624 09fc 3A010000 		.4byte	.LVL305
 7625 0a00 4A010000 		.4byte	.LVL310
 7626 0a04 0100     		.2byte	0x1
 7627 0a06 56       		.byte	0x56
 7628 0a07 00000000 		.4byte	0
 7629 0a0b 00000000 		.4byte	0
 7630              	.LLST50:
 7631 0a0f FA000000 		.4byte	.LVL293
 7632 0a13 1C010000 		.4byte	.LVL299
 7633 0a17 0200     		.2byte	0x2
 7634 0a19 91       		.byte	0x91
 7635 0a1a 4C       		.sleb128 -52
 7636 0a1b 1C010000 		.4byte	.LVL299
 7637 0a1f 20010000 		.4byte	.LVL301
 7638 0a23 0100     		.2byte	0x1
 7639 0a25 50       		.byte	0x50
 7640 0a26 20010000 		.4byte	.LVL301
 7641 0a2a 26010000 		.4byte	.LVL302
 7642 0a2e 0200     		.2byte	0x2
 7643 0a30 91       		.byte	0x91
 7644 0a31 4C       		.sleb128 -52
 7645 0a32 26010000 		.4byte	.LVL302
 7646 0a36 42010000 		.4byte	.LVL307
 7647 0a3a 0100     		.2byte	0x1
 7648 0a3c 57       		.byte	0x57
 7649 0a3d 42010000 		.4byte	.LVL307
 7650 0a41 46010000 		.4byte	.LVL309
 7651 0a45 0100     		.2byte	0x1
 7652 0a47 50       		.byte	0x50
 7653 0a48 46010000 		.4byte	.LVL309
ARM GAS  C:\Users\Tim\AppData\Local\Temp\ccELkyeR.s 			page 161


 7654 0a4c 4A010000 		.4byte	.LVL310
 7655 0a50 0100     		.2byte	0x1
 7656 0a52 57       		.byte	0x57
 7657 0a53 00000000 		.4byte	0
 7658 0a57 00000000 		.4byte	0
 7659              		.section	.debug_aranges,"",%progbits
 7660 0000 F4000000 		.4byte	0xf4
 7661 0004 0200     		.2byte	0x2
 7662 0006 00000000 		.4byte	.Ldebug_info0
 7663 000a 04       		.byte	0x4
 7664 000b 00       		.byte	0
 7665 000c 0000     		.2byte	0
 7666 000e 0000     		.2byte	0
 7667 0010 00000000 		.4byte	.LFB63
 7668 0014 0C000000 		.4byte	.LFE63-.LFB63
 7669 0018 00000000 		.4byte	.LFB64
 7670 001c 0C000000 		.4byte	.LFE64-.LFB64
 7671 0020 00000000 		.4byte	.LFB69
 7672 0024 5C000000 		.4byte	.LFE69-.LFB69
 7673 0028 00000000 		.4byte	.LFB70
 7674 002c 90000000 		.4byte	.LFE70-.LFB70
 7675 0030 00000000 		.4byte	.LFB73
 7676 0034 20000000 		.4byte	.LFE73-.LFB73
 7677 0038 00000000 		.4byte	.LFB71
 7678 003c 68000000 		.4byte	.LFE71-.LFB71
 7679 0040 00000000 		.4byte	.LFB78
 7680 0044 30000000 		.4byte	.LFE78-.LFB78
 7681 0048 00000000 		.4byte	.LFB79
 7682 004c A4000000 		.4byte	.LFE79-.LFB79
 7683 0050 00000000 		.4byte	.LFB72
 7684 0054 18000000 		.4byte	.LFE72-.LFB72
 7685 0058 00000000 		.4byte	.LFB75
 7686 005c 58000000 		.4byte	.LFE75-.LFB75
 7687 0060 00000000 		.4byte	.LFB76
 7688 0064 50000000 		.4byte	.LFE76-.LFB76
 7689 0068 00000000 		.4byte	.LFB77
 7690 006c 48010000 		.4byte	.LFE77-.LFB77
 7691 0070 00000000 		.4byte	.LFB80
 7692 0074 72000000 		.4byte	.LFE80-.LFB80
 7693 0078 00000000 		.4byte	.LFB65
 7694 007c 2C000000 		.4byte	.LFE65-.LFB65
 7695 0080 00000000 		.4byte	.LFB66
 7696 0084 24000000 		.4byte	.LFE66-.LFB66
 7697 0088 00000000 		.4byte	.LFB67
 7698 008c 64000000 		.4byte	.LFE67-.LFB67
 7699 0090 00000000 		.4byte	.LFB68
 7700 0094 48000000 		.4byte	.LFE68-.LFB68
 7701 0098 00000000 		.4byte	.LFB74
 7702 009c 04010000 		.4byte	.LFE74-.LFB74
 7703 00a0 00000000 		.4byte	.LFB81
 7704 00a4 3C000000 		.4byte	.LFE81-.LFB81
 7705 00a8 00000000 		.4byte	.LFB82
 7706 00ac 14000000 		.4byte	.LFE82-.LFB82
 7707 00b0 00000000 		.4byte	.LFB83
 7708 00b4 D4000000 		.4byte	.LFE83-.LFB83
 7709 00b8 00000000 		.4byte	.LFB84
 7710 00bc 46000000 		.4byte	.LFE84-.LFB84
ARM GAS  C:\Users\Tim\AppData\Local\Temp\ccELkyeR.s 			page 162


 7711 00c0 00000000 		.4byte	.LFB85
 7712 00c4 0C000000 		.4byte	.LFE85-.LFB85
 7713 00c8 00000000 		.4byte	.LFB86
 7714 00cc 0C000000 		.4byte	.LFE86-.LFB86
 7715 00d0 00000000 		.4byte	.LFB87
 7716 00d4 0C000000 		.4byte	.LFE87-.LFB87
 7717 00d8 00000000 		.4byte	.LFB88
 7718 00dc 9C000000 		.4byte	.LFE88-.LFB88
 7719 00e0 00000000 		.4byte	.LFB89
 7720 00e4 10000000 		.4byte	.LFE89-.LFB89
 7721 00e8 00000000 		.4byte	.LFB90
 7722 00ec 54010000 		.4byte	.LFE90-.LFB90
 7723 00f0 00000000 		.4byte	0
 7724 00f4 00000000 		.4byte	0
 7725              		.section	.debug_ranges,"",%progbits
 7726              	.Ldebug_ranges0:
 7727 0000 00000000 		.4byte	.LFB63
 7728 0004 0C000000 		.4byte	.LFE63
 7729 0008 00000000 		.4byte	.LFB64
 7730 000c 0C000000 		.4byte	.LFE64
 7731 0010 00000000 		.4byte	.LFB69
 7732 0014 5C000000 		.4byte	.LFE69
 7733 0018 00000000 		.4byte	.LFB70
 7734 001c 90000000 		.4byte	.LFE70
 7735 0020 00000000 		.4byte	.LFB73
 7736 0024 20000000 		.4byte	.LFE73
 7737 0028 00000000 		.4byte	.LFB71
 7738 002c 68000000 		.4byte	.LFE71
 7739 0030 00000000 		.4byte	.LFB78
 7740 0034 30000000 		.4byte	.LFE78
 7741 0038 00000000 		.4byte	.LFB79
 7742 003c A4000000 		.4byte	.LFE79
 7743 0040 00000000 		.4byte	.LFB72
 7744 0044 18000000 		.4byte	.LFE72
 7745 0048 00000000 		.4byte	.LFB75
 7746 004c 58000000 		.4byte	.LFE75
 7747 0050 00000000 		.4byte	.LFB76
 7748 0054 50000000 		.4byte	.LFE76
 7749 0058 00000000 		.4byte	.LFB77
 7750 005c 48010000 		.4byte	.LFE77
 7751 0060 00000000 		.4byte	.LFB80
 7752 0064 72000000 		.4byte	.LFE80
 7753 0068 00000000 		.4byte	.LFB65
 7754 006c 2C000000 		.4byte	.LFE65
 7755 0070 00000000 		.4byte	.LFB66
 7756 0074 24000000 		.4byte	.LFE66
 7757 0078 00000000 		.4byte	.LFB67
 7758 007c 64000000 		.4byte	.LFE67
 7759 0080 00000000 		.4byte	.LFB68
 7760 0084 48000000 		.4byte	.LFE68
 7761 0088 00000000 		.4byte	.LFB74
 7762 008c 04010000 		.4byte	.LFE74
 7763 0090 00000000 		.4byte	.LFB81
 7764 0094 3C000000 		.4byte	.LFE81
 7765 0098 00000000 		.4byte	.LFB82
 7766 009c 14000000 		.4byte	.LFE82
 7767 00a0 00000000 		.4byte	.LFB83
ARM GAS  C:\Users\Tim\AppData\Local\Temp\ccELkyeR.s 			page 163


 7768 00a4 D4000000 		.4byte	.LFE83
 7769 00a8 00000000 		.4byte	.LFB84
 7770 00ac 46000000 		.4byte	.LFE84
 7771 00b0 00000000 		.4byte	.LFB85
 7772 00b4 0C000000 		.4byte	.LFE85
 7773 00b8 00000000 		.4byte	.LFB86
 7774 00bc 0C000000 		.4byte	.LFE86
 7775 00c0 00000000 		.4byte	.LFB87
 7776 00c4 0C000000 		.4byte	.LFE87
 7777 00c8 00000000 		.4byte	.LFB88
 7778 00cc 9C000000 		.4byte	.LFE88
 7779 00d0 00000000 		.4byte	.LFB89
 7780 00d4 10000000 		.4byte	.LFE89
 7781 00d8 00000000 		.4byte	.LFB90
 7782 00dc 54010000 		.4byte	.LFE90
 7783 00e0 00000000 		.4byte	0
 7784 00e4 00000000 		.4byte	0
 7785              		.section	.debug_line,"",%progbits
 7786              	.Ldebug_line0:
 7787 0000 9C050000 		.section	.debug_str,"MS",%progbits,1
 7787      02000A02 
 7787      00000201 
 7787      FB0E0D00 
 7787      01010101 
 7788              	.LASF127:
 7789 0000 69676169 		.ascii	"igain_str\000"
 7789      6E5F7374 
 7789      7200
 7790              	.LASF96:
 7791 000a 52696768 		.ascii	"RightTarget\000"
 7791      74546172 
 7791      67657400 
 7792              	.LASF83:
 7793 0016 64697265 		.ascii	"direction\000"
 7793      6374696F 
 7793      6E00
 7794              	.LASF180:
 7795 0020 43616C50 		.ascii	"CalPid_LeftCalibration\000"
 7795      69645F4C 
 7795      65667443 
 7795      616C6962 
 7795      72617469 
 7796              	.LASF23:
 7797 0037 57484545 		.ascii	"WHEEL_BOTH\000"
 7797      4C5F424F 
 7797      544800
 7798              	.LASF126:
 7799 0042 70676169 		.ascii	"pgain_str\000"
 7799      6E5F7374 
 7799      7200
 7800              	.LASF101:
 7801 004c 48616E64 		.ascii	"HandleError\000"
 7801      6C654572 
 7801      726F7200 
 7802              	.LASF70:
 7803 0058 70617261 		.ascii	"params\000"
 7803      6D7300
ARM GAS  C:\Users\Tim\AppData\Local\Temp\ccELkyeR.s 			page 164


 7804              	.LASF63:
 7805 005f 53544152 		.ascii	"START_FUNC_TYPE\000"
 7805      545F4655 
 7805      4E435F54 
 7805      59504500 
 7806              	.LASF125:
 7807 006f 6F757470 		.ascii	"output\000"
 7807      757400
 7808              	.LASF115:
 7809 0076 436C6561 		.ascii	"ClearCalibrationStatusBit\000"
 7809      7243616C 
 7809      69627261 
 7809      74696F6E 
 7809      53746174 
 7810              	.LASF199:
 7811 0090 43616C50 		.ascii	"CalPid_Init\000"
 7811      69645F49 
 7811      6E697400 
 7812              	.LASF165:
 7813 009c 6277645F 		.ascii	"bwd_value\000"
 7813      76616C75 
 7813      6500
 7814              	.LASF39:
 7815 00a6 5F656570 		.ascii	"_eeprom_tag\000"
 7815      726F6D5F 
 7815      74616700 
 7816              	.LASF121:
 7817 00b2 62756666 		.ascii	"buffer\000"
 7817      657200
 7818              	.LASF172:
 7819 00b9 63616C5F 		.ascii	"cal_stage_to_string\000"
 7819      73746167 
 7819      655F746F 
 7819      5F737472 
 7819      696E6700 
 7820              	.LASF55:
 7821 00cd 43414C5F 		.ascii	"CAL_STOP_STATE\000"
 7821      53544F50 
 7821      5F535441 
 7821      544500
 7822              	.LASF34:
 7823 00dc 43414C5F 		.ascii	"CAL_DATA_TYPE\000"
 7823      44415441 
 7823      5F545950 
 7823      4500
 7824              	.LASF9:
 7825 00ea 756E7369 		.ascii	"unsigned int\000"
 7825      676E6564 
 7825      20696E74 
 7825      00
 7826              	.LASF123:
 7827 00f7 43616C5F 		.ascii	"Cal_PrintGains\000"
 7827      5072696E 
 7827      74476169 
 7827      6E7300
 7828              	.LASF98:
 7829 0106 44697370 		.ascii	"DisplayValMenu\000"
ARM GAS  C:\Users\Tim\AppData\Local\Temp\ccELkyeR.s 			page 165


 7829      6C617956 
 7829      616C4D65 
 7829      6E7500
 7830              	.LASF129:
 7831 0115 50726F63 		.ascii	"ProcessSettingsCmd\000"
 7831      65737353 
 7831      65747469 
 7831      6E677343 
 7831      6D6400
 7832              	.LASF133:
 7833 0128 43616C5F 		.ascii	"Cal_ReadResponse\000"
 7833      52656164 
 7833      52657370 
 7833      6F6E7365 
 7833      00
 7834              	.LASF85:
 7835 0139 43414C5F 		.ascii	"CAL_PID_PARAMS\000"
 7835      5049445F 
 7835      50415241 
 7835      4D5300
 7836              	.LASF24:
 7837 0148 57484545 		.ascii	"WHEEL_TYPE\000"
 7837      4C5F5459 
 7837      504500
 7838              	.LASF12:
 7839 0153 5F5F696E 		.ascii	"__int32_t\000"
 7839      7433325F 
 7839      7400
 7840              	.LASF17:
 7841 015d 696E7431 		.ascii	"int16\000"
 7841      3600
 7842              	.LASF48:
 7843 0163 72696768 		.ascii	"right_motor_fwd\000"
 7843      745F6D6F 
 7843      746F725F 
 7843      66776400 
 7844              	.LASF69:
 7845 0173 73746167 		.ascii	"stage\000"
 7845      6500
 7846              	.LASF22:
 7847 0179 57484545 		.ascii	"WHEEL_RIGHT\000"
 7847      4C5F5249 
 7847      47485400 
 7848              	.LASF93:
 7849 0185 55495F53 		.ascii	"UI_STATE_EXIT\000"
 7849      54415445 
 7849      5F455849 
 7849      5400
 7850              	.LASF205:
 7851 0193 6D656D73 		.ascii	"memset\000"
 7851      657400
 7852              	.LASF54:
 7853 019a 43414C5F 		.ascii	"CAL_RUNNING_STATE\000"
 7853      52554E4E 
 7853      494E475F 
 7853      53544154 
 7853      4500
ARM GAS  C:\Users\Tim\AppData\Local\Temp\ccELkyeR.s 			page 166


 7854              	.LASF102:
 7855 01ac 63616C76 		.ascii	"calval\000"
 7855      616C00
 7856              	.LASF43:
 7857 01b3 6C656674 		.ascii	"left_gains\000"
 7857      5F676169 
 7857      6E7300
 7858              	.LASF183:
 7859 01be 43616C50 		.ascii	"CalPid_RightValidation\000"
 7859      69645F52 
 7859      69676874 
 7859      56616C69 
 7859      64617469 
 7860              	.LASF167:
 7861 01d5 61637469 		.ascii	"active_cal\000"
 7861      76655F63 
 7861      616C00
 7862              	.LASF73:
 7863 01e0 75706461 		.ascii	"update\000"
 7863      746500
 7864              	.LASF148:
 7865 01e7 75707065 		.ascii	"upper_limit\000"
 7865      725F6C69 
 7865      6D697400 
 7866              	.LASF75:
 7867 01f3 72657375 		.ascii	"results\000"
 7867      6C747300 
 7868              	.LASF194:
 7869 01fb 4E767374 		.ascii	"Nvstore_WriteUint16\000"
 7869      6F72655F 
 7869      57726974 
 7869      6555696E 
 7869      74313600 
 7870              	.LASF141:
 7871 020f 77686565 		.ascii	"wheel\000"
 7871      6C00
 7872              	.LASF177:
 7873 0215 57484545 		.ascii	"WHEEL_DIR_TO_CAL_DATA\000"
 7873      4C5F4449 
 7873      525F544F 
 7873      5F43414C 
 7873      5F444154 
 7874              	.LASF62:
 7875 022b 494E4954 		.ascii	"INIT_FUNC_TYPE\000"
 7875      5F46554E 
 7875      435F5459 
 7875      504500
 7876              	.LASF25:
 7877 023a 4449525F 		.ascii	"DIR_FORWARD\000"
 7877      464F5257 
 7877      41524400 
 7878              	.LASF100:
 7879 0246 44697370 		.ascii	"DisplayMenu\000"
 7879      6C61794D 
 7879      656E7500 
 7880              	.LASF164:
 7881 0252 6677645F 		.ascii	"fwd_value\000"
ARM GAS  C:\Users\Tim\AppData\Local\Temp\ccELkyeR.s 			page 167


 7881      76616C75 
 7881      6500
 7882              	.LASF56:
 7883 025c 43414C5F 		.ascii	"CAL_RESULTS_STATE\000"
 7883      52455355 
 7883      4C54535F 
 7883      53544154 
 7883      4500
 7884              	.LASF26:
 7885 026e 4449525F 		.ascii	"DIR_BACKWARD\000"
 7885      4241434B 
 7885      57415244 
 7885      00
 7886              	.LASF74:
 7887 027b 73746F70 		.ascii	"stop\000"
 7887      00
 7888              	.LASF0:
 7889 0280 666C6F61 		.ascii	"float\000"
 7889      7400
 7890              	.LASF41:
 7891 0286 63686563 		.ascii	"checksum\000"
 7891      6B73756D 
 7891      00
 7892              	.LASF18:
 7893 028f 696E7433 		.ascii	"int32\000"
 7893      3200
 7894              	.LASF136:
 7895 0295 43616C5F 		.ascii	"Cal_LeftGetPidGains\000"
 7895      4C656674 
 7895      47657450 
 7895      69644761 
 7895      696E7300 
 7896              	.LASF103:
 7897 02a9 50726F63 		.ascii	"Process\000"
 7897      65737300 
 7898              	.LASF66:
 7899 02b1 52455355 		.ascii	"RESULTS_FUNC_TYPE\000"
 7899      4C54535F 
 7899      46554E43 
 7899      5F545950 
 7899      4500
 7900              	.LASF105:
 7901 02c3 72657375 		.ascii	"result\000"
 7901      6C7400
 7902              	.LASF131:
 7903 02ca 43616C5F 		.ascii	"Cal_Start\000"
 7903      53746172 
 7903      7400
 7904              	.LASF8:
 7905 02d4 6C6F6E67 		.ascii	"long long unsigned int\000"
 7905      206C6F6E 
 7905      6720756E 
 7905      7369676E 
 7905      65642069 
 7906              	.LASF186:
 7907 02eb 666F726D 		.ascii	"formatted_string\000"
 7907      61747465 
ARM GAS  C:\Users\Tim\AppData\Local\Temp\ccELkyeR.s 			page 168


 7907      645F7374 
 7907      72696E67 
 7907      00
 7908              	.LASF61:
 7909 02fc 43414C5F 		.ascii	"CAL_STAGE_TYPE\000"
 7909      53544147 
 7909      455F5459 
 7909      504500
 7910              	.LASF134:
 7911 030b 64696769 		.ascii	"digits\000"
 7911      747300
 7912              	.LASF143:
 7913 0312 705F6361 		.ascii	"p_cal_data\000"
 7913      6C5F6461 
 7913      746100
 7914              	.LASF32:
 7915 031d 70776D5F 		.ascii	"pwm_data\000"
 7915      64617461 
 7915      00
 7916              	.LASF31:
 7917 0326 6370735F 		.ascii	"cps_data\000"
 7917      64617461 
 7917      00
 7918              	.LASF113:
 7919 032f 6C6F7765 		.ascii	"lower\000"
 7919      7200
 7920              	.LASF150:
 7921 0335 6261636B 		.ascii	"backward_profile\000"
 7921      77617264 
 7921      5F70726F 
 7921      66696C65 
 7921      00
 7922              	.LASF108:
 7923 0346 76616C75 		.ascii	"value\000"
 7923      6500
 7924              	.LASF170:
 7925 034c 72696768 		.ascii	"right_cmd_velocity\000"
 7925      745F636D 
 7925      645F7665 
 7925      6C6F6369 
 7925      747900
 7926              	.LASF179:
 7927 035f 43616C4D 		.ascii	"CalMotor_Validation\000"
 7927      6F746F72 
 7927      5F56616C 
 7927      69646174 
 7927      696F6E00 
 7928              	.LASF190:
 7929 0373 5365725F 		.ascii	"Ser_WriteByte\000"
 7929      57726974 
 7929      65427974 
 7929      6500
 7930              	.LASF45:
 7931 0381 72657665 		.ascii	"reversed_32\000"
 7931      72736564 
 7931      5F333200 
 7932              	.LASF120:
ARM GAS  C:\Users\Tim\AppData\Local\Temp\ccELkyeR.s 			page 169


 7933 038d 70776D5F 		.ascii	"pwm_samples\000"
 7933      73616D70 
 7933      6C657300 
 7934              	.LASF112:
 7935 0399 64617461 		.ascii	"data_size\000"
 7935      5F73697A 
 7935      6500
 7936              	.LASF35:
 7937 03a3 5F43414C 		.ascii	"_CAL_DATA_TYPE\000"
 7937      5F444154 
 7937      415F5459 
 7937      504500
 7938              	.LASF188:
 7939 03b2 5365725F 		.ascii	"Ser_PutString\000"
 7939      50757453 
 7939      7472696E 
 7939      6700
 7940              	.LASF156:
 7941 03c0 6261636B 		.ascii	"backward_cps_max\000"
 7941      77617264 
 7941      5F637073 
 7941      5F6D6178 
 7941      00
 7942              	.LASF116:
 7943 03d1 53657443 		.ascii	"SetCalibrationStatusBit\000"
 7943      616C6962 
 7943      72617469 
 7943      6F6E5374 
 7943      61747573 
 7944              	.LASF111:
 7945 03e9 43707354 		.ascii	"CpsToPwm\000"
 7945      6F50776D 
 7945      00
 7946              	.LASF159:
 7947 03f2 6277645F 		.ascii	"bwd_cps_start\000"
 7947      6370735F 
 7947      73746172 
 7947      7400
 7948              	.LASF138:
 7949 0400 43616C5F 		.ascii	"Cal_SetLeftRightVelocity\000"
 7949      5365744C 
 7949      65667452 
 7949      69676874 
 7949      56656C6F 
 7950              	.LASF79:
 7951 0419 5049445F 		.ascii	"PID_TYPE\000"
 7951      54595045 
 7951      00
 7952              	.LASF160:
 7953 0422 6277645F 		.ascii	"bwd_cps_end\000"
 7953      6370735F 
 7953      656E6400 
 7954              	.LASF36:
 7955 042e 5F63616C 		.ascii	"_cal_pid_tag\000"
 7955      5F706964 
 7955      5F746167 
 7955      00
ARM GAS  C:\Users\Tim\AppData\Local\Temp\ccELkyeR.s 			page 170


 7956              	.LASF157:
 7957 043b 6677645F 		.ascii	"fwd_cps_start\000"
 7957      6370735F 
 7957      73746172 
 7957      7400
 7958              	.LASF193:
 7959 0449 496E7465 		.ascii	"Interpolate\000"
 7959      72706F6C 
 7959      61746500 
 7960              	.LASF84:
 7961 0455 72756E5F 		.ascii	"run_time\000"
 7961      74696D65 
 7961      00
 7962              	.LASF151:
 7963 045e 6C656674 		.ascii	"left_forward_cps_max\000"
 7963      5F666F72 
 7963      77617264 
 7963      5F637073 
 7963      5F6D6178 
 7964              	.LASF47:
 7965 0473 6C656674 		.ascii	"left_motor_bwd\000"
 7965      5F6D6F74 
 7965      6F725F62 
 7965      776400
 7966              	.LASF152:
 7967 0482 72696768 		.ascii	"right_forward_cps_max\000"
 7967      745F666F 
 7967      72776172 
 7967      645F6370 
 7967      735F6D61 
 7968              	.LASF64:
 7969 0498 55504441 		.ascii	"UPDATE_FUNC_TYPE\000"
 7969      54455F46 
 7969      554E435F 
 7969      54595045 
 7969      00
 7970              	.LASF60:
 7971 04a9 43414C5F 		.ascii	"CAL_VALIDATE_STAGE\000"
 7971      56414C49 
 7971      44415445 
 7971      5F535441 
 7971      474500
 7972              	.LASF137:
 7973 04bc 43616C5F 		.ascii	"Cal_RightGetPidGains\000"
 7973      52696768 
 7973      74476574 
 7973      50696447 
 7973      61696E73 
 7974              	.LASF163:
 7975 04d1 6277645F 		.ascii	"bwd_cps_delta\000"
 7975      6370735F 
 7975      64656C74 
 7975      6100
 7976              	.LASF11:
 7977 04df 63686172 		.ascii	"char\000"
 7977      00
 7978              	.LASF86:
ARM GAS  C:\Users\Tim\AppData\Local\Temp\ccELkyeR.s 			page 171


 7979 04e4 5F6C696E 		.ascii	"_linear_params\000"
 7979      6561725F 
 7979      70617261 
 7979      6D7300
 7980              	.LASF30:
 7981 04f3 6370735F 		.ascii	"cps_scale\000"
 7981      7363616C 
 7981      6500
 7982              	.LASF145:
 7983 04fd 43616C5F 		.ascii	"Cal_CalcTriangularProfile\000"
 7983      43616C63 
 7983      54726961 
 7983      6E67756C 
 7983      61725072 
 7984              	.LASF162:
 7985 0517 6677645F 		.ascii	"fwd_cps_delta\000"
 7985      6370735F 
 7985      64656C74 
 7985      6100
 7986              	.LASF78:
 7987 0525 5049445F 		.ascii	"PID_TYPE_RIGHT\000"
 7987      54595045 
 7987      5F524947 
 7987      485400
 7988              	.LASF15:
 7989 0534 75696E74 		.ascii	"uint16\000"
 7989      313600
 7990              	.LASF107:
 7991 053b 47657443 		.ascii	"GetCommand\000"
 7991      6F6D6D61 
 7991      6E6400
 7992              	.LASF82:
 7993 0546 7069645F 		.ascii	"pid_type\000"
 7993      74797065 
 7993      00
 7994              	.LASF42:
 7995 054f 72657365 		.ascii	"reserved_4\000"
 7995      72766564 
 7995      5F3400
 7996              	.LASF95:
 7997 055a 4C656674 		.ascii	"LeftTarget\000"
 7997      54617267 
 7997      657400
 7998              	.LASF40:
 7999 0565 73746174 		.ascii	"status\000"
 7999      757300
 8000              	.LASF161:
 8001 056c 6D69645F 		.ascii	"mid_sample_offset\000"
 8001      73616D70 
 8001      6C655F6F 
 8001      66667365 
 8001      7400
 8002              	.LASF50:
 8003 057e 43414C5F 		.ascii	"CAL_EEPROM_TYPE\000"
 8003      45455052 
 8003      4F4D5F54 
 8003      59504500 
ARM GAS  C:\Users\Tim\AppData\Local\Temp\ccELkyeR.s 			page 172


 8004              	.LASF104:
 8005 058e 6F757462 		.ascii	"outbuf\000"
 8005      756600
 8006              	.LASF97:
 8007 0595 44697370 		.ascii	"DisplayCalMenu\000"
 8007      6C617943 
 8007      616C4D65 
 8007      6E7500
 8008              	.LASF185:
 8009 05a4 43616C41 		.ascii	"CalAng_Calibration\000"
 8009      6E675F43 
 8009      616C6962 
 8009      72617469 
 8009      6F6E00
 8010              	.LASF80:
 8011 05b7 63616C5F 		.ascii	"cal_pid_params_tag\000"
 8011      7069645F 
 8011      70617261 
 8011      6D735F74 
 8011      616700
 8012              	.LASF146:
 8013 05ca 6E756D5F 		.ascii	"num_points\000"
 8013      706F696E 
 8013      747300
 8014              	.LASF27:
 8015 05d5 4449525F 		.ascii	"DIR_TYPE\000"
 8015      54595045 
 8015      00
 8016              	.LASF140:
 8017 05de 72696768 		.ascii	"right\000"
 8017      7400
 8018              	.LASF7:
 8019 05e4 6C6F6E67 		.ascii	"long long int\000"
 8019      206C6F6E 
 8019      6720696E 
 8019      7400
 8020              	.LASF46:
 8021 05f2 6C656674 		.ascii	"left_motor_fwd\000"
 8021      5F6D6F74 
 8021      6F725F66 
 8021      776400
 8022              	.LASF58:
 8023 0601 43414C5F 		.ascii	"CAL_STATE_TYPE\000"
 8023      53544154 
 8023      455F5459 
 8023      504500
 8024              	.LASF20:
 8025 0610 4745545F 		.ascii	"GET_TARGET_FUNC_TYPE\000"
 8025      54415247 
 8025      45545F46 
 8025      554E435F 
 8025      54595045 
 8026              	.LASF147:
 8027 0625 6C6F7765 		.ascii	"lower_limit\000"
 8027      725F6C69 
 8027      6D697400 
 8028              	.LASF49:
ARM GAS  C:\Users\Tim\AppData\Local\Temp\ccELkyeR.s 			page 173


 8029 0631 72696768 		.ascii	"right_motor_bwd\000"
 8029      745F6D6F 
 8029      746F725F 
 8029      62776400 
 8030              	.LASF44:
 8031 0641 72696768 		.ascii	"right_gains\000"
 8031      745F6761 
 8031      696E7300 
 8032              	.LASF209:
 8033 064d 705F7069 		.ascii	"p_pid_params\000"
 8033      645F7061 
 8033      72616D73 
 8033      00
 8034              	.LASF122:
 8035 065a 6C616265 		.ascii	"label_str\000"
 8035      6C5F7374 
 8035      7200
 8036              	.LASF195:
 8037 0664 4932635F 		.ascii	"I2c_ClearCalibrationStatusBit\000"
 8037      436C6561 
 8037      7243616C 
 8037      69627261 
 8037      74696F6E 
 8038              	.LASF28:
 8039 0682 6370735F 		.ascii	"cps_min\000"
 8039      6D696E00 
 8040              	.LASF57:
 8041 068a 43414C5F 		.ascii	"CAL_DONE_STATE\000"
 8041      444F4E45 
 8041      5F535441 
 8041      544500
 8042              	.LASF110:
 8043 0699 47657456 		.ascii	"GetValidation\000"
 8043      616C6964 
 8043      6174696F 
 8043      6E00
 8044              	.LASF59:
 8045 06a7 43414C5F 		.ascii	"CAL_CALIBRATE_STAGE\000"
 8045      43414C49 
 8045      42524154 
 8045      455F5354 
 8045      41474500 
 8046              	.LASF181:
 8047 06bb 43616C50 		.ascii	"CalPid_RightCalibration\000"
 8047      69645F52 
 8047      69676874 
 8047      43616C69 
 8047      62726174 
 8048              	.LASF37:
 8049 06d3 72657665 		.ascii	"reversed\000"
 8049      72736564 
 8049      00
 8050              	.LASF128:
 8051 06dc 64676169 		.ascii	"dgain_str\000"
 8051      6E5F7374 
 8051      7200
 8052              	.LASF207:
ARM GAS  C:\Users\Tim\AppData\Local\Temp\ccELkyeR.s 			page 174


 8053 06e6 2E2E5C73 		.ascii	"..\\source\\cal.c\000"
 8053      6F757263 
 8053      655C6361 
 8053      6C2E6300 
 8054              	.LASF16:
 8055 06f6 75696E74 		.ascii	"uint32\000"
 8055      333200
 8056              	.LASF184:
 8057 06fd 43616C4C 		.ascii	"CalLin_Validation\000"
 8057      696E5F56 
 8057      616C6964 
 8057      6174696F 
 8057      6E00
 8058              	.LASF51:
 8059 070f 50574D5F 		.ascii	"PWM_TYPE\000"
 8059      54595045 
 8059      00
 8060              	.LASF192:
 8061 0718 73707269 		.ascii	"sprintf\000"
 8061      6E746600 
 8062              	.LASF90:
 8063 0720 55495F53 		.ascii	"UI_STATE_CALIBRATION\000"
 8063      54415445 
 8063      5F43414C 
 8063      49425241 
 8063      54494F4E 
 8064              	.LASF200:
 8065 0735 43616C4C 		.ascii	"CalLin_Init\000"
 8065      696E5F49 
 8065      6E697400 
 8066              	.LASF203:
 8067 0741 5365725F 		.ascii	"Ser_Update\000"
 8067      55706461 
 8067      746500
 8068              	.LASF173:
 8069 074c 63616C5F 		.ascii	"cal_state_to_string\000"
 8069      73746174 
 8069      655F746F 
 8069      5F737472 
 8069      696E6700 
 8070              	.LASF38:
 8071 0760 43414C5F 		.ascii	"CAL_PID_TYPE\000"
 8071      5049445F 
 8071      54595045 
 8071      00
 8072              	.LASF92:
 8073 076d 55495F53 		.ascii	"UI_STATE_SETTINGS\000"
 8073      54415445 
 8073      5F534554 
 8073      54494E47 
 8073      5300
 8074              	.LASF210:
 8075 077f 43616C5F 		.ascii	"Cal_CpsToPwm\000"
 8075      43707354 
 8075      6F50776D 
 8075      00
 8076              	.LASF132:
ARM GAS  C:\Users\Tim\AppData\Local\Temp\ccELkyeR.s 			page 175


 8077 078c 43616C5F 		.ascii	"Cal_Update\000"
 8077      55706461 
 8077      746500
 8078              	.LASF168:
 8079 0797 61637469 		.ascii	"active_val\000"
 8079      76655F76 
 8079      616C00
 8080              	.LASF174:
 8081 07a2 705F6361 		.ascii	"p_cal_eeprom\000"
 8081      6C5F6565 
 8081      70726F6D 
 8081      00
 8082              	.LASF3:
 8083 07af 73686F72 		.ascii	"short int\000"
 8083      7420696E 
 8083      7400
 8084              	.LASF175:
 8085 07b9 43616C5F 		.ascii	"Cal_LeftTarget\000"
 8085      4C656674 
 8085      54617267 
 8085      657400
 8086              	.LASF5:
 8087 07c8 6C6F6E67 		.ascii	"long int\000"
 8087      20696E74 
 8087      00
 8088              	.LASF171:
 8089 07d1 49544D5F 		.ascii	"ITM_RxBuffer\000"
 8089      52784275 
 8089      66666572 
 8089      00
 8090              	.LASF158:
 8091 07de 6677645F 		.ascii	"fwd_cps_end\000"
 8091      6370735F 
 8091      656E6400 
 8092              	.LASF87:
 8093 07ea 64697374 		.ascii	"distance\000"
 8093      616E6365 
 8093      00
 8094              	.LASF198:
 8095 07f3 43616C4D 		.ascii	"CalMotor_Init\000"
 8095      6F746F72 
 8095      5F496E69 
 8095      7400
 8096              	.LASF142:
 8097 0801 73656E64 		.ascii	"send_once\000"
 8097      5F6F6E63 
 8097      6500
 8098              	.LASF91:
 8099 080b 55495F53 		.ascii	"UI_STATE_VALIDATION\000"
 8099      54415445 
 8099      5F56414C 
 8099      49444154 
 8099      494F4E00 
 8100              	.LASF191:
 8101 081f 42696E61 		.ascii	"BinaryRangeSearch\000"
 8101      72795261 
 8101      6E676553 
ARM GAS  C:\Users\Tim\AppData\Local\Temp\ccELkyeR.s 			page 176


 8101      65617263 
 8101      6800
 8102              	.LASF65:
 8103 0831 53544F50 		.ascii	"STOP_FUNC_TYPE\000"
 8103      5F46554E 
 8103      435F5459 
 8103      504500
 8104              	.LASF139:
 8105 0840 6C656674 		.ascii	"left\000"
 8105      00
 8106              	.LASF81:
 8107 0845 6E616D65 		.ascii	"name\000"
 8107      00
 8108              	.LASF72:
 8109 084a 73746172 		.ascii	"start\000"
 8109      7400
 8110              	.LASF89:
 8111 0850 55495F53 		.ascii	"UI_STATE_INIT\000"
 8111      54415445 
 8111      5F494E49 
 8111      5400
 8112              	.LASF178:
 8113 085e 43616C4D 		.ascii	"CalMotor_Calibration\000"
 8113      6F746F72 
 8113      5F43616C 
 8113      69627261 
 8113      74696F6E 
 8114              	.LASF196:
 8115 0873 4932635F 		.ascii	"I2c_SetCalibrationStatusBit\000"
 8115      53657443 
 8115      616C6962 
 8115      72617469 
 8115      6F6E5374 
 8116              	.LASF154:
 8117 088f 72696768 		.ascii	"right_backward_cps_min\000"
 8117      745F6261 
 8117      636B7761 
 8117      72645F63 
 8117      70735F6D 
 8118              	.LASF71:
 8119 08a6 696E6974 		.ascii	"init\000"
 8119      00
 8120              	.LASF144:
 8121 08ab 43616C5F 		.ascii	"Cal_Clear\000"
 8121      436C6561 
 8121      7200
 8122              	.LASF106:
 8123 08b5 44697370 		.ascii	"DisplayExit\000"
 8123      6C617945 
 8123      78697400 
 8124              	.LASF10:
 8125 08c1 73697A65 		.ascii	"sizetype\000"
 8125      74797065 
 8125      00
 8126              	.LASF6:
 8127 08ca 6C6F6E67 		.ascii	"long unsigned int\000"
 8127      20756E73 
ARM GAS  C:\Users\Tim\AppData\Local\Temp\ccELkyeR.s 			page 177


 8127      69676E65 
 8127      6420696E 
 8127      7400
 8128              	.LASF153:
 8129 08dc 6C656674 		.ascii	"left_backward_cps_min\000"
 8129      5F626163 
 8129      6B776172 
 8129      645F6370 
 8129      735F6D69 
 8130              	.LASF119:
 8131 08f2 6370735F 		.ascii	"cps_samples\000"
 8131      73616D70 
 8131      6C657300 
 8132              	.LASF13:
 8133 08fe 696E7433 		.ascii	"int32_t\000"
 8133      325F7400 
 8134              	.LASF197:
 8135 0906 66746F61 		.ascii	"ftoa\000"
 8135      00
 8136              	.LASF88:
 8137 090b 43414C5F 		.ascii	"CAL_LIN_PARAMS\000"
 8137      4C494E5F 
 8137      50415241 
 8137      4D5300
 8138              	.LASF2:
 8139 091a 756E7369 		.ascii	"unsigned char\000"
 8139      676E6564 
 8139      20636861 
 8139      7200
 8140              	.LASF182:
 8141 0928 43616C50 		.ascii	"CalPid_LeftValidation\000"
 8141      69645F4C 
 8141      65667456 
 8141      616C6964 
 8141      6174696F 
 8142              	.LASF201:
 8143 093e 4932635F 		.ascii	"I2c_SetCalibrationStatus\000"
 8143      53657443 
 8143      616C6962 
 8143      72617469 
 8143      6F6E5374 
 8144              	.LASF206:
 8145 0957 474E5520 		.ascii	"GNU C 4.9.3 20150303 (release) [ARM/embedded-4_9-br"
 8145      4320342E 
 8145      392E3320 
 8145      32303135 
 8145      30333033 
 8146 098a 616E6368 		.ascii	"anch revision 221220] -mcpu=cortex-m3 -mthumb -g -O"
 8146      20726576 
 8146      6973696F 
 8146      6E203232 
 8146      31323230 
 8147 09bd 67202D66 		.ascii	"g -ffunction-sections -ffat-lto-objects\000"
 8147      66756E63 
 8147      74696F6E 
 8147      2D736563 
 8147      74696F6E 
ARM GAS  C:\Users\Tim\AppData\Local\Temp\ccELkyeR.s 			page 178


 8148              	.LASF114:
 8149 09e5 75707065 		.ascii	"upper\000"
 8149      7200
 8150              	.LASF187:
 8151 09eb 64656275 		.ascii	"debug_control_enabled\000"
 8151      675F636F 
 8151      6E74726F 
 8151      6C5F656E 
 8151      61626C65 
 8152              	.LASF68:
 8153 0a01 73746174 		.ascii	"state\000"
 8153      6500
 8154              	.LASF118:
 8155 0a07 6C616265 		.ascii	"label\000"
 8155      6C00
 8156              	.LASF53:
 8157 0a0d 43414C5F 		.ascii	"CAL_START_STATE\000"
 8157      53544152 
 8157      545F5354 
 8157      41544500 
 8158              	.LASF189:
 8159 0a1d 5365725F 		.ascii	"Ser_ReadByte\000"
 8159      52656164 
 8159      42797465 
 8159      00
 8160              	.LASF77:
 8161 0a2a 5049445F 		.ascii	"PID_TYPE_LEFT\000"
 8161      54595045 
 8161      5F4C4546 
 8161      5400
 8162              	.LASF21:
 8163 0a38 57484545 		.ascii	"WHEEL_LEFT\000"
 8163      4C5F4C45 
 8163      465400
 8164              	.LASF1:
 8165 0a43 7369676E 		.ascii	"signed char\000"
 8165      65642063 
 8165      68617200 
 8166              	.LASF149:
 8167 0a4f 666F7277 		.ascii	"forward_profile\000"
 8167      6172645F 
 8167      70726F66 
 8167      696C6500 
 8168              	.LASF4:
 8169 0a5f 73686F72 		.ascii	"short unsigned int\000"
 8169      7420756E 
 8169      7369676E 
 8169      65642069 
 8169      6E7400
 8170              	.LASF204:
 8171 0a72 61746F66 		.ascii	"atof\000"
 8171      00
 8172              	.LASF76:
 8173 0a77 43414C49 		.ascii	"CALIBRATION_TYPE\000"
 8173      42524154 
 8173      494F4E5F 
 8173      54595045 
ARM GAS  C:\Users\Tim\AppData\Local\Temp\ccELkyeR.s 			page 179


 8173      00
 8174              	.LASF94:
 8175 0a88 55495F53 		.ascii	"UI_STATE_ENUM\000"
 8175      54415445 
 8175      5F454E55 
 8175      4D00
 8176              	.LASF33:
 8177 0a96 72657365 		.ascii	"reserved\000"
 8177      72766564 
 8177      00
 8178              	.LASF169:
 8179 0a9f 6C656674 		.ascii	"left_cmd_velocity\000"
 8179      5F636D64 
 8179      5F76656C 
 8179      6F636974 
 8179      7900
 8180              	.LASF14:
 8181 0ab1 75696E74 		.ascii	"uint8\000"
 8181      3800
 8182              	.LASF19:
 8183 0ab7 646F7562 		.ascii	"double\000"
 8183      6C6500
 8184              	.LASF109:
 8185 0abe 47657443 		.ascii	"GetCalibration\000"
 8185      616C6962 
 8185      72617469 
 8185      6F6E00
 8186              	.LASF155:
 8187 0acd 666F7277 		.ascii	"forward_cps_max\000"
 8187      6172645F 
 8187      6370735F 
 8187      6D617800 
 8188              	.LASF208:
 8189 0add 463A5C64 		.ascii	"F:\\d_drive\\projects\\ArloBot\\arlobot_freesoc\\fr"
 8189      5F647269 
 8189      76655C70 
 8189      726F6A65 
 8189      6374735C 
 8190 0b0b 6565736F 		.ascii	"eesoc.cydsn\000"
 8190      632E6379 
 8190      64736E00 
 8191              	.LASF135:
 8192 0b17 696E6465 		.ascii	"index\000"
 8192      7800
 8193              	.LASF99:
 8194 0b1d 44697370 		.ascii	"DisplaySettingsMenu\000"
 8194      6C617953 
 8194      65747469 
 8194      6E67734D 
 8194      656E7500 
 8195              	.LASF29:
 8196 0b31 6370735F 		.ascii	"cps_max\000"
 8196      6D617800 
 8197              	.LASF130:
 8198 0b39 43616C5F 		.ascii	"Cal_Init\000"
 8198      496E6974 
 8198      00
ARM GAS  C:\Users\Tim\AppData\Local\Temp\ccELkyeR.s 			page 180


 8199              	.LASF52:
 8200 0b42 43414C5F 		.ascii	"CAL_INIT_STATE\000"
 8200      494E4954 
 8200      5F535441 
 8200      544500
 8201              	.LASF202:
 8202 0b51 436F6E74 		.ascii	"Control_OverrideDebug\000"
 8202      726F6C5F 
 8202      4F766572 
 8202      72696465 
 8202      44656275 
 8203              	.LASF176:
 8204 0b67 43616C5F 		.ascii	"Cal_RightTarget\000"
 8204      52696768 
 8204      74546172 
 8204      67657400 
 8205              	.LASF67:
 8206 0b77 63616C69 		.ascii	"calibration_type_tag\000"
 8206      62726174 
 8206      696F6E5F 
 8206      74797065 
 8206      5F746167 
 8207              	.LASF117:
 8208 0b8c 43616C5F 		.ascii	"Cal_PrintSamples\000"
 8208      5072696E 
 8208      7453616D 
 8208      706C6573 
 8208      00
 8209              	.LASF124:
 8210 0b9d 6761696E 		.ascii	"gains\000"
 8210      7300
 8211              	.LASF166:
 8212 0ba3 75695F73 		.ascii	"ui_state\000"
 8212      74617465 
 8212      00
 8213              		.ident	"GCC: (GNU Tools for ARM Embedded Processors) 4.9.3 20150303 (release) [ARM/embedded-4_9-br
