ARM GAS  C:\Users\tslator\AppData\Local\Temp\ccHwdKxL.s 			page 1


   1              		.syntax unified
   2              		.cpu cortex-m3
   3              		.fpu softvfp
   4              		.eabi_attribute 20, 1
   5              		.eabi_attribute 21, 1
   6              		.eabi_attribute 23, 3
   7              		.eabi_attribute 24, 1
   8              		.eabi_attribute 25, 1
   9              		.eabi_attribute 26, 1
  10              		.eabi_attribute 30, 1
  11              		.eabi_attribute 34, 1
  12              		.eabi_attribute 18, 4
  13              		.thumb
  14              		.file	"cal.c"
  15              		.text
  16              	.Ltext0:
  17              		.cfi_sections	.debug_frame
  18              		.section	.text.LeftTarget,"ax",%progbits
  19              		.align	2
  20              		.thumb
  21              		.thumb_func
  22              		.type	LeftTarget, %function
  23              	LeftTarget:
  24              	.LFB63:
  25              		.file 1 "..\\source\\cal.c"
   1:..\source/cal.c **** /* ========================================
   2:..\source/cal.c ****  *
   3:..\source/cal.c ****  * Copyright YOUR COMPANY, THE YEAR
   4:..\source/cal.c ****  * All Rights Reserved
   5:..\source/cal.c ****  * UNPUBLISHED, LICENSED SOFTWARE.
   6:..\source/cal.c ****  *
   7:..\source/cal.c ****  * CONFIDENTIAL AND PROPRIETARY INFORMATION
   8:..\source/cal.c ****  * WHICH IS THE PROPERTY OF your company.
   9:..\source/cal.c ****  *
  10:..\source/cal.c ****  * ========================================
  11:..\source/cal.c **** */
  12:..\source/cal.c **** #include <stdio.h>
  13:..\source/cal.c **** #include <stdlib.h>
  14:..\source/cal.c **** #include "cal.h"
  15:..\source/cal.c **** #include "motor.h"
  16:..\source/cal.c **** #include "i2c.h"
  17:..\source/cal.c **** #include "pwm.h"
  18:..\source/cal.c **** #include "encoder.h"
  19:..\source/cal.c **** #include "utils.h"
  20:..\source/cal.c **** #include "serial.h"
  21:..\source/cal.c **** #include "pid.h"
  22:..\source/cal.c **** #include "nvstore.h"
  23:..\source/cal.c **** #include "calmotor.h"
  24:..\source/cal.c **** #include "calpid.h"
  25:..\source/cal.c **** #include "callin.h"
  26:..\source/cal.c **** #include "calang.h"
  27:..\source/cal.c **** #include "debug.h"
  28:..\source/cal.c **** #include "control.h"
  29:..\source/cal.c **** 
  30:..\source/cal.c **** /* Calibration interface commands */
  31:..\source/cal.c **** #define NO_CMD              '0'
  32:..\source/cal.c **** #define CAL_REQUEST         'c'
ARM GAS  C:\Users\tslator\AppData\Local\Temp\ccHwdKxL.s 			page 2


  33:..\source/cal.c **** #define VAL_REQUEST         'v'
  34:..\source/cal.c **** #define SETTING_REQUEST     's'
  35:..\source/cal.c **** #define EXIT_CMD            'x'
  36:..\source/cal.c **** 
  37:..\source/cal.c **** #define MOTOR_CAL_CMD       '1'
  38:..\source/cal.c **** #define PID_LEFT_CAL_CMD    '2'
  39:..\source/cal.c **** #define PID_RIGHT_CAL_CMD   '3'
  40:..\source/cal.c **** 
  41:..\source/cal.c **** #define MOTOR_VAL_CMD           '1'
  42:..\source/cal.c **** #define PID_VAL_CMD             '2'
  43:..\source/cal.c **** #define PID_LEFT_FWD_VAL_CMD    '3'
  44:..\source/cal.c **** #define PID_LEFT_BWD_VAL_CMD    '4'
  45:..\source/cal.c **** #define PID_RIGHT_FWD_VAL_CMD   '5'
  46:..\source/cal.c **** #define PID_RIGHT_BWD_VAL_CMD   '6'
  47:..\source/cal.c **** 
  48:..\source/cal.c **** #define MOTOR_LEFT_DISP_CMD  '1'
  49:..\source/cal.c **** #define MOTOR_RIGHT_DISP_CMD '2'
  50:..\source/cal.c **** #define PID_DISP_CMD         '3'
  51:..\source/cal.c **** #define ALL_DISP_CMD         '4'
  52:..\source/cal.c **** 
  53:..\source/cal.c **** char* cal_stage_to_string[] = {"CALIBRATION", "VALIDATE"};
  54:..\source/cal.c **** char* cal_state_to_string[] = {"INIT STATE", "START STATE", "RUNNING STATE", "STOP STATE", "RESULTS
  55:..\source/cal.c **** 
  56:..\source/cal.c **** 
  57:..\source/cal.c **** typedef enum {UI_STATE_INIT, UI_STATE_CALIBRATION, UI_STATE_VALIDATION, UI_STATE_SETTINGS, UI_STATE
  58:..\source/cal.c **** 
  59:..\source/cal.c **** 
  60:..\source/cal.c **** static UI_STATE_ENUM ui_state;
  61:..\source/cal.c **** 
  62:..\source/cal.c **** static CALIBRATION_TYPE *active_cal;
  63:..\source/cal.c **** static CALIBRATION_TYPE *active_val;
  64:..\source/cal.c **** 
  65:..\source/cal.c **** static float left_cmd_velocity;
  66:..\source/cal.c **** static float right_cmd_velocity;
  67:..\source/cal.c **** 
  68:..\source/cal.c **** static float LeftTarget()
  69:..\source/cal.c **** {
  26              		.loc 1 69 0
  27              		.cfi_startproc
  28              		@ args = 0, pretend = 0, frame = 0
  29              		@ frame_needed = 0, uses_anonymous_args = 0
  30              		@ link register save eliminated.
  70:..\source/cal.c ****     return left_cmd_velocity;
  71:..\source/cal.c **** }
  31              		.loc 1 71 0
  32 0000 014B     		ldr	r3, .L2
  33 0002 1868     		ldr	r0, [r3]	@ float
  34 0004 7047     		bx	lr
  35              	.L3:
  36 0006 00BF     		.align	2
  37              	.L2:
  38 0008 00000000 		.word	.LANCHOR0
  39              		.cfi_endproc
  40              	.LFE63:
  41              		.size	LeftTarget, .-LeftTarget
  42              		.section	.text.RightTarget,"ax",%progbits
  43              		.align	2
ARM GAS  C:\Users\tslator\AppData\Local\Temp\ccHwdKxL.s 			page 3


  44              		.thumb
  45              		.thumb_func
  46              		.type	RightTarget, %function
  47              	RightTarget:
  48              	.LFB64:
  72:..\source/cal.c **** 
  73:..\source/cal.c **** static float RightTarget()
  74:..\source/cal.c **** {
  49              		.loc 1 74 0
  50              		.cfi_startproc
  51              		@ args = 0, pretend = 0, frame = 0
  52              		@ frame_needed = 0, uses_anonymous_args = 0
  53              		@ link register save eliminated.
  75:..\source/cal.c ****     return right_cmd_velocity;
  76:..\source/cal.c **** }
  54              		.loc 1 76 0
  55 0000 014B     		ldr	r3, .L5
  56 0002 5868     		ldr	r0, [r3, #4]	@ float
  57 0004 7047     		bx	lr
  58              	.L6:
  59 0006 00BF     		.align	2
  60              	.L5:
  61 0008 00000000 		.word	.LANCHOR0
  62              		.cfi_endproc
  63              	.LFE64:
  64              		.size	RightTarget, .-RightTarget
  65              		.section	.text.DisplayCalMenu,"ax",%progbits
  66              		.align	2
  67              		.thumb
  68              		.thumb_func
  69              		.type	DisplayCalMenu, %function
  70              	DisplayCalMenu:
  71              	.LFB69:
  77:..\source/cal.c **** 
  78:..\source/cal.c **** void ClearCalibrationStatusBit(uint16 bit)
  79:..\source/cal.c **** {
  80:..\source/cal.c ****     uint16 status = p_cal_eeprom->status &= ~bit;
  81:..\source/cal.c ****     Nvstore_WriteUint16(status, NVSTORE_CAL_EEPROM_ADDR_TO_OFFSET(&p_cal_eeprom->status));
  82:..\source/cal.c ****     I2c_ClearCalibrationStatusBit(bit);
  83:..\source/cal.c **** }
  84:..\source/cal.c **** 
  85:..\source/cal.c **** void SetCalibrationStatusBit(uint16 bit)
  86:..\source/cal.c **** {
  87:..\source/cal.c ****     uint16 status = p_cal_eeprom->status | bit;
  88:..\source/cal.c ****     Nvstore_WriteUint16(status, NVSTORE_CAL_EEPROM_ADDR_TO_OFFSET(&p_cal_eeprom->status));
  89:..\source/cal.c ****     I2c_SetCalibrationStatusBit(bit);   
  90:..\source/cal.c **** }
  91:..\source/cal.c **** 
  92:..\source/cal.c **** 
  93:..\source/cal.c **** /* Calibration Print Routines */
  94:..\source/cal.c **** void Cal_PrintSamples(char *label, int32 *cps_samples, uint16 *pwm_samples)
  95:..\source/cal.c **** {
  96:..\source/cal.c ****     uint8 ii;
  97:..\source/cal.c ****     char  buffer[100];
  98:..\source/cal.c ****     char label_str[20];
  99:..\source/cal.c ****     
 100:..\source/cal.c ****     sprintf(label_str, "%s\r\n", label);
ARM GAS  C:\Users\tslator\AppData\Local\Temp\ccHwdKxL.s 			page 4


 101:..\source/cal.c ****     Ser_PutString(label_str);
 102:..\source/cal.c ****     
 103:..\source/cal.c ****     for (ii = 0; ii < CAL_NUM_SAMPLES - 1; ++ii)
 104:..\source/cal.c ****     {
 105:..\source/cal.c ****         sprintf(buffer, "%ld:%d ", cps_samples[ii], pwm_samples[ii]);
 106:..\source/cal.c ****         Ser_PutString(buffer);
 107:..\source/cal.c ****     }
 108:..\source/cal.c ****     sprintf(buffer, "%ld:%d\r\n\r\n", cps_samples[ii], pwm_samples[ii]);
 109:..\source/cal.c ****     Ser_PutString(buffer);
 110:..\source/cal.c **** }
 111:..\source/cal.c **** 
 112:..\source/cal.c **** void Cal_PrintGains(char *label, float *gains)
 113:..\source/cal.c **** {
 114:..\source/cal.c ****     char output[64];
 115:..\source/cal.c ****     char pgain_str[10];
 116:..\source/cal.c ****     char igain_str[10];
 117:..\source/cal.c ****     char dgain_str[10];
 118:..\source/cal.c ****     
 119:..\source/cal.c ****     ftoa(gains[0], pgain_str, 3);
 120:..\source/cal.c ****     ftoa(gains[1], igain_str, 3);
 121:..\source/cal.c ****     ftoa(gains[2], dgain_str, 3);
 122:..\source/cal.c ****     
 123:..\source/cal.c ****     sprintf(output, "%s - P: %s, I: %s, D: %s\r\n", label, pgain_str, igain_str, dgain_str);
 124:..\source/cal.c ****     Ser_PutString(output);
 125:..\source/cal.c **** }
 126:..\source/cal.c **** 
 127:..\source/cal.c **** static void DisplayCalMenu()
 128:..\source/cal.c **** {
  72              		.loc 1 128 0
  73              		.cfi_startproc
  74              		@ args = 0, pretend = 0, frame = 0
  75              		@ frame_needed = 0, uses_anonymous_args = 0
  76 0000 10B5     		push	{r4, lr}
  77              		.cfi_def_cfa_offset 8
  78              		.cfi_offset 4, -8
  79              		.cfi_offset 14, -4
 129:..\source/cal.c ****     Ser_PutString("\r\nWelcome to the Arlobot calibration interface.\r\n");
  80              		.loc 1 129 0
  81 0002 0E48     		ldr	r0, .L9
  82 0004 FFF7FEFF 		bl	Ser_PutString
  83              	.LVL0:
 130:..\source/cal.c ****     Ser_PutString("The following calibration operations are allowed:\r\n");
  84              		.loc 1 130 0
  85 0008 0D48     		ldr	r0, .L9+4
  86 000a FFF7FEFF 		bl	Ser_PutString
  87              	.LVL1:
 131:..\source/cal.c ****     Ser_PutString("    1. Motor Calibration - creates mapping between count/sec and PWM.\r\n");
  88              		.loc 1 131 0
  89 000e 0D48     		ldr	r0, .L9+8
  90 0010 FFF7FEFF 		bl	Ser_PutString
  91              	.LVL2:
 132:..\source/cal.c ****     Ser_PutString("    2. PID Left Calibration - enter gains, execute step input, print velocity re
  92              		.loc 1 132 0
  93 0014 0C48     		ldr	r0, .L9+12
  94 0016 FFF7FEFF 		bl	Ser_PutString
  95              	.LVL3:
 133:..\source/cal.c ****     Ser_PutString("    3. PID Right Calibration - enter gains, execute step input, print velocity r
ARM GAS  C:\Users\tslator\AppData\Local\Temp\ccHwdKxL.s 			page 5


  96              		.loc 1 133 0
  97 001a 0C48     		ldr	r0, .L9+16
  98 001c FFF7FEFF 		bl	Ser_PutString
  99              	.LVL4:
 134:..\source/cal.c ****     Ser_PutString("\r\n");
 100              		.loc 1 134 0
 101 0020 0B4C     		ldr	r4, .L9+20
 102 0022 2046     		mov	r0, r4
 103 0024 FFF7FEFF 		bl	Ser_PutString
 104              	.LVL5:
 135:..\source/cal.c ****     Ser_PutString("\r\nEnter X to exit calibration\r\n");
 105              		.loc 1 135 0
 106 0028 0A48     		ldr	r0, .L9+24
 107 002a FFF7FEFF 		bl	Ser_PutString
 108              	.LVL6:
 136:..\source/cal.c ****     Ser_PutString("\r\n");
 109              		.loc 1 136 0
 110 002e 2046     		mov	r0, r4
 111 0030 FFF7FEFF 		bl	Ser_PutString
 112              	.LVL7:
 137:..\source/cal.c ****     Ser_PutString("Make an entry [1-5,X]: ");
 113              		.loc 1 137 0
 114 0034 0848     		ldr	r0, .L9+28
 115 0036 FFF7FEFF 		bl	Ser_PutString
 116              	.LVL8:
 117 003a 10BD     		pop	{r4, pc}
 118              	.L10:
 119              		.align	2
 120              	.L9:
 121 003c 00000000 		.word	.LC0
 122 0040 34000000 		.word	.LC1
 123 0044 68000000 		.word	.LC2
 124 0048 B0000000 		.word	.LC3
 125 004c 0C010000 		.word	.LC4
 126 0050 68010000 		.word	.LC5
 127 0054 6C010000 		.word	.LC6
 128 0058 8C010000 		.word	.LC7
 129              		.cfi_endproc
 130              	.LFE69:
 131              		.size	DisplayCalMenu, .-DisplayCalMenu
 132              		.section	.text.DisplayValMenu,"ax",%progbits
 133              		.align	2
 134              		.thumb
 135              		.thumb_func
 136              		.type	DisplayValMenu, %function
 137              	DisplayValMenu:
 138              	.LFB70:
 138:..\source/cal.c **** }
 139:..\source/cal.c **** 
 140:..\source/cal.c **** static void DisplayValMenu()
 141:..\source/cal.c **** {
 139              		.loc 1 141 0
 140              		.cfi_startproc
 141              		@ args = 0, pretend = 0, frame = 0
 142              		@ frame_needed = 0, uses_anonymous_args = 0
 143 0000 10B5     		push	{r4, lr}
 144              		.cfi_def_cfa_offset 8
ARM GAS  C:\Users\tslator\AppData\Local\Temp\ccHwdKxL.s 			page 6


 145              		.cfi_offset 4, -8
 146              		.cfi_offset 14, -4
 142:..\source/cal.c ****     Ser_PutString("\r\nWelcome to the Arlobot validation interface.\r\n");
 147              		.loc 1 142 0
 148 0002 1348     		ldr	r0, .L13
 149 0004 FFF7FEFF 		bl	Ser_PutString
 150              	.LVL9:
 143:..\source/cal.c ****     Ser_PutString("The following validation operations are allowed:\r\n");
 151              		.loc 1 143 0
 152 0008 1248     		ldr	r0, .L13+4
 153 000a FFF7FEFF 		bl	Ser_PutString
 154              	.LVL10:
 144:..\source/cal.c ****     Ser_PutString("    1. Motor Validation - operates the motors at varying velocities.\r\n");
 155              		.loc 1 144 0
 156 000e 1248     		ldr	r0, .L13+8
 157 0010 FFF7FEFF 		bl	Ser_PutString
 158              	.LVL11:
 145:..\source/cal.c ****     Ser_PutString("    2. PID Validation - operates the motors at varying velocities, moves in a st
 159              		.loc 1 145 0
 160 0014 1148     		ldr	r0, .L13+12
 161 0016 FFF7FEFF 		bl	Ser_PutString
 162              	.LVL12:
 146:..\source/cal.c ****     Ser_PutString("    3. Left PID (forward) Validation - operates the left motor in the forward di
 163              		.loc 1 146 0
 164 001a 1148     		ldr	r0, .L13+16
 165 001c FFF7FEFF 		bl	Ser_PutString
 166              	.LVL13:
 147:..\source/cal.c ****     Ser_PutString("    4. Left PID (backward) Validation - operates the left motor in the backward 
 167              		.loc 1 147 0
 168 0020 1048     		ldr	r0, .L13+20
 169 0022 FFF7FEFF 		bl	Ser_PutString
 170              	.LVL14:
 148:..\source/cal.c ****     Ser_PutString("    5. Right PID (forward) Validation - operates the right motor in the forward 
 171              		.loc 1 148 0
 172 0026 1048     		ldr	r0, .L13+24
 173 0028 FFF7FEFF 		bl	Ser_PutString
 174              	.LVL15:
 149:..\source/cal.c ****     Ser_PutString("    6. Right PID (backward) Validation - operates the right motor in the backwar
 175              		.loc 1 149 0
 176 002c 0F48     		ldr	r0, .L13+28
 177 002e FFF7FEFF 		bl	Ser_PutString
 178              	.LVL16:
 150:..\source/cal.c ****     Ser_PutString("\r\n");
 179              		.loc 1 150 0
 180 0032 0F4C     		ldr	r4, .L13+32
 181 0034 2046     		mov	r0, r4
 182 0036 FFF7FEFF 		bl	Ser_PutString
 183              	.LVL17:
 151:..\source/cal.c ****     Ser_PutString("\r\nEnter X to exit validation\r\n");
 184              		.loc 1 151 0
 185 003a 0E48     		ldr	r0, .L13+36
 186 003c FFF7FEFF 		bl	Ser_PutString
 187              	.LVL18:
 152:..\source/cal.c ****     Ser_PutString("\r\n");
 188              		.loc 1 152 0
 189 0040 2046     		mov	r0, r4
 190 0042 FFF7FEFF 		bl	Ser_PutString
ARM GAS  C:\Users\tslator\AppData\Local\Temp\ccHwdKxL.s 			page 7


 191              	.LVL19:
 153:..\source/cal.c ****     Ser_PutString("Make an entry [1-6,X]: ");
 192              		.loc 1 153 0
 193 0046 0C48     		ldr	r0, .L13+40
 194 0048 FFF7FEFF 		bl	Ser_PutString
 195              	.LVL20:
 196 004c 10BD     		pop	{r4, pc}
 197              	.L14:
 198 004e 00BF     		.align	2
 199              	.L13:
 200 0050 A4010000 		.word	.LC8
 201 0054 D8010000 		.word	.LC9
 202 0058 0C020000 		.word	.LC10
 203 005c 54020000 		.word	.LC11
 204 0060 C8020000 		.word	.LC12
 205 0064 3C030000 		.word	.LC13
 206 0068 B0030000 		.word	.LC14
 207 006c 24040000 		.word	.LC15
 208 0070 68010000 		.word	.LC5
 209 0074 9C040000 		.word	.LC16
 210 0078 BC040000 		.word	.LC17
 211              		.cfi_endproc
 212              	.LFE70:
 213              		.size	DisplayValMenu, .-DisplayValMenu
 214              		.section	.text.DisplayMenu,"ax",%progbits
 215              		.align	2
 216              		.thumb
 217              		.thumb_func
 218              		.type	DisplayMenu, %function
 219              	DisplayMenu:
 220              	.LFB71:
 154:..\source/cal.c **** }
 155:..\source/cal.c **** 
 156:..\source/cal.c **** static void DisplayMenu(CAL_STAGE_TYPE stage)
 157:..\source/cal.c **** {
 221              		.loc 1 157 0
 222              		.cfi_startproc
 223              		@ args = 0, pretend = 0, frame = 0
 224              		@ frame_needed = 0, uses_anonymous_args = 0
 225              	.LVL21:
 226 0000 08B5     		push	{r3, lr}
 227              		.cfi_def_cfa_offset 8
 228              		.cfi_offset 3, -8
 229              		.cfi_offset 14, -4
 158:..\source/cal.c ****     debug_control_enabled = 0;
 230              		.loc 1 158 0
 231 0002 0022     		movs	r2, #0
 232 0004 054B     		ldr	r3, .L19
 233 0006 1A80     		strh	r2, [r3]	@ movhi
 159:..\source/cal.c ****     
 160:..\source/cal.c ****     if (stage == CAL_CALIBRATE_STAGE)
 234              		.loc 1 160 0
 235 0008 10B9     		cbnz	r0, .L16
 161:..\source/cal.c ****     {
 162:..\source/cal.c ****         DisplayCalMenu();
 236              		.loc 1 162 0
 237 000a FFF7FEFF 		bl	DisplayCalMenu
ARM GAS  C:\Users\tslator\AppData\Local\Temp\ccHwdKxL.s 			page 8


 238              	.LVL22:
 239 000e 08BD     		pop	{r3, pc}
 240              	.LVL23:
 241              	.L16:
 163:..\source/cal.c ****     }
 164:..\source/cal.c ****     else if (stage == CAL_VALIDATE_STAGE)
 242              		.loc 1 164 0
 243 0010 0128     		cmp	r0, #1
 244 0012 01D1     		bne	.L15
 165:..\source/cal.c ****     {
 166:..\source/cal.c ****         DisplayValMenu();
 245              		.loc 1 166 0
 246 0014 FFF7FEFF 		bl	DisplayValMenu
 247              	.LVL24:
 248              	.L15:
 249 0018 08BD     		pop	{r3, pc}
 250              	.L20:
 251 001a 00BF     		.align	2
 252              	.L19:
 253 001c 00000000 		.word	debug_control_enabled
 254              		.cfi_endproc
 255              	.LFE71:
 256              		.size	DisplayMenu, .-DisplayMenu
 257              		.section	.text.DisplaySettingsMenu,"ax",%progbits
 258              		.align	2
 259              		.thumb
 260              		.thumb_func
 261              		.type	DisplaySettingsMenu, %function
 262              	DisplaySettingsMenu:
 263              	.LFB72:
 167:..\source/cal.c ****     }
 168:..\source/cal.c **** 
 169:..\source/cal.c **** }
 170:..\source/cal.c **** 
 171:..\source/cal.c **** static void DisplaySettingsMenu()
 172:..\source/cal.c **** {
 264              		.loc 1 172 0
 265              		.cfi_startproc
 266              		@ args = 0, pretend = 0, frame = 0
 267              		@ frame_needed = 0, uses_anonymous_args = 0
 268 0000 10B5     		push	{r4, lr}
 269              		.cfi_def_cfa_offset 8
 270              		.cfi_offset 4, -8
 271              		.cfi_offset 14, -4
 173:..\source/cal.c ****     Ser_PutString("\r\nWelcome to the Arlobot settings display\r\n");
 272              		.loc 1 173 0
 273 0002 1048     		ldr	r0, .L23
 274 0004 FFF7FEFF 		bl	Ser_PutString
 275              	.LVL25:
 174:..\source/cal.c ****     Ser_PutString("The following settings can be displayed\r\n");
 276              		.loc 1 174 0
 277 0008 0F48     		ldr	r0, .L23+4
 278 000a FFF7FEFF 		bl	Ser_PutString
 279              	.LVL26:
 175:..\source/cal.c ****     Ser_PutString("    1. Left Motor Calibration\r\n");
 280              		.loc 1 175 0
 281 000e 0F48     		ldr	r0, .L23+8
ARM GAS  C:\Users\tslator\AppData\Local\Temp\ccHwdKxL.s 			page 9


 282 0010 FFF7FEFF 		bl	Ser_PutString
 283              	.LVL27:
 176:..\source/cal.c ****     Ser_PutString("    2. Right Motor Calibration\r\n");
 284              		.loc 1 176 0
 285 0014 0E48     		ldr	r0, .L23+12
 286 0016 FFF7FEFF 		bl	Ser_PutString
 287              	.LVL28:
 177:..\source/cal.c ****     Ser_PutString("    3. PID Gains: left pid and right pid\r\n");
 288              		.loc 1 177 0
 289 001a 0E48     		ldr	r0, .L23+16
 290 001c FFF7FEFF 		bl	Ser_PutString
 291              	.LVL29:
 178:..\source/cal.c ****     Ser_PutString("    4. Display All\r\n");
 292              		.loc 1 178 0
 293 0020 0D48     		ldr	r0, .L23+20
 294 0022 FFF7FEFF 		bl	Ser_PutString
 295              	.LVL30:
 179:..\source/cal.c ****     Ser_PutString("\r\n");
 296              		.loc 1 179 0
 297 0026 0D4C     		ldr	r4, .L23+24
 298 0028 2046     		mov	r0, r4
 299 002a FFF7FEFF 		bl	Ser_PutString
 300              	.LVL31:
 180:..\source/cal.c ****     Ser_PutString("\r\nEnter X to exit validation\r\n");
 301              		.loc 1 180 0
 302 002e 0C48     		ldr	r0, .L23+28
 303 0030 FFF7FEFF 		bl	Ser_PutString
 304              	.LVL32:
 181:..\source/cal.c ****     Ser_PutString("\r\n");
 305              		.loc 1 181 0
 306 0034 2046     		mov	r0, r4
 307 0036 FFF7FEFF 		bl	Ser_PutString
 308              	.LVL33:
 182:..\source/cal.c ****     Ser_PutString("Make an entry [1-5,X]: ");
 309              		.loc 1 182 0
 310 003a 0A48     		ldr	r0, .L23+32
 311 003c FFF7FEFF 		bl	Ser_PutString
 312              	.LVL34:
 313 0040 10BD     		pop	{r4, pc}
 314              	.L24:
 315 0042 00BF     		.align	2
 316              	.L23:
 317 0044 D4040000 		.word	.LC18
 318 0048 00050000 		.word	.LC19
 319 004c 2C050000 		.word	.LC20
 320 0050 4C050000 		.word	.LC21
 321 0054 70050000 		.word	.LC22
 322 0058 9C050000 		.word	.LC23
 323 005c 68010000 		.word	.LC5
 324 0060 9C040000 		.word	.LC16
 325 0064 8C010000 		.word	.LC7
 326              		.cfi_endproc
 327              	.LFE72:
 328              		.size	DisplaySettingsMenu, .-DisplaySettingsMenu
 329              		.section	.text.HandleError,"ax",%progbits
 330              		.align	2
 331              		.thumb
ARM GAS  C:\Users\tslator\AppData\Local\Temp\ccHwdKxL.s 			page 10


 332              		.thumb_func
 333              		.type	HandleError, %function
 334              	HandleError:
 335              	.LFB78:
 183:..\source/cal.c **** }
 184:..\source/cal.c **** 
 185:..\source/cal.c **** static void DisplayExit()
 186:..\source/cal.c **** {
 187:..\source/cal.c ****     Ser_PutString("\r\nExiting Arlobot calibration/validation interface.");
 188:..\source/cal.c ****     Ser_PutString("\r\nType 'C' to enter calibration, 'V' to enter validation, 'D' to display setti
 189:..\source/cal.c **** }
 190:..\source/cal.c **** 
 191:..\source/cal.c **** static void ProcessSettings(uint8 cmd)
 192:..\source/cal.c **** {
 193:..\source/cal.c ****     switch (cmd)
 194:..\source/cal.c ****     {
 195:..\source/cal.c ****         case MOTOR_LEFT_DISP_CMD:
 196:..\source/cal.c ****             Ser_WriteByte(cmd);
 197:..\source/cal.c ****             Ser_PutString("\r\nDisplaying left motor calibration: count/sec, pwm mapping");
 198:..\source/cal.c ****             Ser_PutString("\r\n");
 199:..\source/cal.c ****             Cal_PrintSamples("Left-Forward", (int32 *) p_cal_eeprom->left_motor_fwd.cps_data, (uint
 200:..\source/cal.c ****             Cal_PrintSamples("Left-Backward", (int32 *) p_cal_eeprom->left_motor_bwd.cps_data, (uin
 201:..\source/cal.c ****             Ser_PutString("\r\n");
 202:..\source/cal.c ****             
 203:..\source/cal.c ****             DisplaySettingsMenu();
 204:..\source/cal.c ****             break;
 205:..\source/cal.c ****             
 206:..\source/cal.c ****         case MOTOR_RIGHT_DISP_CMD:
 207:..\source/cal.c ****             Ser_WriteByte(cmd);
 208:..\source/cal.c ****             Ser_PutString("\r\nDisplaying right motor calibration: count/sec, pwm mapping");
 209:..\source/cal.c ****             Ser_PutString("\r\n");
 210:..\source/cal.c ****             Cal_PrintSamples("Right-Forward", (int32 *) p_cal_eeprom->right_motor_fwd.cps_data, (ui
 211:..\source/cal.c ****             Cal_PrintSamples("Right-Backward", (int32 *) p_cal_eeprom->right_motor_bwd.cps_data, (u
 212:..\source/cal.c ****             Ser_PutString("\r\n");
 213:..\source/cal.c ****             
 214:..\source/cal.c ****             DisplaySettingsMenu();
 215:..\source/cal.c ****             break;
 216:..\source/cal.c ****             
 217:..\source/cal.c ****         case PID_DISP_CMD:
 218:..\source/cal.c ****             Ser_WriteByte(cmd);
 219:..\source/cal.c ****             Ser_PutString("\r\nDisplaying all PID gains: left, right");
 220:..\source/cal.c ****             Ser_PutString("\r\n");
 221:..\source/cal.c ****             Cal_PrintGains("Left PID", (float *) &p_cal_eeprom->left_gains);
 222:..\source/cal.c ****             Cal_PrintGains("Right PID", (float *) &p_cal_eeprom->right_gains);
 223:..\source/cal.c **** 
 224:..\source/cal.c ****             DisplaySettingsMenu();
 225:..\source/cal.c ****             break;
 226:..\source/cal.c ****             
 227:..\source/cal.c ****         case ALL_DISP_CMD:
 228:..\source/cal.c ****             Ser_WriteByte(cmd);
 229:..\source/cal.c ****             Ser_PutString("\r\nDisplaying all calibration/settings");
 230:..\source/cal.c ****             Ser_PutString("\r\n");
 231:..\source/cal.c **** 
 232:..\source/cal.c ****             DisplaySettingsMenu();
 233:..\source/cal.c ****             break;        
 234:..\source/cal.c ****     }
 235:..\source/cal.c **** }
ARM GAS  C:\Users\tslator\AppData\Local\Temp\ccHwdKxL.s 			page 11


 236:..\source/cal.c **** 
 237:..\source/cal.c **** static uint8 GetCommand()
 238:..\source/cal.c **** {
 239:..\source/cal.c ****     char value = Ser_ReadByte();
 240:..\source/cal.c ****         
 241:..\source/cal.c ****     switch (value)
 242:..\source/cal.c ****     {
 243:..\source/cal.c ****         case 'c':
 244:..\source/cal.c ****         case 'C':
 245:..\source/cal.c ****             value = CAL_REQUEST;
 246:..\source/cal.c ****             break;
 247:..\source/cal.c ****             
 248:..\source/cal.c ****         case 'v':
 249:..\source/cal.c ****         case 'V':
 250:..\source/cal.c ****             value = VAL_REQUEST;
 251:..\source/cal.c ****             break;
 252:..\source/cal.c ****             
 253:..\source/cal.c ****         case 'd':
 254:..\source/cal.c ****         case 'D':
 255:..\source/cal.c ****             value = SETTING_REQUEST;
 256:..\source/cal.c ****             break;
 257:..\source/cal.c **** 
 258:..\source/cal.c ****         case 'x':
 259:..\source/cal.c ****         case 'X':            
 260:..\source/cal.c ****             value = EXIT_CMD;
 261:..\source/cal.c ****             break;
 262:..\source/cal.c ****     }
 263:..\source/cal.c ****     
 264:..\source/cal.c ****     return value;
 265:..\source/cal.c **** }
 266:..\source/cal.c **** 
 267:..\source/cal.c **** static CALIBRATION_TYPE* GetCalibration(uint8 cmd)
 268:..\source/cal.c **** {
 269:..\source/cal.c ****     CAL_PID_PARAMS *p_pid_params;
 270:..\source/cal.c ****     
 271:..\source/cal.c ****     switch (cmd)
 272:..\source/cal.c ****     {
 273:..\source/cal.c ****         case MOTOR_CAL_CMD:
 274:..\source/cal.c ****             Ser_WriteByte(cmd);
 275:..\source/cal.c ****             CalMotor_Calibration->state = CAL_INIT_STATE;
 276:..\source/cal.c ****             return CalMotor_Calibration;
 277:..\source/cal.c ****             
 278:..\source/cal.c ****         case PID_LEFT_CAL_CMD:
 279:..\source/cal.c ****             Ser_WriteByte(cmd);
 280:..\source/cal.c ****             CalPid_LeftCalibration->state = CAL_INIT_STATE;
 281:..\source/cal.c ****             return CalPid_LeftCalibration;
 282:..\source/cal.c ****             break;
 283:..\source/cal.c **** 
 284:..\source/cal.c ****         case PID_RIGHT_CAL_CMD:
 285:..\source/cal.c ****             Ser_WriteByte(cmd);
 286:..\source/cal.c ****             CalPid_RightCalibration->state = CAL_INIT_STATE;
 287:..\source/cal.c ****             return CalPid_RightCalibration;
 288:..\source/cal.c ****             break;
 289:..\source/cal.c **** 
 290:..\source/cal.c ****         default:
 291:..\source/cal.c ****             break;
 292:..\source/cal.c ****     }
ARM GAS  C:\Users\tslator\AppData\Local\Temp\ccHwdKxL.s 			page 12


 293:..\source/cal.c ****     
 294:..\source/cal.c ****     return (CALIBRATION_TYPE *) 0;
 295:..\source/cal.c **** }
 296:..\source/cal.c **** 
 297:..\source/cal.c **** static CALIBRATION_TYPE* GetValidation(uint8 cmd)
 298:..\source/cal.c **** {
 299:..\source/cal.c ****     switch (cmd)
 300:..\source/cal.c ****     {
 301:..\source/cal.c ****         case MOTOR_VAL_CMD:
 302:..\source/cal.c ****             Ser_WriteByte(cmd);
 303:..\source/cal.c ****             Ser_PutString("\r\nPerforming Motor Validation by operating the motors at varying veloc
 304:..\source/cal.c ****             CalMotor_Validation->stage = CAL_VALIDATE_STAGE;
 305:..\source/cal.c ****             CalMotor_Validation->state = CAL_INIT_STATE;
 306:..\source/cal.c ****             return (CALIBRATION_TYPE *) CalMotor_Validation;
 307:..\source/cal.c ****             break;
 308:..\source/cal.c ****             
 309:..\source/cal.c ****         case PID_VAL_CMD:
 310:..\source/cal.c ****             Ser_WriteByte(cmd);
 311:..\source/cal.c ****             Ser_PutString("\r\nPerforming Left/Right PID Validation by operating the motors at vary
 312:..\source/cal.c ****             CalPid_LeftValidation->stage = CAL_VALIDATE_STAGE;
 313:..\source/cal.c ****             CalPid_LeftValidation->state = CAL_INIT_STATE;
 314:..\source/cal.c ****             return (CALIBRATION_TYPE *) CalPid_LeftValidation;
 315:..\source/cal.c ****             break;
 316:..\source/cal.c ****                     
 317:..\source/cal.c ****         case PID_LEFT_FWD_VAL_CMD:
 318:..\source/cal.c ****             Ser_WriteByte(cmd);
 319:..\source/cal.c ****             Ser_PutString("\r\nPerforing Left PID validation in the forward direction.\r\n");
 320:..\source/cal.c ****             CalPid_LeftValidation->stage = CAL_VALIDATE_STAGE;
 321:..\source/cal.c ****             CalPid_LeftValidation->state = CAL_INIT_STATE;
 322:..\source/cal.c ****             return (CALIBRATION_TYPE *) CalPid_LeftValidation;
 323:..\source/cal.c ****             break;
 324:..\source/cal.c **** 
 325:..\source/cal.c ****         case PID_LEFT_BWD_VAL_CMD:
 326:..\source/cal.c ****             break;
 327:..\source/cal.c **** 
 328:..\source/cal.c ****         case PID_RIGHT_FWD_VAL_CMD:
 329:..\source/cal.c ****             break;
 330:..\source/cal.c **** 
 331:..\source/cal.c ****         case PID_RIGHT_BWD_VAL_CMD:
 332:..\source/cal.c ****             break;
 333:..\source/cal.c ****                                 
 334:..\source/cal.c ****         default:            
 335:..\source/cal.c ****             break;
 336:..\source/cal.c **** 
 337:..\source/cal.c ****     }
 338:..\source/cal.c ****     
 339:..\source/cal.c ****     return (CALIBRATION_TYPE *) 0;
 340:..\source/cal.c **** }
 341:..\source/cal.c **** 
 342:..\source/cal.c **** static void HandleError(CALIBRATION_TYPE *cal)
 343:..\source/cal.c **** {
 336              		.loc 1 343 0
 337              		.cfi_startproc
 338              		@ args = 0, pretend = 0, frame = 64
 339              		@ frame_needed = 0, uses_anonymous_args = 0
 340              	.LVL35:
 341 0000 10B5     		push	{r4, lr}
ARM GAS  C:\Users\tslator\AppData\Local\Temp\ccHwdKxL.s 			page 13


 342              		.cfi_def_cfa_offset 8
 343              		.cfi_offset 4, -8
 344              		.cfi_offset 14, -4
 345 0002 90B0     		sub	sp, sp, #64
 346              		.cfi_def_cfa_offset 72
 344:..\source/cal.c ****     char outbuf[64];
 345:..\source/cal.c ****     
 346:..\source/cal.c ****     /* Maybe more can go here, but for now, just print an error */
 347:..\source/cal.c ****     
 348:..\source/cal.c ****     sprintf(outbuf, "Error processing stage %s, state %s\r\n", CAL_STAGE_TO_STRING(cal->stage), CAL
 347              		.loc 1 348 0
 348 0004 4478     		ldrb	r4, [r0, #1]	@ zero_extendqisi2
 349 0006 0378     		ldrb	r3, [r0]	@ zero_extendqisi2
 350 0008 074A     		ldr	r2, .L27
 351 000a 02EB8303 		add	r3, r2, r3, lsl #2
 352 000e 6846     		mov	r0, sp
 353              	.LVL36:
 354 0010 0649     		ldr	r1, .L27+4
 355 0012 52F82420 		ldr	r2, [r2, r4, lsl #2]
 356 0016 9B68     		ldr	r3, [r3, #8]
 357 0018 FFF7FEFF 		bl	sprintf
 358              	.LVL37:
 349:..\source/cal.c ****     Ser_PutString(outbuf);
 359              		.loc 1 349 0
 360 001c 6846     		mov	r0, sp
 361 001e FFF7FEFF 		bl	Ser_PutString
 362              	.LVL38:
 350:..\source/cal.c **** }
 363              		.loc 1 350 0
 364 0022 10B0     		add	sp, sp, #64
 365              		.cfi_def_cfa_offset 8
 366              		@ sp needed
 367 0024 10BD     		pop	{r4, pc}
 368              	.L28:
 369 0026 00BF     		.align	2
 370              	.L27:
 371 0028 00000000 		.word	.LANCHOR1
 372 002c B4050000 		.word	.LC24
 373              		.cfi_endproc
 374              	.LFE78:
 375              		.size	HandleError, .-HandleError
 376              		.section	.text.ProcessCalibration,"ax",%progbits
 377              		.align	2
 378              		.thumb
 379              		.thumb_func
 380              		.type	ProcessCalibration, %function
 381              	ProcessCalibration:
 382              	.LFB79:
 351:..\source/cal.c **** 
 352:..\source/cal.c **** static void ProcessCalibration(CALIBRATION_TYPE *cal)
 353:..\source/cal.c **** {
 383              		.loc 1 353 0
 384              		.cfi_startproc
 385              		@ args = 0, pretend = 0, frame = 0
 386              		@ frame_needed = 0, uses_anonymous_args = 0
 387              	.LVL39:
 388 0000 10B5     		push	{r4, lr}
ARM GAS  C:\Users\tslator\AppData\Local\Temp\ccHwdKxL.s 			page 14


 389              		.cfi_def_cfa_offset 8
 390              		.cfi_offset 4, -8
 391              		.cfi_offset 14, -4
 392 0002 0446     		mov	r4, r0
 354:..\source/cal.c ****     uint8 result;
 355:..\source/cal.c ****     
 356:..\source/cal.c ****     switch (cal->state)
 393              		.loc 1 356 0
 394 0004 0378     		ldrb	r3, [r0]	@ zero_extendqisi2
 395 0006 042B     		cmp	r3, #4
 396 0008 42D8     		bhi	.L30
 397 000a DFE803F0 		tbb	[pc, r3]
 398              	.L32:
 399 000e 03       		.byte	(.L31-.L32)/2
 400 000f 0F       		.byte	(.L33-.L32)/2
 401 0010 1B       		.byte	(.L34-.L32)/2
 402 0011 29       		.byte	(.L35-.L32)/2
 403 0012 35       		.byte	(.L36-.L32)/2
 404 0013 00       		.p2align 1
 405              	.L31:
 357:..\source/cal.c ****     {
 358:..\source/cal.c ****         case CAL_INIT_STATE:
 359:..\source/cal.c ****             result = cal->init(cal->stage, cal->params);
 406              		.loc 1 359 0
 407 0014 8368     		ldr	r3, [r0, #8]
 408 0016 4078     		ldrb	r0, [r0, #1]	@ zero_extendqisi2
 409              	.LVL40:
 410 0018 6168     		ldr	r1, [r4, #4]
 411 001a 9847     		blx	r3
 412              	.LVL41:
 360:..\source/cal.c ****             if (result == CAL_OK)
 413              		.loc 1 360 0
 414 001c 10B9     		cbnz	r0, .L37
 361:..\source/cal.c ****             {
 362:..\source/cal.c ****                 cal->state = CAL_START_STATE;
 415              		.loc 1 362 0
 416 001e 0123     		movs	r3, #1
 417 0020 2370     		strb	r3, [r4]
 418 0022 10BD     		pop	{r4, pc}
 419              	.LVL42:
 420              	.L37:
 363:..\source/cal.c ****             }
 364:..\source/cal.c ****             else
 365:..\source/cal.c ****             {
 366:..\source/cal.c ****                 HandleError(cal);
 421              		.loc 1 366 0
 422 0024 2046     		mov	r0, r4
 423              	.LVL43:
 424 0026 FFF7FEFF 		bl	HandleError
 425              	.LVL44:
 426 002a 10BD     		pop	{r4, pc}
 427              	.LVL45:
 428              	.L33:
 367:..\source/cal.c ****             }
 368:..\source/cal.c ****             break;
 369:..\source/cal.c ****             
 370:..\source/cal.c ****         case CAL_START_STATE:
ARM GAS  C:\Users\tslator\AppData\Local\Temp\ccHwdKxL.s 			page 15


 371:..\source/cal.c ****             result = cal->start(cal->stage, cal->params);
 429              		.loc 1 371 0
 430 002c C368     		ldr	r3, [r0, #12]
 431 002e 4078     		ldrb	r0, [r0, #1]	@ zero_extendqisi2
 432              	.LVL46:
 433 0030 6168     		ldr	r1, [r4, #4]
 434 0032 9847     		blx	r3
 435              	.LVL47:
 372:..\source/cal.c ****             if (result == CAL_OK)
 436              		.loc 1 372 0
 437 0034 10B9     		cbnz	r0, .L39
 373:..\source/cal.c ****             {
 374:..\source/cal.c ****                 cal->state = CAL_RUNNING_STATE;
 438              		.loc 1 374 0
 439 0036 0223     		movs	r3, #2
 440 0038 2370     		strb	r3, [r4]
 441 003a 10BD     		pop	{r4, pc}
 442              	.LVL48:
 443              	.L39:
 375:..\source/cal.c ****             }
 376:..\source/cal.c ****             else
 377:..\source/cal.c ****             {
 378:..\source/cal.c ****                 HandleError(cal);
 444              		.loc 1 378 0
 445 003c 2046     		mov	r0, r4
 446              	.LVL49:
 447 003e FFF7FEFF 		bl	HandleError
 448              	.LVL50:
 449 0042 10BD     		pop	{r4, pc}
 450              	.LVL51:
 451              	.L34:
 379:..\source/cal.c ****             }
 380:..\source/cal.c ****             break;
 381:..\source/cal.c ****             
 382:..\source/cal.c ****         case CAL_RUNNING_STATE:
 383:..\source/cal.c ****             result = cal->update(cal->stage, cal->params);
 452              		.loc 1 383 0
 453 0044 0369     		ldr	r3, [r0, #16]
 454 0046 4078     		ldrb	r0, [r0, #1]	@ zero_extendqisi2
 455              	.LVL52:
 456 0048 6168     		ldr	r1, [r4, #4]
 457 004a 9847     		blx	r3
 458              	.LVL53:
 384:..\source/cal.c ****             if (result == CAL_COMPLETE)
 459              		.loc 1 384 0
 460 004c 0128     		cmp	r0, #1
 461 004e 02D1     		bne	.L40
 385:..\source/cal.c ****             {
 386:..\source/cal.c ****                 cal->state = CAL_STOP_STATE;
 462              		.loc 1 386 0
 463 0050 0323     		movs	r3, #3
 464 0052 2370     		strb	r3, [r4]
 465 0054 10BD     		pop	{r4, pc}
 466              	.LVL54:
 467              	.L40:
 387:..\source/cal.c ****             }
 388:..\source/cal.c ****             else if (result == CAL_OK)
ARM GAS  C:\Users\tslator\AppData\Local\Temp\ccHwdKxL.s 			page 16


 468              		.loc 1 388 0
 469 0056 20B3     		cbz	r0, .L29
 389:..\source/cal.c ****             {
 390:..\source/cal.c ****                 /* Figure out how to output a progress indication ... that will work for all calibr
 391:..\source/cal.c ****             }
 392:..\source/cal.c ****             else
 393:..\source/cal.c ****             {
 394:..\source/cal.c ****                 HandleError(cal);
 470              		.loc 1 394 0
 471 0058 2046     		mov	r0, r4
 472              	.LVL55:
 473 005a FFF7FEFF 		bl	HandleError
 474              	.LVL56:
 475 005e 10BD     		pop	{r4, pc}
 476              	.LVL57:
 477              	.L35:
 395:..\source/cal.c ****             }
 396:..\source/cal.c ****             break;
 397:..\source/cal.c ****             
 398:..\source/cal.c ****         case CAL_STOP_STATE:
 399:..\source/cal.c ****             result = cal->stop(cal->stage, cal->params);
 478              		.loc 1 399 0
 479 0060 4369     		ldr	r3, [r0, #20]
 480 0062 4078     		ldrb	r0, [r0, #1]	@ zero_extendqisi2
 481              	.LVL58:
 482 0064 6168     		ldr	r1, [r4, #4]
 483 0066 9847     		blx	r3
 484              	.LVL59:
 400:..\source/cal.c ****             if (result == CAL_OK)
 485              		.loc 1 400 0
 486 0068 10B9     		cbnz	r0, .L41
 401:..\source/cal.c ****             {
 402:..\source/cal.c ****                 cal->state = CAL_RESULTS_STATE;
 487              		.loc 1 402 0
 488 006a 0423     		movs	r3, #4
 489 006c 2370     		strb	r3, [r4]
 490 006e 10BD     		pop	{r4, pc}
 491              	.LVL60:
 492              	.L41:
 403:..\source/cal.c ****             }
 404:..\source/cal.c ****             else
 405:..\source/cal.c ****             {
 406:..\source/cal.c ****                 HandleError(cal);
 493              		.loc 1 406 0
 494 0070 2046     		mov	r0, r4
 495              	.LVL61:
 496 0072 FFF7FEFF 		bl	HandleError
 497              	.LVL62:
 498 0076 10BD     		pop	{r4, pc}
 499              	.LVL63:
 500              	.L36:
 407:..\source/cal.c ****             }
 408:..\source/cal.c ****             break;
 409:..\source/cal.c ****             
 410:..\source/cal.c ****         case CAL_RESULTS_STATE:
 411:..\source/cal.c ****             result = cal->results(cal->stage, cal->params);
 501              		.loc 1 411 0
ARM GAS  C:\Users\tslator\AppData\Local\Temp\ccHwdKxL.s 			page 17


 502 0078 8369     		ldr	r3, [r0, #24]
 503 007a 4078     		ldrb	r0, [r0, #1]	@ zero_extendqisi2
 504              	.LVL64:
 505 007c 6168     		ldr	r1, [r4, #4]
 506 007e 9847     		blx	r3
 507              	.LVL65:
 412:..\source/cal.c ****             if (result == CAL_OK)
 508              		.loc 1 412 0
 509 0080 10B9     		cbnz	r0, .L42
 413:..\source/cal.c ****             {
 414:..\source/cal.c ****                 cal->state = CAL_DONE_STATE;                
 510              		.loc 1 414 0
 511 0082 0523     		movs	r3, #5
 512 0084 2370     		strb	r3, [r4]
 513 0086 10BD     		pop	{r4, pc}
 514              	.LVL66:
 515              	.L42:
 415:..\source/cal.c ****             }
 416:..\source/cal.c ****             else
 417:..\source/cal.c ****             {
 418:..\source/cal.c ****                 HandleError(cal);
 516              		.loc 1 418 0
 517 0088 2046     		mov	r0, r4
 518              	.LVL67:
 519 008a FFF7FEFF 		bl	HandleError
 520              	.LVL68:
 521 008e 10BD     		pop	{r4, pc}
 522              	.LVL69:
 523              	.L30:
 419:..\source/cal.c ****             }
 420:..\source/cal.c ****             break;
 421:..\source/cal.c ****             
 422:..\source/cal.c ****         case CAL_DONE_STATE:
 423:..\source/cal.c ****         default:
 424:..\source/cal.c ****             if (active_cal)
 524              		.loc 1 424 0
 525 0090 044B     		ldr	r3, .L44
 526 0092 9B68     		ldr	r3, [r3, #8]
 527 0094 2BB1     		cbz	r3, .L29
 425:..\source/cal.c ****             {
 426:..\source/cal.c ****                 active_cal = (CALIBRATION_TYPE *) 0;
 528              		.loc 1 426 0
 529 0096 0022     		movs	r2, #0
 530 0098 024B     		ldr	r3, .L44
 531 009a 9A60     		str	r2, [r3, #8]
 427:..\source/cal.c ****                 DisplayMenu(cal->stage);
 532              		.loc 1 427 0
 533 009c 4078     		ldrb	r0, [r0, #1]	@ zero_extendqisi2
 534              	.LVL70:
 535 009e FFF7FEFF 		bl	DisplayMenu
 536              	.LVL71:
 537              	.L29:
 538 00a2 10BD     		pop	{r4, pc}
 539              	.LVL72:
 540              	.L45:
 541              		.align	2
 542              	.L44:
ARM GAS  C:\Users\tslator\AppData\Local\Temp\ccHwdKxL.s 			page 18


 543 00a4 00000000 		.word	.LANCHOR0
 544              		.cfi_endproc
 545              	.LFE79:
 546              		.size	ProcessCalibration, .-ProcessCalibration
 547              		.section	.text.DisplayExit,"ax",%progbits
 548              		.align	2
 549              		.thumb
 550              		.thumb_func
 551              		.type	DisplayExit, %function
 552              	DisplayExit:
 553              	.LFB73:
 186:..\source/cal.c ****     Ser_PutString("\r\nExiting Arlobot calibration/validation interface.");
 554              		.loc 1 186 0
 555              		.cfi_startproc
 556              		@ args = 0, pretend = 0, frame = 0
 557              		@ frame_needed = 0, uses_anonymous_args = 0
 558 0000 08B5     		push	{r3, lr}
 559              		.cfi_def_cfa_offset 8
 560              		.cfi_offset 3, -8
 561              		.cfi_offset 14, -4
 187:..\source/cal.c ****     Ser_PutString("\r\nType 'C' to enter calibration, 'V' to enter validation, 'D' to display setti
 562              		.loc 1 187 0
 563 0002 0348     		ldr	r0, .L48
 564 0004 FFF7FEFF 		bl	Ser_PutString
 565              	.LVL73:
 188:..\source/cal.c **** }
 566              		.loc 1 188 0
 567 0008 0248     		ldr	r0, .L48+4
 568 000a FFF7FEFF 		bl	Ser_PutString
 569              	.LVL74:
 570 000e 08BD     		pop	{r3, pc}
 571              	.L49:
 572              		.align	2
 573              	.L48:
 574 0010 DC050000 		.word	.LC25
 575 0014 10060000 		.word	.LC26
 576              		.cfi_endproc
 577              	.LFE73:
 578              		.size	DisplayExit, .-DisplayExit
 579              		.section	.text.GetCommand,"ax",%progbits
 580              		.align	2
 581              		.thumb
 582              		.thumb_func
 583              		.type	GetCommand, %function
 584              	GetCommand:
 585              	.LFB75:
 238:..\source/cal.c ****     char value = Ser_ReadByte();
 586              		.loc 1 238 0
 587              		.cfi_startproc
 588              		@ args = 0, pretend = 0, frame = 0
 589              		@ frame_needed = 0, uses_anonymous_args = 0
 590 0000 08B5     		push	{r3, lr}
 591              		.cfi_def_cfa_offset 8
 592              		.cfi_offset 3, -8
 593              		.cfi_offset 14, -4
 239:..\source/cal.c ****         
 594              		.loc 1 239 0
ARM GAS  C:\Users\tslator\AppData\Local\Temp\ccHwdKxL.s 			page 19


 595 0002 FFF7FEFF 		bl	Ser_ReadByte
 596              	.LVL75:
 241:..\source/cal.c ****     {
 597              		.loc 1 241 0
 598 0006 A0F14303 		sub	r3, r0, #67
 599 000a 352B     		cmp	r3, #53
 600 000c 23D8     		bhi	.L52
 601 000e DFE803F0 		tbb	[pc, r3]
 602              	.L53:
 603 0012 21       		.byte	(.L57-.L53)/2
 604 0013 1D       		.byte	(.L54-.L53)/2
 605 0014 22       		.byte	(.L52-.L53)/2
 606 0015 22       		.byte	(.L52-.L53)/2
 607 0016 22       		.byte	(.L52-.L53)/2
 608 0017 22       		.byte	(.L52-.L53)/2
 609 0018 22       		.byte	(.L52-.L53)/2
 610 0019 22       		.byte	(.L52-.L53)/2
 611 001a 22       		.byte	(.L52-.L53)/2
 612 001b 22       		.byte	(.L52-.L53)/2
 613 001c 22       		.byte	(.L52-.L53)/2
 614 001d 22       		.byte	(.L52-.L53)/2
 615 001e 22       		.byte	(.L52-.L53)/2
 616 001f 22       		.byte	(.L52-.L53)/2
 617 0020 22       		.byte	(.L52-.L53)/2
 618 0021 22       		.byte	(.L52-.L53)/2
 619 0022 22       		.byte	(.L52-.L53)/2
 620 0023 22       		.byte	(.L52-.L53)/2
 621 0024 22       		.byte	(.L52-.L53)/2
 622 0025 1B       		.byte	(.L55-.L53)/2
 623 0026 22       		.byte	(.L52-.L53)/2
 624 0027 1F       		.byte	(.L56-.L53)/2
 625 0028 22       		.byte	(.L52-.L53)/2
 626 0029 22       		.byte	(.L52-.L53)/2
 627 002a 22       		.byte	(.L52-.L53)/2
 628 002b 22       		.byte	(.L52-.L53)/2
 629 002c 22       		.byte	(.L52-.L53)/2
 630 002d 22       		.byte	(.L52-.L53)/2
 631 002e 22       		.byte	(.L52-.L53)/2
 632 002f 22       		.byte	(.L52-.L53)/2
 633 0030 22       		.byte	(.L52-.L53)/2
 634 0031 22       		.byte	(.L52-.L53)/2
 635 0032 21       		.byte	(.L57-.L53)/2
 636 0033 1D       		.byte	(.L54-.L53)/2
 637 0034 22       		.byte	(.L52-.L53)/2
 638 0035 22       		.byte	(.L52-.L53)/2
 639 0036 22       		.byte	(.L52-.L53)/2
 640 0037 22       		.byte	(.L52-.L53)/2
 641 0038 22       		.byte	(.L52-.L53)/2
 642 0039 22       		.byte	(.L52-.L53)/2
 643 003a 22       		.byte	(.L52-.L53)/2
 644 003b 22       		.byte	(.L52-.L53)/2
 645 003c 22       		.byte	(.L52-.L53)/2
 646 003d 22       		.byte	(.L52-.L53)/2
 647 003e 22       		.byte	(.L52-.L53)/2
 648 003f 22       		.byte	(.L52-.L53)/2
 649 0040 22       		.byte	(.L52-.L53)/2
 650 0041 22       		.byte	(.L52-.L53)/2
ARM GAS  C:\Users\tslator\AppData\Local\Temp\ccHwdKxL.s 			page 20


 651 0042 22       		.byte	(.L52-.L53)/2
 652 0043 22       		.byte	(.L52-.L53)/2
 653 0044 22       		.byte	(.L52-.L53)/2
 654 0045 1B       		.byte	(.L55-.L53)/2
 655 0046 22       		.byte	(.L52-.L53)/2
 656 0047 1F       		.byte	(.L56-.L53)/2
 657              		.p2align 1
 658              	.L55:
 659              	.LVL76:
 250:..\source/cal.c ****             break;
 660              		.loc 1 250 0
 661 0048 7620     		movs	r0, #118
 251:..\source/cal.c ****             
 662              		.loc 1 251 0
 663 004a 08BD     		pop	{r3, pc}
 664              	.LVL77:
 665              	.L54:
 255:..\source/cal.c ****             break;
 666              		.loc 1 255 0
 667 004c 7320     		movs	r0, #115
 256:..\source/cal.c **** 
 668              		.loc 1 256 0
 669 004e 08BD     		pop	{r3, pc}
 670              	.LVL78:
 671              	.L56:
 260:..\source/cal.c ****             break;
 672              		.loc 1 260 0
 673 0050 7820     		movs	r0, #120
 261:..\source/cal.c ****     }
 674              		.loc 1 261 0
 675 0052 08BD     		pop	{r3, pc}
 676              	.LVL79:
 677              	.L57:
 245:..\source/cal.c ****             break;
 678              		.loc 1 245 0
 679 0054 6320     		movs	r0, #99
 680              	.LVL80:
 681              	.L52:
 265:..\source/cal.c **** 
 682              		.loc 1 265 0
 683 0056 08BD     		pop	{r3, pc}
 684              		.cfi_endproc
 685              	.LFE75:
 686              		.size	GetCommand, .-GetCommand
 687              		.section	.text.GetCalibration,"ax",%progbits
 688              		.align	2
 689              		.thumb
 690              		.thumb_func
 691              		.type	GetCalibration, %function
 692              	GetCalibration:
 693              	.LFB76:
 268:..\source/cal.c ****     CAL_PID_PARAMS *p_pid_params;
 694              		.loc 1 268 0
 695              		.cfi_startproc
 696              		@ args = 0, pretend = 0, frame = 0
 697              		@ frame_needed = 0, uses_anonymous_args = 0
 698              	.LVL81:
ARM GAS  C:\Users\tslator\AppData\Local\Temp\ccHwdKxL.s 			page 21


 699 0000 08B5     		push	{r3, lr}
 700              		.cfi_def_cfa_offset 8
 701              		.cfi_offset 3, -8
 702              		.cfi_offset 14, -4
 271:..\source/cal.c ****     {
 703              		.loc 1 271 0
 704 0002 3228     		cmp	r0, #50
 705 0004 0BD0     		beq	.L61
 706 0006 3328     		cmp	r0, #51
 707 0008 11D0     		beq	.L62
 708 000a 3128     		cmp	r0, #49
 709 000c 17D1     		bne	.L65
 274:..\source/cal.c ****             CalMotor_Calibration->state = CAL_INIT_STATE;
 710              		.loc 1 274 0
 711 000e FFF7FEFF 		bl	Ser_WriteByte
 712              	.LVL82:
 275:..\source/cal.c ****             return CalMotor_Calibration;
 713              		.loc 1 275 0
 714 0012 0C4B     		ldr	r3, .L67
 715 0014 1A68     		ldr	r2, [r3]
 716 0016 0021     		movs	r1, #0
 717 0018 1170     		strb	r1, [r2]
 276:..\source/cal.c ****             
 718              		.loc 1 276 0
 719 001a 1868     		ldr	r0, [r3]
 720 001c 08BD     		pop	{r3, pc}
 721              	.LVL83:
 722              	.L61:
 279:..\source/cal.c ****             CalPid_LeftCalibration->state = CAL_INIT_STATE;
 723              		.loc 1 279 0
 724 001e FFF7FEFF 		bl	Ser_WriteByte
 725              	.LVL84:
 280:..\source/cal.c ****             return CalPid_LeftCalibration;
 726              		.loc 1 280 0
 727 0022 094B     		ldr	r3, .L67+4
 728 0024 1A68     		ldr	r2, [r3]
 729 0026 0021     		movs	r1, #0
 730 0028 1170     		strb	r1, [r2]
 281:..\source/cal.c ****             break;
 731              		.loc 1 281 0
 732 002a 1868     		ldr	r0, [r3]
 733 002c 08BD     		pop	{r3, pc}
 734              	.LVL85:
 735              	.L62:
 285:..\source/cal.c ****             CalPid_RightCalibration->state = CAL_INIT_STATE;
 736              		.loc 1 285 0
 737 002e FFF7FEFF 		bl	Ser_WriteByte
 738              	.LVL86:
 286:..\source/cal.c ****             return CalPid_RightCalibration;
 739              		.loc 1 286 0
 740 0032 064B     		ldr	r3, .L67+8
 741 0034 1A68     		ldr	r2, [r3]
 742 0036 0021     		movs	r1, #0
 743 0038 1170     		strb	r1, [r2]
 287:..\source/cal.c ****             break;
 744              		.loc 1 287 0
 745 003a 1868     		ldr	r0, [r3]
ARM GAS  C:\Users\tslator\AppData\Local\Temp\ccHwdKxL.s 			page 22


 746 003c 08BD     		pop	{r3, pc}
 747              	.LVL87:
 748              	.L65:
 294:..\source/cal.c **** }
 749              		.loc 1 294 0
 750 003e 0020     		movs	r0, #0
 751              	.LVL88:
 295:..\source/cal.c **** 
 752              		.loc 1 295 0
 753 0040 08BD     		pop	{r3, pc}
 754              	.L68:
 755 0042 00BF     		.align	2
 756              	.L67:
 757 0044 00000000 		.word	CalMotor_Calibration
 758 0048 00000000 		.word	CalPid_LeftCalibration
 759 004c 00000000 		.word	CalPid_RightCalibration
 760              		.cfi_endproc
 761              	.LFE76:
 762              		.size	GetCalibration, .-GetCalibration
 763              		.section	.text.GetValidation,"ax",%progbits
 764              		.align	2
 765              		.thumb
 766              		.thumb_func
 767              		.type	GetValidation, %function
 768              	GetValidation:
 769              	.LFB77:
 298:..\source/cal.c ****     switch (cmd)
 770              		.loc 1 298 0
 771              		.cfi_startproc
 772              		@ args = 0, pretend = 0, frame = 0
 773              		@ frame_needed = 0, uses_anonymous_args = 0
 774              	.LVL89:
 775 0000 08B5     		push	{r3, lr}
 776              		.cfi_def_cfa_offset 8
 777              		.cfi_offset 3, -8
 778              		.cfi_offset 14, -4
 299:..\source/cal.c ****     {
 779              		.loc 1 299 0
 780 0002 3228     		cmp	r0, #50
 781 0004 11D0     		beq	.L71
 782 0006 3328     		cmp	r0, #51
 783 0008 1DD0     		beq	.L72
 784 000a 3128     		cmp	r0, #49
 785 000c 29D1     		bne	.L75
 302:..\source/cal.c ****             Ser_PutString("\r\nPerforming Motor Validation by operating the motors at varying veloc
 786              		.loc 1 302 0
 787 000e FFF7FEFF 		bl	Ser_WriteByte
 788              	.LVL90:
 303:..\source/cal.c ****             CalMotor_Validation->stage = CAL_VALIDATE_STAGE;
 789              		.loc 1 303 0
 790 0012 1548     		ldr	r0, .L77
 791 0014 FFF7FEFF 		bl	Ser_PutString
 792              	.LVL91:
 304:..\source/cal.c ****             CalMotor_Validation->state = CAL_INIT_STATE;
 793              		.loc 1 304 0
 794 0018 144B     		ldr	r3, .L77+4
 795 001a 1A68     		ldr	r2, [r3]
ARM GAS  C:\Users\tslator\AppData\Local\Temp\ccHwdKxL.s 			page 23


 796 001c 0121     		movs	r1, #1
 797 001e 5170     		strb	r1, [r2, #1]
 305:..\source/cal.c ****             return (CALIBRATION_TYPE *) CalMotor_Validation;
 798              		.loc 1 305 0
 799 0020 1A68     		ldr	r2, [r3]
 800 0022 0021     		movs	r1, #0
 801 0024 1170     		strb	r1, [r2]
 306:..\source/cal.c ****             break;
 802              		.loc 1 306 0
 803 0026 1868     		ldr	r0, [r3]
 804 0028 08BD     		pop	{r3, pc}
 805              	.LVL92:
 806              	.L71:
 310:..\source/cal.c ****             Ser_PutString("\r\nPerforming Left/Right PID Validation by operating the motors at vary
 807              		.loc 1 310 0
 808 002a FFF7FEFF 		bl	Ser_WriteByte
 809              	.LVL93:
 311:..\source/cal.c ****             CalPid_LeftValidation->stage = CAL_VALIDATE_STAGE;
 810              		.loc 1 311 0
 811 002e 1048     		ldr	r0, .L77+8
 812 0030 FFF7FEFF 		bl	Ser_PutString
 813              	.LVL94:
 312:..\source/cal.c ****             CalPid_LeftValidation->state = CAL_INIT_STATE;
 814              		.loc 1 312 0
 815 0034 0F4B     		ldr	r3, .L77+12
 816 0036 1A68     		ldr	r2, [r3]
 817 0038 0121     		movs	r1, #1
 818 003a 5170     		strb	r1, [r2, #1]
 313:..\source/cal.c ****             return (CALIBRATION_TYPE *) CalPid_LeftValidation;
 819              		.loc 1 313 0
 820 003c 1A68     		ldr	r2, [r3]
 821 003e 0021     		movs	r1, #0
 822 0040 1170     		strb	r1, [r2]
 314:..\source/cal.c ****             break;
 823              		.loc 1 314 0
 824 0042 1868     		ldr	r0, [r3]
 825 0044 08BD     		pop	{r3, pc}
 826              	.LVL95:
 827              	.L72:
 318:..\source/cal.c ****             Ser_PutString("\r\nPerforing Left PID validation in the forward direction.\r\n");
 828              		.loc 1 318 0
 829 0046 FFF7FEFF 		bl	Ser_WriteByte
 830              	.LVL96:
 319:..\source/cal.c ****             CalPid_LeftValidation->stage = CAL_VALIDATE_STAGE;
 831              		.loc 1 319 0
 832 004a 0B48     		ldr	r0, .L77+16
 833 004c FFF7FEFF 		bl	Ser_PutString
 834              	.LVL97:
 320:..\source/cal.c ****             CalPid_LeftValidation->state = CAL_INIT_STATE;
 835              		.loc 1 320 0
 836 0050 084B     		ldr	r3, .L77+12
 837 0052 1A68     		ldr	r2, [r3]
 838 0054 0121     		movs	r1, #1
 839 0056 5170     		strb	r1, [r2, #1]
 321:..\source/cal.c ****             return (CALIBRATION_TYPE *) CalPid_LeftValidation;
 840              		.loc 1 321 0
 841 0058 1A68     		ldr	r2, [r3]
ARM GAS  C:\Users\tslator\AppData\Local\Temp\ccHwdKxL.s 			page 24


 842 005a 0021     		movs	r1, #0
 843 005c 1170     		strb	r1, [r2]
 322:..\source/cal.c ****             break;
 844              		.loc 1 322 0
 845 005e 1868     		ldr	r0, [r3]
 846 0060 08BD     		pop	{r3, pc}
 847              	.LVL98:
 848              	.L75:
 339:..\source/cal.c **** }
 849              		.loc 1 339 0
 850 0062 0020     		movs	r0, #0
 851              	.LVL99:
 340:..\source/cal.c **** 
 852              		.loc 1 340 0
 853 0064 08BD     		pop	{r3, pc}
 854              	.L78:
 855 0066 00BF     		.align	2
 856              	.L77:
 857 0068 64060000 		.word	.LC27
 858 006c 00000000 		.word	CalMotor_Validation
 859 0070 B4060000 		.word	.LC28
 860 0074 00000000 		.word	CalPid_LeftValidation
 861 0078 0C070000 		.word	.LC29
 862              		.cfi_endproc
 863              	.LFE77:
 864              		.size	GetValidation, .-GetValidation
 865              		.section	.text.CalcPwm,"ax",%progbits
 866              		.align	2
 867              		.thumb
 868              		.thumb_func
 869              		.type	CalcPwm, %function
 870              	CalcPwm:
 871              	.LFB89:
 428:..\source/cal.c ****             }
 429:..\source/cal.c ****             break;
 430:..\source/cal.c ****     }
 431:..\source/cal.c **** }
 432:..\source/cal.c **** 
 433:..\source/cal.c **** /*-------------------------------------------------------------------------------------------------
 434:..\source/cal.c ****  * Module Interface Routines
 435:..\source/cal.c ****  *-------------------------------------------------------------------------------------------------
 436:..\source/cal.c **** void Cal_Init()
 437:..\source/cal.c **** {
 438:..\source/cal.c ****     p_cal_eeprom = NVSTORE_CAL_EEPROM_BASE;
 439:..\source/cal.c ****     Cal_LeftTarget = LeftTarget;
 440:..\source/cal.c ****     Cal_RightTarget = RightTarget;
 441:..\source/cal.c ****     
 442:..\source/cal.c ****     CalMotor_Init();
 443:..\source/cal.c ****     CalPid_Init();
 444:..\source/cal.c **** }
 445:..\source/cal.c **** 
 446:..\source/cal.c **** void Cal_Start()
 447:..\source/cal.c **** {
 448:..\source/cal.c ****     //Nvstore_WriteBytes((uint8 *) &left_fwd_cal_data, sizeof(CAL_DATA_TYPE), NVSTORE_CAL_EEPROM_AD
 449:..\source/cal.c ****     //Nvstore_WriteBytes((uint8 *) &left_bwd_cal_data, sizeof(CAL_DATA_TYPE), NVSTORE_CAL_EEPROM_AD
 450:..\source/cal.c ****     //Nvstore_WriteBytes((uint8 *) &right_fwd_cal_data, sizeof(CAL_DATA_TYPE), NVSTORE_CAL_EEPROM_A
 451:..\source/cal.c ****     //Nvstore_WriteBytes((uint8 *) &right_bwd_cal_data, sizeof(CAL_DATA_TYPE), NVSTORE_CAL_EEPROM_A
ARM GAS  C:\Users\tslator\AppData\Local\Temp\ccHwdKxL.s 			page 25


 452:..\source/cal.c ****     //Nvstore_WriteUint16(0, 0x000f);
 453:..\source/cal.c ****     //Nvstore_WriteFloat(1.07, NVSTORE_CAL_EEPROM_ADDR_TO_OFFSET(&p_cal_eeprom->linear_bias));
 454:..\source/cal.c ****     //Nvstore_WriteFloat(1.0625, NVSTORE_CAL_EEPROM_ADDR_TO_OFFSET(&p_cal_eeprom->angular_bias));
 455:..\source/cal.c **** 
 456:..\source/cal.c ****     uint16 status = p_cal_eeprom->status;
 457:..\source/cal.c ****     I2c_SetCalibrationStatus(status);        
 458:..\source/cal.c **** }
 459:..\source/cal.c **** 
 460:..\source/cal.c **** void Cal_Update()
 461:..\source/cal.c **** /* 
 462:..\source/cal.c ****     The following options are available in this modules:
 463:..\source/cal.c ****         1. Calibration
 464:..\source/cal.c ****         2. Validation
 465:..\source/cal.c ****         3. Settings Display
 466:..\source/cal.c ****     Only one can be active at a time
 467:..\source/cal.c **** 
 468:..\source/cal.c ****     State Machine:
 469:..\source/cal.c ****         STATE_INIT - waiting for command to engage one of the above functionalities.  
 470:..\source/cal.c ****             If command is 'c'|'C', then enter STATE_CALIBRATION
 471:..\source/cal.c ****             If command is 'v'|'V', then enter STATE_VALIDATION
 472:..\source/cal.c ****             If command is 'd'|'D', then enter STATE_SETTINGS
 473:..\source/cal.c ****             If command is 'x'|'X', then return to STATE_INIT
 474:..\source/cal.c **** 
 475:..\source/cal.c ****         STATE_CALIBRATION - waiting for calibration commands (as shown in calibration menu)
 476:..\source/cal.c ****             ...
 477:..\source/cal.c ****             If command is 'x'|'X', then return to STATE_INIT
 478:..\source/cal.c **** 
 479:..\source/cal.c ****         STATE_VALIDATION - waiting for validation commands (as shown in validation menu)
 480:..\source/cal.c ****             ...
 481:..\source/cal.c ****             If command is 'x'|'X', then return to STATE_INIT
 482:..\source/cal.c ****         
 483:..\source/cal.c ****         STATE_SETTINGS - waiting for setting commands (as shown in the settings menu)
 484:..\source/cal.c ****             ...
 485:..\source/cal.c ****             If command is 'x'|'X', then return to STATE_INIT
 486:..\source/cal.c **** 
 487:..\source/cal.c ****         STATE_EXIT - display exit menu and transitions to STATE_INIT
 488:..\source/cal.c ****  */
 489:..\source/cal.c **** {
 490:..\source/cal.c ****     uint8 cmd = GetCommand();
 491:..\source/cal.c ****     
 492:..\source/cal.c ****     switch (ui_state)
 493:..\source/cal.c ****     {
 494:..\source/cal.c ****         case UI_STATE_INIT:
 495:..\source/cal.c ****             {        
 496:..\source/cal.c ****                 switch (cmd)
 497:..\source/cal.c ****                 {
 498:..\source/cal.c ****                     case CAL_REQUEST:
 499:..\source/cal.c ****                         DisplayCalMenu();
 500:..\source/cal.c ****                         ui_state = UI_STATE_CALIBRATION;
 501:..\source/cal.c ****                         break;
 502:..\source/cal.c ****                     
 503:..\source/cal.c ****                     case VAL_REQUEST:
 504:..\source/cal.c ****                         DisplayValMenu();
 505:..\source/cal.c ****                         ui_state = UI_STATE_VALIDATION;
 506:..\source/cal.c ****                         break;
 507:..\source/cal.c ****                     
 508:..\source/cal.c ****                     case SETTING_REQUEST:
ARM GAS  C:\Users\tslator\AppData\Local\Temp\ccHwdKxL.s 			page 26


 509:..\source/cal.c ****                         DisplaySettingsMenu();
 510:..\source/cal.c ****                         ui_state = UI_STATE_SETTINGS;
 511:..\source/cal.c ****                         break;
 512:..\source/cal.c ****                 }
 513:..\source/cal.c ****                 break;
 514:..\source/cal.c ****             }
 515:..\source/cal.c ****             break;
 516:..\source/cal.c ****         
 517:..\source/cal.c ****         case UI_STATE_CALIBRATION:
 518:..\source/cal.c ****             if (!active_cal)
 519:..\source/cal.c ****             {
 520:..\source/cal.c ****                 active_cal = GetCalibration(cmd);
 521:..\source/cal.c ****             }            
 522:..\source/cal.c ****                 
 523:..\source/cal.c ****             if (active_cal)
 524:..\source/cal.c ****             {
 525:..\source/cal.c ****                 Control_OverrideDebug(TRUE);
 526:..\source/cal.c ****                 ProcessCalibration(active_cal);
 527:..\source/cal.c ****             }                        
 528:..\source/cal.c ****             
 529:..\source/cal.c ****             if (cmd == EXIT_CMD)
 530:..\source/cal.c ****             {
 531:..\source/cal.c ****                 ui_state = UI_STATE_EXIT;
 532:..\source/cal.c ****             }
 533:..\source/cal.c ****             break;
 534:..\source/cal.c ****             
 535:..\source/cal.c ****         case UI_STATE_VALIDATION:
 536:..\source/cal.c ****             if (!active_val)
 537:..\source/cal.c ****             {
 538:..\source/cal.c ****                 active_val = GetValidation(cmd);
 539:..\source/cal.c ****             }
 540:..\source/cal.c ****             
 541:..\source/cal.c ****             if (active_val)
 542:..\source/cal.c ****             {
 543:..\source/cal.c ****                 ProcessCalibration(active_val);
 544:..\source/cal.c ****             }
 545:..\source/cal.c ****             
 546:..\source/cal.c ****             if (cmd == EXIT_CMD)
 547:..\source/cal.c ****             {
 548:..\source/cal.c ****                 ui_state = UI_STATE_EXIT;
 549:..\source/cal.c ****             }
 550:..\source/cal.c ****             break;
 551:..\source/cal.c ****             
 552:..\source/cal.c ****         case UI_STATE_SETTINGS:
 553:..\source/cal.c ****             ProcessSettings(cmd);
 554:..\source/cal.c ****             
 555:..\source/cal.c ****             if (cmd == EXIT_CMD)
 556:..\source/cal.c ****             {
 557:..\source/cal.c ****                 ui_state = UI_STATE_EXIT;
 558:..\source/cal.c ****             }
 559:..\source/cal.c ****             break;
 560:..\source/cal.c **** 
 561:..\source/cal.c ****         case UI_STATE_EXIT:
 562:..\source/cal.c ****             DisplayExit();
 563:..\source/cal.c ****             Control_OverrideDebug(FALSE);
 564:..\source/cal.c ****             ui_state = UI_STATE_INIT;
 565:..\source/cal.c ****             break;
ARM GAS  C:\Users\tslator\AppData\Local\Temp\ccHwdKxL.s 			page 27


 566:..\source/cal.c ****             
 567:..\source/cal.c ****         default:
 568:..\source/cal.c ****             ui_state = UI_STATE_INIT;                
 569:..\source/cal.c ****             break;
 570:..\source/cal.c ****     }
 571:..\source/cal.c ****     
 572:..\source/cal.c **** }
 573:..\source/cal.c **** 
 574:..\source/cal.c **** float Cal_ReadResponse()
 575:..\source/cal.c **** {
 576:..\source/cal.c ****     uint8 digits[6];
 577:..\source/cal.c ****     uint8 index = 0;
 578:..\source/cal.c ****     uint8 value;
 579:..\source/cal.c ****     do
 580:..\source/cal.c ****     {
 581:..\source/cal.c ****         Ser_Update();
 582:..\source/cal.c ****         
 583:..\source/cal.c ****         value = Ser_ReadByte();
 584:..\source/cal.c ****         Ser_WriteByte(value);
 585:..\source/cal.c ****         if ( (value >= '0' && value <= '9') || value == '.')
 586:..\source/cal.c ****         {
 587:..\source/cal.c ****             digits[index] = value;
 588:..\source/cal.c ****             index++;
 589:..\source/cal.c ****         }
 590:..\source/cal.c ****     } while (index < 5);
 591:..\source/cal.c ****     
 592:..\source/cal.c ****     digits[5] = '\0';
 593:..\source/cal.c ****     
 594:..\source/cal.c ****     float result = atof((char *) digits);
 595:..\source/cal.c ****     
 596:..\source/cal.c ****     return result;
 597:..\source/cal.c **** }
 598:..\source/cal.c **** 
 599:..\source/cal.c **** void Cal_LeftGetMotorCalData(CAL_DATA_TYPE **fwd_cal_data, CAL_DATA_TYPE **bwd_cal_data)
 600:..\source/cal.c **** {
 601:..\source/cal.c ****     *fwd_cal_data = (CAL_DATA_TYPE *) &(p_cal_eeprom->left_motor_fwd);
 602:..\source/cal.c ****     *bwd_cal_data = (CAL_DATA_TYPE *) &(p_cal_eeprom->left_motor_bwd);
 603:..\source/cal.c **** }
 604:..\source/cal.c **** 
 605:..\source/cal.c **** void Cal_RightGetMotorCalData(CAL_DATA_TYPE **fwd_cal_data, CAL_DATA_TYPE **bwd_cal_data)
 606:..\source/cal.c **** {
 607:..\source/cal.c ****     *fwd_cal_data = (CAL_DATA_TYPE *) &(p_cal_eeprom->right_motor_fwd);
 608:..\source/cal.c ****     *bwd_cal_data = (CAL_DATA_TYPE *) &(p_cal_eeprom->right_motor_bwd);
 609:..\source/cal.c **** }
 610:..\source/cal.c **** 
 611:..\source/cal.c **** CAL_PID_TYPE * Cal_LeftGetPidGains()
 612:..\source/cal.c **** {
 613:..\source/cal.c ****     return (CAL_PID_TYPE *) &p_cal_eeprom->left_gains;
 614:..\source/cal.c **** }
 615:..\source/cal.c **** 
 616:..\source/cal.c **** CAL_PID_TYPE * Cal_RightGetPidGains()
 617:..\source/cal.c **** {
 618:..\source/cal.c ****     return (CAL_PID_TYPE *) &p_cal_eeprom->right_gains;
 619:..\source/cal.c **** }
 620:..\source/cal.c **** 
 621:..\source/cal.c **** void Cal_SetLeftRightVelocity(float left, float right)
 622:..\source/cal.c **** {
ARM GAS  C:\Users\tslator\AppData\Local\Temp\ccHwdKxL.s 			page 28


 623:..\source/cal.c ****     left_cmd_velocity = left;
 624:..\source/cal.c ****     right_cmd_velocity = right;
 625:..\source/cal.c **** }
 626:..\source/cal.c **** 
 627:..\source/cal.c **** static uint16 CalcPwm(int32 cps, int32 *cps_data, uint16 *pwm_data, uint8 data_size)
 628:..\source/cal.c **** {   
 872              		.loc 1 628 0
 873              		.cfi_startproc
 874              		@ args = 0, pretend = 0, frame = 8
 875              		@ frame_needed = 0, uses_anonymous_args = 0
 876              	.LVL100:
 877 0000 70B5     		push	{r4, r5, r6, lr}
 878              		.cfi_def_cfa_offset 16
 879              		.cfi_offset 4, -16
 880              		.cfi_offset 5, -12
 881              		.cfi_offset 6, -8
 882              		.cfi_offset 14, -4
 883 0002 84B0     		sub	sp, sp, #16
 884              		.cfi_def_cfa_offset 32
 885 0004 0C46     		mov	r4, r1
 886              	.LVL101:
 629:..\source/cal.c ****     uint16 pwm = PWM_STOP;
 630:..\source/cal.c ****     uint8 lower = 0;
 887              		.loc 1 630 0
 888 0006 0021     		movs	r1, #0
 889              	.LVL102:
 890 0008 8DF80F10 		strb	r1, [sp, #15]
 631:..\source/cal.c ****     uint8 upper = 0;
 891              		.loc 1 631 0
 892 000c 8DF80E10 		strb	r1, [sp, #14]
 632:..\source/cal.c **** 
 633:..\source/cal.c ****     if (cps > 0 || cps < 0)
 893              		.loc 1 633 0
 894 0010 58B3     		cbz	r0, .L82
 895 0012 1646     		mov	r6, r2
 896 0014 0546     		mov	r5, r0
 634:..\source/cal.c ****     {
 635:..\source/cal.c ****         BinaryRangeSearch(cps, cps_data, data_size, &lower, &upper);
 897              		.loc 1 635 0
 898 0016 0DF10E02 		add	r2, sp, #14
 899              	.LVL103:
 900 001a 0092     		str	r2, [sp]
 901 001c 2146     		mov	r1, r4
 902 001e 1A46     		mov	r2, r3
 903 0020 0DF10F03 		add	r3, sp, #15
 904              	.LVL104:
 905 0024 FFF7FEFF 		bl	BinaryRangeSearch
 906              	.LVL105:
 636:..\source/cal.c ****         
 637:..\source/cal.c ****         pwm = Interpolate(cps, cps_data[lower], cps_data[upper], pwm_data[lower], pwm_data[upper]);
 907              		.loc 1 637 0
 908 0028 9DF80F30 		ldrb	r3, [sp, #15]	@ zero_extendqisi2
 909 002c 9DF80E00 		ldrb	r0, [sp, #14]	@ zero_extendqisi2
 910 0030 34F92310 		ldrsh	r1, [r4, r3, lsl #2]
 911 0034 34F92020 		ldrsh	r2, [r4, r0, lsl #2]
 912 0038 36F81330 		ldrh	r3, [r6, r3, lsl #1]
 913 003c 36F81000 		ldrh	r0, [r6, r0, lsl #1]
ARM GAS  C:\Users\tslator\AppData\Local\Temp\ccHwdKxL.s 			page 29


 914 0040 0090     		str	r0, [sp]
 915 0042 28B2     		sxth	r0, r5
 916 0044 FFF7FEFF 		bl	Interpolate
 917              	.LVL106:
 918 0048 80B2     		uxth	r0, r0
 919              	.LVL107:
 638:..\source/cal.c **** 
 639:..\source/cal.c ****         return constrain(pwm, MIN_PWM_VALUE, MAX_PWM_VALUE);
 920              		.loc 1 639 0
 921 004a A0F5FA63 		sub	r3, r0, #2000
 922 004e 9BB2     		uxth	r3, r3
 923 0050 4FF62F02 		movw	r2, #63535
 924 0054 9342     		cmp	r3, r2
 925 0056 05D9     		bls	.L83
 926              		.loc 1 639 0 is_stmt 0 discriminator 1
 927 0058 B0F57A7F 		cmp	r0, #1000
 928 005c 38BF     		it	cc
 929 005e 4FF47A70 		movcc	r0, #1000
 930              	.LVL108:
 931 0062 04E0     		b	.L80
 932              	.LVL109:
 933              	.L83:
 934              		.loc 1 639 0
 935 0064 4FF4FA60 		mov	r0, #2000
 936              	.LVL110:
 937 0068 01E0     		b	.L80
 938              	.LVL111:
 939              	.L82:
 640:..\source/cal.c ****     }
 641:..\source/cal.c **** 
 642:..\source/cal.c ****     return pwm;
 940              		.loc 1 642 0 is_stmt 1
 941 006a 40F2DC50 		movw	r0, #1500
 942              	.LVL112:
 943              	.L80:
 643:..\source/cal.c **** }
 944              		.loc 1 643 0
 945 006e 04B0     		add	sp, sp, #16
 946              		.cfi_def_cfa_offset 16
 947              		@ sp needed
 948 0070 70BD     		pop	{r4, r5, r6, pc}
 949              		.cfi_endproc
 950              	.LFE89:
 951              		.size	CalcPwm, .-CalcPwm
 952 0072 00BF     		.section	.text.ClearCalibrationStatusBit,"ax",%progbits
 953              		.align	2
 954              		.global	ClearCalibrationStatusBit
 955              		.thumb
 956              		.thumb_func
 957              		.type	ClearCalibrationStatusBit, %function
 958              	ClearCalibrationStatusBit:
 959              	.LFB65:
  79:..\source/cal.c ****     uint16 status = p_cal_eeprom->status &= ~bit;
 960              		.loc 1 79 0
 961              		.cfi_startproc
 962              		@ args = 0, pretend = 0, frame = 0
 963              		@ frame_needed = 0, uses_anonymous_args = 0
ARM GAS  C:\Users\tslator\AppData\Local\Temp\ccHwdKxL.s 			page 30


 964              	.LVL113:
 965 0000 10B5     		push	{r4, lr}
 966              		.cfi_def_cfa_offset 8
 967              		.cfi_offset 4, -8
 968              		.cfi_offset 14, -4
 969 0002 0446     		mov	r4, r0
  80:..\source/cal.c ****     Nvstore_WriteUint16(status, NVSTORE_CAL_EEPROM_ADDR_TO_OFFSET(&p_cal_eeprom->status));
 970              		.loc 1 80 0
 971 0004 084A     		ldr	r2, .L87
 972 0006 1368     		ldr	r3, [r2]
 973 0008 1888     		ldrh	r0, [r3]
 974              	.LVL114:
 975 000a 80B2     		uxth	r0, r0
 976 000c 20EA0400 		bic	r0, r0, r4
 977 0010 1988     		ldrh	r1, [r3]
 978 0012 1880     		strh	r0, [r3]	@ movhi
 979              	.LVL115:
  81:..\source/cal.c ****     I2c_ClearCalibrationStatusBit(bit);
 980              		.loc 1 81 0
 981 0014 1188     		ldrh	r1, [r2]
 982 0016 81F40041 		eor	r1, r1, #32768
 983 001a FFF7FEFF 		bl	Nvstore_WriteUint16
 984              	.LVL116:
  82:..\source/cal.c **** }
 985              		.loc 1 82 0
 986 001e 2046     		mov	r0, r4
 987 0020 FFF7FEFF 		bl	I2c_ClearCalibrationStatusBit
 988              	.LVL117:
 989 0024 10BD     		pop	{r4, pc}
 990              	.L88:
 991 0026 00BF     		.align	2
 992              	.L87:
 993 0028 00000000 		.word	p_cal_eeprom
 994              		.cfi_endproc
 995              	.LFE65:
 996              		.size	ClearCalibrationStatusBit, .-ClearCalibrationStatusBit
 997              		.section	.text.SetCalibrationStatusBit,"ax",%progbits
 998              		.align	2
 999              		.global	SetCalibrationStatusBit
 1000              		.thumb
 1001              		.thumb_func
 1002              		.type	SetCalibrationStatusBit, %function
 1003              	SetCalibrationStatusBit:
 1004              	.LFB66:
  86:..\source/cal.c ****     uint16 status = p_cal_eeprom->status | bit;
 1005              		.loc 1 86 0
 1006              		.cfi_startproc
 1007              		@ args = 0, pretend = 0, frame = 0
 1008              		@ frame_needed = 0, uses_anonymous_args = 0
 1009              	.LVL118:
 1010 0000 10B5     		push	{r4, lr}
 1011              		.cfi_def_cfa_offset 8
 1012              		.cfi_offset 4, -8
 1013              		.cfi_offset 14, -4
 1014 0002 0446     		mov	r4, r0
  87:..\source/cal.c ****     Nvstore_WriteUint16(status, NVSTORE_CAL_EEPROM_ADDR_TO_OFFSET(&p_cal_eeprom->status));
 1015              		.loc 1 87 0
ARM GAS  C:\Users\tslator\AppData\Local\Temp\ccHwdKxL.s 			page 31


 1016 0004 064B     		ldr	r3, .L91
 1017 0006 1968     		ldr	r1, [r3]
 1018 0008 0888     		ldrh	r0, [r1]
 1019              	.LVL119:
 1020 000a 80B2     		uxth	r0, r0
 1021              	.LVL120:
  88:..\source/cal.c ****     I2c_SetCalibrationStatusBit(bit);   
 1022              		.loc 1 88 0
 1023 000c A1F50041 		sub	r1, r1, #32768
 1024 0010 2043     		orrs	r0, r0, r4
 1025              	.LVL121:
 1026 0012 89B2     		uxth	r1, r1
 1027 0014 FFF7FEFF 		bl	Nvstore_WriteUint16
 1028              	.LVL122:
  89:..\source/cal.c **** }
 1029              		.loc 1 89 0
 1030 0018 2046     		mov	r0, r4
 1031 001a FFF7FEFF 		bl	I2c_SetCalibrationStatusBit
 1032              	.LVL123:
 1033 001e 10BD     		pop	{r4, pc}
 1034              	.L92:
 1035              		.align	2
 1036              	.L91:
 1037 0020 00000000 		.word	p_cal_eeprom
 1038              		.cfi_endproc
 1039              	.LFE66:
 1040              		.size	SetCalibrationStatusBit, .-SetCalibrationStatusBit
 1041              		.section	.text.Cal_PrintSamples,"ax",%progbits
 1042              		.align	2
 1043              		.global	Cal_PrintSamples
 1044              		.thumb
 1045              		.thumb_func
 1046              		.type	Cal_PrintSamples, %function
 1047              	Cal_PrintSamples:
 1048              	.LFB67:
  95:..\source/cal.c ****     uint8 ii;
 1049              		.loc 1 95 0
 1050              		.cfi_startproc
 1051              		@ args = 0, pretend = 0, frame = 120
 1052              		@ frame_needed = 0, uses_anonymous_args = 0
 1053              	.LVL124:
 1054 0000 70B5     		push	{r4, r5, r6, lr}
 1055              		.cfi_def_cfa_offset 16
 1056              		.cfi_offset 4, -16
 1057              		.cfi_offset 5, -12
 1058              		.cfi_offset 6, -8
 1059              		.cfi_offset 14, -4
 1060 0002 9EB0     		sub	sp, sp, #120
 1061              		.cfi_def_cfa_offset 136
 1062 0004 0346     		mov	r3, r0
 1063 0006 0E46     		mov	r6, r1
 1064 0008 1546     		mov	r5, r2
 100:..\source/cal.c ****     Ser_PutString(label_str);
 1065              		.loc 1 100 0
 1066 000a 6846     		mov	r0, sp
 1067              	.LVL125:
 1068 000c 1249     		ldr	r1, .L97
ARM GAS  C:\Users\tslator\AppData\Local\Temp\ccHwdKxL.s 			page 32


 1069              	.LVL126:
 1070 000e 1A46     		mov	r2, r3
 1071              	.LVL127:
 1072 0010 FFF7FEFF 		bl	sprintf
 1073              	.LVL128:
 101:..\source/cal.c ****     
 1074              		.loc 1 101 0
 1075 0014 6846     		mov	r0, sp
 1076 0016 FFF7FEFF 		bl	Ser_PutString
 1077              	.LVL129:
 103:..\source/cal.c ****     {
 1078              		.loc 1 103 0
 1079 001a 0024     		movs	r4, #0
 1080 001c 0CE0     		b	.L94
 1081              	.LVL130:
 1082              	.L95:
 105:..\source/cal.c ****         Ser_PutString(buffer);
 1083              		.loc 1 105 0 discriminator 3
 1084 001e 05A8     		add	r0, sp, #20
 1085 0020 0E49     		ldr	r1, .L97+4
 1086 0022 56F82420 		ldr	r2, [r6, r4, lsl #2]
 1087 0026 35F81430 		ldrh	r3, [r5, r4, lsl #1]
 1088 002a FFF7FEFF 		bl	sprintf
 1089              	.LVL131:
 106:..\source/cal.c ****     }
 1090              		.loc 1 106 0 discriminator 3
 1091 002e 05A8     		add	r0, sp, #20
 1092 0030 FFF7FEFF 		bl	Ser_PutString
 1093              	.LVL132:
 103:..\source/cal.c ****     {
 1094              		.loc 1 103 0 discriminator 3
 1095 0034 0134     		adds	r4, r4, #1
 1096              	.LVL133:
 1097 0036 E4B2     		uxtb	r4, r4
 1098              	.LVL134:
 1099              	.L94:
 103:..\source/cal.c ****     {
 1100              		.loc 1 103 0 is_stmt 0 discriminator 1
 1101 0038 312C     		cmp	r4, #49
 1102 003a F0D9     		bls	.L95
 108:..\source/cal.c ****     Ser_PutString(buffer);
 1103              		.loc 1 108 0 is_stmt 1
 1104 003c 05A8     		add	r0, sp, #20
 1105 003e 0849     		ldr	r1, .L97+8
 1106 0040 56F82420 		ldr	r2, [r6, r4, lsl #2]
 1107 0044 35F81430 		ldrh	r3, [r5, r4, lsl #1]
 1108 0048 FFF7FEFF 		bl	sprintf
 1109              	.LVL135:
 109:..\source/cal.c **** }
 1110              		.loc 1 109 0
 1111 004c 05A8     		add	r0, sp, #20
 1112 004e FFF7FEFF 		bl	Ser_PutString
 1113              	.LVL136:
 110:..\source/cal.c **** 
 1114              		.loc 1 110 0
 1115 0052 1EB0     		add	sp, sp, #120
 1116              		.cfi_def_cfa_offset 16
ARM GAS  C:\Users\tslator\AppData\Local\Temp\ccHwdKxL.s 			page 33


 1117              		@ sp needed
 1118 0054 70BD     		pop	{r4, r5, r6, pc}
 1119              	.LVL137:
 1120              	.L98:
 1121 0056 00BF     		.align	2
 1122              	.L97:
 1123 0058 48070000 		.word	.LC30
 1124 005c 50070000 		.word	.LC31
 1125 0060 58070000 		.word	.LC32
 1126              		.cfi_endproc
 1127              	.LFE67:
 1128              		.size	Cal_PrintSamples, .-Cal_PrintSamples
 1129              		.section	.text.Cal_PrintGains,"ax",%progbits
 1130              		.align	2
 1131              		.global	Cal_PrintGains
 1132              		.thumb
 1133              		.thumb_func
 1134              		.type	Cal_PrintGains, %function
 1135              	Cal_PrintGains:
 1136              	.LFB68:
 113:..\source/cal.c ****     char output[64];
 1137              		.loc 1 113 0
 1138              		.cfi_startproc
 1139              		@ args = 0, pretend = 0, frame = 104
 1140              		@ frame_needed = 0, uses_anonymous_args = 0
 1141              	.LVL138:
 1142 0000 F0B5     		push	{r4, r5, r6, r7, lr}
 1143              		.cfi_def_cfa_offset 20
 1144              		.cfi_offset 4, -20
 1145              		.cfi_offset 5, -16
 1146              		.cfi_offset 6, -12
 1147              		.cfi_offset 7, -8
 1148              		.cfi_offset 14, -4
 1149 0002 9DB0     		sub	sp, sp, #116
 1150              		.cfi_def_cfa_offset 136
 1151 0004 0746     		mov	r7, r0
 1152 0006 0C46     		mov	r4, r1
 119:..\source/cal.c ****     ftoa(gains[1], igain_str, 3);
 1153              		.loc 1 119 0
 1154 0008 0868     		ldr	r0, [r1]	@ float
 1155              	.LVL139:
 1156 000a 09A9     		add	r1, sp, #36
 1157              	.LVL140:
 1158 000c 0322     		movs	r2, #3
 1159 000e FFF7FEFF 		bl	ftoa
 1160              	.LVL141:
 120:..\source/cal.c ****     ftoa(gains[2], dgain_str, 3);
 1161              		.loc 1 120 0
 1162 0012 06AE     		add	r6, sp, #24
 1163 0014 6068     		ldr	r0, [r4, #4]	@ float
 1164 0016 3146     		mov	r1, r6
 1165 0018 0322     		movs	r2, #3
 1166 001a FFF7FEFF 		bl	ftoa
 1167              	.LVL142:
 121:..\source/cal.c ****     
 1168              		.loc 1 121 0
 1169 001e 03AD     		add	r5, sp, #12
ARM GAS  C:\Users\tslator\AppData\Local\Temp\ccHwdKxL.s 			page 34


 1170 0020 A068     		ldr	r0, [r4, #8]	@ float
 1171 0022 2946     		mov	r1, r5
 1172 0024 0322     		movs	r2, #3
 1173 0026 FFF7FEFF 		bl	ftoa
 1174              	.LVL143:
 123:..\source/cal.c ****     Ser_PutString(output);
 1175              		.loc 1 123 0
 1176 002a 0096     		str	r6, [sp]
 1177 002c 0195     		str	r5, [sp, #4]
 1178 002e 0CA8     		add	r0, sp, #48
 1179 0030 0449     		ldr	r1, .L101
 1180 0032 3A46     		mov	r2, r7
 1181 0034 09AB     		add	r3, sp, #36
 1182 0036 FFF7FEFF 		bl	sprintf
 1183              	.LVL144:
 124:..\source/cal.c **** }
 1184              		.loc 1 124 0
 1185 003a 0CA8     		add	r0, sp, #48
 1186 003c FFF7FEFF 		bl	Ser_PutString
 1187              	.LVL145:
 125:..\source/cal.c **** 
 1188              		.loc 1 125 0
 1189 0040 1DB0     		add	sp, sp, #116
 1190              		.cfi_def_cfa_offset 20
 1191              		@ sp needed
 1192 0042 F0BD     		pop	{r4, r5, r6, r7, pc}
 1193              	.LVL146:
 1194              	.L102:
 1195              		.align	2
 1196              	.L101:
 1197 0044 64070000 		.word	.LC33
 1198              		.cfi_endproc
 1199              	.LFE68:
 1200              		.size	Cal_PrintGains, .-Cal_PrintGains
 1201              		.section	.text.ProcessSettings,"ax",%progbits
 1202              		.align	2
 1203              		.thumb
 1204              		.thumb_func
 1205              		.type	ProcessSettings, %function
 1206              	ProcessSettings:
 1207              	.LFB74:
 192:..\source/cal.c ****     switch (cmd)
 1208              		.loc 1 192 0
 1209              		.cfi_startproc
 1210              		@ args = 0, pretend = 0, frame = 0
 1211              		@ frame_needed = 0, uses_anonymous_args = 0
 1212              	.LVL147:
 1213 0000 38B5     		push	{r3, r4, r5, lr}
 1214              		.cfi_def_cfa_offset 16
 1215              		.cfi_offset 3, -16
 1216              		.cfi_offset 4, -12
 1217              		.cfi_offset 5, -8
 1218              		.cfi_offset 14, -4
 193:..\source/cal.c ****     {
 1219              		.loc 1 193 0
 1220 0002 A0F13103 		sub	r3, r0, #49
 1221 0006 032B     		cmp	r3, #3
ARM GAS  C:\Users\tslator\AppData\Local\Temp\ccHwdKxL.s 			page 35


 1222 0008 63D8     		bhi	.L103
 1223 000a DFE803F0 		tbb	[pc, r3]
 1224              	.L106:
 1225 000e 02       		.byte	(.L105-.L106)/2
 1226 000f 22       		.byte	(.L107-.L106)/2
 1227 0010 42       		.byte	(.L108-.L106)/2
 1228 0011 58       		.byte	(.L109-.L106)/2
 1229              		.p2align 1
 1230              	.L105:
 196:..\source/cal.c ****             Ser_PutString("\r\nDisplaying left motor calibration: count/sec, pwm mapping");
 1231              		.loc 1 196 0
 1232 0012 FFF7FEFF 		bl	Ser_WriteByte
 1233              	.LVL148:
 197:..\source/cal.c ****             Ser_PutString("\r\n");
 1234              		.loc 1 197 0
 1235 0016 2F48     		ldr	r0, .L111
 1236 0018 FFF7FEFF 		bl	Ser_PutString
 1237              	.LVL149:
 198:..\source/cal.c ****             Cal_PrintSamples("Left-Forward", (int32 *) p_cal_eeprom->left_motor_fwd.cps_data, (uint
 1238              		.loc 1 198 0
 1239 001c 2E4C     		ldr	r4, .L111+4
 1240 001e 2046     		mov	r0, r4
 1241 0020 FFF7FEFF 		bl	Ser_PutString
 1242              	.LVL150:
 199:..\source/cal.c ****             Cal_PrintSamples("Left-Backward", (int32 *) p_cal_eeprom->left_motor_bwd.cps_data, (uin
 1243              		.loc 1 199 0
 1244 0024 2D4D     		ldr	r5, .L111+8
 1245 0026 2A68     		ldr	r2, [r5]
 1246 0028 2D48     		ldr	r0, .L111+12
 1247 002a 02F15401 		add	r1, r2, #84
 1248 002e 02F59072 		add	r2, r2, #288
 1249 0032 FFF7FEFF 		bl	Cal_PrintSamples
 1250              	.LVL151:
 200:..\source/cal.c ****             Ser_PutString("\r\n");
 1251              		.loc 1 200 0
 1252 0036 2A68     		ldr	r2, [r5]
 1253 0038 2A48     		ldr	r0, .L111+16
 1254 003a 02F5CA71 		add	r1, r2, #404
 1255 003e 02F51872 		add	r2, r2, #608
 1256 0042 FFF7FEFF 		bl	Cal_PrintSamples
 1257              	.LVL152:
 201:..\source/cal.c ****             
 1258              		.loc 1 201 0
 1259 0046 2046     		mov	r0, r4
 1260 0048 FFF7FEFF 		bl	Ser_PutString
 1261              	.LVL153:
 203:..\source/cal.c ****             break;
 1262              		.loc 1 203 0
 1263 004c FFF7FEFF 		bl	DisplaySettingsMenu
 1264              	.LVL154:
 204:..\source/cal.c ****             
 1265              		.loc 1 204 0
 1266 0050 38BD     		pop	{r3, r4, r5, pc}
 1267              	.LVL155:
 1268              	.L107:
 207:..\source/cal.c ****             Ser_PutString("\r\nDisplaying right motor calibration: count/sec, pwm mapping");
 1269              		.loc 1 207 0
ARM GAS  C:\Users\tslator\AppData\Local\Temp\ccHwdKxL.s 			page 36


 1270 0052 FFF7FEFF 		bl	Ser_WriteByte
 1271              	.LVL156:
 208:..\source/cal.c ****             Ser_PutString("\r\n");
 1272              		.loc 1 208 0
 1273 0056 2448     		ldr	r0, .L111+20
 1274 0058 FFF7FEFF 		bl	Ser_PutString
 1275              	.LVL157:
 209:..\source/cal.c ****             Cal_PrintSamples("Right-Forward", (int32 *) p_cal_eeprom->right_motor_fwd.cps_data, (ui
 1276              		.loc 1 209 0
 1277 005c 1E4C     		ldr	r4, .L111+4
 1278 005e 2046     		mov	r0, r4
 1279 0060 FFF7FEFF 		bl	Ser_PutString
 1280              	.LVL158:
 210:..\source/cal.c ****             Cal_PrintSamples("Right-Backward", (int32 *) p_cal_eeprom->right_motor_bwd.cps_data, (u
 1281              		.loc 1 210 0
 1282 0064 1D4D     		ldr	r5, .L111+8
 1283 0066 2A68     		ldr	r2, [r5]
 1284 0068 2048     		ldr	r0, .L111+24
 1285 006a 02F53571 		add	r1, r2, #724
 1286 006e 02F56872 		add	r2, r2, #928
 1287 0072 FFF7FEFF 		bl	Cal_PrintSamples
 1288              	.LVL159:
 211:..\source/cal.c ****             Ser_PutString("\r\n");
 1289              		.loc 1 211 0
 1290 0076 2A68     		ldr	r2, [r5]
 1291 0078 1D48     		ldr	r0, .L111+28
 1292 007a 02F21441 		addw	r1, r2, #1044
 1293 007e 02F59C62 		add	r2, r2, #1248
 1294 0082 FFF7FEFF 		bl	Cal_PrintSamples
 1295              	.LVL160:
 212:..\source/cal.c ****             
 1296              		.loc 1 212 0
 1297 0086 2046     		mov	r0, r4
 1298 0088 FFF7FEFF 		bl	Ser_PutString
 1299              	.LVL161:
 214:..\source/cal.c ****             break;
 1300              		.loc 1 214 0
 1301 008c FFF7FEFF 		bl	DisplaySettingsMenu
 1302              	.LVL162:
 215:..\source/cal.c ****             
 1303              		.loc 1 215 0
 1304 0090 38BD     		pop	{r3, r4, r5, pc}
 1305              	.LVL163:
 1306              	.L108:
 218:..\source/cal.c ****             Ser_PutString("\r\nDisplaying all PID gains: left, right");
 1307              		.loc 1 218 0
 1308 0092 FFF7FEFF 		bl	Ser_WriteByte
 1309              	.LVL164:
 219:..\source/cal.c ****             Ser_PutString("\r\n");
 1310              		.loc 1 219 0
 1311 0096 1748     		ldr	r0, .L111+32
 1312 0098 FFF7FEFF 		bl	Ser_PutString
 1313              	.LVL165:
 220:..\source/cal.c ****             Cal_PrintGains("Left PID", (float *) &p_cal_eeprom->left_gains);
 1314              		.loc 1 220 0
 1315 009c 0E48     		ldr	r0, .L111+4
 1316 009e FFF7FEFF 		bl	Ser_PutString
ARM GAS  C:\Users\tslator\AppData\Local\Temp\ccHwdKxL.s 			page 37


 1317              	.LVL166:
 221:..\source/cal.c ****             Cal_PrintGains("Right PID", (float *) &p_cal_eeprom->right_gains);
 1318              		.loc 1 221 0
 1319 00a2 0E4C     		ldr	r4, .L111+8
 1320 00a4 2168     		ldr	r1, [r4]
 1321 00a6 1448     		ldr	r0, .L111+36
 1322 00a8 0831     		adds	r1, r1, #8
 1323 00aa FFF7FEFF 		bl	Cal_PrintGains
 1324              	.LVL167:
 222:..\source/cal.c **** 
 1325              		.loc 1 222 0
 1326 00ae 2168     		ldr	r1, [r4]
 1327 00b0 1248     		ldr	r0, .L111+40
 1328 00b2 1831     		adds	r1, r1, #24
 1329 00b4 FFF7FEFF 		bl	Cal_PrintGains
 1330              	.LVL168:
 224:..\source/cal.c ****             break;
 1331              		.loc 1 224 0
 1332 00b8 FFF7FEFF 		bl	DisplaySettingsMenu
 1333              	.LVL169:
 225:..\source/cal.c ****             
 1334              		.loc 1 225 0
 1335 00bc 38BD     		pop	{r3, r4, r5, pc}
 1336              	.LVL170:
 1337              	.L109:
 228:..\source/cal.c ****             Ser_PutString("\r\nDisplaying all calibration/settings");
 1338              		.loc 1 228 0
 1339 00be FFF7FEFF 		bl	Ser_WriteByte
 1340              	.LVL171:
 229:..\source/cal.c ****             Ser_PutString("\r\n");
 1341              		.loc 1 229 0
 1342 00c2 0F48     		ldr	r0, .L111+44
 1343 00c4 FFF7FEFF 		bl	Ser_PutString
 1344              	.LVL172:
 230:..\source/cal.c **** 
 1345              		.loc 1 230 0
 1346 00c8 0348     		ldr	r0, .L111+4
 1347 00ca FFF7FEFF 		bl	Ser_PutString
 1348              	.LVL173:
 232:..\source/cal.c ****             break;        
 1349              		.loc 1 232 0
 1350 00ce FFF7FEFF 		bl	DisplaySettingsMenu
 1351              	.LVL174:
 1352              	.L103:
 1353 00d2 38BD     		pop	{r3, r4, r5, pc}
 1354              	.L112:
 1355              		.align	2
 1356              	.L111:
 1357 00d4 80070000 		.word	.LC34
 1358 00d8 68010000 		.word	.LC5
 1359 00dc 00000000 		.word	p_cal_eeprom
 1360 00e0 BC070000 		.word	.LC35
 1361 00e4 CC070000 		.word	.LC36
 1362 00e8 DC070000 		.word	.LC37
 1363 00ec 1C080000 		.word	.LC38
 1364 00f0 2C080000 		.word	.LC39
 1365 00f4 3C080000 		.word	.LC40
ARM GAS  C:\Users\tslator\AppData\Local\Temp\ccHwdKxL.s 			page 38


 1366 00f8 64080000 		.word	.LC41
 1367 00fc 70080000 		.word	.LC42
 1368 0100 7C080000 		.word	.LC43
 1369              		.cfi_endproc
 1370              	.LFE74:
 1371              		.size	ProcessSettings, .-ProcessSettings
 1372              		.section	.text.Cal_Init,"ax",%progbits
 1373              		.align	2
 1374              		.global	Cal_Init
 1375              		.thumb
 1376              		.thumb_func
 1377              		.type	Cal_Init, %function
 1378              	Cal_Init:
 1379              	.LFB80:
 437:..\source/cal.c ****     p_cal_eeprom = NVSTORE_CAL_EEPROM_BASE;
 1380              		.loc 1 437 0
 1381              		.cfi_startproc
 1382              		@ args = 0, pretend = 0, frame = 0
 1383              		@ frame_needed = 0, uses_anonymous_args = 0
 1384 0000 08B5     		push	{r3, lr}
 1385              		.cfi_def_cfa_offset 8
 1386              		.cfi_offset 3, -8
 1387              		.cfi_offset 14, -4
 438:..\source/cal.c ****     Cal_LeftTarget = LeftTarget;
 1388              		.loc 1 438 0
 1389 0002 074A     		ldr	r2, .L115
 1390 0004 074B     		ldr	r3, .L115+4
 1391 0006 1A60     		str	r2, [r3]
 439:..\source/cal.c ****     Cal_RightTarget = RightTarget;
 1392              		.loc 1 439 0
 1393 0008 074A     		ldr	r2, .L115+8
 1394 000a 084B     		ldr	r3, .L115+12
 1395 000c 1A60     		str	r2, [r3]
 440:..\source/cal.c ****     
 1396              		.loc 1 440 0
 1397 000e 084A     		ldr	r2, .L115+16
 1398 0010 084B     		ldr	r3, .L115+20
 1399 0012 1A60     		str	r2, [r3]
 442:..\source/cal.c ****     CalPid_Init();
 1400              		.loc 1 442 0
 1401 0014 FFF7FEFF 		bl	CalMotor_Init
 1402              	.LVL175:
 443:..\source/cal.c **** }
 1403              		.loc 1 443 0
 1404 0018 FFF7FEFF 		bl	CalPid_Init
 1405              	.LVL176:
 1406 001c 08BD     		pop	{r3, pc}
 1407              	.L116:
 1408 001e 00BF     		.align	2
 1409              	.L115:
 1410 0020 00800040 		.word	1073774592
 1411 0024 00000000 		.word	p_cal_eeprom
 1412 0028 00000000 		.word	LeftTarget
 1413 002c 00000000 		.word	Cal_LeftTarget
 1414 0030 00000000 		.word	RightTarget
 1415 0034 00000000 		.word	Cal_RightTarget
 1416              		.cfi_endproc
ARM GAS  C:\Users\tslator\AppData\Local\Temp\ccHwdKxL.s 			page 39


 1417              	.LFE80:
 1418              		.size	Cal_Init, .-Cal_Init
 1419              		.section	.text.Cal_Start,"ax",%progbits
 1420              		.align	2
 1421              		.global	Cal_Start
 1422              		.thumb
 1423              		.thumb_func
 1424              		.type	Cal_Start, %function
 1425              	Cal_Start:
 1426              	.LFB81:
 447:..\source/cal.c ****     //Nvstore_WriteBytes((uint8 *) &left_fwd_cal_data, sizeof(CAL_DATA_TYPE), NVSTORE_CAL_EEPROM_AD
 1427              		.loc 1 447 0
 1428              		.cfi_startproc
 1429              		@ args = 0, pretend = 0, frame = 0
 1430              		@ frame_needed = 0, uses_anonymous_args = 0
 1431 0000 08B5     		push	{r3, lr}
 1432              		.cfi_def_cfa_offset 8
 1433              		.cfi_offset 3, -8
 1434              		.cfi_offset 14, -4
 456:..\source/cal.c ****     I2c_SetCalibrationStatus(status);        
 1435              		.loc 1 456 0
 1436 0002 034B     		ldr	r3, .L119
 1437 0004 1B68     		ldr	r3, [r3]
 1438 0006 1888     		ldrh	r0, [r3]
 1439              	.LVL177:
 457:..\source/cal.c **** }
 1440              		.loc 1 457 0
 1441 0008 80B2     		uxth	r0, r0
 1442 000a FFF7FEFF 		bl	I2c_SetCalibrationStatus
 1443              	.LVL178:
 1444 000e 08BD     		pop	{r3, pc}
 1445              	.L120:
 1446              		.align	2
 1447              	.L119:
 1448 0010 00000000 		.word	p_cal_eeprom
 1449              		.cfi_endproc
 1450              	.LFE81:
 1451              		.size	Cal_Start, .-Cal_Start
 1452              		.section	.text.Cal_Update,"ax",%progbits
 1453              		.align	2
 1454              		.global	Cal_Update
 1455              		.thumb
 1456              		.thumb_func
 1457              		.type	Cal_Update, %function
 1458              	Cal_Update:
 1459              	.LFB82:
 489:..\source/cal.c ****     uint8 cmd = GetCommand();
 1460              		.loc 1 489 0
 1461              		.cfi_startproc
 1462              		@ args = 0, pretend = 0, frame = 0
 1463              		@ frame_needed = 0, uses_anonymous_args = 0
 1464 0000 10B5     		push	{r4, lr}
 1465              		.cfi_def_cfa_offset 8
 1466              		.cfi_offset 4, -8
 1467              		.cfi_offset 14, -4
 490:..\source/cal.c ****     
 1468              		.loc 1 490 0
ARM GAS  C:\Users\tslator\AppData\Local\Temp\ccHwdKxL.s 			page 40


 1469 0002 FFF7FEFF 		bl	GetCommand
 1470              	.LVL179:
 1471 0006 0446     		mov	r4, r0
 1472              	.LVL180:
 492:..\source/cal.c ****     {
 1473              		.loc 1 492 0
 1474 0008 2F4B     		ldr	r3, .L138
 1475 000a 1B7B     		ldrb	r3, [r3, #12]	@ zero_extendqisi2
 1476 000c 042B     		cmp	r3, #4
 1477 000e 56D8     		bhi	.L122
 1478 0010 DFE803F0 		tbb	[pc, r3]
 1479              	.L124:
 1480 0014 03       		.byte	(.L123-.L124)/2
 1481 0015 1B       		.byte	(.L125-.L124)/2
 1482 0016 32       		.byte	(.L126-.L124)/2
 1483 0017 44       		.byte	(.L127-.L124)/2
 1484 0018 4C       		.byte	(.L128-.L124)/2
 1485 0019 00       		.p2align 1
 1486              	.L123:
 496:..\source/cal.c ****                 {
 1487              		.loc 1 496 0
 1488 001a 7328     		cmp	r0, #115
 1489 001c 0FD0     		beq	.L130
 1490 001e 7628     		cmp	r0, #118
 1491 0020 07D0     		beq	.L131
 1492 0022 6328     		cmp	r0, #99
 1493 0024 4ED1     		bne	.L121
 499:..\source/cal.c ****                         ui_state = UI_STATE_CALIBRATION;
 1494              		.loc 1 499 0
 1495 0026 FFF7FEFF 		bl	DisplayCalMenu
 1496              	.LVL181:
 500:..\source/cal.c ****                         break;
 1497              		.loc 1 500 0
 1498 002a 0122     		movs	r2, #1
 1499 002c 264B     		ldr	r3, .L138
 1500 002e 1A73     		strb	r2, [r3, #12]
 501:..\source/cal.c ****                     
 1501              		.loc 1 501 0
 1502 0030 10BD     		pop	{r4, pc}
 1503              	.LVL182:
 1504              	.L131:
 504:..\source/cal.c ****                         ui_state = UI_STATE_VALIDATION;
 1505              		.loc 1 504 0
 1506 0032 FFF7FEFF 		bl	DisplayValMenu
 1507              	.LVL183:
 505:..\source/cal.c ****                         break;
 1508              		.loc 1 505 0
 1509 0036 0222     		movs	r2, #2
 1510 0038 234B     		ldr	r3, .L138
 1511 003a 1A73     		strb	r2, [r3, #12]
 506:..\source/cal.c ****                     
 1512              		.loc 1 506 0
 1513 003c 10BD     		pop	{r4, pc}
 1514              	.LVL184:
 1515              	.L130:
 509:..\source/cal.c ****                         ui_state = UI_STATE_SETTINGS;
 1516              		.loc 1 509 0
ARM GAS  C:\Users\tslator\AppData\Local\Temp\ccHwdKxL.s 			page 41


 1517 003e FFF7FEFF 		bl	DisplaySettingsMenu
 1518              	.LVL185:
 510:..\source/cal.c ****                         break;
 1519              		.loc 1 510 0
 1520 0042 0322     		movs	r2, #3
 1521 0044 204B     		ldr	r3, .L138
 1522 0046 1A73     		strb	r2, [r3, #12]
 511:..\source/cal.c ****                 }
 1523              		.loc 1 511 0
 1524 0048 10BD     		pop	{r4, pc}
 1525              	.LVL186:
 1526              	.L125:
 518:..\source/cal.c ****             {
 1527              		.loc 1 518 0
 1528 004a 1F4B     		ldr	r3, .L138
 1529 004c 9B68     		ldr	r3, [r3, #8]
 1530 004e 1BB9     		cbnz	r3, .L133
 520:..\source/cal.c ****             }            
 1531              		.loc 1 520 0
 1532 0050 FFF7FEFF 		bl	GetCalibration
 1533              	.LVL187:
 1534 0054 1C4B     		ldr	r3, .L138
 1535 0056 9860     		str	r0, [r3, #8]
 1536              	.L133:
 523:..\source/cal.c ****             {
 1537              		.loc 1 523 0
 1538 0058 1B4B     		ldr	r3, .L138
 1539 005a 9B68     		ldr	r3, [r3, #8]
 1540 005c 33B1     		cbz	r3, .L134
 525:..\source/cal.c ****                 ProcessCalibration(active_cal);
 1541              		.loc 1 525 0
 1542 005e 0120     		movs	r0, #1
 1543 0060 FFF7FEFF 		bl	Control_OverrideDebug
 1544              	.LVL188:
 526:..\source/cal.c ****             }                        
 1545              		.loc 1 526 0
 1546 0064 184B     		ldr	r3, .L138
 1547 0066 9868     		ldr	r0, [r3, #8]
 1548 0068 FFF7FEFF 		bl	ProcessCalibration
 1549              	.LVL189:
 1550              	.L134:
 529:..\source/cal.c ****             {
 1551              		.loc 1 529 0
 1552 006c 782C     		cmp	r4, #120
 1553 006e 29D1     		bne	.L121
 531:..\source/cal.c ****             }
 1554              		.loc 1 531 0
 1555 0070 0422     		movs	r2, #4
 1556 0072 154B     		ldr	r3, .L138
 1557 0074 1A73     		strb	r2, [r3, #12]
 1558 0076 10BD     		pop	{r4, pc}
 1559              	.LVL190:
 1560              	.L126:
 536:..\source/cal.c ****             {
 1561              		.loc 1 536 0
 1562 0078 134B     		ldr	r3, .L138
 1563 007a 1B69     		ldr	r3, [r3, #16]
ARM GAS  C:\Users\tslator\AppData\Local\Temp\ccHwdKxL.s 			page 42


 1564 007c 1BB9     		cbnz	r3, .L135
 538:..\source/cal.c ****             }
 1565              		.loc 1 538 0
 1566 007e FFF7FEFF 		bl	GetValidation
 1567              	.LVL191:
 1568 0082 114B     		ldr	r3, .L138
 1569 0084 1861     		str	r0, [r3, #16]
 1570              	.L135:
 541:..\source/cal.c ****             {
 1571              		.loc 1 541 0
 1572 0086 104B     		ldr	r3, .L138
 1573 0088 1869     		ldr	r0, [r3, #16]
 1574 008a 08B1     		cbz	r0, .L136
 543:..\source/cal.c ****             }
 1575              		.loc 1 543 0
 1576 008c FFF7FEFF 		bl	ProcessCalibration
 1577              	.LVL192:
 1578              	.L136:
 546:..\source/cal.c ****             {
 1579              		.loc 1 546 0
 1580 0090 782C     		cmp	r4, #120
 1581 0092 17D1     		bne	.L121
 548:..\source/cal.c ****             }
 1582              		.loc 1 548 0
 1583 0094 0422     		movs	r2, #4
 1584 0096 0C4B     		ldr	r3, .L138
 1585 0098 1A73     		strb	r2, [r3, #12]
 1586 009a 10BD     		pop	{r4, pc}
 1587              	.LVL193:
 1588              	.L127:
 553:..\source/cal.c ****             
 1589              		.loc 1 553 0
 1590 009c FFF7FEFF 		bl	ProcessSettings
 1591              	.LVL194:
 555:..\source/cal.c ****             {
 1592              		.loc 1 555 0
 1593 00a0 782C     		cmp	r4, #120
 1594 00a2 0FD1     		bne	.L121
 557:..\source/cal.c ****             }
 1595              		.loc 1 557 0
 1596 00a4 0422     		movs	r2, #4
 1597 00a6 084B     		ldr	r3, .L138
 1598 00a8 1A73     		strb	r2, [r3, #12]
 1599 00aa 10BD     		pop	{r4, pc}
 1600              	.LVL195:
 1601              	.L128:
 562:..\source/cal.c ****             Control_OverrideDebug(FALSE);
 1602              		.loc 1 562 0
 1603 00ac FFF7FEFF 		bl	DisplayExit
 1604              	.LVL196:
 563:..\source/cal.c ****             ui_state = UI_STATE_INIT;
 1605              		.loc 1 563 0
 1606 00b0 0020     		movs	r0, #0
 1607 00b2 FFF7FEFF 		bl	Control_OverrideDebug
 1608              	.LVL197:
 564:..\source/cal.c ****             break;
 1609              		.loc 1 564 0
ARM GAS  C:\Users\tslator\AppData\Local\Temp\ccHwdKxL.s 			page 43


 1610 00b6 0022     		movs	r2, #0
 1611 00b8 034B     		ldr	r3, .L138
 1612 00ba 1A73     		strb	r2, [r3, #12]
 565:..\source/cal.c ****             
 1613              		.loc 1 565 0
 1614 00bc 10BD     		pop	{r4, pc}
 1615              	.LVL198:
 1616              	.L122:
 568:..\source/cal.c ****             break;
 1617              		.loc 1 568 0
 1618 00be 0022     		movs	r2, #0
 1619 00c0 014B     		ldr	r3, .L138
 1620 00c2 1A73     		strb	r2, [r3, #12]
 1621              	.LVL199:
 1622              	.L121:
 1623 00c4 10BD     		pop	{r4, pc}
 1624              	.L139:
 1625 00c6 00BF     		.align	2
 1626              	.L138:
 1627 00c8 00000000 		.word	.LANCHOR0
 1628              		.cfi_endproc
 1629              	.LFE82:
 1630              		.size	Cal_Update, .-Cal_Update
 1631              		.global	__aeabi_d2f
 1632              		.section	.text.Cal_ReadResponse,"ax",%progbits
 1633              		.align	2
 1634              		.global	Cal_ReadResponse
 1635              		.thumb
 1636              		.thumb_func
 1637              		.type	Cal_ReadResponse, %function
 1638              	Cal_ReadResponse:
 1639              	.LFB83:
 575:..\source/cal.c ****     uint8 digits[6];
 1640              		.loc 1 575 0
 1641              		.cfi_startproc
 1642              		@ args = 0, pretend = 0, frame = 8
 1643              		@ frame_needed = 0, uses_anonymous_args = 0
 1644 0000 30B5     		push	{r4, r5, lr}
 1645              		.cfi_def_cfa_offset 12
 1646              		.cfi_offset 4, -12
 1647              		.cfi_offset 5, -8
 1648              		.cfi_offset 14, -4
 1649 0002 83B0     		sub	sp, sp, #12
 1650              		.cfi_def_cfa_offset 24
 1651              	.LVL200:
 577:..\source/cal.c ****     uint8 value;
 1652              		.loc 1 577 0
 1653 0004 0024     		movs	r4, #0
 1654              	.LVL201:
 1655              	.L143:
 581:..\source/cal.c ****         
 1656              		.loc 1 581 0
 1657 0006 FFF7FEFF 		bl	Ser_Update
 1658              	.LVL202:
 583:..\source/cal.c ****         Ser_WriteByte(value);
 1659              		.loc 1 583 0
 1660 000a FFF7FEFF 		bl	Ser_ReadByte
ARM GAS  C:\Users\tslator\AppData\Local\Temp\ccHwdKxL.s 			page 44


 1661              	.LVL203:
 1662 000e 0546     		mov	r5, r0
 1663              	.LVL204:
 584:..\source/cal.c ****         if ( (value >= '0' && value <= '9') || value == '.')
 1664              		.loc 1 584 0
 1665 0010 FFF7FEFF 		bl	Ser_WriteByte
 1666              	.LVL205:
 585:..\source/cal.c ****         {
 1667              		.loc 1 585 0
 1668 0014 A5F13003 		sub	r3, r5, #48
 1669 0018 DBB2     		uxtb	r3, r3
 1670 001a 092B     		cmp	r3, #9
 1671 001c 01D9     		bls	.L141
 585:..\source/cal.c ****         {
 1672              		.loc 1 585 0 is_stmt 0 discriminator 1
 1673 001e 2E2D     		cmp	r5, #46
 1674 0020 05D1     		bne	.L142
 1675              	.L141:
 587:..\source/cal.c ****             index++;
 1676              		.loc 1 587 0 is_stmt 1
 1677 0022 02AB     		add	r3, sp, #8
 1678 0024 2344     		add	r3, r3, r4
 1679 0026 03F8085C 		strb	r5, [r3, #-8]
 588:..\source/cal.c ****         }
 1680              		.loc 1 588 0
 1681 002a 0134     		adds	r4, r4, #1
 1682              	.LVL206:
 1683 002c E4B2     		uxtb	r4, r4
 1684              	.LVL207:
 1685              	.L142:
 590:..\source/cal.c ****     
 1686              		.loc 1 590 0
 1687 002e 042C     		cmp	r4, #4
 1688 0030 E9D9     		bls	.L143
 592:..\source/cal.c ****     
 1689              		.loc 1 592 0
 1690 0032 0023     		movs	r3, #0
 1691 0034 8DF80530 		strb	r3, [sp, #5]
 594:..\source/cal.c ****     
 1692              		.loc 1 594 0
 1693 0038 6846     		mov	r0, sp
 1694 003a FFF7FEFF 		bl	atof
 1695              	.LVL208:
 1696 003e FFF7FEFF 		bl	__aeabi_d2f
 1697              	.LVL209:
 597:..\source/cal.c **** 
 1698              		.loc 1 597 0
 1699 0042 03B0     		add	sp, sp, #12
 1700              		.cfi_def_cfa_offset 12
 1701              		@ sp needed
 1702 0044 30BD     		pop	{r4, r5, pc}
 1703              		.cfi_endproc
 1704              	.LFE83:
 1705              		.size	Cal_ReadResponse, .-Cal_ReadResponse
 1706 0046 00BF     		.section	.text.Cal_LeftGetMotorCalData,"ax",%progbits
 1707              		.align	2
 1708              		.global	Cal_LeftGetMotorCalData
ARM GAS  C:\Users\tslator\AppData\Local\Temp\ccHwdKxL.s 			page 45


 1709              		.thumb
 1710              		.thumb_func
 1711              		.type	Cal_LeftGetMotorCalData, %function
 1712              	Cal_LeftGetMotorCalData:
 1713              	.LFB84:
 600:..\source/cal.c ****     *fwd_cal_data = (CAL_DATA_TYPE *) &(p_cal_eeprom->left_motor_fwd);
 1714              		.loc 1 600 0
 1715              		.cfi_startproc
 1716              		@ args = 0, pretend = 0, frame = 0
 1717              		@ frame_needed = 0, uses_anonymous_args = 0
 1718              		@ link register save eliminated.
 1719              	.LVL210:
 601:..\source/cal.c ****     *bwd_cal_data = (CAL_DATA_TYPE *) &(p_cal_eeprom->left_motor_bwd);
 1720              		.loc 1 601 0
 1721 0000 044A     		ldr	r2, .L146
 1722 0002 1368     		ldr	r3, [r2]
 1723 0004 4833     		adds	r3, r3, #72
 1724 0006 0360     		str	r3, [r0]
 602:..\source/cal.c **** }
 1725              		.loc 1 602 0
 1726 0008 1368     		ldr	r3, [r2]
 1727 000a 03F5C473 		add	r3, r3, #392
 1728 000e 0B60     		str	r3, [r1]
 1729 0010 7047     		bx	lr
 1730              	.L147:
 1731 0012 00BF     		.align	2
 1732              	.L146:
 1733 0014 00000000 		.word	p_cal_eeprom
 1734              		.cfi_endproc
 1735              	.LFE84:
 1736              		.size	Cal_LeftGetMotorCalData, .-Cal_LeftGetMotorCalData
 1737              		.section	.text.Cal_RightGetMotorCalData,"ax",%progbits
 1738              		.align	2
 1739              		.global	Cal_RightGetMotorCalData
 1740              		.thumb
 1741              		.thumb_func
 1742              		.type	Cal_RightGetMotorCalData, %function
 1743              	Cal_RightGetMotorCalData:
 1744              	.LFB85:
 606:..\source/cal.c ****     *fwd_cal_data = (CAL_DATA_TYPE *) &(p_cal_eeprom->right_motor_fwd);
 1745              		.loc 1 606 0
 1746              		.cfi_startproc
 1747              		@ args = 0, pretend = 0, frame = 0
 1748              		@ frame_needed = 0, uses_anonymous_args = 0
 1749              		@ link register save eliminated.
 1750              	.LVL211:
 607:..\source/cal.c ****     *bwd_cal_data = (CAL_DATA_TYPE *) &(p_cal_eeprom->right_motor_bwd);
 1751              		.loc 1 607 0
 1752 0000 044A     		ldr	r2, .L149
 1753 0002 1368     		ldr	r3, [r2]
 1754 0004 03F53273 		add	r3, r3, #712
 1755 0008 0360     		str	r3, [r0]
 608:..\source/cal.c **** }
 1756              		.loc 1 608 0
 1757 000a 1368     		ldr	r3, [r2]
 1758 000c 03F58163 		add	r3, r3, #1032
 1759 0010 0B60     		str	r3, [r1]
ARM GAS  C:\Users\tslator\AppData\Local\Temp\ccHwdKxL.s 			page 46


 1760 0012 7047     		bx	lr
 1761              	.L150:
 1762              		.align	2
 1763              	.L149:
 1764 0014 00000000 		.word	p_cal_eeprom
 1765              		.cfi_endproc
 1766              	.LFE85:
 1767              		.size	Cal_RightGetMotorCalData, .-Cal_RightGetMotorCalData
 1768              		.section	.text.Cal_LeftGetPidGains,"ax",%progbits
 1769              		.align	2
 1770              		.global	Cal_LeftGetPidGains
 1771              		.thumb
 1772              		.thumb_func
 1773              		.type	Cal_LeftGetPidGains, %function
 1774              	Cal_LeftGetPidGains:
 1775              	.LFB86:
 612:..\source/cal.c ****     return (CAL_PID_TYPE *) &p_cal_eeprom->left_gains;
 1776              		.loc 1 612 0
 1777              		.cfi_startproc
 1778              		@ args = 0, pretend = 0, frame = 0
 1779              		@ frame_needed = 0, uses_anonymous_args = 0
 1780              		@ link register save eliminated.
 613:..\source/cal.c **** }
 1781              		.loc 1 613 0
 1782 0000 014B     		ldr	r3, .L152
 1783 0002 1868     		ldr	r0, [r3]
 614:..\source/cal.c **** 
 1784              		.loc 1 614 0
 1785 0004 0830     		adds	r0, r0, #8
 1786 0006 7047     		bx	lr
 1787              	.L153:
 1788              		.align	2
 1789              	.L152:
 1790 0008 00000000 		.word	p_cal_eeprom
 1791              		.cfi_endproc
 1792              	.LFE86:
 1793              		.size	Cal_LeftGetPidGains, .-Cal_LeftGetPidGains
 1794              		.section	.text.Cal_RightGetPidGains,"ax",%progbits
 1795              		.align	2
 1796              		.global	Cal_RightGetPidGains
 1797              		.thumb
 1798              		.thumb_func
 1799              		.type	Cal_RightGetPidGains, %function
 1800              	Cal_RightGetPidGains:
 1801              	.LFB87:
 617:..\source/cal.c ****     return (CAL_PID_TYPE *) &p_cal_eeprom->right_gains;
 1802              		.loc 1 617 0
 1803              		.cfi_startproc
 1804              		@ args = 0, pretend = 0, frame = 0
 1805              		@ frame_needed = 0, uses_anonymous_args = 0
 1806              		@ link register save eliminated.
 618:..\source/cal.c **** }
 1807              		.loc 1 618 0
 1808 0000 014B     		ldr	r3, .L155
 1809 0002 1868     		ldr	r0, [r3]
 619:..\source/cal.c **** 
 1810              		.loc 1 619 0
ARM GAS  C:\Users\tslator\AppData\Local\Temp\ccHwdKxL.s 			page 47


 1811 0004 1830     		adds	r0, r0, #24
 1812 0006 7047     		bx	lr
 1813              	.L156:
 1814              		.align	2
 1815              	.L155:
 1816 0008 00000000 		.word	p_cal_eeprom
 1817              		.cfi_endproc
 1818              	.LFE87:
 1819              		.size	Cal_RightGetPidGains, .-Cal_RightGetPidGains
 1820              		.section	.text.Cal_SetLeftRightVelocity,"ax",%progbits
 1821              		.align	2
 1822              		.global	Cal_SetLeftRightVelocity
 1823              		.thumb
 1824              		.thumb_func
 1825              		.type	Cal_SetLeftRightVelocity, %function
 1826              	Cal_SetLeftRightVelocity:
 1827              	.LFB88:
 622:..\source/cal.c ****     left_cmd_velocity = left;
 1828              		.loc 1 622 0
 1829              		.cfi_startproc
 1830              		@ args = 0, pretend = 0, frame = 0
 1831              		@ frame_needed = 0, uses_anonymous_args = 0
 1832              		@ link register save eliminated.
 1833              	.LVL212:
 623:..\source/cal.c ****     right_cmd_velocity = right;
 1834              		.loc 1 623 0
 1835 0000 014B     		ldr	r3, .L158
 1836 0002 1860     		str	r0, [r3]	@ float
 624:..\source/cal.c **** }
 1837              		.loc 1 624 0
 1838 0004 5960     		str	r1, [r3, #4]	@ float
 1839 0006 7047     		bx	lr
 1840              	.L159:
 1841              		.align	2
 1842              	.L158:
 1843 0008 00000000 		.word	.LANCHOR0
 1844              		.cfi_endproc
 1845              	.LFE88:
 1846              		.size	Cal_SetLeftRightVelocity, .-Cal_SetLeftRightVelocity
 1847              		.global	__aeabi_fcmpgt
 1848              		.global	__aeabi_i2f
 1849              		.global	__aeabi_fmul
 1850              		.global	__aeabi_f2iz
 1851              		.section	.text.Cal_CpsToPwm,"ax",%progbits
 1852              		.align	2
 1853              		.global	Cal_CpsToPwm
 1854              		.thumb
 1855              		.thumb_func
 1856              		.type	Cal_CpsToPwm, %function
 1857              	Cal_CpsToPwm:
 1858              	.LFB90:
 644:..\source/cal.c **** 
 645:..\source/cal.c **** uint16 Cal_CpsToPwm(WHEEL_TYPE wheel, float cps)
 646:..\source/cal.c **** {
 1859              		.loc 1 646 0
 1860              		.cfi_startproc
 1861              		@ args = 0, pretend = 0, frame = 0
ARM GAS  C:\Users\tslator\AppData\Local\Temp\ccHwdKxL.s 			page 48


 1862              		@ frame_needed = 0, uses_anonymous_args = 0
 1863              	.LVL213:
 1864 0000 F8B5     		push	{r3, r4, r5, r6, r7, lr}
 1865              		.cfi_def_cfa_offset 24
 1866              		.cfi_offset 3, -24
 1867              		.cfi_offset 4, -20
 1868              		.cfi_offset 5, -16
 1869              		.cfi_offset 6, -12
 1870              		.cfi_offset 7, -8
 1871              		.cfi_offset 14, -4
 1872              	.LVL214:
 647:..\source/cal.c ****     uint16 pwm;
 648:..\source/cal.c ****     
 649:..\source/cal.c ****     
 650:..\source/cal.c ****     pwm = PWM_STOP;
 651:..\source/cal.c ****     
 652:..\source/cal.c ****     /* The conversion from CPS to PWM is valid only when calibration has been performed */
 653:..\source/cal.c ****     
 654:..\source/cal.c ****     if (p_cal_eeprom->status & CAL_MOTOR_BIT)
 1873              		.loc 1 654 0
 1874 0002 1D4B     		ldr	r3, .L165
 1875 0004 1B68     		ldr	r3, [r3]
 1876 0006 1B88     		ldrh	r3, [r3]
 1877 0008 13F0010F 		tst	r3, #1
 1878 000c 2ED0     		beq	.L161
 1879 000e 0646     		mov	r6, r0
 1880 0010 0D46     		mov	r5, r1
 1881              	.LBB2:
 655:..\source/cal.c ****     {
 656:..\source/cal.c ****     
 657:..\source/cal.c ****         CAL_DATA_TYPE *p_cal_data = WHEEL_DIR_TO_CAL_DATA[wheel][cps > 0 ? 0 : 1];
 1882              		.loc 1 657 0
 1883 0012 4FF00104 		mov	r4, #1
 1884 0016 0846     		mov	r0, r1
 1885              	.LVL215:
 1886 0018 0021     		movs	r1, #0
 1887              	.LVL216:
 1888 001a FFF7FEFF 		bl	__aeabi_fcmpgt
 1889              	.LVL217:
 1890 001e 08B9     		cbnz	r0, .L162
 1891 0020 4FF00004 		mov	r4, #0
 1892              	.L162:
 1893 0024 E0B2     		uxtb	r0, r4
 1894 0026 80F00100 		eor	r0, r0, #1
 1895 002a 00EB4600 		add	r0, r0, r6, lsl #1
 1896 002e 134B     		ldr	r3, .L165+4
 1897 0030 53F82040 		ldr	r4, [r3, r0, lsl #2]
 1898              	.LVL218:
 658:..\source/cal.c ****         
 659:..\source/cal.c ****         cps = constrain((int32)(cps * p_cal_data->cps_scale), p_cal_data->cps_min, p_cal_data->cps_
 1899              		.loc 1 659 0
 1900 0034 6768     		ldr	r7, [r4, #4]	@ unaligned
 1901 0036 2668     		ldr	r6, [r4]	@ unaligned
 1902 0038 A068     		ldr	r0, [r4, #8]	@ unaligned
 1903 003a FFF7FEFF 		bl	__aeabi_i2f
 1904              	.LVL219:
 1905 003e 2946     		mov	r1, r5
ARM GAS  C:\Users\tslator\AppData\Local\Temp\ccHwdKxL.s 			page 49


 1906 0040 FFF7FEFF 		bl	__aeabi_fmul
 1907              	.LVL220:
 1908 0044 FFF7FEFF 		bl	__aeabi_f2iz
 1909              	.LVL221:
 1910 0048 B042     		cmp	r0, r6
 1911 004a B8BF     		it	lt
 1912 004c 3046     		movlt	r0, r6
 1913 004e B842     		cmp	r0, r7
 1914 0050 A8BF     		it	ge
 1915 0052 3846     		movge	r0, r7
 1916 0054 FFF7FEFF 		bl	__aeabi_i2f
 1917              	.LVL222:
 660:..\source/cal.c ****         pwm = CalcPwm(cps, &p_cal_data->cps_data[0], &p_cal_data->pwm_data[0], CAL_DATA_SIZE);
 1918              		.loc 1 660 0
 1919 0058 FFF7FEFF 		bl	__aeabi_f2iz
 1920              	.LVL223:
 1921 005c 04F10C01 		add	r1, r4, #12
 1922 0060 04F1D802 		add	r2, r4, #216
 1923 0064 3323     		movs	r3, #51
 1924 0066 FFF7FEFF 		bl	CalcPwm
 1925              	.LVL224:
 1926              	.LBE2:
 1927 006a F8BD     		pop	{r3, r4, r5, r6, r7, pc}
 1928              	.LVL225:
 1929              	.L161:
 661:..\source/cal.c ****     }
 662:..\source/cal.c ****     else
 663:..\source/cal.c ****     {
 664:..\source/cal.c ****         Ser_PutString("Motor calibration status not set\r\n");
 1930              		.loc 1 664 0
 1931 006c 0448     		ldr	r0, .L165+8
 1932              	.LVL226:
 1933 006e FFF7FEFF 		bl	Ser_PutString
 1934              	.LVL227:
 650:..\source/cal.c ****     
 1935              		.loc 1 650 0
 1936 0072 40F2DC50 		movw	r0, #1500
 1937              	.LVL228:
 665:..\source/cal.c ****     }
 666:..\source/cal.c **** 
 667:..\source/cal.c ****     return pwm;
 668:..\source/cal.c **** }
 1938              		.loc 1 668 0
 1939 0076 F8BD     		pop	{r3, r4, r5, r6, r7, pc}
 1940              	.L166:
 1941              		.align	2
 1942              	.L165:
 1943 0078 00000000 		.word	p_cal_eeprom
 1944 007c 00000000 		.word	WHEEL_DIR_TO_CAL_DATA
 1945 0080 A4080000 		.word	.LC44
 1946              		.cfi_endproc
 1947              	.LFE90:
 1948              		.size	Cal_CpsToPwm, .-Cal_CpsToPwm
 1949              		.section	.text.Cal_Clear,"ax",%progbits
 1950              		.align	2
 1951              		.global	Cal_Clear
 1952              		.thumb
ARM GAS  C:\Users\tslator\AppData\Local\Temp\ccHwdKxL.s 			page 50


 1953              		.thumb_func
 1954              		.type	Cal_Clear, %function
 1955              	Cal_Clear:
 1956              	.LFB91:
 669:..\source/cal.c **** 
 670:..\source/cal.c **** void Cal_Clear()
 671:..\source/cal.c **** {
 1957              		.loc 1 671 0
 1958              		.cfi_startproc
 1959              		@ args = 0, pretend = 0, frame = 0
 1960              		@ frame_needed = 0, uses_anonymous_args = 0
 1961 0000 08B5     		push	{r3, lr}
 1962              		.cfi_def_cfa_offset 8
 1963              		.cfi_offset 3, -8
 1964              		.cfi_offset 14, -4
 672:..\source/cal.c ****     ClearCalibrationStatusBit(CAL_MOTOR_BIT); // Clear Count to PWM calibration
 1965              		.loc 1 672 0
 1966 0002 0120     		movs	r0, #1
 1967 0004 FFF7FEFF 		bl	ClearCalibrationStatusBit
 1968              	.LVL229:
 673:..\source/cal.c ****     ClearCalibrationStatusBit(CAL_PID_BIT); // Clear PID calibration
 1969              		.loc 1 673 0
 1970 0008 0220     		movs	r0, #2
 1971 000a FFF7FEFF 		bl	ClearCalibrationStatusBit
 1972              	.LVL230:
 1973 000e 08BD     		pop	{r3, pc}
 1974              		.cfi_endproc
 1975              	.LFE91:
 1976              		.size	Cal_Clear, .-Cal_Clear
 1977              		.global	cal_state_to_string
 1978              		.global	cal_stage_to_string
 1979              		.comm	debug_control_enabled,2,2
 1980              		.comm	formatted_string,256,4
 1981              		.comm	CalAng_Calibration,4,4
 1982              		.comm	CalLin_Calibration,4,4
 1983              		.comm	CalPid_RightValidation,4,4
 1984              		.comm	CalPid_LeftValidation,4,4
 1985              		.comm	CalPid_RightCalibration,4,4
 1986              		.comm	CalPid_LeftCalibration,4,4
 1987              		.comm	CalMotor_Validation,4,4
 1988              		.comm	CalMotor_Calibration,4,4
 1989              		.comm	WHEEL_DIR_TO_CAL_DATA,16,4
 1990              		.comm	Cal_RightTarget,4,4
 1991              		.comm	Cal_LeftTarget,4,4
 1992              		.comm	p_cal_eeprom,4,4
 1993              		.data
 1994              		.align	2
 1995              		.set	.LANCHOR1,. + 0
 1996              		.type	cal_stage_to_string, %object
 1997              		.size	cal_stage_to_string, 8
 1998              	cal_stage_to_string:
 1999 0000 18090000 		.word	.LC51
 2000 0004 24090000 		.word	.LC52
 2001              		.type	cal_state_to_string, %object
 2002              		.size	cal_state_to_string, 24
 2003              	cal_state_to_string:
 2004 0008 C8080000 		.word	.LC45
ARM GAS  C:\Users\tslator\AppData\Local\Temp\ccHwdKxL.s 			page 51


 2005 000c D4080000 		.word	.LC46
 2006 0010 E0080000 		.word	.LC47
 2007 0014 F0080000 		.word	.LC48
 2008 0018 FC080000 		.word	.LC49
 2009 001c 0C090000 		.word	.LC50
 2010              		.section	.rodata.str1.4,"aMS",%progbits,1
 2011              		.align	2
 2012              	.LC0:
 2013 0000 0D0A5765 		.ascii	"\015\012Welcome to the Arlobot calibration interfac"
 2013      6C636F6D 
 2013      6520746F 
 2013      20746865 
 2013      2041726C 
 2014 002d 652E0D0A 		.ascii	"e.\015\012\000"
 2014      00
 2015 0032 0000     		.space	2
 2016              	.LC1:
 2017 0034 54686520 		.ascii	"The following calibration operations are allowed:\015"
 2017      666F6C6C 
 2017      6F77696E 
 2017      67206361 
 2017      6C696272 
 2018 0066 0A00     		.ascii	"\012\000"
 2019              	.LC2:
 2020 0068 20202020 		.ascii	"    1. Motor Calibration - creates mapping between "
 2020      312E204D 
 2020      6F746F72 
 2020      2043616C 
 2020      69627261 
 2021 009b 636F756E 		.ascii	"count/sec and PWM.\015\012\000"
 2021      742F7365 
 2021      6320616E 
 2021      64205057 
 2021      4D2E0D0A 
 2022              	.LC3:
 2023 00b0 20202020 		.ascii	"    2. PID Left Calibration - enter gains, execute "
 2023      322E2050 
 2023      4944204C 
 2023      65667420 
 2023      43616C69 
 2024 00e3 73746570 		.ascii	"step input, print velocity response.\015\012\000"
 2024      20696E70 
 2024      75742C20 
 2024      7072696E 
 2024      74207665 
 2025 010a 0000     		.space	2
 2026              	.LC4:
 2027 010c 20202020 		.ascii	"    3. PID Right Calibration - enter gains, execute"
 2027      332E2050 
 2027      49442052 
 2027      69676874 
 2027      2043616C 
 2028 013f 20737465 		.ascii	" step input, print velocity response.\015\012\000"
 2028      7020696E 
 2028      7075742C 
 2028      20707269 
 2028      6E742076 
ARM GAS  C:\Users\tslator\AppData\Local\Temp\ccHwdKxL.s 			page 52


 2029 0167 00       		.space	1
 2030              	.LC5:
 2031 0168 0D0A00   		.ascii	"\015\012\000"
 2032 016b 00       		.space	1
 2033              	.LC6:
 2034 016c 0D0A456E 		.ascii	"\015\012Enter X to exit calibration\015\012\000"
 2034      74657220 
 2034      5820746F 
 2034      20657869 
 2034      74206361 
 2035              	.LC7:
 2036 018c 4D616B65 		.ascii	"Make an entry [1-5,X]: \000"
 2036      20616E20 
 2036      656E7472 
 2036      79205B31 
 2036      2D352C58 
 2037              	.LC8:
 2038 01a4 0D0A5765 		.ascii	"\015\012Welcome to the Arlobot validation interface"
 2038      6C636F6D 
 2038      6520746F 
 2038      20746865 
 2038      2041726C 
 2039 01d1 2E0D0A00 		.ascii	".\015\012\000"
 2040 01d5 000000   		.space	3
 2041              	.LC9:
 2042 01d8 54686520 		.ascii	"The following validation operations are allowed:\015"
 2042      666F6C6C 
 2042      6F77696E 
 2042      67207661 
 2042      6C696461 
 2043 0209 0A00     		.ascii	"\012\000"
 2044 020b 00       		.space	1
 2045              	.LC10:
 2046 020c 20202020 		.ascii	"    1. Motor Validation - operates the motors at va"
 2046      312E204D 
 2046      6F746F72 
 2046      2056616C 
 2046      69646174 
 2047 023f 7279696E 		.ascii	"rying velocities.\015\012\000"
 2047      67207665 
 2047      6C6F6369 
 2047      74696573 
 2047      2E0D0A00 
 2048 0253 00       		.space	1
 2049              	.LC11:
 2050 0254 20202020 		.ascii	"    2. PID Validation - operates the motors at vary"
 2050      322E2050 
 2050      49442056 
 2050      616C6964 
 2050      6174696F 
 2051 0287 696E6720 		.ascii	"ing velocities, moves in a straight line and rotate"
 2051      76656C6F 
 2051      63697469 
 2051      65732C20 
 2051      6D6F7665 
 2052 02ba 7320696E 		.ascii	"s in place.\015\012\000"
 2052      20706C61 
ARM GAS  C:\Users\tslator\AppData\Local\Temp\ccHwdKxL.s 			page 53


 2052      63652E0D 
 2052      0A00
 2053              	.LC12:
 2054 02c8 20202020 		.ascii	"    3. Left PID (forward) Validation - operates the"
 2054      332E204C 
 2054      65667420 
 2054      50494420 
 2054      28666F72 
 2055 02fb 206C6566 		.ascii	" left motor in the forward direction at various vel"
 2055      74206D6F 
 2055      746F7220 
 2055      696E2074 
 2055      68652066 
 2056 032e 6F636974 		.ascii	"ocities.\015\012\000"
 2056      6965732E 
 2056      0D0A00
 2057 0339 000000   		.space	3
 2058              	.LC13:
 2059 033c 20202020 		.ascii	"    4. Left PID (backward) Validation - operates th"
 2059      342E204C 
 2059      65667420 
 2059      50494420 
 2059      28626163 
 2060 036f 65206C65 		.ascii	"e left motor in the backward direction at various v"
 2060      6674206D 
 2060      6F746F72 
 2060      20696E20 
 2060      74686520 
 2061 03a2 656C6F63 		.ascii	"elocities.\015\012\000"
 2061      69746965 
 2061      732E0D0A 
 2061      00
 2062 03af 00       		.space	1
 2063              	.LC14:
 2064 03b0 20202020 		.ascii	"    5. Right PID (forward) Validation - operates th"
 2064      352E2052 
 2064      69676874 
 2064      20504944 
 2064      2028666F 
 2065 03e3 65207269 		.ascii	"e right motor in the forward direction at various v"
 2065      67687420 
 2065      6D6F746F 
 2065      7220696E 
 2065      20746865 
 2066 0416 656C6F63 		.ascii	"elocities.\015\012\000"
 2066      69746965 
 2066      732E0D0A 
 2066      00
 2067 0423 00       		.space	1
 2068              	.LC15:
 2069 0424 20202020 		.ascii	"    6. Right PID (backward) Validation - operates t"
 2069      362E2052 
 2069      69676874 
 2069      20504944 
 2069      20286261 
 2070 0457 68652072 		.ascii	"he right motor in the backward direction at various"
 2070      69676874 
ARM GAS  C:\Users\tslator\AppData\Local\Temp\ccHwdKxL.s 			page 54


 2070      206D6F74 
 2070      6F722069 
 2070      6E207468 
 2071 048a 2076656C 		.ascii	" velocities.\015\012\000"
 2071      6F636974 
 2071      6965732E 
 2071      0D0A00
 2072 0499 000000   		.space	3
 2073              	.LC16:
 2074 049c 0D0A456E 		.ascii	"\015\012Enter X to exit validation\015\012\000"
 2074      74657220 
 2074      5820746F 
 2074      20657869 
 2074      74207661 
 2075 04bb 00       		.space	1
 2076              	.LC17:
 2077 04bc 4D616B65 		.ascii	"Make an entry [1-6,X]: \000"
 2077      20616E20 
 2077      656E7472 
 2077      79205B31 
 2077      2D362C58 
 2078              	.LC18:
 2079 04d4 0D0A5765 		.ascii	"\015\012Welcome to the Arlobot settings display\015"
 2079      6C636F6D 
 2079      6520746F 
 2079      20746865 
 2079      2041726C 
 2080 04fe 0A00     		.ascii	"\012\000"
 2081              	.LC19:
 2082 0500 54686520 		.ascii	"The following settings can be displayed\015\012\000"
 2082      666F6C6C 
 2082      6F77696E 
 2082      67207365 
 2082      7474696E 
 2083 052a 0000     		.space	2
 2084              	.LC20:
 2085 052c 20202020 		.ascii	"    1. Left Motor Calibration\015\012\000"
 2085      312E204C 
 2085      65667420 
 2085      4D6F746F 
 2085      72204361 
 2086              	.LC21:
 2087 054c 20202020 		.ascii	"    2. Right Motor Calibration\015\012\000"
 2087      322E2052 
 2087      69676874 
 2087      204D6F74 
 2087      6F722043 
 2088 056d 000000   		.space	3
 2089              	.LC22:
 2090 0570 20202020 		.ascii	"    3. PID Gains: left pid and right pid\015\012\000"
 2090      332E2050 
 2090      49442047 
 2090      61696E73 
 2090      3A206C65 
 2091 059b 00       		.space	1
 2092              	.LC23:
 2093 059c 20202020 		.ascii	"    4. Display All\015\012\000"
ARM GAS  C:\Users\tslator\AppData\Local\Temp\ccHwdKxL.s 			page 55


 2093      342E2044 
 2093      6973706C 
 2093      61792041 
 2093      6C6C0D0A 
 2094 05b1 000000   		.space	3
 2095              	.LC24:
 2096 05b4 4572726F 		.ascii	"Error processing stage %s, state %s\015\012\000"
 2096      72207072 
 2096      6F636573 
 2096      73696E67 
 2096      20737461 
 2097 05da 0000     		.space	2
 2098              	.LC25:
 2099 05dc 0D0A4578 		.ascii	"\015\012Exiting Arlobot calibration/validation inte"
 2099      6974696E 
 2099      67204172 
 2099      6C6F626F 
 2099      74206361 
 2100 0609 72666163 		.ascii	"rface.\000"
 2100      652E00
 2101              	.LC26:
 2102 0610 0D0A5479 		.ascii	"\015\012Type 'C' to enter calibration, 'V' to enter"
 2102      70652027 
 2102      43272074 
 2102      6F20656E 
 2102      74657220 
 2103 063d 2076616C 		.ascii	" validation, 'D' to display settings\015\012\000"
 2103      69646174 
 2103      696F6E2C 
 2103      20274427 
 2103      20746F20 
 2104              	.LC27:
 2105 0664 0D0A5065 		.ascii	"\015\012Performing Motor Validation by operating th"
 2105      72666F72 
 2105      6D696E67 
 2105      204D6F74 
 2105      6F722056 
 2106 0691 65206D6F 		.ascii	"e motors at varying velocities.\015\012\000"
 2106      746F7273 
 2106      20617420 
 2106      76617279 
 2106      696E6720 
 2107 06b3 00       		.space	1
 2108              	.LC28:
 2109 06b4 0D0A5065 		.ascii	"\015\012Performing Left/Right PID Validation by ope"
 2109      72666F72 
 2109      6D696E67 
 2109      204C6566 
 2109      742F5269 
 2110 06e1 72617469 		.ascii	"rating the motors at varying velocities.\015\012\000"
 2110      6E672074 
 2110      6865206D 
 2110      6F746F72 
 2110      73206174 
 2111              	.LC29:
 2112 070c 0D0A5065 		.ascii	"\015\012Perforing Left PID validation in the forwar"
 2112      72666F72 
ARM GAS  C:\Users\tslator\AppData\Local\Temp\ccHwdKxL.s 			page 56


 2112      696E6720 
 2112      4C656674 
 2112      20504944 
 2113 0739 64206469 		.ascii	"d direction.\015\012\000"
 2113      72656374 
 2113      696F6E2E 
 2113      0D0A00
 2114              	.LC30:
 2115 0748 25730D0A 		.ascii	"%s\015\012\000"
 2115      00
 2116 074d 000000   		.space	3
 2117              	.LC31:
 2118 0750 256C643A 		.ascii	"%ld:%d \000"
 2118      25642000 
 2119              	.LC32:
 2120 0758 256C643A 		.ascii	"%ld:%d\015\012\015\012\000"
 2120      25640D0A 
 2120      0D0A00
 2121 0763 00       		.space	1
 2122              	.LC33:
 2123 0764 2573202D 		.ascii	"%s - P: %s, I: %s, D: %s\015\012\000"
 2123      20503A20 
 2123      25732C20 
 2123      493A2025 
 2123      732C2044 
 2124 077f 00       		.space	1
 2125              	.LC34:
 2126 0780 0D0A4469 		.ascii	"\015\012Displaying left motor calibration: count/se"
 2126      73706C61 
 2126      79696E67 
 2126      206C6566 
 2126      74206D6F 
 2127 07ad 632C2070 		.ascii	"c, pwm mapping\000"
 2127      776D206D 
 2127      61707069 
 2127      6E6700
 2128              	.LC35:
 2129 07bc 4C656674 		.ascii	"Left-Forward\000"
 2129      2D466F72 
 2129      77617264 
 2129      00
 2130 07c9 000000   		.space	3
 2131              	.LC36:
 2132 07cc 4C656674 		.ascii	"Left-Backward\000"
 2132      2D426163 
 2132      6B776172 
 2132      6400
 2133 07da 0000     		.space	2
 2134              	.LC37:
 2135 07dc 0D0A4469 		.ascii	"\015\012Displaying right motor calibration: count/s"
 2135      73706C61 
 2135      79696E67 
 2135      20726967 
 2135      6874206D 
 2136 0809 65632C20 		.ascii	"ec, pwm mapping\000"
 2136      70776D20 
 2136      6D617070 
ARM GAS  C:\Users\tslator\AppData\Local\Temp\ccHwdKxL.s 			page 57


 2136      696E6700 
 2137 0819 000000   		.space	3
 2138              	.LC38:
 2139 081c 52696768 		.ascii	"Right-Forward\000"
 2139      742D466F 
 2139      72776172 
 2139      6400
 2140 082a 0000     		.space	2
 2141              	.LC39:
 2142 082c 52696768 		.ascii	"Right-Backward\000"
 2142      742D4261 
 2142      636B7761 
 2142      726400
 2143 083b 00       		.space	1
 2144              	.LC40:
 2145 083c 0D0A4469 		.ascii	"\015\012Displaying all PID gains: left, right\000"
 2145      73706C61 
 2145      79696E67 
 2145      20616C6C 
 2145      20504944 
 2146              	.LC41:
 2147 0864 4C656674 		.ascii	"Left PID\000"
 2147      20504944 
 2147      00
 2148 086d 000000   		.space	3
 2149              	.LC42:
 2150 0870 52696768 		.ascii	"Right PID\000"
 2150      74205049 
 2150      4400
 2151 087a 0000     		.space	2
 2152              	.LC43:
 2153 087c 0D0A4469 		.ascii	"\015\012Displaying all calibration/settings\000"
 2153      73706C61 
 2153      79696E67 
 2153      20616C6C 
 2153      2063616C 
 2154 08a2 0000     		.space	2
 2155              	.LC44:
 2156 08a4 4D6F746F 		.ascii	"Motor calibration status not set\015\012\000"
 2156      72206361 
 2156      6C696272 
 2156      6174696F 
 2156      6E207374 
 2157 08c7 00       		.space	1
 2158              	.LC45:
 2159 08c8 494E4954 		.ascii	"INIT STATE\000"
 2159      20535441 
 2159      544500
 2160 08d3 00       		.space	1
 2161              	.LC46:
 2162 08d4 53544152 		.ascii	"START STATE\000"
 2162      54205354 
 2162      41544500 
 2163              	.LC47:
 2164 08e0 52554E4E 		.ascii	"RUNNING STATE\000"
 2164      494E4720 
 2164      53544154 
ARM GAS  C:\Users\tslator\AppData\Local\Temp\ccHwdKxL.s 			page 58


 2164      4500
 2165 08ee 0000     		.space	2
 2166              	.LC48:
 2167 08f0 53544F50 		.ascii	"STOP STATE\000"
 2167      20535441 
 2167      544500
 2168 08fb 00       		.space	1
 2169              	.LC49:
 2170 08fc 52455355 		.ascii	"RESULTS STATE\000"
 2170      4C545320 
 2170      53544154 
 2170      4500
 2171 090a 0000     		.space	2
 2172              	.LC50:
 2173 090c 444F4E45 		.ascii	"DONE STATE\000"
 2173      20535441 
 2173      544500
 2174 0917 00       		.space	1
 2175              	.LC51:
 2176 0918 43414C49 		.ascii	"CALIBRATION\000"
 2176      42524154 
 2176      494F4E00 
 2177              	.LC52:
 2178 0924 56414C49 		.ascii	"VALIDATE\000"
 2178      44415445 
 2178      00
 2179 092d 000000   		.bss
 2180              		.align	2
 2181              		.set	.LANCHOR0,. + 0
 2182              		.type	left_cmd_velocity, %object
 2183              		.size	left_cmd_velocity, 4
 2184              	left_cmd_velocity:
 2185 0000 00000000 		.space	4
 2186              		.type	right_cmd_velocity, %object
 2187              		.size	right_cmd_velocity, 4
 2188              	right_cmd_velocity:
 2189 0004 00000000 		.space	4
 2190              		.type	active_cal, %object
 2191              		.size	active_cal, 4
 2192              	active_cal:
 2193 0008 00000000 		.space	4
 2194              		.type	ui_state, %object
 2195              		.size	ui_state, 1
 2196              	ui_state:
 2197 000c 00       		.space	1
 2198 000d 000000   		.space	3
 2199              		.type	active_val, %object
 2200              		.size	active_val, 4
 2201              	active_val:
 2202 0010 00000000 		.space	4
 2203              		.text
 2204              	.Letext0:
 2205              		.file 2 "c:\\program files (x86)\\cypress\\psoc creator\\3.3\\psoc creator\\import\\gnu\\arm\\4.9.
 2206              		.file 3 "c:\\program files (x86)\\cypress\\psoc creator\\3.3\\psoc creator\\import\\gnu\\arm\\4.9.
 2207              		.file 4 "Generated_Source\\PSoC5/cytypes.h"
 2208              		.file 5 "..\\source\\config.h"
 2209              		.file 6 "..\\source\\calstore.h"
ARM GAS  C:\Users\tslator\AppData\Local\Temp\ccHwdKxL.s 			page 59


 2210              		.file 7 "..\\source\\cal.h"
 2211              		.file 8 "..\\source\\calpid.h"
 2212              		.file 9 "Generated_Source\\PSoC5/core_cm3.h"
 2213              		.file 10 "..\\source\\calmotor.h"
 2214              		.file 11 "..\\source\\callin.h"
 2215              		.file 12 "..\\source\\calang.h"
 2216              		.file 13 "..\\source\\debug.h"
 2217              		.file 14 "..\\source\\serial.h"
 2218              		.file 15 "..\\source\\utils.h"
 2219              		.file 16 "c:\\program files (x86)\\cypress\\psoc creator\\3.3\\psoc creator\\import\\gnu\\arm\\4.9
 2220              		.file 17 "..\\source\\nvstore.h"
 2221              		.file 18 "..\\source\\i2c.h"
 2222              		.file 19 "..\\source\\control.h"
 2223              		.file 20 "c:\\program files (x86)\\cypress\\psoc creator\\3.3\\psoc creator\\import\\gnu\\arm\\4.9