ARM GAS  C:\Users\Tim\AppData\Local\Temp\ccnUoCGf.s 			page 1


   1              		.syntax unified
   2              		.cpu cortex-m3
   3              		.fpu softvfp
   4              		.eabi_attribute 20, 1
   5              		.eabi_attribute 21, 1
   6              		.eabi_attribute 23, 3
   7              		.eabi_attribute 24, 1
   8              		.eabi_attribute 25, 1
   9              		.eabi_attribute 26, 1
  10              		.eabi_attribute 30, 1
  11              		.eabi_attribute 34, 1
  12              		.eabi_attribute 18, 4
  13              		.thumb
  14              		.file	"cal.c"
  15              		.text
  16              	.Ltext0:
  17              		.cfi_sections	.debug_frame
  18              		.section	.text.LeftTarget,"ax",%progbits
  19              		.align	2
  20              		.thumb
  21              		.thumb_func
  22              		.type	LeftTarget, %function
  23              	LeftTarget:
  24              	.LFB63:
  25              		.file 1 "..\\source\\cal.c"
   1:..\source/cal.c **** /* ========================================
   2:..\source/cal.c ****  *
   3:..\source/cal.c ****  * Copyright YOUR COMPANY, THE YEAR
   4:..\source/cal.c ****  * All Rights Reserved
   5:..\source/cal.c ****  * UNPUBLISHED, LICENSED SOFTWARE.
   6:..\source/cal.c ****  *
   7:..\source/cal.c ****  * CONFIDENTIAL AND PROPRIETARY INFORMATION
   8:..\source/cal.c ****  * WHICH IS THE PROPERTY OF your company.
   9:..\source/cal.c ****  *
  10:..\source/cal.c ****  * ========================================
  11:..\source/cal.c **** */
  12:..\source/cal.c **** 
  13:..\source/cal.c **** /*-------------------------------------------------------------------------------------------------
  14:..\source/cal.c ****  * Includes
  15:..\source/cal.c ****  *-------------------------------------------------------------------------------------------------
  16:..\source/cal.c **** #include <stdio.h>
  17:..\source/cal.c **** #include <stdlib.h>
  18:..\source/cal.c **** #include "cal.h"
  19:..\source/cal.c **** #include "motor.h"
  20:..\source/cal.c **** #include "i2c.h"
  21:..\source/cal.c **** #include "pwm.h"
  22:..\source/cal.c **** #include "encoder.h"
  23:..\source/cal.c **** #include "utils.h"
  24:..\source/cal.c **** #include "serial.h"
  25:..\source/cal.c **** #include "pid.h"
  26:..\source/cal.c **** #include "nvstore.h"
  27:..\source/cal.c **** #include "calmotor.h"
  28:..\source/cal.c **** #include "calpid.h"
  29:..\source/cal.c **** #include "callin.h"
  30:..\source/cal.c **** #include "calang.h"
  31:..\source/cal.c **** #include "debug.h"
  32:..\source/cal.c **** #include "control.h"
ARM GAS  C:\Users\Tim\AppData\Local\Temp\ccnUoCGf.s 			page 2


  33:..\source/cal.c **** 
  34:..\source/cal.c **** /*-------------------------------------------------------------------------------------------------
  35:..\source/cal.c ****  * Constants
  36:..\source/cal.c ****  *-------------------------------------------------------------------------------------------------
  37:..\source/cal.c **** 
  38:..\source/cal.c **** /* Calibration interface commands */
  39:..\source/cal.c **** #define NO_CMD              '0'
  40:..\source/cal.c **** #define CAL_REQUEST         'c'
  41:..\source/cal.c **** #define VAL_REQUEST         'v'
  42:..\source/cal.c **** #define SETTING_REQUEST     's'
  43:..\source/cal.c **** #define EXIT_CMD            'x'
  44:..\source/cal.c **** 
  45:..\source/cal.c **** #define MOTOR_CAL_CMD       '1'
  46:..\source/cal.c **** #define PID_LEFT_CAL_CMD    '2'
  47:..\source/cal.c **** #define PID_RIGHT_CAL_CMD   '3'
  48:..\source/cal.c **** 
  49:..\source/cal.c **** #define MOTOR_VAL_CMD           '1'
  50:..\source/cal.c **** #define PID_VAL_CMD             '2'
  51:..\source/cal.c **** #define PID_LEFT_FWD_VAL_CMD    '3'
  52:..\source/cal.c **** #define PID_LEFT_BWD_VAL_CMD    '4'
  53:..\source/cal.c **** #define PID_RIGHT_FWD_VAL_CMD   '5'
  54:..\source/cal.c **** #define PID_RIGHT_BWD_VAL_CMD   '6'
  55:..\source/cal.c **** #define LINEAR_FWD_VAL_CMD      '7'
  56:..\source/cal.c **** #define LINEAR_BWD_VAL_CMD      '8'
  57:..\source/cal.c **** 
  58:..\source/cal.c **** #define MOTOR_LEFT_DISP_CMD  '1'
  59:..\source/cal.c **** #define MOTOR_RIGHT_DISP_CMD '2'
  60:..\source/cal.c **** #define PID_DISP_CMD         '3'
  61:..\source/cal.c **** #define ALL_DISP_CMD         '4'
  62:..\source/cal.c **** 
  63:..\source/cal.c **** /*-------------------------------------------------------------------------------------------------
  64:..\source/cal.c ****  * Types
  65:..\source/cal.c ****  *-------------------------------------------------------------------------------------------------
  66:..\source/cal.c **** typedef enum {UI_STATE_INIT, UI_STATE_CALIBRATION, UI_STATE_VALIDATION, UI_STATE_SETTINGS, UI_STATE
  67:..\source/cal.c **** 
  68:..\source/cal.c **** /*-------------------------------------------------------------------------------------------------
  69:..\source/cal.c ****  * Variables
  70:..\source/cal.c ****  *-------------------------------------------------------------------------------------------------
  71:..\source/cal.c **** 
  72:..\source/cal.c **** char* cal_stage_to_string[] = {"CALIBRATION", "VALIDATE"};
  73:..\source/cal.c **** char* cal_state_to_string[] = {"INIT STATE", "START STATE", "RUNNING STATE", "STOP STATE", "RESULTS
  74:..\source/cal.c **** 
  75:..\source/cal.c **** static UI_STATE_ENUM ui_state;
  76:..\source/cal.c **** 
  77:..\source/cal.c **** static CALIBRATION_TYPE *active_cal;
  78:..\source/cal.c **** static CALIBRATION_TYPE *active_val;
  79:..\source/cal.c **** 
  80:..\source/cal.c **** static float left_cmd_velocity;
  81:..\source/cal.c **** static float right_cmd_velocity;
  82:..\source/cal.c **** 
  83:..\source/cal.c **** /*-------------------------------------------------------------------------------------------------
  84:..\source/cal.c ****  * Functions
  85:..\source/cal.c ****  *-------------------------------------------------------------------------------------------------
  86:..\source/cal.c **** 
  87:..\source/cal.c **** /*-------------------------------------------------------------------------------------------------
  88:..\source/cal.c ****  * Name: LeftTarget/RightTarget
  89:..\source/cal.c ****  * Description: Local functions used to replace the left/right velocity source for calibration/vali
ARM GAS  C:\Users\Tim\AppData\Local\Temp\ccnUoCGf.s 			page 3


  90:..\source/cal.c ****  *              Normally, the left/right velocity is received from the I2C module via the Control
  91:..\source/cal.c ****  *              module.  However, for calibration/validation left/right velocity values under contr
  92:..\source/cal.c ****  *              of the calibration module via Left/RightTarget.
  93:..\source/cal.c ****  * Parameters: None
  94:..\source/cal.c ****  * Return: None
  95:..\source/cal.c ****  * 
  96:..\source/cal.c ****  *-------------------------------------------------------------------------------------------------
  97:..\source/cal.c **** static float LeftTarget()
  98:..\source/cal.c **** {
  26              		.loc 1 98 0
  27              		.cfi_startproc
  28              		@ args = 0, pretend = 0, frame = 0
  29              		@ frame_needed = 0, uses_anonymous_args = 0
  30              		@ link register save eliminated.
  99:..\source/cal.c ****     return left_cmd_velocity;
 100:..\source/cal.c **** }
  31              		.loc 1 100 0
  32 0000 014B     		ldr	r3, .L2
  33 0002 1868     		ldr	r0, [r3]	@ float
  34 0004 7047     		bx	lr
  35              	.L3:
  36 0006 00BF     		.align	2
  37              	.L2:
  38 0008 00000000 		.word	.LANCHOR0
  39              		.cfi_endproc
  40              	.LFE63:
  41              		.size	LeftTarget, .-LeftTarget
  42              		.section	.text.RightTarget,"ax",%progbits
  43              		.align	2
  44              		.thumb
  45              		.thumb_func
  46              		.type	RightTarget, %function
  47              	RightTarget:
  48              	.LFB64:
 101:..\source/cal.c **** 
 102:..\source/cal.c **** static float RightTarget()
 103:..\source/cal.c **** {
  49              		.loc 1 103 0
  50              		.cfi_startproc
  51              		@ args = 0, pretend = 0, frame = 0
  52              		@ frame_needed = 0, uses_anonymous_args = 0
  53              		@ link register save eliminated.
 104:..\source/cal.c ****     return right_cmd_velocity;
 105:..\source/cal.c **** }
  54              		.loc 1 105 0
  55 0000 014B     		ldr	r3, .L5
  56 0002 5868     		ldr	r0, [r3, #4]	@ float
  57 0004 7047     		bx	lr
  58              	.L6:
  59 0006 00BF     		.align	2
  60              	.L5:
  61 0008 00000000 		.word	.LANCHOR0
  62              		.cfi_endproc
  63              	.LFE64:
  64              		.size	RightTarget, .-RightTarget
  65              		.section	.text.DisplayCalMenu,"ax",%progbits
  66              		.align	2
ARM GAS  C:\Users\Tim\AppData\Local\Temp\ccnUoCGf.s 			page 4


  67              		.thumb
  68              		.thumb_func
  69              		.type	DisplayCalMenu, %function
  70              	DisplayCalMenu:
  71              	.LFB69:
 106:..\source/cal.c **** 
 107:..\source/cal.c **** /*-------------------------------------------------------------------------------------------------
 108:..\source/cal.c ****  * Name: ClearCalibrationStatusBit/SetCalibrationStatusBit
 109:..\source/cal.c ****  * Description: Clears/Sets the specified bit in the calibration status register and the EEPROM 
 110:..\source/cal.c ****  *              status field.
 111:..\source/cal.c ****  * Parameters: bit - the bit number to be Cleared/Set - 0 .. 15.
 112:..\source/cal.c ****  * Return: None
 113:..\source/cal.c ****  * 
 114:..\source/cal.c ****  *-------------------------------------------------------------------------------------------------
 115:..\source/cal.c **** void ClearCalibrationStatusBit(uint16 bit)
 116:..\source/cal.c **** {
 117:..\source/cal.c ****     uint16 status = p_cal_eeprom->status &= ~bit;
 118:..\source/cal.c ****     Nvstore_WriteUint16(status, NVSTORE_CAL_EEPROM_ADDR_TO_OFFSET(&p_cal_eeprom->status));
 119:..\source/cal.c ****     I2c_ClearCalibrationStatusBit(bit);
 120:..\source/cal.c **** }
 121:..\source/cal.c **** 
 122:..\source/cal.c **** void SetCalibrationStatusBit(uint16 bit)
 123:..\source/cal.c **** {
 124:..\source/cal.c ****     uint16 status = p_cal_eeprom->status | bit;
 125:..\source/cal.c ****     Nvstore_WriteUint16(status, NVSTORE_CAL_EEPROM_ADDR_TO_OFFSET(&p_cal_eeprom->status));
 126:..\source/cal.c ****     I2c_SetCalibrationStatusBit(bit);   
 127:..\source/cal.c **** }
 128:..\source/cal.c **** 
 129:..\source/cal.c **** 
 130:..\source/cal.c **** /*-------------------------------------------------------------------------------------------------
 131:..\source/cal.c ****  * Calibration Print Routines 
 132:..\source/cal.c ****  *  
 133:..\source/cal.c ****  * Routines used by other calibration modules for printing values to the serial port 
 134:..\source/cal.c ****  *-------------------------------------------------------------------------------------------------
 135:..\source/cal.c **** 
 136:..\source/cal.c **** /*-------------------------------------------------------------------------------------------------
 137:..\source/cal.c ****  * Name: Cal_PrintSamples
 138:..\source/cal.c ****  * Description: Prints the count/sec and pwm samples.  Called from the CalMotor module.
 139:..\source/cal.c ****  * Parameters: label - string containing the motor identifier, e.g., left or right 
 140:..\source/cal.c ****  *             cps_samples - an array of count/sec samples
 141:..\source/cal.c ****  *             pwm_samples - an array of pwm samples
 142:..\source/cal.c ****  *             Note: Array size is given by CAL_NUM_SAMPLES
 143:..\source/cal.c ****  * Return: None
 144:..\source/cal.c ****  * 
 145:..\source/cal.c ****  *-------------------------------------------------------------------------------------------------
 146:..\source/cal.c **** void Cal_PrintSamples(char *label, int32 *cps_samples, uint16 *pwm_samples)
 147:..\source/cal.c **** {
 148:..\source/cal.c ****     uint8 ii;
 149:..\source/cal.c ****     char  buffer[100];
 150:..\source/cal.c ****     char label_str[20];
 151:..\source/cal.c ****     
 152:..\source/cal.c ****     sprintf(label_str, "%s\r\n", label);
 153:..\source/cal.c ****     Ser_PutString(label_str);
 154:..\source/cal.c ****     
 155:..\source/cal.c ****     for (ii = 0; ii < CAL_NUM_SAMPLES - 1; ++ii)
 156:..\source/cal.c ****     {
 157:..\source/cal.c ****         sprintf(buffer, "%ld:%d ", cps_samples[ii], pwm_samples[ii]);
ARM GAS  C:\Users\Tim\AppData\Local\Temp\ccnUoCGf.s 			page 5


 158:..\source/cal.c ****         Ser_PutString(buffer);
 159:..\source/cal.c ****     }
 160:..\source/cal.c ****     sprintf(buffer, "%ld:%d\r\n\r\n", cps_samples[ii], pwm_samples[ii]);
 161:..\source/cal.c ****     Ser_PutString(buffer);
 162:..\source/cal.c **** }
 163:..\source/cal.c **** 
 164:..\source/cal.c **** /*-------------------------------------------------------------------------------------------------
 165:..\source/cal.c ****  * Name: Cal_PrintGains
 166:..\source/cal.c ****  * Description: Prints the PID gains.  Called from the CalPid module.
 167:..\source/cal.c ****  * Parameters: label - string containing the pid identifier, e.g., left pid or right pid. 
 168:..\source/cal.c ****  *             gains - an array of float values corresponding to Kp, Ki, and Kd. 
 169:..\source/cal.c ****  * Return: None
 170:..\source/cal.c ****  * 
 171:..\source/cal.c ****  *-------------------------------------------------------------------------------------------------
 172:..\source/cal.c **** void Cal_PrintGains(char *label, float *gains)
 173:..\source/cal.c **** {
 174:..\source/cal.c ****     char output[64];
 175:..\source/cal.c ****     char pgain_str[10];
 176:..\source/cal.c ****     char igain_str[10];
 177:..\source/cal.c ****     char dgain_str[10];
 178:..\source/cal.c ****     
 179:..\source/cal.c ****     ftoa(gains[0], pgain_str, 3);
 180:..\source/cal.c ****     ftoa(gains[1], igain_str, 3);
 181:..\source/cal.c ****     ftoa(gains[2], dgain_str, 3);
 182:..\source/cal.c ****     
 183:..\source/cal.c ****     sprintf(output, "%s - P: %s, I: %s, D: %s\r\n", label, pgain_str, igain_str, dgain_str);
 184:..\source/cal.c ****     Ser_PutString(output);
 185:..\source/cal.c **** }
 186:..\source/cal.c **** 
 187:..\source/cal.c **** /*-------------------------------------------------------------------------------------------------
 188:..\source/cal.c ****  * Calibration Menu Routines 
 189:..\source/cal.c ****  *-------------------------------------------------------------------------------------------------
 190:..\source/cal.c **** 
 191:..\source/cal.c **** /*-------------------------------------------------------------------------------------------------
 192:..\source/cal.c ****  * Name: DisplayCalMenu
 193:..\source/cal.c ****  * Description: Prints the Calibration Menu to the serial port
 194:..\source/cal.c ****  * Parameters: None 
 195:..\source/cal.c ****  * Return: None
 196:..\source/cal.c ****  * 
 197:..\source/cal.c ****  *-------------------------------------------------------------------------------------------------
 198:..\source/cal.c **** static void DisplayCalMenu()
 199:..\source/cal.c **** {
  72              		.loc 1 199 0
  73              		.cfi_startproc
  74              		@ args = 0, pretend = 0, frame = 0
  75              		@ frame_needed = 0, uses_anonymous_args = 0
  76 0000 10B5     		push	{r4, lr}
  77              		.cfi_def_cfa_offset 8
  78              		.cfi_offset 4, -8
  79              		.cfi_offset 14, -4
 200:..\source/cal.c ****     Ser_PutString("\r\nWelcome to the Arlobot calibration interface.\r\n");
  80              		.loc 1 200 0
  81 0002 0E48     		ldr	r0, .L9
  82 0004 FFF7FEFF 		bl	Ser_PutString
  83              	.LVL0:
 201:..\source/cal.c ****     Ser_PutString("The following calibration operations are allowed:\r\n");
  84              		.loc 1 201 0
ARM GAS  C:\Users\Tim\AppData\Local\Temp\ccnUoCGf.s 			page 6


  85 0008 0D48     		ldr	r0, .L9+4
  86 000a FFF7FEFF 		bl	Ser_PutString
  87              	.LVL1:
 202:..\source/cal.c ****     Ser_PutString("    1. Motor Calibration - creates mapping between count/sec and PWM.\r\n");
  88              		.loc 1 202 0
  89 000e 0D48     		ldr	r0, .L9+8
  90 0010 FFF7FEFF 		bl	Ser_PutString
  91              	.LVL2:
 203:..\source/cal.c ****     Ser_PutString("    2. PID Left Calibration - enter gains, execute step input, print velocity re
  92              		.loc 1 203 0
  93 0014 0C48     		ldr	r0, .L9+12
  94 0016 FFF7FEFF 		bl	Ser_PutString
  95              	.LVL3:
 204:..\source/cal.c ****     Ser_PutString("    3. PID Right Calibration - enter gains, execute step input, print velocity r
  96              		.loc 1 204 0
  97 001a 0C48     		ldr	r0, .L9+16
  98 001c FFF7FEFF 		bl	Ser_PutString
  99              	.LVL4:
 205:..\source/cal.c ****     Ser_PutString("\r\n");
 100              		.loc 1 205 0
 101 0020 0B4C     		ldr	r4, .L9+20
 102 0022 2046     		mov	r0, r4
 103 0024 FFF7FEFF 		bl	Ser_PutString
 104              	.LVL5:
 206:..\source/cal.c ****     Ser_PutString("\r\nEnter X to exit calibration\r\n");
 105              		.loc 1 206 0
 106 0028 0A48     		ldr	r0, .L9+24
 107 002a FFF7FEFF 		bl	Ser_PutString
 108              	.LVL6:
 207:..\source/cal.c ****     Ser_PutString("\r\n");
 109              		.loc 1 207 0
 110 002e 2046     		mov	r0, r4
 111 0030 FFF7FEFF 		bl	Ser_PutString
 112              	.LVL7:
 208:..\source/cal.c ****     Ser_PutString("Make an entry [1-3,X]: ");
 113              		.loc 1 208 0
 114 0034 0848     		ldr	r0, .L9+28
 115 0036 FFF7FEFF 		bl	Ser_PutString
 116              	.LVL8:
 117 003a 10BD     		pop	{r4, pc}
 118              	.L10:
 119              		.align	2
 120              	.L9:
 121 003c 00000000 		.word	.LC0
 122 0040 34000000 		.word	.LC1
 123 0044 68000000 		.word	.LC2
 124 0048 B0000000 		.word	.LC3
 125 004c 0C010000 		.word	.LC4
 126 0050 68010000 		.word	.LC5
 127 0054 6C010000 		.word	.LC6
 128 0058 8C010000 		.word	.LC7
 129              		.cfi_endproc
 130              	.LFE69:
 131              		.size	DisplayCalMenu, .-DisplayCalMenu
 132              		.section	.text.DisplayValMenu,"ax",%progbits
 133              		.align	2
 134              		.thumb
ARM GAS  C:\Users\Tim\AppData\Local\Temp\ccnUoCGf.s 			page 7


 135              		.thumb_func
 136              		.type	DisplayValMenu, %function
 137              	DisplayValMenu:
 138              	.LFB70:
 209:..\source/cal.c **** }
 210:..\source/cal.c **** 
 211:..\source/cal.c **** /*-------------------------------------------------------------------------------------------------
 212:..\source/cal.c ****  * Name: DisplayValMenu
 213:..\source/cal.c ****  * Description: Prints the Validation Menu to the serial port
 214:..\source/cal.c ****  * Parameters: None 
 215:..\source/cal.c ****  * Return: None
 216:..\source/cal.c ****  * 
 217:..\source/cal.c ****  *-------------------------------------------------------------------------------------------------
 218:..\source/cal.c **** static void DisplayValMenu()
 219:..\source/cal.c **** {
 139              		.loc 1 219 0
 140              		.cfi_startproc
 141              		@ args = 0, pretend = 0, frame = 0
 142              		@ frame_needed = 0, uses_anonymous_args = 0
 143 0000 10B5     		push	{r4, lr}
 144              		.cfi_def_cfa_offset 8
 145              		.cfi_offset 4, -8
 146              		.cfi_offset 14, -4
 220:..\source/cal.c ****     Ser_PutString("\r\nWelcome to the Arlobot validation interface.\r\n");
 147              		.loc 1 220 0
 148 0002 1648     		ldr	r0, .L13
 149 0004 FFF7FEFF 		bl	Ser_PutString
 150              	.LVL9:
 221:..\source/cal.c ****     Ser_PutString("The following validation operations are allowed:\r\n");
 151              		.loc 1 221 0
 152 0008 1548     		ldr	r0, .L13+4
 153 000a FFF7FEFF 		bl	Ser_PutString
 154              	.LVL10:
 222:..\source/cal.c ****     Ser_PutString("    1. Motor Validation - operates the motors at varying velocities.\r\n");
 155              		.loc 1 222 0
 156 000e 1548     		ldr	r0, .L13+8
 157 0010 FFF7FEFF 		bl	Ser_PutString
 158              	.LVL11:
 223:..\source/cal.c ****     Ser_PutString("    2. PID Validation - operates the motors at varying velocities, moves in a st
 159              		.loc 1 223 0
 160 0014 1448     		ldr	r0, .L13+12
 161 0016 FFF7FEFF 		bl	Ser_PutString
 162              	.LVL12:
 224:..\source/cal.c ****     Ser_PutString("    3. Left PID (forward) Validation - operates the left motor in the forward di
 163              		.loc 1 224 0
 164 001a 1448     		ldr	r0, .L13+16
 165 001c FFF7FEFF 		bl	Ser_PutString
 166              	.LVL13:
 225:..\source/cal.c ****     Ser_PutString("    4. Left PID (backward) Validation - operates the left motor in the backward 
 167              		.loc 1 225 0
 168 0020 1348     		ldr	r0, .L13+20
 169 0022 FFF7FEFF 		bl	Ser_PutString
 170              	.LVL14:
 226:..\source/cal.c ****     Ser_PutString("    5. Right PID (forward) Validation - operates the right motor in the forward 
 171              		.loc 1 226 0
 172 0026 1348     		ldr	r0, .L13+24
 173 0028 FFF7FEFF 		bl	Ser_PutString
ARM GAS  C:\Users\Tim\AppData\Local\Temp\ccnUoCGf.s 			page 8


 174              	.LVL15:
 227:..\source/cal.c ****     Ser_PutString("    6. Right PID (backward) Validation - operates the right motor in the backwar
 175              		.loc 1 227 0
 176 002c 1248     		ldr	r0, .L13+28
 177 002e FFF7FEFF 		bl	Ser_PutString
 178              	.LVL16:
 228:..\source/cal.c ****     Ser_PutString("    7. Straight Line (forward) Validation - operates the robot in the forward di
 179              		.loc 1 228 0
 180 0032 1248     		ldr	r0, .L13+32
 181 0034 FFF7FEFF 		bl	Ser_PutString
 182              	.LVL17:
 229:..\source/cal.c ****     Ser_PutString("    8. Straight Line (backward) Validation - operates the robot in the backward 
 183              		.loc 1 229 0
 184 0038 1148     		ldr	r0, .L13+36
 185 003a FFF7FEFF 		bl	Ser_PutString
 186              	.LVL18:
 230:..\source/cal.c ****     Ser_PutString("\r\n");
 187              		.loc 1 230 0
 188 003e 114C     		ldr	r4, .L13+40
 189 0040 2046     		mov	r0, r4
 190 0042 FFF7FEFF 		bl	Ser_PutString
 191              	.LVL19:
 231:..\source/cal.c ****     Ser_PutString("\r\nEnter X to exit validation\r\n");
 192              		.loc 1 231 0
 193 0046 1048     		ldr	r0, .L13+44
 194 0048 FFF7FEFF 		bl	Ser_PutString
 195              	.LVL20:
 232:..\source/cal.c ****     Ser_PutString("\r\n");
 196              		.loc 1 232 0
 197 004c 2046     		mov	r0, r4
 198 004e FFF7FEFF 		bl	Ser_PutString
 199              	.LVL21:
 233:..\source/cal.c ****     Ser_PutString("Make an entry [1-8,X]: ");
 200              		.loc 1 233 0
 201 0052 0E48     		ldr	r0, .L13+48
 202 0054 FFF7FEFF 		bl	Ser_PutString
 203              	.LVL22:
 204 0058 10BD     		pop	{r4, pc}
 205              	.L14:
 206 005a 00BF     		.align	2
 207              	.L13:
 208 005c A4010000 		.word	.LC8
 209 0060 D8010000 		.word	.LC9
 210 0064 0C020000 		.word	.LC10
 211 0068 54020000 		.word	.LC11
 212 006c C8020000 		.word	.LC12
 213 0070 3C030000 		.word	.LC13
 214 0074 B0030000 		.word	.LC14
 215 0078 24040000 		.word	.LC15
 216 007c 9C040000 		.word	.LC16
 217 0080 18050000 		.word	.LC17
 218 0084 68010000 		.word	.LC5
 219 0088 94050000 		.word	.LC18
 220 008c B4050000 		.word	.LC19
 221              		.cfi_endproc
 222              	.LFE70:
 223              		.size	DisplayValMenu, .-DisplayValMenu
ARM GAS  C:\Users\Tim\AppData\Local\Temp\ccnUoCGf.s 			page 9


 224              		.section	.text.DisplayMenu,"ax",%progbits
 225              		.align	2
 226              		.thumb
 227              		.thumb_func
 228              		.type	DisplayMenu, %function
 229              	DisplayMenu:
 230              	.LFB73:
 234:..\source/cal.c **** }
 235:..\source/cal.c **** 
 236:..\source/cal.c **** /*-------------------------------------------------------------------------------------------------
 237:..\source/cal.c ****  * Name: DisplaySettingsMenu
 238:..\source/cal.c ****  * Description: Prints the settings menu used to display the current calibration state.
 239:..\source/cal.c ****  * Parameters: None
 240:..\source/cal.c ****  * Return: None
 241:..\source/cal.c ****  * 
 242:..\source/cal.c ****  *-------------------------------------------------------------------------------------------------
 243:..\source/cal.c **** static void DisplaySettingsMenu()
 244:..\source/cal.c **** {
 245:..\source/cal.c ****     Ser_PutString("\r\nWelcome to the Arlobot settings display\r\n");
 246:..\source/cal.c ****     Ser_PutString("The following settings can be displayed\r\n");
 247:..\source/cal.c ****     Ser_PutString("    1. Left Motor Calibration\r\n");
 248:..\source/cal.c ****     Ser_PutString("    2. Right Motor Calibration\r\n");
 249:..\source/cal.c ****     Ser_PutString("    3. PID Gains: left pid and right pid\r\n");
 250:..\source/cal.c ****     Ser_PutString("    4. Display All\r\n");
 251:..\source/cal.c ****     Ser_PutString("\r\n");
 252:..\source/cal.c ****     Ser_PutString("\r\nEnter X to exit validation\r\n");
 253:..\source/cal.c ****     Ser_PutString("\r\n");
 254:..\source/cal.c ****     Ser_PutString("Make an entry [1-4,X]: ");
 255:..\source/cal.c **** }
 256:..\source/cal.c **** 
 257:..\source/cal.c **** /*-------------------------------------------------------------------------------------------------
 258:..\source/cal.c ****  * Name: DisplayExit
 259:..\source/cal.c ****  * Description: Prints the exit menu.
 260:..\source/cal.c ****  * Parameters: None
 261:..\source/cal.c ****  * Return: None
 262:..\source/cal.c ****  * 
 263:..\source/cal.c ****  *-------------------------------------------------------------------------------------------------
 264:..\source/cal.c **** static void DisplayExit()
 265:..\source/cal.c **** {
 266:..\source/cal.c ****     Ser_PutString("\r\nExiting Arlobot calibration/validation interface.");
 267:..\source/cal.c ****     Ser_PutString("\r\nType 'C' to enter calibration, 'V' to enter validation, 'D' to display setti
 268:..\source/cal.c **** }
 269:..\source/cal.c **** 
 270:..\source/cal.c **** /*-------------------------------------------------------------------------------------------------
 271:..\source/cal.c ****  * Name: DisplayMenu
 272:..\source/cal.c ****  * Description: Displays a menu, either calibration or validation, depending on the stage
 273:..\source/cal.c ****  * Parameters: stage - the current calibration/validation stage 
 274:..\source/cal.c ****  * Return: None
 275:..\source/cal.c ****  * 
 276:..\source/cal.c ****  *-------------------------------------------------------------------------------------------------
 277:..\source/cal.c **** static void DisplayMenu(CAL_STAGE_TYPE stage)
 278:..\source/cal.c **** {
 231              		.loc 1 278 0
 232              		.cfi_startproc
 233              		@ args = 0, pretend = 0, frame = 0
 234              		@ frame_needed = 0, uses_anonymous_args = 0
 235              	.LVL23:
ARM GAS  C:\Users\Tim\AppData\Local\Temp\ccnUoCGf.s 			page 10


 236 0000 08B5     		push	{r3, lr}
 237              		.cfi_def_cfa_offset 8
 238              		.cfi_offset 3, -8
 239              		.cfi_offset 14, -4
 279:..\source/cal.c ****     debug_control_enabled = 0;
 240              		.loc 1 279 0
 241 0002 0022     		movs	r2, #0
 242 0004 054B     		ldr	r3, .L19
 243 0006 1A80     		strh	r2, [r3]	@ movhi
 280:..\source/cal.c ****     
 281:..\source/cal.c ****     if (stage == CAL_CALIBRATE_STAGE)
 244              		.loc 1 281 0
 245 0008 10B9     		cbnz	r0, .L16
 282:..\source/cal.c ****     {
 283:..\source/cal.c ****         DisplayCalMenu();
 246              		.loc 1 283 0
 247 000a FFF7FEFF 		bl	DisplayCalMenu
 248              	.LVL24:
 249 000e 08BD     		pop	{r3, pc}
 250              	.LVL25:
 251              	.L16:
 284:..\source/cal.c ****     }
 285:..\source/cal.c ****     else if (stage == CAL_VALIDATE_STAGE)
 252              		.loc 1 285 0
 253 0010 0128     		cmp	r0, #1
 254 0012 01D1     		bne	.L15
 286:..\source/cal.c ****     {
 287:..\source/cal.c ****         DisplayValMenu();
 255              		.loc 1 287 0
 256 0014 FFF7FEFF 		bl	DisplayValMenu
 257              	.LVL26:
 258              	.L15:
 259 0018 08BD     		pop	{r3, pc}
 260              	.L20:
 261 001a 00BF     		.align	2
 262              	.L19:
 263 001c 00000000 		.word	debug_control_enabled
 264              		.cfi_endproc
 265              	.LFE73:
 266              		.size	DisplayMenu, .-DisplayMenu
 267              		.section	.text.DisplaySettingsMenu,"ax",%progbits
 268              		.align	2
 269              		.thumb
 270              		.thumb_func
 271              		.type	DisplaySettingsMenu, %function
 272              	DisplaySettingsMenu:
 273              	.LFB71:
 244:..\source/cal.c ****     Ser_PutString("\r\nWelcome to the Arlobot settings display\r\n");
 274              		.loc 1 244 0
 275              		.cfi_startproc
 276              		@ args = 0, pretend = 0, frame = 0
 277              		@ frame_needed = 0, uses_anonymous_args = 0
 278 0000 10B5     		push	{r4, lr}
 279              		.cfi_def_cfa_offset 8
 280              		.cfi_offset 4, -8
 281              		.cfi_offset 14, -4
 245:..\source/cal.c ****     Ser_PutString("The following settings can be displayed\r\n");
ARM GAS  C:\Users\Tim\AppData\Local\Temp\ccnUoCGf.s 			page 11


 282              		.loc 1 245 0
 283 0002 1048     		ldr	r0, .L23
 284 0004 FFF7FEFF 		bl	Ser_PutString
 285              	.LVL27:
 246:..\source/cal.c ****     Ser_PutString("    1. Left Motor Calibration\r\n");
 286              		.loc 1 246 0
 287 0008 0F48     		ldr	r0, .L23+4
 288 000a FFF7FEFF 		bl	Ser_PutString
 289              	.LVL28:
 247:..\source/cal.c ****     Ser_PutString("    2. Right Motor Calibration\r\n");
 290              		.loc 1 247 0
 291 000e 0F48     		ldr	r0, .L23+8
 292 0010 FFF7FEFF 		bl	Ser_PutString
 293              	.LVL29:
 248:..\source/cal.c ****     Ser_PutString("    3. PID Gains: left pid and right pid\r\n");
 294              		.loc 1 248 0
 295 0014 0E48     		ldr	r0, .L23+12
 296 0016 FFF7FEFF 		bl	Ser_PutString
 297              	.LVL30:
 249:..\source/cal.c ****     Ser_PutString("    4. Display All\r\n");
 298              		.loc 1 249 0
 299 001a 0E48     		ldr	r0, .L23+16
 300 001c FFF7FEFF 		bl	Ser_PutString
 301              	.LVL31:
 250:..\source/cal.c ****     Ser_PutString("\r\n");
 302              		.loc 1 250 0
 303 0020 0D48     		ldr	r0, .L23+20
 304 0022 FFF7FEFF 		bl	Ser_PutString
 305              	.LVL32:
 251:..\source/cal.c ****     Ser_PutString("\r\nEnter X to exit validation\r\n");
 306              		.loc 1 251 0
 307 0026 0D4C     		ldr	r4, .L23+24
 308 0028 2046     		mov	r0, r4
 309 002a FFF7FEFF 		bl	Ser_PutString
 310              	.LVL33:
 252:..\source/cal.c ****     Ser_PutString("\r\n");
 311              		.loc 1 252 0
 312 002e 0C48     		ldr	r0, .L23+28
 313 0030 FFF7FEFF 		bl	Ser_PutString
 314              	.LVL34:
 253:..\source/cal.c ****     Ser_PutString("Make an entry [1-4,X]: ");
 315              		.loc 1 253 0
 316 0034 2046     		mov	r0, r4
 317 0036 FFF7FEFF 		bl	Ser_PutString
 318              	.LVL35:
 254:..\source/cal.c **** }
 319              		.loc 1 254 0
 320 003a 0A48     		ldr	r0, .L23+32
 321 003c FFF7FEFF 		bl	Ser_PutString
 322              	.LVL36:
 323 0040 10BD     		pop	{r4, pc}
 324              	.L24:
 325 0042 00BF     		.align	2
 326              	.L23:
 327 0044 CC050000 		.word	.LC20
 328 0048 F8050000 		.word	.LC21
 329 004c 24060000 		.word	.LC22
ARM GAS  C:\Users\Tim\AppData\Local\Temp\ccnUoCGf.s 			page 12


 330 0050 44060000 		.word	.LC23
 331 0054 68060000 		.word	.LC24
 332 0058 94060000 		.word	.LC25
 333 005c 68010000 		.word	.LC5
 334 0060 94050000 		.word	.LC18
 335 0064 AC060000 		.word	.LC26
 336              		.cfi_endproc
 337              	.LFE71:
 338              		.size	DisplaySettingsMenu, .-DisplaySettingsMenu
 339              		.section	.text.HandleError,"ax",%progbits
 340              		.align	2
 341              		.thumb
 342              		.thumb_func
 343              		.type	HandleError, %function
 344              	HandleError:
 345              	.LFB78:
 288:..\source/cal.c ****     }
 289:..\source/cal.c **** 
 290:..\source/cal.c **** }
 291:..\source/cal.c **** 
 292:..\source/cal.c **** /*-------------------------------------------------------------------------------------------------
 293:..\source/cal.c ****  * Name: ProcessSettingsCmd
 294:..\source/cal.c ****  * Description: Processes the setting command request to display the requested calibration values
 295:..\source/cal.c ****  * Parameters: cmd - the calibration/validation command requested
 296:..\source/cal.c ****  * Return: None
 297:..\source/cal.c ****  * 
 298:..\source/cal.c ****  *-------------------------------------------------------------------------------------------------
 299:..\source/cal.c **** static void ProcessSettingsCmd(uint8 cmd)
 300:..\source/cal.c **** {
 301:..\source/cal.c ****     switch (cmd)
 302:..\source/cal.c ****     {
 303:..\source/cal.c ****         case MOTOR_LEFT_DISP_CMD:
 304:..\source/cal.c ****             Ser_WriteByte(cmd);
 305:..\source/cal.c ****             Ser_PutString("\r\nDisplaying left motor calibration: count/sec, pwm mapping");
 306:..\source/cal.c ****             Ser_PutString("\r\n");
 307:..\source/cal.c ****             Cal_PrintSamples("Left-Forward", (int32 *) p_cal_eeprom->left_motor_fwd.cps_data, (uint
 308:..\source/cal.c ****             Cal_PrintSamples("Left-Backward", (int32 *) p_cal_eeprom->left_motor_bwd.cps_data, (uin
 309:..\source/cal.c ****             Ser_PutString("\r\n");
 310:..\source/cal.c ****             
 311:..\source/cal.c ****             DisplaySettingsMenu();
 312:..\source/cal.c ****             break;
 313:..\source/cal.c ****             
 314:..\source/cal.c ****         case MOTOR_RIGHT_DISP_CMD:
 315:..\source/cal.c ****             Ser_WriteByte(cmd);
 316:..\source/cal.c ****             Ser_PutString("\r\nDisplaying right motor calibration: count/sec, pwm mapping");
 317:..\source/cal.c ****             Ser_PutString("\r\n");
 318:..\source/cal.c ****             Cal_PrintSamples("Right-Forward", (int32 *) p_cal_eeprom->right_motor_fwd.cps_data, (ui
 319:..\source/cal.c ****             Cal_PrintSamples("Right-Backward", (int32 *) p_cal_eeprom->right_motor_bwd.cps_data, (u
 320:..\source/cal.c ****             Ser_PutString("\r\n");
 321:..\source/cal.c ****             
 322:..\source/cal.c ****             DisplaySettingsMenu();
 323:..\source/cal.c ****             break;
 324:..\source/cal.c ****             
 325:..\source/cal.c ****         case PID_DISP_CMD:
 326:..\source/cal.c ****             Ser_WriteByte(cmd);
 327:..\source/cal.c ****             Ser_PutString("\r\nDisplaying all PID gains: left, right");
 328:..\source/cal.c ****             Ser_PutString("\r\n");
ARM GAS  C:\Users\Tim\AppData\Local\Temp\ccnUoCGf.s 			page 13


 329:..\source/cal.c ****             Cal_PrintGains("Left PID", (float *) &p_cal_eeprom->left_gains);
 330:..\source/cal.c ****             Cal_PrintGains("Right PID", (float *) &p_cal_eeprom->right_gains);
 331:..\source/cal.c **** 
 332:..\source/cal.c ****             DisplaySettingsMenu();
 333:..\source/cal.c ****             break;
 334:..\source/cal.c ****             
 335:..\source/cal.c ****         case ALL_DISP_CMD:
 336:..\source/cal.c ****             Ser_WriteByte(cmd);
 337:..\source/cal.c ****             Ser_PutString("\r\nDisplaying all calibration/settings");
 338:..\source/cal.c ****             Ser_PutString("\r\n");
 339:..\source/cal.c **** 
 340:..\source/cal.c ****             DisplaySettingsMenu();
 341:..\source/cal.c ****             break;        
 342:..\source/cal.c ****     }
 343:..\source/cal.c **** }
 344:..\source/cal.c **** 
 345:..\source/cal.c **** /*-------------------------------------------------------------------------------------------------
 346:..\source/cal.c ****  * Name: GetCommand
 347:..\source/cal.c ****  * Description: Gets the calibration/validation/display command from the serial port
 348:..\source/cal.c ****  * Parameters: None
 349:..\source/cal.c ****  * Return: the command entered on the serial port.
 350:..\source/cal.c ****  * 
 351:..\source/cal.c ****  *-------------------------------------------------------------------------------------------------
 352:..\source/cal.c **** static uint8 GetCommand()
 353:..\source/cal.c **** {
 354:..\source/cal.c ****     char value = Ser_ReadByte();
 355:..\source/cal.c ****         
 356:..\source/cal.c ****     switch (value)
 357:..\source/cal.c ****     {
 358:..\source/cal.c ****         case 'c':
 359:..\source/cal.c ****         case 'C':
 360:..\source/cal.c ****             value = CAL_REQUEST;
 361:..\source/cal.c ****             Ser_PutString("Received c command\r\n");
 362:..\source/cal.c ****             break;
 363:..\source/cal.c ****             
 364:..\source/cal.c ****         case 'v':
 365:..\source/cal.c ****         case 'V':
 366:..\source/cal.c ****             value = VAL_REQUEST;
 367:..\source/cal.c ****             Ser_PutString("Received v command\r\n");
 368:..\source/cal.c ****             break;
 369:..\source/cal.c ****             
 370:..\source/cal.c ****         case 'd':
 371:..\source/cal.c ****         case 'D':
 372:..\source/cal.c ****             value = SETTING_REQUEST;
 373:..\source/cal.c ****             Ser_PutString("Received d command\r\n");
 374:..\source/cal.c ****             break;
 375:..\source/cal.c **** 
 376:..\source/cal.c ****         case 'x':
 377:..\source/cal.c ****         case 'X':            
 378:..\source/cal.c ****             value = EXIT_CMD;
 379:..\source/cal.c ****             Ser_PutString("Received x command\r\n");
 380:..\source/cal.c ****             break;
 381:..\source/cal.c ****     }
 382:..\source/cal.c ****     
 383:..\source/cal.c ****     return value;
 384:..\source/cal.c **** }
 385:..\source/cal.c **** 
ARM GAS  C:\Users\Tim\AppData\Local\Temp\ccnUoCGf.s 			page 14


 386:..\source/cal.c **** /*-------------------------------------------------------------------------------------------------
 387:..\source/cal.c ****  * Name: GetCalibration
 388:..\source/cal.c ****  * Description: Gets the calibration specified by command
 389:..\source/cal.c ****  * Parameters: cmd - the requested calibration.
 390:..\source/cal.c ****  * Return: the specified calibration type; otherwise, NULL.
 391:..\source/cal.c ****  * 
 392:..\source/cal.c ****  *-------------------------------------------------------------------------------------------------
 393:..\source/cal.c **** static CALIBRATION_TYPE* GetCalibration(uint8 cmd)
 394:..\source/cal.c **** {
 395:..\source/cal.c ****     CAL_PID_PARAMS *p_pid_params;
 396:..\source/cal.c ****     
 397:..\source/cal.c ****     switch (cmd)
 398:..\source/cal.c ****     {
 399:..\source/cal.c ****         case MOTOR_CAL_CMD:
 400:..\source/cal.c ****             Ser_WriteByte(cmd);
 401:..\source/cal.c ****             CalMotor_Calibration->state = CAL_INIT_STATE;
 402:..\source/cal.c ****             return CalMotor_Calibration;
 403:..\source/cal.c ****             
 404:..\source/cal.c ****         case PID_LEFT_CAL_CMD:
 405:..\source/cal.c ****             Ser_WriteByte(cmd);
 406:..\source/cal.c ****             CalPid_LeftCalibration->state = CAL_INIT_STATE;
 407:..\source/cal.c ****             return CalPid_LeftCalibration;
 408:..\source/cal.c ****             break;
 409:..\source/cal.c **** 
 410:..\source/cal.c ****         case PID_RIGHT_CAL_CMD:
 411:..\source/cal.c ****             Ser_WriteByte(cmd);
 412:..\source/cal.c ****             CalPid_RightCalibration->state = CAL_INIT_STATE;
 413:..\source/cal.c ****             return CalPid_RightCalibration;
 414:..\source/cal.c ****             break;
 415:..\source/cal.c **** 
 416:..\source/cal.c ****         default:
 417:..\source/cal.c ****             break;
 418:..\source/cal.c ****     }
 419:..\source/cal.c ****     
 420:..\source/cal.c ****     return (CALIBRATION_TYPE *) 0;
 421:..\source/cal.c **** }
 422:..\source/cal.c **** 
 423:..\source/cal.c **** /*-------------------------------------------------------------------------------------------------
 424:..\source/cal.c ****  * Name: GetValidation
 425:..\source/cal.c ****  * Description: Gets the validation specified by command
 426:..\source/cal.c ****  * Parameters: cmd - the requested validation.
 427:..\source/cal.c ****  * Return: the specified validation type; otherwise, NULL.
 428:..\source/cal.c ****  * 
 429:..\source/cal.c ****  *-------------------------------------------------------------------------------------------------
 430:..\source/cal.c **** static CALIBRATION_TYPE* GetValidation(uint8 cmd)
 431:..\source/cal.c **** {
 432:..\source/cal.c ****     switch (cmd)
 433:..\source/cal.c ****     {
 434:..\source/cal.c ****         case MOTOR_VAL_CMD:
 435:..\source/cal.c ****             Ser_WriteByte(cmd);
 436:..\source/cal.c ****             Ser_PutString("\r\nPerforming Motor Validation by operating the motors at varying veloc
 437:..\source/cal.c ****             CalMotor_Validation->stage = CAL_VALIDATE_STAGE;
 438:..\source/cal.c ****             CalMotor_Validation->state = CAL_INIT_STATE;
 439:..\source/cal.c ****             return (CALIBRATION_TYPE *) CalMotor_Validation;
 440:..\source/cal.c ****             break;
 441:..\source/cal.c ****             
 442:..\source/cal.c ****         case PID_VAL_CMD:
ARM GAS  C:\Users\Tim\AppData\Local\Temp\ccnUoCGf.s 			page 15


 443:..\source/cal.c ****             Ser_WriteByte(cmd);
 444:..\source/cal.c ****             Ser_PutString("\r\nPerforming Left/Right PID Validation by operating the motors at vary
 445:..\source/cal.c ****             CalPid_LeftValidation->stage = CAL_VALIDATE_STAGE;
 446:..\source/cal.c ****             CalPid_LeftValidation->state = CAL_INIT_STATE;
 447:..\source/cal.c ****             return (CALIBRATION_TYPE *) CalPid_LeftValidation;
 448:..\source/cal.c ****             break;
 449:..\source/cal.c ****                     
 450:..\source/cal.c ****         case PID_LEFT_FWD_VAL_CMD:
 451:..\source/cal.c ****             Ser_WriteByte(cmd);
 452:..\source/cal.c ****             Ser_PutString("\r\nPerforming Left PID validation in the forward direction.\r\n");
 453:..\source/cal.c ****             CalPid_LeftValidation->stage = CAL_VALIDATE_STAGE;
 454:..\source/cal.c ****             CalPid_LeftValidation->state = CAL_INIT_STATE;
 455:..\source/cal.c ****             ((CAL_PID_PARAMS *)(CalPid_LeftValidation->params))->direction = DIR_FORWARD;
 456:..\source/cal.c ****             return (CALIBRATION_TYPE *) CalPid_LeftValidation;
 457:..\source/cal.c ****             break;
 458:..\source/cal.c **** 
 459:..\source/cal.c ****         case PID_LEFT_BWD_VAL_CMD:
 460:..\source/cal.c ****             Ser_WriteByte(cmd);
 461:..\source/cal.c ****             Ser_PutString("\r\nPerforming Left PID validation in the backward direction.\r\n");
 462:..\source/cal.c ****             CalPid_LeftValidation->stage = CAL_VALIDATE_STAGE;
 463:..\source/cal.c ****             CalPid_LeftValidation->state = CAL_INIT_STATE;
 464:..\source/cal.c ****             ((CAL_PID_PARAMS *)(CalPid_LeftValidation->params))->direction = DIR_BACKWARD;
 465:..\source/cal.c ****             return (CALIBRATION_TYPE *) CalPid_LeftValidation;
 466:..\source/cal.c ****             break;
 467:..\source/cal.c **** 
 468:..\source/cal.c ****         case PID_RIGHT_FWD_VAL_CMD:
 469:..\source/cal.c ****             Ser_WriteByte(cmd);
 470:..\source/cal.c ****             Ser_PutString("\r\nPerforming Right PID validation in the forward direction.\r\n");
 471:..\source/cal.c ****             CalPid_RightValidation->stage = CAL_VALIDATE_STAGE;
 472:..\source/cal.c ****             CalPid_RightValidation->state = CAL_INIT_STATE;
 473:..\source/cal.c ****             ((CAL_PID_PARAMS *)(CalPid_RightValidation->params))->direction = DIR_FORWARD;
 474:..\source/cal.c ****             return (CALIBRATION_TYPE *) CalPid_RightValidation;
 475:..\source/cal.c ****             break;
 476:..\source/cal.c **** 
 477:..\source/cal.c ****         case PID_RIGHT_BWD_VAL_CMD:
 478:..\source/cal.c ****             Ser_WriteByte(cmd);
 479:..\source/cal.c ****             Ser_PutString("\r\nPerforming Right PID validation in the backward direction.\r\n");
 480:..\source/cal.c ****             CalPid_RightValidation->stage = CAL_VALIDATE_STAGE;
 481:..\source/cal.c ****             CalPid_RightValidation->state = CAL_INIT_STATE;
 482:..\source/cal.c ****             ((CAL_PID_PARAMS *)(CalPid_RightValidation->params))->direction = DIR_BACKWARD;
 483:..\source/cal.c ****             return (CALIBRATION_TYPE *) CalPid_RightValidation;
 484:..\source/cal.c ****             break;
 485:..\source/cal.c ****                        
 486:..\source/cal.c ****         case LINEAR_FWD_VAL_CMD:
 487:..\source/cal.c ****             Ser_WriteByte(cmd);
 488:..\source/cal.c ****             Ser_PutString("\r\nPerforming straight line validation in the forward direction.\r\n");
 489:..\source/cal.c ****             CalLin_Validation->stage = CAL_VALIDATE_STAGE;
 490:..\source/cal.c ****             CalLin_Validation->state = CAL_INIT_STATE;
 491:..\source/cal.c ****             ((CAL_LIN_PARAMS *)(CalLin_Validation->params))->direction = DIR_FORWARD;
 492:..\source/cal.c ****             return (CALIBRATION_TYPE *) CalLin_Validation;
 493:..\source/cal.c ****             break;
 494:..\source/cal.c ****                 
 495:..\source/cal.c ****         case LINEAR_BWD_VAL_CMD:
 496:..\source/cal.c ****             Ser_WriteByte(cmd);
 497:..\source/cal.c ****             Ser_PutString("\r\nPerforming straight line validation in the backward direction.\r\n")
 498:..\source/cal.c ****             CalLin_Validation->stage = CAL_VALIDATE_STAGE;
 499:..\source/cal.c ****             CalLin_Validation->state = CAL_INIT_STATE;
ARM GAS  C:\Users\Tim\AppData\Local\Temp\ccnUoCGf.s 			page 16


 500:..\source/cal.c ****             ((CAL_LIN_PARAMS *)(CalLin_Validation->params))->direction = DIR_BACKWARD;
 501:..\source/cal.c ****             return (CALIBRATION_TYPE *) CalLin_Validation;
 502:..\source/cal.c ****             break;
 503:..\source/cal.c **** 
 504:..\source/cal.c ****         default:            
 505:..\source/cal.c ****             break;
 506:..\source/cal.c **** 
 507:..\source/cal.c ****     }
 508:..\source/cal.c ****     
 509:..\source/cal.c ****     return (CALIBRATION_TYPE *) 0;
 510:..\source/cal.c **** }
 511:..\source/cal.c **** 
 512:..\source/cal.c **** /*-------------------------------------------------------------------------------------------------
 513:..\source/cal.c ****  * Name: HandleError
 514:..\source/cal.c ****  * Description: Prints an error message to the serial for the specified calibration/validation
 515:..\source/cal.c ****  * Parameters: calval - the requested calibration/validation.
 516:..\source/cal.c ****  * Return: None
 517:..\source/cal.c ****  * 
 518:..\source/cal.c ****  *-------------------------------------------------------------------------------------------------
 519:..\source/cal.c **** static void HandleError(CALIBRATION_TYPE *calval)
 520:..\source/cal.c **** {
 346              		.loc 1 520 0
 347              		.cfi_startproc
 348              		@ args = 0, pretend = 0, frame = 64
 349              		@ frame_needed = 0, uses_anonymous_args = 0
 350              	.LVL37:
 351 0000 10B5     		push	{r4, lr}
 352              		.cfi_def_cfa_offset 8
 353              		.cfi_offset 4, -8
 354              		.cfi_offset 14, -4
 355 0002 90B0     		sub	sp, sp, #64
 356              		.cfi_def_cfa_offset 72
 521:..\source/cal.c ****     char outbuf[64];
 522:..\source/cal.c ****     
 523:..\source/cal.c ****     /* Maybe more can go here, but for now, just print an error */
 524:..\source/cal.c ****     
 525:..\source/cal.c ****     sprintf(outbuf, "Error processing stage %s, state %s\r\n", CAL_STAGE_TO_STRING(calval->stage), 
 357              		.loc 1 525 0
 358 0004 4478     		ldrb	r4, [r0, #1]	@ zero_extendqisi2
 359 0006 0378     		ldrb	r3, [r0]	@ zero_extendqisi2
 360 0008 074A     		ldr	r2, .L27
 361 000a 02EB8303 		add	r3, r2, r3, lsl #2
 362 000e 6846     		mov	r0, sp
 363              	.LVL38:
 364 0010 0649     		ldr	r1, .L27+4
 365 0012 52F82420 		ldr	r2, [r2, r4, lsl #2]
 366 0016 9B68     		ldr	r3, [r3, #8]
 367 0018 FFF7FEFF 		bl	sprintf
 368              	.LVL39:
 526:..\source/cal.c ****     Ser_PutString(outbuf);
 369              		.loc 1 526 0
 370 001c 6846     		mov	r0, sp
 371 001e FFF7FEFF 		bl	Ser_PutString
 372              	.LVL40:
 527:..\source/cal.c **** }
 373              		.loc 1 527 0
 374 0022 10B0     		add	sp, sp, #64
ARM GAS  C:\Users\Tim\AppData\Local\Temp\ccnUoCGf.s 			page 17


 375              		.cfi_def_cfa_offset 8
 376              		@ sp needed
 377 0024 10BD     		pop	{r4, pc}
 378              	.L28:
 379 0026 00BF     		.align	2
 380              	.L27:
 381 0028 00000000 		.word	.LANCHOR1
 382 002c C4060000 		.word	.LC27
 383              		.cfi_endproc
 384              	.LFE78:
 385              		.size	HandleError, .-HandleError
 386              		.section	.text.Process,"ax",%progbits
 387              		.align	2
 388              		.thumb
 389              		.thumb_func
 390              		.type	Process, %function
 391              	Process:
 392              	.LFB79:
 528:..\source/cal.c **** 
 529:..\source/cal.c **** /*-------------------------------------------------------------------------------------------------
 530:..\source/cal.c ****  * Name: Process
 531:..\source/cal.c ****  * Description: The main routine for processing a calibration/validation.  Each calibration/validat
 532:..\source/cal.c ****  *              module provides a common function interface: init, start, update, stop, results. 
 533:..\source/cal.c ****  * Parameters: calval - the requested calibration/validation.
 534:..\source/cal.c ****  * Return: None
 535:..\source/cal.c ****  * 
 536:..\source/cal.c ****  *-------------------------------------------------------------------------------------------------
 537:..\source/cal.c **** static void Process(CALIBRATION_TYPE *calval)
 538:..\source/cal.c **** {
 393              		.loc 1 538 0
 394              		.cfi_startproc
 395              		@ args = 0, pretend = 0, frame = 0
 396              		@ frame_needed = 0, uses_anonymous_args = 0
 397              	.LVL41:
 398 0000 10B5     		push	{r4, lr}
 399              		.cfi_def_cfa_offset 8
 400              		.cfi_offset 4, -8
 401              		.cfi_offset 14, -4
 402 0002 0446     		mov	r4, r0
 539:..\source/cal.c ****     uint8 result;
 540:..\source/cal.c ****     
 541:..\source/cal.c ****     switch (calval->state)
 403              		.loc 1 541 0
 404 0004 0378     		ldrb	r3, [r0]	@ zero_extendqisi2
 405 0006 042B     		cmp	r3, #4
 406 0008 42D8     		bhi	.L30
 407 000a DFE803F0 		tbb	[pc, r3]
 408              	.L32:
 409 000e 03       		.byte	(.L31-.L32)/2
 410 000f 0F       		.byte	(.L33-.L32)/2
 411 0010 1B       		.byte	(.L34-.L32)/2
 412 0011 29       		.byte	(.L35-.L32)/2
 413 0012 35       		.byte	(.L36-.L32)/2
 414 0013 00       		.p2align 1
 415              	.L31:
 542:..\source/cal.c ****     {
 543:..\source/cal.c ****         case CAL_INIT_STATE:
ARM GAS  C:\Users\Tim\AppData\Local\Temp\ccnUoCGf.s 			page 18


 544:..\source/cal.c ****             result = calval->init(calval->stage, calval->params);
 416              		.loc 1 544 0
 417 0014 8368     		ldr	r3, [r0, #8]
 418 0016 4078     		ldrb	r0, [r0, #1]	@ zero_extendqisi2
 419              	.LVL42:
 420 0018 6168     		ldr	r1, [r4, #4]
 421 001a 9847     		blx	r3
 422              	.LVL43:
 545:..\source/cal.c ****             if (result == CAL_OK)
 423              		.loc 1 545 0
 424 001c 10B9     		cbnz	r0, .L37
 546:..\source/cal.c ****             {
 547:..\source/cal.c ****                 calval->state = CAL_START_STATE;
 425              		.loc 1 547 0
 426 001e 0123     		movs	r3, #1
 427 0020 2370     		strb	r3, [r4]
 428 0022 10BD     		pop	{r4, pc}
 429              	.LVL44:
 430              	.L37:
 548:..\source/cal.c ****             }
 549:..\source/cal.c ****             else
 550:..\source/cal.c ****             {
 551:..\source/cal.c ****                 HandleError(calval);
 431              		.loc 1 551 0
 432 0024 2046     		mov	r0, r4
 433              	.LVL45:
 434 0026 FFF7FEFF 		bl	HandleError
 435              	.LVL46:
 436 002a 10BD     		pop	{r4, pc}
 437              	.LVL47:
 438              	.L33:
 552:..\source/cal.c ****             }
 553:..\source/cal.c ****             break;
 554:..\source/cal.c ****             
 555:..\source/cal.c ****         case CAL_START_STATE:
 556:..\source/cal.c ****             result = calval->start(calval->stage, calval->params);
 439              		.loc 1 556 0
 440 002c C368     		ldr	r3, [r0, #12]
 441 002e 4078     		ldrb	r0, [r0, #1]	@ zero_extendqisi2
 442              	.LVL48:
 443 0030 6168     		ldr	r1, [r4, #4]
 444 0032 9847     		blx	r3
 445              	.LVL49:
 557:..\source/cal.c ****             if (result == CAL_OK)
 446              		.loc 1 557 0
 447 0034 10B9     		cbnz	r0, .L39
 558:..\source/cal.c ****             {
 559:..\source/cal.c ****                 calval->state = CAL_RUNNING_STATE;
 448              		.loc 1 559 0
 449 0036 0223     		movs	r3, #2
 450 0038 2370     		strb	r3, [r4]
 451 003a 10BD     		pop	{r4, pc}
 452              	.LVL50:
 453              	.L39:
 560:..\source/cal.c ****             }
 561:..\source/cal.c ****             else
 562:..\source/cal.c ****             {
ARM GAS  C:\Users\Tim\AppData\Local\Temp\ccnUoCGf.s 			page 19


 563:..\source/cal.c ****                 HandleError(calval);
 454              		.loc 1 563 0
 455 003c 2046     		mov	r0, r4
 456              	.LVL51:
 457 003e FFF7FEFF 		bl	HandleError
 458              	.LVL52:
 459 0042 10BD     		pop	{r4, pc}
 460              	.LVL53:
 461              	.L34:
 564:..\source/cal.c ****             }
 565:..\source/cal.c ****             break;
 566:..\source/cal.c ****             
 567:..\source/cal.c ****         case CAL_RUNNING_STATE:
 568:..\source/cal.c ****             result = calval->update(calval->stage, calval->params);
 462              		.loc 1 568 0
 463 0044 0369     		ldr	r3, [r0, #16]
 464 0046 4078     		ldrb	r0, [r0, #1]	@ zero_extendqisi2
 465              	.LVL54:
 466 0048 6168     		ldr	r1, [r4, #4]
 467 004a 9847     		blx	r3
 468              	.LVL55:
 569:..\source/cal.c ****             if (result == CAL_COMPLETE)
 469              		.loc 1 569 0
 470 004c 0128     		cmp	r0, #1
 471 004e 02D1     		bne	.L40
 570:..\source/cal.c ****             {
 571:..\source/cal.c ****                 calval->state = CAL_STOP_STATE;
 472              		.loc 1 571 0
 473 0050 0323     		movs	r3, #3
 474 0052 2370     		strb	r3, [r4]
 475 0054 10BD     		pop	{r4, pc}
 476              	.LVL56:
 477              	.L40:
 572:..\source/cal.c ****             }
 573:..\source/cal.c ****             else if (result == CAL_OK)
 478              		.loc 1 573 0
 479 0056 10B3     		cbz	r0, .L29
 574:..\source/cal.c ****             {
 575:..\source/cal.c ****                 /* Figure out how to output a progress indication ... that will work for all calibr
 576:..\source/cal.c ****             }
 577:..\source/cal.c ****             else
 578:..\source/cal.c ****             {
 579:..\source/cal.c ****                 HandleError(calval);
 480              		.loc 1 579 0
 481 0058 2046     		mov	r0, r4
 482              	.LVL57:
 483 005a FFF7FEFF 		bl	HandleError
 484              	.LVL58:
 485 005e 10BD     		pop	{r4, pc}
 486              	.LVL59:
 487              	.L35:
 580:..\source/cal.c ****             }
 581:..\source/cal.c ****             break;
 582:..\source/cal.c ****             
 583:..\source/cal.c ****         case CAL_STOP_STATE:
 584:..\source/cal.c ****             result = calval->stop(calval->stage, calval->params);
 488              		.loc 1 584 0
ARM GAS  C:\Users\Tim\AppData\Local\Temp\ccnUoCGf.s 			page 20


 489 0060 4369     		ldr	r3, [r0, #20]
 490 0062 4078     		ldrb	r0, [r0, #1]	@ zero_extendqisi2
 491              	.LVL60:
 492 0064 6168     		ldr	r1, [r4, #4]
 493 0066 9847     		blx	r3
 494              	.LVL61:
 585:..\source/cal.c ****             if (result == CAL_OK)
 495              		.loc 1 585 0
 496 0068 10B9     		cbnz	r0, .L41
 586:..\source/cal.c ****             {
 587:..\source/cal.c ****                 calval->state = CAL_RESULTS_STATE;
 497              		.loc 1 587 0
 498 006a 0423     		movs	r3, #4
 499 006c 2370     		strb	r3, [r4]
 500 006e 10BD     		pop	{r4, pc}
 501              	.LVL62:
 502              	.L41:
 588:..\source/cal.c ****             }
 589:..\source/cal.c ****             else
 590:..\source/cal.c ****             {
 591:..\source/cal.c ****                 HandleError(calval);
 503              		.loc 1 591 0
 504 0070 2046     		mov	r0, r4
 505              	.LVL63:
 506 0072 FFF7FEFF 		bl	HandleError
 507              	.LVL64:
 508 0076 10BD     		pop	{r4, pc}
 509              	.LVL65:
 510              	.L36:
 592:..\source/cal.c ****             }
 593:..\source/cal.c ****             break;
 594:..\source/cal.c ****             
 595:..\source/cal.c ****         case CAL_RESULTS_STATE:
 596:..\source/cal.c ****             result = calval->results(calval->stage, calval->params);
 511              		.loc 1 596 0
 512 0078 8369     		ldr	r3, [r0, #24]
 513 007a 4078     		ldrb	r0, [r0, #1]	@ zero_extendqisi2
 514              	.LVL66:
 515 007c 6168     		ldr	r1, [r4, #4]
 516 007e 9847     		blx	r3
 517              	.LVL67:
 597:..\source/cal.c ****             if (result == CAL_OK)
 518              		.loc 1 597 0
 519 0080 10B9     		cbnz	r0, .L42
 598:..\source/cal.c ****             {
 599:..\source/cal.c ****                 calval->state = CAL_DONE_STATE;                
 520              		.loc 1 599 0
 521 0082 0523     		movs	r3, #5
 522 0084 2370     		strb	r3, [r4]
 523 0086 10BD     		pop	{r4, pc}
 524              	.LVL68:
 525              	.L42:
 600:..\source/cal.c ****             }
 601:..\source/cal.c ****             else
 602:..\source/cal.c ****             {
 603:..\source/cal.c ****                 HandleError(calval);
 526              		.loc 1 603 0
ARM GAS  C:\Users\Tim\AppData\Local\Temp\ccnUoCGf.s 			page 21


 527 0088 2046     		mov	r0, r4
 528              	.LVL69:
 529 008a FFF7FEFF 		bl	HandleError
 530              	.LVL70:
 531 008e 10BD     		pop	{r4, pc}
 532              	.LVL71:
 533              	.L30:
 604:..\source/cal.c ****             }
 605:..\source/cal.c ****             break;
 606:..\source/cal.c ****             
 607:..\source/cal.c ****         case CAL_DONE_STATE:
 608:..\source/cal.c ****         default:
 609:..\source/cal.c ****             active_cal = (CALIBRATION_TYPE *) 0;
 534              		.loc 1 609 0
 535 0090 034B     		ldr	r3, .L44
 536 0092 0022     		movs	r2, #0
 537 0094 9A60     		str	r2, [r3, #8]
 610:..\source/cal.c ****             active_val = (CALIBRATION_TYPE *) 0;
 538              		.loc 1 610 0
 539 0096 DA60     		str	r2, [r3, #12]
 611:..\source/cal.c ****             DisplayMenu(calval->stage);
 540              		.loc 1 611 0
 541 0098 4078     		ldrb	r0, [r0, #1]	@ zero_extendqisi2
 542              	.LVL72:
 543 009a FFF7FEFF 		bl	DisplayMenu
 544              	.LVL73:
 545              	.L29:
 546 009e 10BD     		pop	{r4, pc}
 547              	.LVL74:
 548              	.L45:
 549              		.align	2
 550              	.L44:
 551 00a0 00000000 		.word	.LANCHOR0
 552              		.cfi_endproc
 553              	.LFE79:
 554              		.size	Process, .-Process
 555              		.section	.text.DisplayExit,"ax",%progbits
 556              		.align	2
 557              		.thumb
 558              		.thumb_func
 559              		.type	DisplayExit, %function
 560              	DisplayExit:
 561              	.LFB72:
 265:..\source/cal.c ****     Ser_PutString("\r\nExiting Arlobot calibration/validation interface.");
 562              		.loc 1 265 0
 563              		.cfi_startproc
 564              		@ args = 0, pretend = 0, frame = 0
 565              		@ frame_needed = 0, uses_anonymous_args = 0
 566 0000 08B5     		push	{r3, lr}
 567              		.cfi_def_cfa_offset 8
 568              		.cfi_offset 3, -8
 569              		.cfi_offset 14, -4
 266:..\source/cal.c ****     Ser_PutString("\r\nType 'C' to enter calibration, 'V' to enter validation, 'D' to display setti
 570              		.loc 1 266 0
 571 0002 0348     		ldr	r0, .L48
 572 0004 FFF7FEFF 		bl	Ser_PutString
 573              	.LVL75:
ARM GAS  C:\Users\Tim\AppData\Local\Temp\ccnUoCGf.s 			page 22


 267:..\source/cal.c **** }
 574              		.loc 1 267 0
 575 0008 0248     		ldr	r0, .L48+4
 576 000a FFF7FEFF 		bl	Ser_PutString
 577              	.LVL76:
 578 000e 08BD     		pop	{r3, pc}
 579              	.L49:
 580              		.align	2
 581              	.L48:
 582 0010 EC060000 		.word	.LC28
 583 0014 20070000 		.word	.LC29
 584              		.cfi_endproc
 585              	.LFE72:
 586              		.size	DisplayExit, .-DisplayExit
 587              		.section	.text.GetCommand,"ax",%progbits
 588              		.align	2
 589              		.thumb
 590              		.thumb_func
 591              		.type	GetCommand, %function
 592              	GetCommand:
 593              	.LFB75:
 353:..\source/cal.c ****     char value = Ser_ReadByte();
 594              		.loc 1 353 0
 595              		.cfi_startproc
 596              		@ args = 0, pretend = 0, frame = 0
 597              		@ frame_needed = 0, uses_anonymous_args = 0
 598 0000 08B5     		push	{r3, lr}
 599              		.cfi_def_cfa_offset 8
 600              		.cfi_offset 3, -8
 601              		.cfi_offset 14, -4
 354:..\source/cal.c ****         
 602              		.loc 1 354 0
 603 0002 FFF7FEFF 		bl	Ser_ReadByte
 604              	.LVL77:
 356:..\source/cal.c ****     {
 605              		.loc 1 356 0
 606 0006 A0F14303 		sub	r3, r0, #67
 607 000a 352B     		cmp	r3, #53
 608 000c 2FD8     		bhi	.L51
 609 000e DFE803F0 		tbb	[pc, r3]
 610              	.L53:
 611 0012 1B       		.byte	(.L52-.L53)/2
 612 0013 25       		.byte	(.L54-.L53)/2
 613 0014 2E       		.byte	(.L51-.L53)/2
 614 0015 2E       		.byte	(.L51-.L53)/2
 615 0016 2E       		.byte	(.L51-.L53)/2
 616 0017 2E       		.byte	(.L51-.L53)/2
 617 0018 2E       		.byte	(.L51-.L53)/2
 618 0019 2E       		.byte	(.L51-.L53)/2
 619 001a 2E       		.byte	(.L51-.L53)/2
 620 001b 2E       		.byte	(.L51-.L53)/2
 621 001c 2E       		.byte	(.L51-.L53)/2
 622 001d 2E       		.byte	(.L51-.L53)/2
 623 001e 2E       		.byte	(.L51-.L53)/2
 624 001f 2E       		.byte	(.L51-.L53)/2
 625 0020 2E       		.byte	(.L51-.L53)/2
 626 0021 2E       		.byte	(.L51-.L53)/2
ARM GAS  C:\Users\Tim\AppData\Local\Temp\ccnUoCGf.s 			page 23


 627 0022 2E       		.byte	(.L51-.L53)/2
 628 0023 2E       		.byte	(.L51-.L53)/2
 629 0024 2E       		.byte	(.L51-.L53)/2
 630 0025 20       		.byte	(.L55-.L53)/2
 631 0026 2E       		.byte	(.L51-.L53)/2
 632 0027 2A       		.byte	(.L56-.L53)/2
 633 0028 2E       		.byte	(.L51-.L53)/2
 634 0029 2E       		.byte	(.L51-.L53)/2
 635 002a 2E       		.byte	(.L51-.L53)/2
 636 002b 2E       		.byte	(.L51-.L53)/2
 637 002c 2E       		.byte	(.L51-.L53)/2
 638 002d 2E       		.byte	(.L51-.L53)/2
 639 002e 2E       		.byte	(.L51-.L53)/2
 640 002f 2E       		.byte	(.L51-.L53)/2
 641 0030 2E       		.byte	(.L51-.L53)/2
 642 0031 2E       		.byte	(.L51-.L53)/2
 643 0032 1B       		.byte	(.L52-.L53)/2
 644 0033 25       		.byte	(.L54-.L53)/2
 645 0034 2E       		.byte	(.L51-.L53)/2
 646 0035 2E       		.byte	(.L51-.L53)/2
 647 0036 2E       		.byte	(.L51-.L53)/2
 648 0037 2E       		.byte	(.L51-.L53)/2
 649 0038 2E       		.byte	(.L51-.L53)/2
 650 0039 2E       		.byte	(.L51-.L53)/2
 651 003a 2E       		.byte	(.L51-.L53)/2
 652 003b 2E       		.byte	(.L51-.L53)/2
 653 003c 2E       		.byte	(.L51-.L53)/2
 654 003d 2E       		.byte	(.L51-.L53)/2
 655 003e 2E       		.byte	(.L51-.L53)/2
 656 003f 2E       		.byte	(.L51-.L53)/2
 657 0040 2E       		.byte	(.L51-.L53)/2
 658 0041 2E       		.byte	(.L51-.L53)/2
 659 0042 2E       		.byte	(.L51-.L53)/2
 660 0043 2E       		.byte	(.L51-.L53)/2
 661 0044 2E       		.byte	(.L51-.L53)/2
 662 0045 20       		.byte	(.L55-.L53)/2
 663 0046 2E       		.byte	(.L51-.L53)/2
 664 0047 2A       		.byte	(.L56-.L53)/2
 665              		.p2align 1
 666              	.L52:
 667              	.LVL78:
 361:..\source/cal.c ****             break;
 668              		.loc 1 361 0
 669 0048 0948     		ldr	r0, .L58
 670 004a FFF7FEFF 		bl	Ser_PutString
 671              	.LVL79:
 360:..\source/cal.c ****             Ser_PutString("Received c command\r\n");
 672              		.loc 1 360 0
 673 004e 6320     		movs	r0, #99
 362:..\source/cal.c ****             
 674              		.loc 1 362 0
 675 0050 08BD     		pop	{r3, pc}
 676              	.LVL80:
 677              	.L55:
 367:..\source/cal.c ****             break;
 678              		.loc 1 367 0
 679 0052 0848     		ldr	r0, .L58+4
ARM GAS  C:\Users\Tim\AppData\Local\Temp\ccnUoCGf.s 			page 24


 680 0054 FFF7FEFF 		bl	Ser_PutString
 681              	.LVL81:
 366:..\source/cal.c ****             Ser_PutString("Received v command\r\n");
 682              		.loc 1 366 0
 683 0058 7620     		movs	r0, #118
 368:..\source/cal.c ****             
 684              		.loc 1 368 0
 685 005a 08BD     		pop	{r3, pc}
 686              	.LVL82:
 687              	.L54:
 373:..\source/cal.c ****             break;
 688              		.loc 1 373 0
 689 005c 0648     		ldr	r0, .L58+8
 690 005e FFF7FEFF 		bl	Ser_PutString
 691              	.LVL83:
 372:..\source/cal.c ****             Ser_PutString("Received d command\r\n");
 692              		.loc 1 372 0
 693 0062 7320     		movs	r0, #115
 374:..\source/cal.c **** 
 694              		.loc 1 374 0
 695 0064 08BD     		pop	{r3, pc}
 696              	.LVL84:
 697              	.L56:
 379:..\source/cal.c ****             break;
 698              		.loc 1 379 0
 699 0066 0548     		ldr	r0, .L58+12
 700 0068 FFF7FEFF 		bl	Ser_PutString
 701              	.LVL85:
 378:..\source/cal.c ****             Ser_PutString("Received x command\r\n");
 702              		.loc 1 378 0
 703 006c 7820     		movs	r0, #120
 704              	.LVL86:
 705              	.L51:
 384:..\source/cal.c **** 
 706              		.loc 1 384 0
 707 006e 08BD     		pop	{r3, pc}
 708              	.L59:
 709              		.align	2
 710              	.L58:
 711 0070 74070000 		.word	.LC30
 712 0074 8C070000 		.word	.LC31
 713 0078 A4070000 		.word	.LC32
 714 007c BC070000 		.word	.LC33
 715              		.cfi_endproc
 716              	.LFE75:
 717              		.size	GetCommand, .-GetCommand
 718              		.section	.text.GetCalibration,"ax",%progbits
 719              		.align	2
 720              		.thumb
 721              		.thumb_func
 722              		.type	GetCalibration, %function
 723              	GetCalibration:
 724              	.LFB76:
 394:..\source/cal.c ****     CAL_PID_PARAMS *p_pid_params;
 725              		.loc 1 394 0
 726              		.cfi_startproc
 727              		@ args = 0, pretend = 0, frame = 0
ARM GAS  C:\Users\Tim\AppData\Local\Temp\ccnUoCGf.s 			page 25


 728              		@ frame_needed = 0, uses_anonymous_args = 0
 729              	.LVL87:
 730 0000 08B5     		push	{r3, lr}
 731              		.cfi_def_cfa_offset 8
 732              		.cfi_offset 3, -8
 733              		.cfi_offset 14, -4
 397:..\source/cal.c ****     {
 734              		.loc 1 397 0
 735 0002 3228     		cmp	r0, #50
 736 0004 0BD0     		beq	.L62
 737 0006 3328     		cmp	r0, #51
 738 0008 11D0     		beq	.L63
 739 000a 3128     		cmp	r0, #49
 740 000c 17D1     		bne	.L66
 400:..\source/cal.c ****             CalMotor_Calibration->state = CAL_INIT_STATE;
 741              		.loc 1 400 0
 742 000e FFF7FEFF 		bl	Ser_WriteByte
 743              	.LVL88:
 401:..\source/cal.c ****             return CalMotor_Calibration;
 744              		.loc 1 401 0
 745 0012 0C4B     		ldr	r3, .L68
 746 0014 1A68     		ldr	r2, [r3]
 747 0016 0021     		movs	r1, #0
 748 0018 1170     		strb	r1, [r2]
 402:..\source/cal.c ****             
 749              		.loc 1 402 0
 750 001a 1868     		ldr	r0, [r3]
 751 001c 08BD     		pop	{r3, pc}
 752              	.LVL89:
 753              	.L62:
 405:..\source/cal.c ****             CalPid_LeftCalibration->state = CAL_INIT_STATE;
 754              		.loc 1 405 0
 755 001e FFF7FEFF 		bl	Ser_WriteByte
 756              	.LVL90:
 406:..\source/cal.c ****             return CalPid_LeftCalibration;
 757              		.loc 1 406 0
 758 0022 094B     		ldr	r3, .L68+4
 759 0024 1A68     		ldr	r2, [r3]
 760 0026 0021     		movs	r1, #0
 761 0028 1170     		strb	r1, [r2]
 407:..\source/cal.c ****             break;
 762              		.loc 1 407 0
 763 002a 1868     		ldr	r0, [r3]
 764 002c 08BD     		pop	{r3, pc}
 765              	.LVL91:
 766              	.L63:
 411:..\source/cal.c ****             CalPid_RightCalibration->state = CAL_INIT_STATE;
 767              		.loc 1 411 0
 768 002e FFF7FEFF 		bl	Ser_WriteByte
 769              	.LVL92:
 412:..\source/cal.c ****             return CalPid_RightCalibration;
 770              		.loc 1 412 0
 771 0032 064B     		ldr	r3, .L68+8
 772 0034 1A68     		ldr	r2, [r3]
 773 0036 0021     		movs	r1, #0
 774 0038 1170     		strb	r1, [r2]
 413:..\source/cal.c ****             break;
ARM GAS  C:\Users\Tim\AppData\Local\Temp\ccnUoCGf.s 			page 26


 775              		.loc 1 413 0
 776 003a 1868     		ldr	r0, [r3]
 777 003c 08BD     		pop	{r3, pc}
 778              	.LVL93:
 779              	.L66:
 420:..\source/cal.c **** }
 780              		.loc 1 420 0
 781 003e 0020     		movs	r0, #0
 782              	.LVL94:
 421:..\source/cal.c **** 
 783              		.loc 1 421 0
 784 0040 08BD     		pop	{r3, pc}
 785              	.L69:
 786 0042 00BF     		.align	2
 787              	.L68:
 788 0044 00000000 		.word	CalMotor_Calibration
 789 0048 00000000 		.word	CalPid_LeftCalibration
 790 004c 00000000 		.word	CalPid_RightCalibration
 791              		.cfi_endproc
 792              	.LFE76:
 793              		.size	GetCalibration, .-GetCalibration
 794              		.section	.text.GetValidation,"ax",%progbits
 795              		.align	2
 796              		.thumb
 797              		.thumb_func
 798              		.type	GetValidation, %function
 799              	GetValidation:
 800              	.LFB77:
 431:..\source/cal.c ****     switch (cmd)
 801              		.loc 1 431 0
 802              		.cfi_startproc
 803              		@ args = 0, pretend = 0, frame = 0
 804              		@ frame_needed = 0, uses_anonymous_args = 0
 805              	.LVL95:
 806 0000 08B5     		push	{r3, lr}
 807              		.cfi_def_cfa_offset 8
 808              		.cfi_offset 3, -8
 809              		.cfi_offset 14, -4
 432:..\source/cal.c ****     {
 810              		.loc 1 432 0
 811 0002 A0F13103 		sub	r3, r0, #49
 812 0006 072B     		cmp	r3, #7
 813 0008 00F28480 		bhi	.L81
 814 000c DFE803F0 		tbb	[pc, r3]
 815              	.L73:
 816 0010 04       		.byte	(.L72-.L73)/2
 817 0011 12       		.byte	(.L74-.L73)/2
 818 0012 20       		.byte	(.L75-.L73)/2
 819 0013 30       		.byte	(.L76-.L73)/2
 820 0014 40       		.byte	(.L77-.L73)/2
 821 0015 50       		.byte	(.L78-.L73)/2
 822 0016 60       		.byte	(.L79-.L73)/2
 823 0017 71       		.byte	(.L80-.L73)/2
 824              		.p2align 1
 825              	.L72:
 435:..\source/cal.c ****             Ser_PutString("\r\nPerforming Motor Validation by operating the motors at varying veloc
 826              		.loc 1 435 0
ARM GAS  C:\Users\Tim\AppData\Local\Temp\ccnUoCGf.s 			page 27


 827 0018 FFF7FEFF 		bl	Ser_WriteByte
 828              	.LVL96:
 436:..\source/cal.c ****             CalMotor_Validation->stage = CAL_VALIDATE_STAGE;
 829              		.loc 1 436 0
 830 001c 3E48     		ldr	r0, .L83
 831 001e FFF7FEFF 		bl	Ser_PutString
 832              	.LVL97:
 437:..\source/cal.c ****             CalMotor_Validation->state = CAL_INIT_STATE;
 833              		.loc 1 437 0
 834 0022 3E4B     		ldr	r3, .L83+4
 835 0024 1A68     		ldr	r2, [r3]
 836 0026 0121     		movs	r1, #1
 837 0028 5170     		strb	r1, [r2, #1]
 438:..\source/cal.c ****             return (CALIBRATION_TYPE *) CalMotor_Validation;
 838              		.loc 1 438 0
 839 002a 1A68     		ldr	r2, [r3]
 840 002c 0021     		movs	r1, #0
 841 002e 1170     		strb	r1, [r2]
 439:..\source/cal.c ****             break;
 842              		.loc 1 439 0
 843 0030 1868     		ldr	r0, [r3]
 844 0032 08BD     		pop	{r3, pc}
 845              	.LVL98:
 846              	.L74:
 443:..\source/cal.c ****             Ser_PutString("\r\nPerforming Left/Right PID Validation by operating the motors at vary
 847              		.loc 1 443 0
 848 0034 FFF7FEFF 		bl	Ser_WriteByte
 849              	.LVL99:
 444:..\source/cal.c ****             CalPid_LeftValidation->stage = CAL_VALIDATE_STAGE;
 850              		.loc 1 444 0
 851 0038 3948     		ldr	r0, .L83+8
 852 003a FFF7FEFF 		bl	Ser_PutString
 853              	.LVL100:
 445:..\source/cal.c ****             CalPid_LeftValidation->state = CAL_INIT_STATE;
 854              		.loc 1 445 0
 855 003e 394B     		ldr	r3, .L83+12
 856 0040 1A68     		ldr	r2, [r3]
 857 0042 0121     		movs	r1, #1
 858 0044 5170     		strb	r1, [r2, #1]
 446:..\source/cal.c ****             return (CALIBRATION_TYPE *) CalPid_LeftValidation;
 859              		.loc 1 446 0
 860 0046 1A68     		ldr	r2, [r3]
 861 0048 0021     		movs	r1, #0
 862 004a 1170     		strb	r1, [r2]
 447:..\source/cal.c ****             break;
 863              		.loc 1 447 0
 864 004c 1868     		ldr	r0, [r3]
 865 004e 08BD     		pop	{r3, pc}
 866              	.LVL101:
 867              	.L75:
 451:..\source/cal.c ****             Ser_PutString("\r\nPerforming Left PID validation in the forward direction.\r\n");
 868              		.loc 1 451 0
 869 0050 FFF7FEFF 		bl	Ser_WriteByte
 870              	.LVL102:
 452:..\source/cal.c ****             CalPid_LeftValidation->stage = CAL_VALIDATE_STAGE;
 871              		.loc 1 452 0
 872 0054 3448     		ldr	r0, .L83+16
ARM GAS  C:\Users\Tim\AppData\Local\Temp\ccnUoCGf.s 			page 28


 873 0056 FFF7FEFF 		bl	Ser_PutString
 874              	.LVL103:
 453:..\source/cal.c ****             CalPid_LeftValidation->state = CAL_INIT_STATE;
 875              		.loc 1 453 0
 876 005a 324B     		ldr	r3, .L83+12
 877 005c 1A68     		ldr	r2, [r3]
 878 005e 0121     		movs	r1, #1
 879 0060 5170     		strb	r1, [r2, #1]
 454:..\source/cal.c ****             ((CAL_PID_PARAMS *)(CalPid_LeftValidation->params))->direction = DIR_FORWARD;
 880              		.loc 1 454 0
 881 0062 1968     		ldr	r1, [r3]
 882 0064 0022     		movs	r2, #0
 883 0066 0A70     		strb	r2, [r1]
 455:..\source/cal.c ****             return (CALIBRATION_TYPE *) CalPid_LeftValidation;
 884              		.loc 1 455 0
 885 0068 1868     		ldr	r0, [r3]
 886 006a 4368     		ldr	r3, [r0, #4]
 887 006c DA71     		strb	r2, [r3, #7]
 456:..\source/cal.c ****             break;
 888              		.loc 1 456 0
 889 006e 08BD     		pop	{r3, pc}
 890              	.LVL104:
 891              	.L76:
 460:..\source/cal.c ****             Ser_PutString("\r\nPerforming Left PID validation in the backward direction.\r\n");
 892              		.loc 1 460 0
 893 0070 FFF7FEFF 		bl	Ser_WriteByte
 894              	.LVL105:
 461:..\source/cal.c ****             CalPid_LeftValidation->stage = CAL_VALIDATE_STAGE;
 895              		.loc 1 461 0
 896 0074 2D48     		ldr	r0, .L83+20
 897 0076 FFF7FEFF 		bl	Ser_PutString
 898              	.LVL106:
 462:..\source/cal.c ****             CalPid_LeftValidation->state = CAL_INIT_STATE;
 899              		.loc 1 462 0
 900 007a 2A4B     		ldr	r3, .L83+12
 901 007c 1968     		ldr	r1, [r3]
 902 007e 0122     		movs	r2, #1
 903 0080 4A70     		strb	r2, [r1, #1]
 463:..\source/cal.c ****             ((CAL_PID_PARAMS *)(CalPid_LeftValidation->params))->direction = DIR_BACKWARD;
 904              		.loc 1 463 0
 905 0082 1968     		ldr	r1, [r3]
 906 0084 0020     		movs	r0, #0
 907 0086 0870     		strb	r0, [r1]
 464:..\source/cal.c ****             return (CALIBRATION_TYPE *) CalPid_LeftValidation;
 908              		.loc 1 464 0
 909 0088 1868     		ldr	r0, [r3]
 910 008a 4368     		ldr	r3, [r0, #4]
 911 008c DA71     		strb	r2, [r3, #7]
 465:..\source/cal.c ****             break;
 912              		.loc 1 465 0
 913 008e 08BD     		pop	{r3, pc}
 914              	.LVL107:
 915              	.L77:
 469:..\source/cal.c ****             Ser_PutString("\r\nPerforming Right PID validation in the forward direction.\r\n");
 916              		.loc 1 469 0
 917 0090 FFF7FEFF 		bl	Ser_WriteByte
 918              	.LVL108:
ARM GAS  C:\Users\Tim\AppData\Local\Temp\ccnUoCGf.s 			page 29


 470:..\source/cal.c ****             CalPid_RightValidation->stage = CAL_VALIDATE_STAGE;
 919              		.loc 1 470 0
 920 0094 2648     		ldr	r0, .L83+24
 921 0096 FFF7FEFF 		bl	Ser_PutString
 922              	.LVL109:
 471:..\source/cal.c ****             CalPid_RightValidation->state = CAL_INIT_STATE;
 923              		.loc 1 471 0
 924 009a 264B     		ldr	r3, .L83+28
 925 009c 1A68     		ldr	r2, [r3]
 926 009e 0121     		movs	r1, #1
 927 00a0 5170     		strb	r1, [r2, #1]
 472:..\source/cal.c ****             ((CAL_PID_PARAMS *)(CalPid_RightValidation->params))->direction = DIR_FORWARD;
 928              		.loc 1 472 0
 929 00a2 1968     		ldr	r1, [r3]
 930 00a4 0022     		movs	r2, #0
 931 00a6 0A70     		strb	r2, [r1]
 473:..\source/cal.c ****             return (CALIBRATION_TYPE *) CalPid_RightValidation;
 932              		.loc 1 473 0
 933 00a8 1868     		ldr	r0, [r3]
 934 00aa 4368     		ldr	r3, [r0, #4]
 935 00ac DA71     		strb	r2, [r3, #7]
 474:..\source/cal.c ****             break;
 936              		.loc 1 474 0
 937 00ae 08BD     		pop	{r3, pc}
 938              	.LVL110:
 939              	.L78:
 478:..\source/cal.c ****             Ser_PutString("\r\nPerforming Right PID validation in the backward direction.\r\n");
 940              		.loc 1 478 0
 941 00b0 FFF7FEFF 		bl	Ser_WriteByte
 942              	.LVL111:
 479:..\source/cal.c ****             CalPid_RightValidation->stage = CAL_VALIDATE_STAGE;
 943              		.loc 1 479 0
 944 00b4 2048     		ldr	r0, .L83+32
 945 00b6 FFF7FEFF 		bl	Ser_PutString
 946              	.LVL112:
 480:..\source/cal.c ****             CalPid_RightValidation->state = CAL_INIT_STATE;
 947              		.loc 1 480 0
 948 00ba 1E4B     		ldr	r3, .L83+28
 949 00bc 1968     		ldr	r1, [r3]
 950 00be 0122     		movs	r2, #1
 951 00c0 4A70     		strb	r2, [r1, #1]
 481:..\source/cal.c ****             ((CAL_PID_PARAMS *)(CalPid_RightValidation->params))->direction = DIR_BACKWARD;
 952              		.loc 1 481 0
 953 00c2 1968     		ldr	r1, [r3]
 954 00c4 0020     		movs	r0, #0
 955 00c6 0870     		strb	r0, [r1]
 482:..\source/cal.c ****             return (CALIBRATION_TYPE *) CalPid_RightValidation;
 956              		.loc 1 482 0
 957 00c8 1868     		ldr	r0, [r3]
 958 00ca 4368     		ldr	r3, [r0, #4]
 959 00cc DA71     		strb	r2, [r3, #7]
 483:..\source/cal.c ****             break;
 960              		.loc 1 483 0
 961 00ce 08BD     		pop	{r3, pc}
 962              	.LVL113:
 963              	.L79:
 487:..\source/cal.c ****             Ser_PutString("\r\nPerforming straight line validation in the forward direction.\r\n");
ARM GAS  C:\Users\Tim\AppData\Local\Temp\ccnUoCGf.s 			page 30


 964              		.loc 1 487 0
 965 00d0 FFF7FEFF 		bl	Ser_WriteByte
 966              	.LVL114:
 488:..\source/cal.c ****             CalLin_Validation->stage = CAL_VALIDATE_STAGE;
 967              		.loc 1 488 0
 968 00d4 1948     		ldr	r0, .L83+36
 969 00d6 FFF7FEFF 		bl	Ser_PutString
 970              	.LVL115:
 489:..\source/cal.c ****             CalLin_Validation->state = CAL_INIT_STATE;
 971              		.loc 1 489 0
 972 00da 194B     		ldr	r3, .L83+40
 973 00dc 1A68     		ldr	r2, [r3]
 974 00de 0121     		movs	r1, #1
 975 00e0 5170     		strb	r1, [r2, #1]
 490:..\source/cal.c ****             ((CAL_LIN_PARAMS *)(CalLin_Validation->params))->direction = DIR_FORWARD;
 976              		.loc 1 490 0
 977 00e2 1968     		ldr	r1, [r3]
 978 00e4 0022     		movs	r2, #0
 979 00e6 0A70     		strb	r2, [r1]
 491:..\source/cal.c ****             return (CALIBRATION_TYPE *) CalLin_Validation;
 980              		.loc 1 491 0
 981 00e8 1968     		ldr	r1, [r3]
 982 00ea 4968     		ldr	r1, [r1, #4]
 983 00ec 0A70     		strb	r2, [r1]
 492:..\source/cal.c ****             break;
 984              		.loc 1 492 0
 985 00ee 1868     		ldr	r0, [r3]
 986 00f0 08BD     		pop	{r3, pc}
 987              	.LVL116:
 988              	.L80:
 496:..\source/cal.c ****             Ser_PutString("\r\nPerforming straight line validation in the backward direction.\r\n")
 989              		.loc 1 496 0
 990 00f2 FFF7FEFF 		bl	Ser_WriteByte
 991              	.LVL117:
 497:..\source/cal.c ****             CalLin_Validation->stage = CAL_VALIDATE_STAGE;
 992              		.loc 1 497 0
 993 00f6 1348     		ldr	r0, .L83+44
 994 00f8 FFF7FEFF 		bl	Ser_PutString
 995              	.LVL118:
 498:..\source/cal.c ****             CalLin_Validation->state = CAL_INIT_STATE;
 996              		.loc 1 498 0
 997 00fc 104B     		ldr	r3, .L83+40
 998 00fe 1968     		ldr	r1, [r3]
 999 0100 0122     		movs	r2, #1
 1000 0102 4A70     		strb	r2, [r1, #1]
 499:..\source/cal.c ****             ((CAL_LIN_PARAMS *)(CalLin_Validation->params))->direction = DIR_BACKWARD;
 1001              		.loc 1 499 0
 1002 0104 1968     		ldr	r1, [r3]
 1003 0106 0020     		movs	r0, #0
 1004 0108 0870     		strb	r0, [r1]
 500:..\source/cal.c ****             return (CALIBRATION_TYPE *) CalLin_Validation;
 1005              		.loc 1 500 0
 1006 010a 1968     		ldr	r1, [r3]
 1007 010c 4968     		ldr	r1, [r1, #4]
 1008 010e 0A70     		strb	r2, [r1]
 501:..\source/cal.c ****             break;
 1009              		.loc 1 501 0
ARM GAS  C:\Users\Tim\AppData\Local\Temp\ccnUoCGf.s 			page 31


 1010 0110 1868     		ldr	r0, [r3]
 1011 0112 08BD     		pop	{r3, pc}
 1012              	.LVL119:
 1013              	.L81:
 509:..\source/cal.c **** }
 1014              		.loc 1 509 0
 1015 0114 0020     		movs	r0, #0
 1016              	.LVL120:
 510:..\source/cal.c **** 
 1017              		.loc 1 510 0
 1018 0116 08BD     		pop	{r3, pc}
 1019              	.L84:
 1020              		.align	2
 1021              	.L83:
 1022 0118 D4070000 		.word	.LC34
 1023 011c 00000000 		.word	CalMotor_Validation
 1024 0120 24080000 		.word	.LC35
 1025 0124 00000000 		.word	CalPid_LeftValidation
 1026 0128 7C080000 		.word	.LC36
 1027 012c BC080000 		.word	.LC37
 1028 0130 FC080000 		.word	.LC38
 1029 0134 00000000 		.word	CalPid_RightValidation
 1030 0138 3C090000 		.word	.LC39
 1031 013c 7C090000 		.word	.LC40
 1032 0140 00000000 		.word	CalLin_Validation
 1033 0144 C0090000 		.word	.LC41
 1034              		.cfi_endproc
 1035              	.LFE77:
 1036              		.size	GetValidation, .-GetValidation
 1037              		.section	.text.CpsToPwm,"ax",%progbits
 1038              		.align	2
 1039              		.thumb
 1040              		.thumb_func
 1041              		.type	CpsToPwm, %function
 1042              	CpsToPwm:
 1043              	.LFB80:
 612:..\source/cal.c ****             break;
 613:..\source/cal.c ****     }
 614:..\source/cal.c **** }
 615:..\source/cal.c **** 
 616:..\source/cal.c **** /*-------------------------------------------------------------------------------------------------
 617:..\source/cal.c ****  * Name: CpsToPwm
 618:..\source/cal.c ****  * Description: Converts count/sec to PWM 
 619:..\source/cal.c ****  *              This routine searches the count/sec array (cps_data) to find values immediately les
 620:..\source/cal.c ****  *              than and greater than the specified count/sec value (cps) to obtain the correspondi
 621:..\source/cal.c ****  *              indicies - upper/lower.  The indicies are then used to interpolate a PWM value.
 622:..\source/cal.c ****  *  
 623:..\source/cal.c ****  * Parameters: cps       - the specified count/sec
 624:..\source/cal.c ****  *             cps_data  - an array of count/sec values to be searched
 625:..\source/cal.c ****  *             pwm_data  - an array of pwm values for selection
 626:..\source/cal.c ****  *             data_size - the number of values in each array
 627:..\source/cal.c ****  * Return: None
 628:..\source/cal.c ****  * 
 629:..\source/cal.c ****  *-------------------------------------------------------------------------------------------------
 630:..\source/cal.c **** static uint16 CpsToPwm(int32 cps, int32 *cps_data, uint16 *pwm_data, uint8 data_size)
 631:..\source/cal.c **** {   
 1044              		.loc 1 631 0
ARM GAS  C:\Users\Tim\AppData\Local\Temp\ccnUoCGf.s 			page 32


 1045              		.cfi_startproc
 1046              		@ args = 0, pretend = 0, frame = 8
 1047              		@ frame_needed = 0, uses_anonymous_args = 0
 1048              	.LVL121:
 1049 0000 70B5     		push	{r4, r5, r6, lr}
 1050              		.cfi_def_cfa_offset 16
 1051              		.cfi_offset 4, -16
 1052              		.cfi_offset 5, -12
 1053              		.cfi_offset 6, -8
 1054              		.cfi_offset 14, -4
 1055 0002 84B0     		sub	sp, sp, #16
 1056              		.cfi_def_cfa_offset 32
 1057 0004 0C46     		mov	r4, r1
 1058              	.LVL122:
 632:..\source/cal.c ****     PWM_TYPE pwm = PWM_STOP;
 633:..\source/cal.c ****     uint8 lower = 0;
 1059              		.loc 1 633 0
 1060 0006 0021     		movs	r1, #0
 1061              	.LVL123:
 1062 0008 8DF80F10 		strb	r1, [sp, #15]
 634:..\source/cal.c ****     uint8 upper = 0;
 1063              		.loc 1 634 0
 1064 000c 8DF80E10 		strb	r1, [sp, #14]
 635:..\source/cal.c **** 
 636:..\source/cal.c ****     if (cps > 0 || cps < 0)
 1065              		.loc 1 636 0
 1066 0010 58B3     		cbz	r0, .L88
 1067 0012 1646     		mov	r6, r2
 1068 0014 0546     		mov	r5, r0
 637:..\source/cal.c ****     {
 638:..\source/cal.c ****         BinaryRangeSearch(cps, cps_data, data_size, &lower, &upper);
 1069              		.loc 1 638 0
 1070 0016 0DF10E02 		add	r2, sp, #14
 1071              	.LVL124:
 1072 001a 0092     		str	r2, [sp]
 1073 001c 2146     		mov	r1, r4
 1074 001e 1A46     		mov	r2, r3
 1075 0020 0DF10F03 		add	r3, sp, #15
 1076              	.LVL125:
 1077 0024 FFF7FEFF 		bl	BinaryRangeSearch
 1078              	.LVL126:
 639:..\source/cal.c ****         
 640:..\source/cal.c ****         pwm = Interpolate(cps, cps_data[lower], cps_data[upper], pwm_data[lower], pwm_data[upper]);
 1079              		.loc 1 640 0
 1080 0028 9DF80F30 		ldrb	r3, [sp, #15]	@ zero_extendqisi2
 1081 002c 9DF80E00 		ldrb	r0, [sp, #14]	@ zero_extendqisi2
 1082 0030 34F92310 		ldrsh	r1, [r4, r3, lsl #2]
 1083 0034 34F92020 		ldrsh	r2, [r4, r0, lsl #2]
 1084 0038 36F81330 		ldrh	r3, [r6, r3, lsl #1]
 1085 003c 36F81000 		ldrh	r0, [r6, r0, lsl #1]
 1086 0040 0090     		str	r0, [sp]
 1087 0042 28B2     		sxth	r0, r5
 1088 0044 FFF7FEFF 		bl	Interpolate
 1089              	.LVL127:
 1090 0048 80B2     		uxth	r0, r0
 1091              	.LVL128:
 641:..\source/cal.c **** 
ARM GAS  C:\Users\Tim\AppData\Local\Temp\ccnUoCGf.s 			page 33


 642:..\source/cal.c ****         return constrain(pwm, MIN_PWM_VALUE, MAX_PWM_VALUE);
 1092              		.loc 1 642 0
 1093 004a A0F5FA63 		sub	r3, r0, #2000
 1094 004e 9BB2     		uxth	r3, r3
 1095 0050 4FF62F02 		movw	r2, #63535
 1096 0054 9342     		cmp	r3, r2
 1097 0056 05D9     		bls	.L89
 1098              		.loc 1 642 0 is_stmt 0 discriminator 1
 1099 0058 B0F57A7F 		cmp	r0, #1000
 1100 005c 38BF     		it	cc
 1101 005e 4FF47A70 		movcc	r0, #1000
 1102              	.LVL129:
 1103 0062 04E0     		b	.L86
 1104              	.LVL130:
 1105              	.L89:
 1106              		.loc 1 642 0
 1107 0064 4FF4FA60 		mov	r0, #2000
 1108              	.LVL131:
 1109 0068 01E0     		b	.L86
 1110              	.LVL132:
 1111              	.L88:
 643:..\source/cal.c ****     }
 644:..\source/cal.c **** 
 645:..\source/cal.c ****     return pwm;
 1112              		.loc 1 645 0 is_stmt 1
 1113 006a 40F2DC50 		movw	r0, #1500
 1114              	.LVL133:
 1115              	.L86:
 646:..\source/cal.c **** }
 1116              		.loc 1 646 0
 1117 006e 04B0     		add	sp, sp, #16
 1118              		.cfi_def_cfa_offset 16
 1119              		@ sp needed
 1120 0070 70BD     		pop	{r4, r5, r6, pc}
 1121              		.cfi_endproc
 1122              	.LFE80:
 1123              		.size	CpsToPwm, .-CpsToPwm
 1124 0072 00BF     		.section	.text.ClearCalibrationStatusBit,"ax",%progbits
 1125              		.align	2
 1126              		.global	ClearCalibrationStatusBit
 1127              		.thumb
 1128              		.thumb_func
 1129              		.type	ClearCalibrationStatusBit, %function
 1130              	ClearCalibrationStatusBit:
 1131              	.LFB65:
 116:..\source/cal.c ****     uint16 status = p_cal_eeprom->status &= ~bit;
 1132              		.loc 1 116 0
 1133              		.cfi_startproc
 1134              		@ args = 0, pretend = 0, frame = 0
 1135              		@ frame_needed = 0, uses_anonymous_args = 0
 1136              	.LVL134:
 1137 0000 10B5     		push	{r4, lr}
 1138              		.cfi_def_cfa_offset 8
 1139              		.cfi_offset 4, -8
 1140              		.cfi_offset 14, -4
 1141 0002 0446     		mov	r4, r0
 117:..\source/cal.c ****     Nvstore_WriteUint16(status, NVSTORE_CAL_EEPROM_ADDR_TO_OFFSET(&p_cal_eeprom->status));
ARM GAS  C:\Users\Tim\AppData\Local\Temp\ccnUoCGf.s 			page 34


 1142              		.loc 1 117 0
 1143 0004 084A     		ldr	r2, .L93
 1144 0006 1368     		ldr	r3, [r2]
 1145 0008 1888     		ldrh	r0, [r3]
 1146              	.LVL135:
 1147 000a 80B2     		uxth	r0, r0
 1148 000c 20EA0400 		bic	r0, r0, r4
 1149 0010 1988     		ldrh	r1, [r3]
 1150 0012 1880     		strh	r0, [r3]	@ movhi
 1151              	.LVL136:
 118:..\source/cal.c ****     I2c_ClearCalibrationStatusBit(bit);
 1152              		.loc 1 118 0
 1153 0014 1188     		ldrh	r1, [r2]
 1154 0016 81F40041 		eor	r1, r1, #32768
 1155 001a FFF7FEFF 		bl	Nvstore_WriteUint16
 1156              	.LVL137:
 119:..\source/cal.c **** }
 1157              		.loc 1 119 0
 1158 001e 2046     		mov	r0, r4
 1159 0020 FFF7FEFF 		bl	I2c_ClearCalibrationStatusBit
 1160              	.LVL138:
 1161 0024 10BD     		pop	{r4, pc}
 1162              	.L94:
 1163 0026 00BF     		.align	2
 1164              	.L93:
 1165 0028 00000000 		.word	p_cal_eeprom
 1166              		.cfi_endproc
 1167              	.LFE65:
 1168              		.size	ClearCalibrationStatusBit, .-ClearCalibrationStatusBit
 1169              		.section	.text.SetCalibrationStatusBit,"ax",%progbits
 1170              		.align	2
 1171              		.global	SetCalibrationStatusBit
 1172              		.thumb
 1173              		.thumb_func
 1174              		.type	SetCalibrationStatusBit, %function
 1175              	SetCalibrationStatusBit:
 1176              	.LFB66:
 123:..\source/cal.c ****     uint16 status = p_cal_eeprom->status | bit;
 1177              		.loc 1 123 0
 1178              		.cfi_startproc
 1179              		@ args = 0, pretend = 0, frame = 0
 1180              		@ frame_needed = 0, uses_anonymous_args = 0
 1181              	.LVL139:
 1182 0000 10B5     		push	{r4, lr}
 1183              		.cfi_def_cfa_offset 8
 1184              		.cfi_offset 4, -8
 1185              		.cfi_offset 14, -4
 1186 0002 0446     		mov	r4, r0
 124:..\source/cal.c ****     Nvstore_WriteUint16(status, NVSTORE_CAL_EEPROM_ADDR_TO_OFFSET(&p_cal_eeprom->status));
 1187              		.loc 1 124 0
 1188 0004 064B     		ldr	r3, .L97
 1189 0006 1968     		ldr	r1, [r3]
 1190 0008 0888     		ldrh	r0, [r1]
 1191              	.LVL140:
 1192 000a 80B2     		uxth	r0, r0
 1193              	.LVL141:
 125:..\source/cal.c ****     I2c_SetCalibrationStatusBit(bit);   
ARM GAS  C:\Users\Tim\AppData\Local\Temp\ccnUoCGf.s 			page 35


 1194              		.loc 1 125 0
 1195 000c A1F50041 		sub	r1, r1, #32768
 1196 0010 2043     		orrs	r0, r0, r4
 1197              	.LVL142:
 1198 0012 89B2     		uxth	r1, r1
 1199 0014 FFF7FEFF 		bl	Nvstore_WriteUint16
 1200              	.LVL143:
 126:..\source/cal.c **** }
 1201              		.loc 1 126 0
 1202 0018 2046     		mov	r0, r4
 1203 001a FFF7FEFF 		bl	I2c_SetCalibrationStatusBit
 1204              	.LVL144:
 1205 001e 10BD     		pop	{r4, pc}
 1206              	.L98:
 1207              		.align	2
 1208              	.L97:
 1209 0020 00000000 		.word	p_cal_eeprom
 1210              		.cfi_endproc
 1211              	.LFE66:
 1212              		.size	SetCalibrationStatusBit, .-SetCalibrationStatusBit
 1213              		.section	.text.Cal_PrintSamples,"ax",%progbits
 1214              		.align	2
 1215              		.global	Cal_PrintSamples
 1216              		.thumb
 1217              		.thumb_func
 1218              		.type	Cal_PrintSamples, %function
 1219              	Cal_PrintSamples:
 1220              	.LFB67:
 147:..\source/cal.c ****     uint8 ii;
 1221              		.loc 1 147 0
 1222              		.cfi_startproc
 1223              		@ args = 0, pretend = 0, frame = 120
 1224              		@ frame_needed = 0, uses_anonymous_args = 0
 1225              	.LVL145:
 1226 0000 70B5     		push	{r4, r5, r6, lr}
 1227              		.cfi_def_cfa_offset 16
 1228              		.cfi_offset 4, -16
 1229              		.cfi_offset 5, -12
 1230              		.cfi_offset 6, -8
 1231              		.cfi_offset 14, -4
 1232 0002 9EB0     		sub	sp, sp, #120
 1233              		.cfi_def_cfa_offset 136
 1234 0004 0346     		mov	r3, r0
 1235 0006 0E46     		mov	r6, r1
 1236 0008 1546     		mov	r5, r2
 152:..\source/cal.c ****     Ser_PutString(label_str);
 1237              		.loc 1 152 0
 1238 000a 6846     		mov	r0, sp
 1239              	.LVL146:
 1240 000c 1249     		ldr	r1, .L103
 1241              	.LVL147:
 1242 000e 1A46     		mov	r2, r3
 1243              	.LVL148:
 1244 0010 FFF7FEFF 		bl	sprintf
 1245              	.LVL149:
 153:..\source/cal.c ****     
 1246              		.loc 1 153 0
ARM GAS  C:\Users\Tim\AppData\Local\Temp\ccnUoCGf.s 			page 36


 1247 0014 6846     		mov	r0, sp
 1248 0016 FFF7FEFF 		bl	Ser_PutString
 1249              	.LVL150:
 155:..\source/cal.c ****     {
 1250              		.loc 1 155 0
 1251 001a 0024     		movs	r4, #0
 1252 001c 0CE0     		b	.L100
 1253              	.LVL151:
 1254              	.L101:
 157:..\source/cal.c ****         Ser_PutString(buffer);
 1255              		.loc 1 157 0 discriminator 3
 1256 001e 05A8     		add	r0, sp, #20
 1257 0020 0E49     		ldr	r1, .L103+4
 1258 0022 56F82420 		ldr	r2, [r6, r4, lsl #2]
 1259 0026 35F81430 		ldrh	r3, [r5, r4, lsl #1]
 1260 002a FFF7FEFF 		bl	sprintf
 1261              	.LVL152:
 158:..\source/cal.c ****     }
 1262              		.loc 1 158 0 discriminator 3
 1263 002e 05A8     		add	r0, sp, #20
 1264 0030 FFF7FEFF 		bl	Ser_PutString
 1265              	.LVL153:
 155:..\source/cal.c ****     {
 1266              		.loc 1 155 0 discriminator 3
 1267 0034 0134     		adds	r4, r4, #1
 1268              	.LVL154:
 1269 0036 E4B2     		uxtb	r4, r4
 1270              	.LVL155:
 1271              	.L100:
 155:..\source/cal.c ****     {
 1272              		.loc 1 155 0 is_stmt 0 discriminator 1
 1273 0038 312C     		cmp	r4, #49
 1274 003a F0D9     		bls	.L101
 160:..\source/cal.c ****     Ser_PutString(buffer);
 1275              		.loc 1 160 0 is_stmt 1
 1276 003c 05A8     		add	r0, sp, #20
 1277 003e 0849     		ldr	r1, .L103+8
 1278 0040 56F82420 		ldr	r2, [r6, r4, lsl #2]
 1279 0044 35F81430 		ldrh	r3, [r5, r4, lsl #1]
 1280 0048 FFF7FEFF 		bl	sprintf
 1281              	.LVL156:
 161:..\source/cal.c **** }
 1282              		.loc 1 161 0
 1283 004c 05A8     		add	r0, sp, #20
 1284 004e FFF7FEFF 		bl	Ser_PutString
 1285              	.LVL157:
 162:..\source/cal.c **** 
 1286              		.loc 1 162 0
 1287 0052 1EB0     		add	sp, sp, #120
 1288              		.cfi_def_cfa_offset 16
 1289              		@ sp needed
 1290 0054 70BD     		pop	{r4, r5, r6, pc}
 1291              	.LVL158:
 1292              	.L104:
 1293 0056 00BF     		.align	2
 1294              	.L103:
 1295 0058 040A0000 		.word	.LC42
ARM GAS  C:\Users\Tim\AppData\Local\Temp\ccnUoCGf.s 			page 37


 1296 005c 0C0A0000 		.word	.LC43
 1297 0060 140A0000 		.word	.LC44
 1298              		.cfi_endproc
 1299              	.LFE67:
 1300              		.size	Cal_PrintSamples, .-Cal_PrintSamples
 1301              		.section	.text.Cal_PrintGains,"ax",%progbits
 1302              		.align	2
 1303              		.global	Cal_PrintGains
 1304              		.thumb
 1305              		.thumb_func
 1306              		.type	Cal_PrintGains, %function
 1307              	Cal_PrintGains:
 1308              	.LFB68:
 173:..\source/cal.c ****     char output[64];
 1309              		.loc 1 173 0
 1310              		.cfi_startproc
 1311              		@ args = 0, pretend = 0, frame = 104
 1312              		@ frame_needed = 0, uses_anonymous_args = 0
 1313              	.LVL159:
 1314 0000 F0B5     		push	{r4, r5, r6, r7, lr}
 1315              		.cfi_def_cfa_offset 20
 1316              		.cfi_offset 4, -20
 1317              		.cfi_offset 5, -16
 1318              		.cfi_offset 6, -12
 1319              		.cfi_offset 7, -8
 1320              		.cfi_offset 14, -4
 1321 0002 9DB0     		sub	sp, sp, #116
 1322              		.cfi_def_cfa_offset 136
 1323 0004 0746     		mov	r7, r0
 1324 0006 0C46     		mov	r4, r1
 179:..\source/cal.c ****     ftoa(gains[1], igain_str, 3);
 1325              		.loc 1 179 0
 1326 0008 0868     		ldr	r0, [r1]	@ float
 1327              	.LVL160:
 1328 000a 09A9     		add	r1, sp, #36
 1329              	.LVL161:
 1330 000c 0322     		movs	r2, #3
 1331 000e FFF7FEFF 		bl	ftoa
 1332              	.LVL162:
 180:..\source/cal.c ****     ftoa(gains[2], dgain_str, 3);
 1333              		.loc 1 180 0
 1334 0012 06AE     		add	r6, sp, #24
 1335 0014 6068     		ldr	r0, [r4, #4]	@ float
 1336 0016 3146     		mov	r1, r6
 1337 0018 0322     		movs	r2, #3
 1338 001a FFF7FEFF 		bl	ftoa
 1339              	.LVL163:
 181:..\source/cal.c ****     
 1340              		.loc 1 181 0
 1341 001e 03AD     		add	r5, sp, #12
 1342 0020 A068     		ldr	r0, [r4, #8]	@ float
 1343 0022 2946     		mov	r1, r5
 1344 0024 0322     		movs	r2, #3
 1345 0026 FFF7FEFF 		bl	ftoa
 1346              	.LVL164:
 183:..\source/cal.c ****     Ser_PutString(output);
 1347              		.loc 1 183 0
ARM GAS  C:\Users\Tim\AppData\Local\Temp\ccnUoCGf.s 			page 38


 1348 002a 0096     		str	r6, [sp]
 1349 002c 0195     		str	r5, [sp, #4]
 1350 002e 0CA8     		add	r0, sp, #48
 1351 0030 0449     		ldr	r1, .L107
 1352 0032 3A46     		mov	r2, r7
 1353 0034 09AB     		add	r3, sp, #36
 1354 0036 FFF7FEFF 		bl	sprintf
 1355              	.LVL165:
 184:..\source/cal.c **** }
 1356              		.loc 1 184 0
 1357 003a 0CA8     		add	r0, sp, #48
 1358 003c FFF7FEFF 		bl	Ser_PutString
 1359              	.LVL166:
 185:..\source/cal.c **** 
 1360              		.loc 1 185 0
 1361 0040 1DB0     		add	sp, sp, #116
 1362              		.cfi_def_cfa_offset 20
 1363              		@ sp needed
 1364 0042 F0BD     		pop	{r4, r5, r6, r7, pc}
 1365              	.LVL167:
 1366              	.L108:
 1367              		.align	2
 1368              	.L107:
 1369 0044 200A0000 		.word	.LC45
 1370              		.cfi_endproc
 1371              	.LFE68:
 1372              		.size	Cal_PrintGains, .-Cal_PrintGains
 1373              		.section	.text.ProcessSettingsCmd,"ax",%progbits
 1374              		.align	2
 1375              		.thumb
 1376              		.thumb_func
 1377              		.type	ProcessSettingsCmd, %function
 1378              	ProcessSettingsCmd:
 1379              	.LFB74:
 300:..\source/cal.c ****     switch (cmd)
 1380              		.loc 1 300 0
 1381              		.cfi_startproc
 1382              		@ args = 0, pretend = 0, frame = 0
 1383              		@ frame_needed = 0, uses_anonymous_args = 0
 1384              	.LVL168:
 1385 0000 38B5     		push	{r3, r4, r5, lr}
 1386              		.cfi_def_cfa_offset 16
 1387              		.cfi_offset 3, -16
 1388              		.cfi_offset 4, -12
 1389              		.cfi_offset 5, -8
 1390              		.cfi_offset 14, -4
 301:..\source/cal.c ****     {
 1391              		.loc 1 301 0
 1392 0002 A0F13103 		sub	r3, r0, #49
 1393 0006 032B     		cmp	r3, #3
 1394 0008 63D8     		bhi	.L109
 1395 000a DFE803F0 		tbb	[pc, r3]
 1396              	.L112:
 1397 000e 02       		.byte	(.L111-.L112)/2
 1398 000f 22       		.byte	(.L113-.L112)/2
 1399 0010 42       		.byte	(.L114-.L112)/2
 1400 0011 58       		.byte	(.L115-.L112)/2
ARM GAS  C:\Users\Tim\AppData\Local\Temp\ccnUoCGf.s 			page 39


 1401              		.p2align 1
 1402              	.L111:
 304:..\source/cal.c ****             Ser_PutString("\r\nDisplaying left motor calibration: count/sec, pwm mapping");
 1403              		.loc 1 304 0
 1404 0012 FFF7FEFF 		bl	Ser_WriteByte
 1405              	.LVL169:
 305:..\source/cal.c ****             Ser_PutString("\r\n");
 1406              		.loc 1 305 0
 1407 0016 2F48     		ldr	r0, .L117
 1408 0018 FFF7FEFF 		bl	Ser_PutString
 1409              	.LVL170:
 306:..\source/cal.c ****             Cal_PrintSamples("Left-Forward", (int32 *) p_cal_eeprom->left_motor_fwd.cps_data, (uint
 1410              		.loc 1 306 0
 1411 001c 2E4C     		ldr	r4, .L117+4
 1412 001e 2046     		mov	r0, r4
 1413 0020 FFF7FEFF 		bl	Ser_PutString
 1414              	.LVL171:
 307:..\source/cal.c ****             Cal_PrintSamples("Left-Backward", (int32 *) p_cal_eeprom->left_motor_bwd.cps_data, (uin
 1415              		.loc 1 307 0
 1416 0024 2D4D     		ldr	r5, .L117+8
 1417 0026 2A68     		ldr	r2, [r5]
 1418 0028 2D48     		ldr	r0, .L117+12
 1419 002a 02F15401 		add	r1, r2, #84
 1420 002e 02F59072 		add	r2, r2, #288
 1421 0032 FFF7FEFF 		bl	Cal_PrintSamples
 1422              	.LVL172:
 308:..\source/cal.c ****             Ser_PutString("\r\n");
 1423              		.loc 1 308 0
 1424 0036 2A68     		ldr	r2, [r5]
 1425 0038 2A48     		ldr	r0, .L117+16
 1426 003a 02F5CA71 		add	r1, r2, #404
 1427 003e 02F51872 		add	r2, r2, #608
 1428 0042 FFF7FEFF 		bl	Cal_PrintSamples
 1429              	.LVL173:
 309:..\source/cal.c ****             
 1430              		.loc 1 309 0
 1431 0046 2046     		mov	r0, r4
 1432 0048 FFF7FEFF 		bl	Ser_PutString
 1433              	.LVL174:
 311:..\source/cal.c ****             break;
 1434              		.loc 1 311 0
 1435 004c FFF7FEFF 		bl	DisplaySettingsMenu
 1436              	.LVL175:
 312:..\source/cal.c ****             
 1437              		.loc 1 312 0
 1438 0050 38BD     		pop	{r3, r4, r5, pc}
 1439              	.LVL176:
 1440              	.L113:
 315:..\source/cal.c ****             Ser_PutString("\r\nDisplaying right motor calibration: count/sec, pwm mapping");
 1441              		.loc 1 315 0
 1442 0052 FFF7FEFF 		bl	Ser_WriteByte
 1443              	.LVL177:
 316:..\source/cal.c ****             Ser_PutString("\r\n");
 1444              		.loc 1 316 0
 1445 0056 2448     		ldr	r0, .L117+20
 1446 0058 FFF7FEFF 		bl	Ser_PutString
 1447              	.LVL178:
ARM GAS  C:\Users\Tim\AppData\Local\Temp\ccnUoCGf.s 			page 40


 317:..\source/cal.c ****             Cal_PrintSamples("Right-Forward", (int32 *) p_cal_eeprom->right_motor_fwd.cps_data, (ui
 1448              		.loc 1 317 0
 1449 005c 1E4C     		ldr	r4, .L117+4
 1450 005e 2046     		mov	r0, r4
 1451 0060 FFF7FEFF 		bl	Ser_PutString
 1452              	.LVL179:
 318:..\source/cal.c ****             Cal_PrintSamples("Right-Backward", (int32 *) p_cal_eeprom->right_motor_bwd.cps_data, (u
 1453              		.loc 1 318 0
 1454 0064 1D4D     		ldr	r5, .L117+8
 1455 0066 2A68     		ldr	r2, [r5]
 1456 0068 2048     		ldr	r0, .L117+24
 1457 006a 02F53571 		add	r1, r2, #724
 1458 006e 02F56872 		add	r2, r2, #928
 1459 0072 FFF7FEFF 		bl	Cal_PrintSamples
 1460              	.LVL180:
 319:..\source/cal.c ****             Ser_PutString("\r\n");
 1461              		.loc 1 319 0
 1462 0076 2A68     		ldr	r2, [r5]
 1463 0078 1D48     		ldr	r0, .L117+28
 1464 007a 02F21441 		addw	r1, r2, #1044
 1465 007e 02F59C62 		add	r2, r2, #1248
 1466 0082 FFF7FEFF 		bl	Cal_PrintSamples
 1467              	.LVL181:
 320:..\source/cal.c ****             
 1468              		.loc 1 320 0
 1469 0086 2046     		mov	r0, r4
 1470 0088 FFF7FEFF 		bl	Ser_PutString
 1471              	.LVL182:
 322:..\source/cal.c ****             break;
 1472              		.loc 1 322 0
 1473 008c FFF7FEFF 		bl	DisplaySettingsMenu
 1474              	.LVL183:
 323:..\source/cal.c ****             
 1475              		.loc 1 323 0
 1476 0090 38BD     		pop	{r3, r4, r5, pc}
 1477              	.LVL184:
 1478              	.L114:
 326:..\source/cal.c ****             Ser_PutString("\r\nDisplaying all PID gains: left, right");
 1479              		.loc 1 326 0
 1480 0092 FFF7FEFF 		bl	Ser_WriteByte
 1481              	.LVL185:
 327:..\source/cal.c ****             Ser_PutString("\r\n");
 1482              		.loc 1 327 0
 1483 0096 1748     		ldr	r0, .L117+32
 1484 0098 FFF7FEFF 		bl	Ser_PutString
 1485              	.LVL186:
 328:..\source/cal.c ****             Cal_PrintGains("Left PID", (float *) &p_cal_eeprom->left_gains);
 1486              		.loc 1 328 0
 1487 009c 0E48     		ldr	r0, .L117+4
 1488 009e FFF7FEFF 		bl	Ser_PutString
 1489              	.LVL187:
 329:..\source/cal.c ****             Cal_PrintGains("Right PID", (float *) &p_cal_eeprom->right_gains);
 1490              		.loc 1 329 0
 1491 00a2 0E4C     		ldr	r4, .L117+8
 1492 00a4 2168     		ldr	r1, [r4]
 1493 00a6 1448     		ldr	r0, .L117+36
 1494 00a8 0831     		adds	r1, r1, #8
ARM GAS  C:\Users\Tim\AppData\Local\Temp\ccnUoCGf.s 			page 41


 1495 00aa FFF7FEFF 		bl	Cal_PrintGains
 1496              	.LVL188:
 330:..\source/cal.c **** 
 1497              		.loc 1 330 0
 1498 00ae 2168     		ldr	r1, [r4]
 1499 00b0 1248     		ldr	r0, .L117+40
 1500 00b2 1831     		adds	r1, r1, #24
 1501 00b4 FFF7FEFF 		bl	Cal_PrintGains
 1502              	.LVL189:
 332:..\source/cal.c ****             break;
 1503              		.loc 1 332 0
 1504 00b8 FFF7FEFF 		bl	DisplaySettingsMenu
 1505              	.LVL190:
 333:..\source/cal.c ****             
 1506              		.loc 1 333 0
 1507 00bc 38BD     		pop	{r3, r4, r5, pc}
 1508              	.LVL191:
 1509              	.L115:
 336:..\source/cal.c ****             Ser_PutString("\r\nDisplaying all calibration/settings");
 1510              		.loc 1 336 0
 1511 00be FFF7FEFF 		bl	Ser_WriteByte
 1512              	.LVL192:
 337:..\source/cal.c ****             Ser_PutString("\r\n");
 1513              		.loc 1 337 0
 1514 00c2 0F48     		ldr	r0, .L117+44
 1515 00c4 FFF7FEFF 		bl	Ser_PutString
 1516              	.LVL193:
 338:..\source/cal.c **** 
 1517              		.loc 1 338 0
 1518 00c8 0348     		ldr	r0, .L117+4
 1519 00ca FFF7FEFF 		bl	Ser_PutString
 1520              	.LVL194:
 340:..\source/cal.c ****             break;        
 1521              		.loc 1 340 0
 1522 00ce FFF7FEFF 		bl	DisplaySettingsMenu
 1523              	.LVL195:
 1524              	.L109:
 1525 00d2 38BD     		pop	{r3, r4, r5, pc}
 1526              	.L118:
 1527              		.align	2
 1528              	.L117:
 1529 00d4 3C0A0000 		.word	.LC46
 1530 00d8 68010000 		.word	.LC5
 1531 00dc 00000000 		.word	p_cal_eeprom
 1532 00e0 780A0000 		.word	.LC47
 1533 00e4 880A0000 		.word	.LC48
 1534 00e8 980A0000 		.word	.LC49
 1535 00ec D80A0000 		.word	.LC50
 1536 00f0 E80A0000 		.word	.LC51
 1537 00f4 F80A0000 		.word	.LC52
 1538 00f8 200B0000 		.word	.LC53
 1539 00fc 2C0B0000 		.word	.LC54
 1540 0100 380B0000 		.word	.LC55
 1541              		.cfi_endproc
 1542              	.LFE74:
 1543              		.size	ProcessSettingsCmd, .-ProcessSettingsCmd
 1544              		.section	.text.Cal_Init,"ax",%progbits
ARM GAS  C:\Users\Tim\AppData\Local\Temp\ccnUoCGf.s 			page 42


 1545              		.align	2
 1546              		.global	Cal_Init
 1547              		.thumb
 1548              		.thumb_func
 1549              		.type	Cal_Init, %function
 1550              	Cal_Init:
 1551              	.LFB81:
 647:..\source/cal.c **** 
 648:..\source/cal.c **** /*-------------------------------------------------------------------------------------------------
 649:..\source/cal.c ****  * Module Interface Routines
 650:..\source/cal.c ****  *-------------------------------------------------------------------------------------------------
 651:..\source/cal.c **** 
 652:..\source/cal.c **** /*-------------------------------------------------------------------------------------------------
 653:..\source/cal.c ****  * Name: Cal_Init
 654:..\source/cal.c ****  * Description: Initializes the calibration module and submodules.
 655:..\source/cal.c ****  * Parameters: None
 656:..\source/cal.c ****  * Return: None
 657:..\source/cal.c ****  * 
 658:..\source/cal.c ****  *-------------------------------------------------------------------------------------------------
 659:..\source/cal.c **** void Cal_Init()
 660:..\source/cal.c **** {
 1552              		.loc 1 660 0
 1553              		.cfi_startproc
 1554              		@ args = 0, pretend = 0, frame = 0
 1555              		@ frame_needed = 0, uses_anonymous_args = 0
 1556 0000 08B5     		push	{r3, lr}
 1557              		.cfi_def_cfa_offset 8
 1558              		.cfi_offset 3, -8
 1559              		.cfi_offset 14, -4
 661:..\source/cal.c ****     p_cal_eeprom = NVSTORE_CAL_EEPROM_BASE;
 1560              		.loc 1 661 0
 1561 0002 084A     		ldr	r2, .L121
 1562 0004 084B     		ldr	r3, .L121+4
 1563 0006 1A60     		str	r2, [r3]
 662:..\source/cal.c ****     Cal_LeftTarget = LeftTarget;
 1564              		.loc 1 662 0
 1565 0008 084A     		ldr	r2, .L121+8
 1566 000a 094B     		ldr	r3, .L121+12
 1567 000c 1A60     		str	r2, [r3]
 663:..\source/cal.c ****     Cal_RightTarget = RightTarget;
 1568              		.loc 1 663 0
 1569 000e 094A     		ldr	r2, .L121+16
 1570 0010 094B     		ldr	r3, .L121+20
 1571 0012 1A60     		str	r2, [r3]
 664:..\source/cal.c ****     
 665:..\source/cal.c ****     CalMotor_Init();
 1572              		.loc 1 665 0
 1573 0014 FFF7FEFF 		bl	CalMotor_Init
 1574              	.LVL196:
 666:..\source/cal.c ****     CalPid_Init();
 1575              		.loc 1 666 0
 1576 0018 FFF7FEFF 		bl	CalPid_Init
 1577              	.LVL197:
 667:..\source/cal.c ****     CalLin_Init();
 1578              		.loc 1 667 0
 1579 001c FFF7FEFF 		bl	CalLin_Init
 1580              	.LVL198:
ARM GAS  C:\Users\Tim\AppData\Local\Temp\ccnUoCGf.s 			page 43


 1581 0020 08BD     		pop	{r3, pc}
 1582              	.L122:
 1583 0022 00BF     		.align	2
 1584              	.L121:
 1585 0024 00800040 		.word	1073774592
 1586 0028 00000000 		.word	p_cal_eeprom
 1587 002c 00000000 		.word	LeftTarget
 1588 0030 00000000 		.word	Cal_LeftTarget
 1589 0034 00000000 		.word	RightTarget
 1590 0038 00000000 		.word	Cal_RightTarget
 1591              		.cfi_endproc
 1592              	.LFE81:
 1593              		.size	Cal_Init, .-Cal_Init
 1594              		.section	.text.Cal_Start,"ax",%progbits
 1595              		.align	2
 1596              		.global	Cal_Start
 1597              		.thumb
 1598              		.thumb_func
 1599              		.type	Cal_Start, %function
 1600              	Cal_Start:
 1601              	.LFB82:
 668:..\source/cal.c **** }
 669:..\source/cal.c **** 
 670:..\source/cal.c **** /*-------------------------------------------------------------------------------------------------
 671:..\source/cal.c ****  * Name: Cal_Start
 672:..\source/cal.c ****  * Description: Reads the current calibration status from EEPROM and sets it into the I2C module. 
 673:..\source/cal.c ****  *              Note: This can only be done after the non-volatile memory module has been initializ
 674:..\source/cal.c ****  * Parameters: None
 675:..\source/cal.c ****  * Return: None
 676:..\source/cal.c ****  * 
 677:..\source/cal.c ****  *-------------------------------------------------------------------------------------------------
 678:..\source/cal.c **** void Cal_Start()
 679:..\source/cal.c **** {
 1602              		.loc 1 679 0
 1603              		.cfi_startproc
 1604              		@ args = 0, pretend = 0, frame = 0
 1605              		@ frame_needed = 0, uses_anonymous_args = 0
 1606 0000 08B5     		push	{r3, lr}
 1607              		.cfi_def_cfa_offset 8
 1608              		.cfi_offset 3, -8
 1609              		.cfi_offset 14, -4
 680:..\source/cal.c ****     //Nvstore_WriteBytes((uint8 *) &left_fwd_cal_data, sizeof(CAL_DATA_TYPE), NVSTORE_CAL_EEPROM_AD
 681:..\source/cal.c ****     //Nvstore_WriteBytes((uint8 *) &left_bwd_cal_data, sizeof(CAL_DATA_TYPE), NVSTORE_CAL_EEPROM_AD
 682:..\source/cal.c ****     //Nvstore_WriteBytes((uint8 *) &right_fwd_cal_data, sizeof(CAL_DATA_TYPE), NVSTORE_CAL_EEPROM_A
 683:..\source/cal.c ****     //Nvstore_WriteBytes((uint8 *) &right_bwd_cal_data, sizeof(CAL_DATA_TYPE), NVSTORE_CAL_EEPROM_A
 684:..\source/cal.c ****     //Nvstore_WriteUint16(0, 0x000f);
 685:..\source/cal.c ****     //Nvstore_WriteFloat(1.07, NVSTORE_CAL_EEPROM_ADDR_TO_OFFSET(&p_cal_eeprom->linear_bias));
 686:..\source/cal.c ****     //Nvstore_WriteFloat(1.0625, NVSTORE_CAL_EEPROM_ADDR_TO_OFFSET(&p_cal_eeprom->angular_bias));
 687:..\source/cal.c **** 
 688:..\source/cal.c ****     uint16 status = p_cal_eeprom->status;
 1610              		.loc 1 688 0
 1611 0002 034B     		ldr	r3, .L125
 1612 0004 1B68     		ldr	r3, [r3]
 1613 0006 1888     		ldrh	r0, [r3]
 1614              	.LVL199:
 689:..\source/cal.c ****     I2c_SetCalibrationStatus(status);        
 1615              		.loc 1 689 0
ARM GAS  C:\Users\Tim\AppData\Local\Temp\ccnUoCGf.s 			page 44


 1616 0008 80B2     		uxth	r0, r0
 1617 000a FFF7FEFF 		bl	I2c_SetCalibrationStatus
 1618              	.LVL200:
 1619 000e 08BD     		pop	{r3, pc}
 1620              	.L126:
 1621              		.align	2
 1622              	.L125:
 1623 0010 00000000 		.word	p_cal_eeprom
 1624              		.cfi_endproc
 1625              	.LFE82:
 1626              		.size	Cal_Start, .-Cal_Start
 1627              		.section	.text.Cal_Update,"ax",%progbits
 1628              		.align	2
 1629              		.global	Cal_Update
 1630              		.thumb
 1631              		.thumb_func
 1632              		.type	Cal_Update, %function
 1633              	Cal_Update:
 1634              	.LFB83:
 690:..\source/cal.c **** }
 691:..\source/cal.c **** 
 692:..\source/cal.c **** /*-------------------------------------------------------------------------------------------------
 693:..\source/cal.c ****  * Name: Cal_Update
 694:..\source/cal.c ****  * Description: Called from the main loop to process calibration/validation. 
 695:..\source/cal.c ****  * Parameters: None
 696:..\source/cal.c ****  * Return: None
 697:..\source/cal.c ****  * 
 698:..\source/cal.c ****  *-------------------------------------------------------------------------------------------------
 699:..\source/cal.c **** void Cal_Update()
 700:..\source/cal.c **** /* 
 701:..\source/cal.c ****     The following options are available in this modules:
 702:..\source/cal.c ****         1. Calibration
 703:..\source/cal.c ****         2. Validation
 704:..\source/cal.c ****         3. Settings Display
 705:..\source/cal.c ****     Only one can be active at a time
 706:..\source/cal.c **** 
 707:..\source/cal.c ****     State Machine:
 708:..\source/cal.c ****         STATE_INIT - waiting for command to engage one of the above functionalities.  
 709:..\source/cal.c ****             If command is 'c'|'C', then enter STATE_CALIBRATION
 710:..\source/cal.c ****             If command is 'v'|'V', then enter STATE_VALIDATION
 711:..\source/cal.c ****             If command is 'd'|'D', then enter STATE_SETTINGS
 712:..\source/cal.c ****             If command is 'x'|'X', then return to STATE_INIT
 713:..\source/cal.c **** 
 714:..\source/cal.c ****         STATE_CALIBRATION - waiting for calibration commands (as shown in calibration menu)
 715:..\source/cal.c ****             ...
 716:..\source/cal.c ****             If command is 'x'|'X', then return to STATE_INIT
 717:..\source/cal.c **** 
 718:..\source/cal.c ****         STATE_VALIDATION - waiting for validation commands (as shown in validation menu)
 719:..\source/cal.c ****             ...
 720:..\source/cal.c ****             If command is 'x'|'X', then return to STATE_INIT
 721:..\source/cal.c ****         
 722:..\source/cal.c ****         STATE_SETTINGS - waiting for setting commands (as shown in the settings menu)
 723:..\source/cal.c ****             ...
 724:..\source/cal.c ****             If command is 'x'|'X', then return to STATE_INIT
 725:..\source/cal.c **** 
 726:..\source/cal.c ****         STATE_EXIT - display exit menu and transitions to STATE_INIT
 727:..\source/cal.c ****  */
ARM GAS  C:\Users\Tim\AppData\Local\Temp\ccnUoCGf.s 			page 45


 728:..\source/cal.c **** {
 1635              		.loc 1 728 0
 1636              		.cfi_startproc
 1637              		@ args = 0, pretend = 0, frame = 0
 1638              		@ frame_needed = 0, uses_anonymous_args = 0
 1639 0000 10B5     		push	{r4, lr}
 1640              		.cfi_def_cfa_offset 8
 1641              		.cfi_offset 4, -8
 1642              		.cfi_offset 14, -4
 729:..\source/cal.c ****     uint8 cmd = GetCommand();
 1643              		.loc 1 729 0
 1644 0002 FFF7FEFF 		bl	GetCommand
 1645              	.LVL201:
 1646 0006 0446     		mov	r4, r0
 1647              	.LVL202:
 730:..\source/cal.c ****     
 731:..\source/cal.c ****     switch (ui_state)
 1648              		.loc 1 731 0
 1649 0008 314B     		ldr	r3, .L144
 1650 000a 1B7C     		ldrb	r3, [r3, #16]	@ zero_extendqisi2
 1651 000c 042B     		cmp	r3, #4
 1652 000e 5BD8     		bhi	.L128
 1653 0010 DFE803F0 		tbb	[pc, r3]
 1654              	.L130:
 1655 0014 03       		.byte	(.L129-.L130)/2
 1656 0015 1B       		.byte	(.L131-.L130)/2
 1657 0016 32       		.byte	(.L132-.L130)/2
 1658 0017 49       		.byte	(.L133-.L130)/2
 1659 0018 51       		.byte	(.L134-.L130)/2
 1660 0019 00       		.p2align 1
 1661              	.L129:
 732:..\source/cal.c ****     {
 733:..\source/cal.c ****         case UI_STATE_INIT:
 734:..\source/cal.c ****             {        
 735:..\source/cal.c ****                 switch (cmd)
 1662              		.loc 1 735 0
 1663 001a 7328     		cmp	r0, #115
 1664 001c 0FD0     		beq	.L136
 1665 001e 7628     		cmp	r0, #118
 1666 0020 07D0     		beq	.L137
 1667 0022 6328     		cmp	r0, #99
 1668 0024 53D1     		bne	.L127
 736:..\source/cal.c ****                 {
 737:..\source/cal.c ****                     case CAL_REQUEST:
 738:..\source/cal.c ****                         DisplayCalMenu();
 1669              		.loc 1 738 0
 1670 0026 FFF7FEFF 		bl	DisplayCalMenu
 1671              	.LVL203:
 739:..\source/cal.c ****                         ui_state = UI_STATE_CALIBRATION;
 1672              		.loc 1 739 0
 1673 002a 0122     		movs	r2, #1
 1674 002c 284B     		ldr	r3, .L144
 1675 002e 1A74     		strb	r2, [r3, #16]
 740:..\source/cal.c ****                         break;
 1676              		.loc 1 740 0
 1677 0030 10BD     		pop	{r4, pc}
 1678              	.LVL204:
ARM GAS  C:\Users\Tim\AppData\Local\Temp\ccnUoCGf.s 			page 46


 1679              	.L137:
 741:..\source/cal.c ****                     
 742:..\source/cal.c ****                     case VAL_REQUEST:
 743:..\source/cal.c ****                         DisplayValMenu();
 1680              		.loc 1 743 0
 1681 0032 FFF7FEFF 		bl	DisplayValMenu
 1682              	.LVL205:
 744:..\source/cal.c ****                         ui_state = UI_STATE_VALIDATION;
 1683              		.loc 1 744 0
 1684 0036 0222     		movs	r2, #2
 1685 0038 254B     		ldr	r3, .L144
 1686 003a 1A74     		strb	r2, [r3, #16]
 745:..\source/cal.c ****                         break;
 1687              		.loc 1 745 0
 1688 003c 10BD     		pop	{r4, pc}
 1689              	.LVL206:
 1690              	.L136:
 746:..\source/cal.c ****                     
 747:..\source/cal.c ****                     case SETTING_REQUEST:
 748:..\source/cal.c ****                         DisplaySettingsMenu();
 1691              		.loc 1 748 0
 1692 003e FFF7FEFF 		bl	DisplaySettingsMenu
 1693              	.LVL207:
 749:..\source/cal.c ****                         ui_state = UI_STATE_SETTINGS;
 1694              		.loc 1 749 0
 1695 0042 0322     		movs	r2, #3
 1696 0044 224B     		ldr	r3, .L144
 1697 0046 1A74     		strb	r2, [r3, #16]
 750:..\source/cal.c ****                         break;
 1698              		.loc 1 750 0
 1699 0048 10BD     		pop	{r4, pc}
 1700              	.LVL208:
 1701              	.L131:
 751:..\source/cal.c ****                 }
 752:..\source/cal.c ****                 break;
 753:..\source/cal.c ****             }
 754:..\source/cal.c ****             break;
 755:..\source/cal.c ****         
 756:..\source/cal.c ****         case UI_STATE_CALIBRATION:
 757:..\source/cal.c ****             if (!active_cal)
 1702              		.loc 1 757 0
 1703 004a 214B     		ldr	r3, .L144
 1704 004c 9B68     		ldr	r3, [r3, #8]
 1705 004e 1BB9     		cbnz	r3, .L139
 758:..\source/cal.c ****             {
 759:..\source/cal.c ****                 active_cal = GetCalibration(cmd);
 1706              		.loc 1 759 0
 1707 0050 FFF7FEFF 		bl	GetCalibration
 1708              	.LVL209:
 1709 0054 1E4B     		ldr	r3, .L144
 1710 0056 9860     		str	r0, [r3, #8]
 1711              	.L139:
 760:..\source/cal.c ****             }            
 761:..\source/cal.c ****                 
 762:..\source/cal.c ****             if (active_cal)
 1712              		.loc 1 762 0
 1713 0058 1D4B     		ldr	r3, .L144
ARM GAS  C:\Users\Tim\AppData\Local\Temp\ccnUoCGf.s 			page 47


 1714 005a 9B68     		ldr	r3, [r3, #8]
 1715 005c 33B1     		cbz	r3, .L140
 763:..\source/cal.c ****             {
 764:..\source/cal.c ****                 Control_OverrideDebug(TRUE);
 1716              		.loc 1 764 0
 1717 005e 0120     		movs	r0, #1
 1718 0060 FFF7FEFF 		bl	Control_OverrideDebug
 1719              	.LVL210:
 765:..\source/cal.c ****                 Process(active_cal);
 1720              		.loc 1 765 0
 1721 0064 1A4B     		ldr	r3, .L144
 1722 0066 9868     		ldr	r0, [r3, #8]
 1723 0068 FFF7FEFF 		bl	Process
 1724              	.LVL211:
 1725              	.L140:
 766:..\source/cal.c ****             }                        
 767:..\source/cal.c ****             
 768:..\source/cal.c ****             if (cmd == EXIT_CMD)
 1726              		.loc 1 768 0
 1727 006c 782C     		cmp	r4, #120
 1728 006e 2ED1     		bne	.L127
 769:..\source/cal.c ****             {
 770:..\source/cal.c ****                 ui_state = UI_STATE_EXIT;
 1729              		.loc 1 770 0
 1730 0070 0422     		movs	r2, #4
 1731 0072 174B     		ldr	r3, .L144
 1732 0074 1A74     		strb	r2, [r3, #16]
 1733 0076 10BD     		pop	{r4, pc}
 1734              	.LVL212:
 1735              	.L132:
 771:..\source/cal.c ****             }
 772:..\source/cal.c ****             break;
 773:..\source/cal.c ****             
 774:..\source/cal.c ****         case UI_STATE_VALIDATION:
 775:..\source/cal.c ****             if (!active_val)
 1736              		.loc 1 775 0
 1737 0078 154B     		ldr	r3, .L144
 1738 007a DB68     		ldr	r3, [r3, #12]
 1739 007c 1BB9     		cbnz	r3, .L141
 776:..\source/cal.c ****             {
 777:..\source/cal.c ****                 active_val = GetValidation(cmd);
 1740              		.loc 1 777 0
 1741 007e FFF7FEFF 		bl	GetValidation
 1742              	.LVL213:
 1743 0082 134B     		ldr	r3, .L144
 1744 0084 D860     		str	r0, [r3, #12]
 1745              	.L141:
 778:..\source/cal.c ****             }
 779:..\source/cal.c ****             
 780:..\source/cal.c ****             if (active_val)
 1746              		.loc 1 780 0
 1747 0086 124B     		ldr	r3, .L144
 1748 0088 DB68     		ldr	r3, [r3, #12]
 1749 008a 33B1     		cbz	r3, .L142
 781:..\source/cal.c ****             {
 782:..\source/cal.c ****                 Control_OverrideDebug(TRUE);
 1750              		.loc 1 782 0
ARM GAS  C:\Users\Tim\AppData\Local\Temp\ccnUoCGf.s 			page 48


 1751 008c 0120     		movs	r0, #1
 1752 008e FFF7FEFF 		bl	Control_OverrideDebug
 1753              	.LVL214:
 783:..\source/cal.c ****                 Process(active_val);
 1754              		.loc 1 783 0
 1755 0092 0F4B     		ldr	r3, .L144
 1756 0094 D868     		ldr	r0, [r3, #12]
 1757 0096 FFF7FEFF 		bl	Process
 1758              	.LVL215:
 1759              	.L142:
 784:..\source/cal.c ****             }
 785:..\source/cal.c ****             
 786:..\source/cal.c ****             if (cmd == EXIT_CMD)
 1760              		.loc 1 786 0
 1761 009a 782C     		cmp	r4, #120
 1762 009c 17D1     		bne	.L127
 787:..\source/cal.c ****             {
 788:..\source/cal.c ****                 ui_state = UI_STATE_EXIT;
 1763              		.loc 1 788 0
 1764 009e 0422     		movs	r2, #4
 1765 00a0 0B4B     		ldr	r3, .L144
 1766 00a2 1A74     		strb	r2, [r3, #16]
 1767 00a4 10BD     		pop	{r4, pc}
 1768              	.LVL216:
 1769              	.L133:
 789:..\source/cal.c ****             }
 790:..\source/cal.c ****             break;
 791:..\source/cal.c ****             
 792:..\source/cal.c ****         case UI_STATE_SETTINGS:
 793:..\source/cal.c ****             ProcessSettingsCmd(cmd);
 1770              		.loc 1 793 0
 1771 00a6 FFF7FEFF 		bl	ProcessSettingsCmd
 1772              	.LVL217:
 794:..\source/cal.c ****             
 795:..\source/cal.c ****             if (cmd == EXIT_CMD)
 1773              		.loc 1 795 0
 1774 00aa 782C     		cmp	r4, #120
 1775 00ac 0FD1     		bne	.L127
 796:..\source/cal.c ****             {
 797:..\source/cal.c ****                 ui_state = UI_STATE_EXIT;
 1776              		.loc 1 797 0
 1777 00ae 0422     		movs	r2, #4
 1778 00b0 074B     		ldr	r3, .L144
 1779 00b2 1A74     		strb	r2, [r3, #16]
 1780 00b4 10BD     		pop	{r4, pc}
 1781              	.LVL218:
 1782              	.L134:
 798:..\source/cal.c ****             }
 799:..\source/cal.c ****             break;
 800:..\source/cal.c **** 
 801:..\source/cal.c ****         case UI_STATE_EXIT:
 802:..\source/cal.c ****             DisplayExit();
 1783              		.loc 1 802 0
 1784 00b6 FFF7FEFF 		bl	DisplayExit
 1785              	.LVL219:
 803:..\source/cal.c ****             Control_OverrideDebug(FALSE);
 1786              		.loc 1 803 0
ARM GAS  C:\Users\Tim\AppData\Local\Temp\ccnUoCGf.s 			page 49


 1787 00ba 0020     		movs	r0, #0
 1788 00bc FFF7FEFF 		bl	Control_OverrideDebug
 1789              	.LVL220:
 804:..\source/cal.c ****             ui_state = UI_STATE_INIT;
 1790              		.loc 1 804 0
 1791 00c0 0022     		movs	r2, #0
 1792 00c2 034B     		ldr	r3, .L144
 1793 00c4 1A74     		strb	r2, [r3, #16]
 805:..\source/cal.c ****             break;
 1794              		.loc 1 805 0
 1795 00c6 10BD     		pop	{r4, pc}
 1796              	.LVL221:
 1797              	.L128:
 806:..\source/cal.c ****             
 807:..\source/cal.c ****         default:
 808:..\source/cal.c ****             ui_state = UI_STATE_INIT;                
 1798              		.loc 1 808 0
 1799 00c8 0022     		movs	r2, #0
 1800 00ca 014B     		ldr	r3, .L144
 1801 00cc 1A74     		strb	r2, [r3, #16]
 1802              	.LVL222:
 1803              	.L127:
 1804 00ce 10BD     		pop	{r4, pc}
 1805              	.L145:
 1806              		.align	2
 1807              	.L144:
 1808 00d0 00000000 		.word	.LANCHOR0
 1809              		.cfi_endproc
 1810              	.LFE83:
 1811              		.size	Cal_Update, .-Cal_Update
 1812              		.global	__aeabi_d2f
 1813              		.section	.text.Cal_ReadResponse,"ax",%progbits
 1814              		.align	2
 1815              		.global	Cal_ReadResponse
 1816              		.thumb
 1817              		.thumb_func
 1818              		.type	Cal_ReadResponse, %function
 1819              	Cal_ReadResponse:
 1820              	.LFB84:
 809:..\source/cal.c ****             break;
 810:..\source/cal.c ****     }
 811:..\source/cal.c ****     
 812:..\source/cal.c **** }
 813:..\source/cal.c **** 
 814:..\source/cal.c **** /*-------------------------------------------------------------------------------------------------
 815:..\source/cal.c ****  * Name: Cal_ReadResponse
 816:..\source/cal.c ****  * Description: Read a floating point value from the serial port. 
 817:..\source/cal.c ****  * Parameters: None
 818:..\source/cal.c ****  * Return: None
 819:..\source/cal.c ****  * 
 820:..\source/cal.c ****  *-------------------------------------------------------------------------------------------------
 821:..\source/cal.c **** float Cal_ReadResponse()
 822:..\source/cal.c **** {
 1821              		.loc 1 822 0
 1822              		.cfi_startproc
 1823              		@ args = 0, pretend = 0, frame = 8
 1824              		@ frame_needed = 0, uses_anonymous_args = 0
ARM GAS  C:\Users\Tim\AppData\Local\Temp\ccnUoCGf.s 			page 50


 1825 0000 30B5     		push	{r4, r5, lr}
 1826              		.cfi_def_cfa_offset 12
 1827              		.cfi_offset 4, -12
 1828              		.cfi_offset 5, -8
 1829              		.cfi_offset 14, -4
 1830 0002 83B0     		sub	sp, sp, #12
 1831              		.cfi_def_cfa_offset 24
 1832              	.LVL223:
 823:..\source/cal.c ****     uint8 digits[6];
 824:..\source/cal.c ****     uint8 index = 0;
 1833              		.loc 1 824 0
 1834 0004 0024     		movs	r4, #0
 1835              	.LVL224:
 1836              	.L149:
 825:..\source/cal.c ****     uint8 value;
 826:..\source/cal.c ****     do
 827:..\source/cal.c ****     {
 828:..\source/cal.c ****         Ser_Update();
 1837              		.loc 1 828 0
 1838 0006 FFF7FEFF 		bl	Ser_Update
 1839              	.LVL225:
 829:..\source/cal.c ****         
 830:..\source/cal.c ****         value = Ser_ReadByte();
 1840              		.loc 1 830 0
 1841 000a FFF7FEFF 		bl	Ser_ReadByte
 1842              	.LVL226:
 1843 000e 0546     		mov	r5, r0
 1844              	.LVL227:
 831:..\source/cal.c ****         Ser_WriteByte(value);
 1845              		.loc 1 831 0
 1846 0010 FFF7FEFF 		bl	Ser_WriteByte
 1847              	.LVL228:
 832:..\source/cal.c ****         if ( (value >= '0' && value <= '9') || value == '.')
 1848              		.loc 1 832 0
 1849 0014 A5F13003 		sub	r3, r5, #48
 1850 0018 DBB2     		uxtb	r3, r3
 1851 001a 092B     		cmp	r3, #9
 1852 001c 01D9     		bls	.L147
 1853              		.loc 1 832 0 is_stmt 0 discriminator 1
 1854 001e 2E2D     		cmp	r5, #46
 1855 0020 05D1     		bne	.L148
 1856              	.L147:
 833:..\source/cal.c ****         {
 834:..\source/cal.c ****             digits[index] = value;
 1857              		.loc 1 834 0 is_stmt 1
 1858 0022 02AB     		add	r3, sp, #8
 1859 0024 2344     		add	r3, r3, r4
 1860 0026 03F8085C 		strb	r5, [r3, #-8]
 835:..\source/cal.c ****             index++;
 1861              		.loc 1 835 0
 1862 002a 0134     		adds	r4, r4, #1
 1863              	.LVL229:
 1864 002c E4B2     		uxtb	r4, r4
 1865              	.LVL230:
 1866              	.L148:
 836:..\source/cal.c ****         }
 837:..\source/cal.c ****     } while (index < 5);
ARM GAS  C:\Users\Tim\AppData\Local\Temp\ccnUoCGf.s 			page 51


 1867              		.loc 1 837 0
 1868 002e 042C     		cmp	r4, #4
 1869 0030 E9D9     		bls	.L149
 838:..\source/cal.c ****     
 839:..\source/cal.c ****     digits[5] = '\0';
 1870              		.loc 1 839 0
 1871 0032 0023     		movs	r3, #0
 1872 0034 8DF80530 		strb	r3, [sp, #5]
 840:..\source/cal.c ****     
 841:..\source/cal.c ****     float result = atof((char *) digits);
 1873              		.loc 1 841 0
 1874 0038 6846     		mov	r0, sp
 1875 003a FFF7FEFF 		bl	atof
 1876              	.LVL231:
 1877 003e FFF7FEFF 		bl	__aeabi_d2f
 1878              	.LVL232:
 842:..\source/cal.c ****     
 843:..\source/cal.c ****     return result;
 844:..\source/cal.c **** }
 1879              		.loc 1 844 0
 1880 0042 03B0     		add	sp, sp, #12
 1881              		.cfi_def_cfa_offset 12
 1882              		@ sp needed
 1883 0044 30BD     		pop	{r4, r5, pc}
 1884              		.cfi_endproc
 1885              	.LFE84:
 1886              		.size	Cal_ReadResponse, .-Cal_ReadResponse
 1887 0046 00BF     		.section	.text.Cal_LeftGetPidGains,"ax",%progbits
 1888              		.align	2
 1889              		.global	Cal_LeftGetPidGains
 1890              		.thumb
 1891              		.thumb_func
 1892              		.type	Cal_LeftGetPidGains, %function
 1893              	Cal_LeftGetPidGains:
 1894              	.LFB85:
 845:..\source/cal.c **** 
 846:..\source/cal.c **** /*-------------------------------------------------------------------------------------------------
 847:..\source/cal.c ****  * Name: Cal_LeftGetPidGains/Cal_RightGetPidGains
 848:..\source/cal.c ****  * Description: Returns the left/right PID gains from EEPROM. 
 849:..\source/cal.c ****  * Parameters: None
 850:..\source/cal.c ****  * Return: pointer to CAL_PID_TYPE
 851:..\source/cal.c ****  * 
 852:..\source/cal.c ****  *-------------------------------------------------------------------------------------------------
 853:..\source/cal.c **** CAL_PID_TYPE * Cal_LeftGetPidGains()
 854:..\source/cal.c **** {
 1895              		.loc 1 854 0
 1896              		.cfi_startproc
 1897              		@ args = 0, pretend = 0, frame = 0
 1898              		@ frame_needed = 0, uses_anonymous_args = 0
 1899              		@ link register save eliminated.
 855:..\source/cal.c ****     return (CAL_PID_TYPE *) &p_cal_eeprom->left_gains;
 1900              		.loc 1 855 0
 1901 0000 014B     		ldr	r3, .L152
 1902 0002 1868     		ldr	r0, [r3]
 856:..\source/cal.c **** }
 1903              		.loc 1 856 0
 1904 0004 0830     		adds	r0, r0, #8
ARM GAS  C:\Users\Tim\AppData\Local\Temp\ccnUoCGf.s 			page 52


 1905 0006 7047     		bx	lr
 1906              	.L153:
 1907              		.align	2
 1908              	.L152:
 1909 0008 00000000 		.word	p_cal_eeprom
 1910              		.cfi_endproc
 1911              	.LFE85:
 1912              		.size	Cal_LeftGetPidGains, .-Cal_LeftGetPidGains
 1913              		.section	.text.Cal_RightGetPidGains,"ax",%progbits
 1914              		.align	2
 1915              		.global	Cal_RightGetPidGains
 1916              		.thumb
 1917              		.thumb_func
 1918              		.type	Cal_RightGetPidGains, %function
 1919              	Cal_RightGetPidGains:
 1920              	.LFB86:
 857:..\source/cal.c **** 
 858:..\source/cal.c **** CAL_PID_TYPE * Cal_RightGetPidGains()
 859:..\source/cal.c **** {
 1921              		.loc 1 859 0
 1922              		.cfi_startproc
 1923              		@ args = 0, pretend = 0, frame = 0
 1924              		@ frame_needed = 0, uses_anonymous_args = 0
 1925              		@ link register save eliminated.
 860:..\source/cal.c ****     return (CAL_PID_TYPE *) &p_cal_eeprom->right_gains;
 1926              		.loc 1 860 0
 1927 0000 014B     		ldr	r3, .L155
 1928 0002 1868     		ldr	r0, [r3]
 861:..\source/cal.c **** }
 1929              		.loc 1 861 0
 1930 0004 1830     		adds	r0, r0, #24
 1931 0006 7047     		bx	lr
 1932              	.L156:
 1933              		.align	2
 1934              	.L155:
 1935 0008 00000000 		.word	p_cal_eeprom
 1936              		.cfi_endproc
 1937              	.LFE86:
 1938              		.size	Cal_RightGetPidGains, .-Cal_RightGetPidGains
 1939              		.section	.text.Cal_SetLeftRightVelocity,"ax",%progbits
 1940              		.align	2
 1941              		.global	Cal_SetLeftRightVelocity
 1942              		.thumb
 1943              		.thumb_func
 1944              		.type	Cal_SetLeftRightVelocity, %function
 1945              	Cal_SetLeftRightVelocity:
 1946              	.LFB87:
 862:..\source/cal.c **** 
 863:..\source/cal.c **** /*-------------------------------------------------------------------------------------------------
 864:..\source/cal.c ****  * Name: Cal_SetLeftRightVelocity
 865:..\source/cal.c ****  * Description: Sets the left/right velocity for calibration/validation.  This routine is called fr
 866:..\source/cal.c ****  *              calibration submodules to set wheel speed. 
 867:..\source/cal.c ****  * Parameters: left - the left wheel speed in meter/second 
 868:..\source/cal.c ****  *             right - the right wheel speed in meter/second 
 869:..\source/cal.c ****  * Return: None
 870:..\source/cal.c ****  * 
 871:..\source/cal.c ****  *-------------------------------------------------------------------------------------------------
ARM GAS  C:\Users\Tim\AppData\Local\Temp\ccnUoCGf.s 			page 53


 872:..\source/cal.c **** void Cal_SetLeftRightVelocity(float left, float right)
 873:..\source/cal.c **** {
 1947              		.loc 1 873 0
 1948              		.cfi_startproc
 1949              		@ args = 0, pretend = 0, frame = 0
 1950              		@ frame_needed = 0, uses_anonymous_args = 0
 1951              		@ link register save eliminated.
 1952              	.LVL233:
 874:..\source/cal.c ****     left_cmd_velocity = left;
 1953              		.loc 1 874 0
 1954 0000 014B     		ldr	r3, .L158
 1955 0002 1860     		str	r0, [r3]	@ float
 875:..\source/cal.c ****     right_cmd_velocity = right;
 1956              		.loc 1 875 0
 1957 0004 5960     		str	r1, [r3, #4]	@ float
 1958 0006 7047     		bx	lr
 1959              	.L159:
 1960              		.align	2
 1961              	.L158:
 1962 0008 00000000 		.word	.LANCHOR0
 1963              		.cfi_endproc
 1964              	.LFE87:
 1965              		.size	Cal_SetLeftRightVelocity, .-Cal_SetLeftRightVelocity
 1966              		.global	__aeabi_fcmpgt
 1967              		.global	__aeabi_i2f
 1968              		.global	__aeabi_fmul
 1969              		.global	__aeabi_f2iz
 1970              		.section	.text.Cal_CpsToPwm,"ax",%progbits
 1971              		.align	2
 1972              		.global	Cal_CpsToPwm
 1973              		.thumb
 1974              		.thumb_func
 1975              		.type	Cal_CpsToPwm, %function
 1976              	Cal_CpsToPwm:
 1977              	.LFB88:
 876:..\source/cal.c **** }
 877:..\source/cal.c **** 
 878:..\source/cal.c **** /*-------------------------------------------------------------------------------------------------
 879:..\source/cal.c ****  * Name: Cal_CpsToPwm
 880:..\source/cal.c ****  * Description: Public routine used to obtain a PWM value for a given wheel and count/sec 
 881:..\source/cal.c ****  * Parameters: wheel - left/right wheel 
 882:..\source/cal.c ****  *             cps - count/second
 883:..\source/cal.c ****  * Return: PWM_TYPE - PWM
 884:..\source/cal.c ****  * 
 885:..\source/cal.c ****  *-------------------------------------------------------------------------------------------------
 886:..\source/cal.c **** PWM_TYPE Cal_CpsToPwm(WHEEL_TYPE wheel, float cps)
 887:..\source/cal.c **** {
 1978              		.loc 1 887 0
 1979              		.cfi_startproc
 1980              		@ args = 0, pretend = 0, frame = 0
 1981              		@ frame_needed = 0, uses_anonymous_args = 0
 1982              	.LVL234:
 1983 0000 F8B5     		push	{r3, r4, r5, r6, r7, lr}
 1984              		.cfi_def_cfa_offset 24
 1985              		.cfi_offset 3, -24
 1986              		.cfi_offset 4, -20
 1987              		.cfi_offset 5, -16
ARM GAS  C:\Users\Tim\AppData\Local\Temp\ccnUoCGf.s 			page 54


 1988              		.cfi_offset 6, -12
 1989              		.cfi_offset 7, -8
 1990              		.cfi_offset 14, -4
 1991              	.LVL235:
 888:..\source/cal.c ****     static uint8 send_once = 0;
 889:..\source/cal.c ****     PWM_TYPE pwm;
 890:..\source/cal.c ****     
 891:..\source/cal.c ****     
 892:..\source/cal.c ****     pwm = PWM_STOP;
 893:..\source/cal.c ****     
 894:..\source/cal.c ****     /* The conversion from CPS to PWM is valid only when calibration has been performed */
 895:..\source/cal.c ****     
 896:..\source/cal.c ****     if (p_cal_eeprom->status & CAL_MOTOR_BIT)
 1992              		.loc 1 896 0
 1993 0002 224B     		ldr	r3, .L166
 1994 0004 1B68     		ldr	r3, [r3]
 1995 0006 1B88     		ldrh	r3, [r3]
 1996 0008 13F0010F 		tst	r3, #1
 1997 000c 2ED0     		beq	.L161
 1998 000e 0646     		mov	r6, r0
 1999 0010 0D46     		mov	r5, r1
 2000              	.LBB2:
 897:..\source/cal.c ****     {
 898:..\source/cal.c ****     
 899:..\source/cal.c ****         CAL_DATA_TYPE *p_cal_data = WHEEL_DIR_TO_CAL_DATA[wheel][cps > 0 ? 0 : 1];
 2001              		.loc 1 899 0
 2002 0012 4FF00104 		mov	r4, #1
 2003 0016 0846     		mov	r0, r1
 2004              	.LVL236:
 2005 0018 0021     		movs	r1, #0
 2006              	.LVL237:
 2007 001a FFF7FEFF 		bl	__aeabi_fcmpgt
 2008              	.LVL238:
 2009 001e 08B9     		cbnz	r0, .L162
 2010 0020 4FF00004 		mov	r4, #0
 2011              	.L162:
 2012 0024 E0B2     		uxtb	r0, r4
 2013 0026 80F00100 		eor	r0, r0, #1
 2014 002a 00EB4600 		add	r0, r0, r6, lsl #1
 2015 002e 184B     		ldr	r3, .L166+4
 2016 0030 53F82040 		ldr	r4, [r3, r0, lsl #2]
 2017              	.LVL239:
 900:..\source/cal.c ****         
 901:..\source/cal.c ****         cps = constrain((int32)(cps * p_cal_data->cps_scale), p_cal_data->cps_min, p_cal_data->cps_
 2018              		.loc 1 901 0
 2019 0034 6768     		ldr	r7, [r4, #4]	@ unaligned
 2020 0036 2668     		ldr	r6, [r4]	@ unaligned
 2021 0038 A068     		ldr	r0, [r4, #8]	@ unaligned
 2022 003a FFF7FEFF 		bl	__aeabi_i2f
 2023              	.LVL240:
 2024 003e 2946     		mov	r1, r5
 2025 0040 FFF7FEFF 		bl	__aeabi_fmul
 2026              	.LVL241:
 2027 0044 FFF7FEFF 		bl	__aeabi_f2iz
 2028              	.LVL242:
 2029 0048 B042     		cmp	r0, r6
 2030 004a B8BF     		it	lt
ARM GAS  C:\Users\Tim\AppData\Local\Temp\ccnUoCGf.s 			page 55


 2031 004c 3046     		movlt	r0, r6
 2032 004e B842     		cmp	r0, r7
 2033 0050 A8BF     		it	ge
 2034 0052 3846     		movge	r0, r7
 2035 0054 FFF7FEFF 		bl	__aeabi_i2f
 2036              	.LVL243:
 902:..\source/cal.c ****         pwm = CpsToPwm(cps, &p_cal_data->cps_data[0], &p_cal_data->pwm_data[0], CAL_DATA_SIZE);
 2037              		.loc 1 902 0
 2038 0058 FFF7FEFF 		bl	__aeabi_f2iz
 2039              	.LVL244:
 2040 005c 04F10C01 		add	r1, r4, #12
 2041 0060 04F1D802 		add	r2, r4, #216
 2042 0064 3323     		movs	r3, #51
 2043 0066 FFF7FEFF 		bl	CpsToPwm
 2044              	.LVL245:
 2045              	.LBE2:
 2046 006a F8BD     		pop	{r3, r4, r5, r6, r7, pc}
 2047              	.LVL246:
 2048              	.L161:
 903:..\source/cal.c ****     }
 904:..\source/cal.c ****     else
 905:..\source/cal.c ****     {
 906:..\source/cal.c ****         if (!send_once)
 2049              		.loc 1 906 0
 2050 006c 094B     		ldr	r3, .L166+8
 2051 006e 5B7C     		ldrb	r3, [r3, #17]	@ zero_extendqisi2
 2052 0070 43B9     		cbnz	r3, .L164
 907:..\source/cal.c ****         {
 908:..\source/cal.c ****             Ser_PutString("Motor calibration status not set\r\n");
 2053              		.loc 1 908 0
 2054 0072 0948     		ldr	r0, .L166+12
 2055              	.LVL247:
 2056 0074 FFF7FEFF 		bl	Ser_PutString
 2057              	.LVL248:
 909:..\source/cal.c ****             send_once = 1;
 2058              		.loc 1 909 0
 2059 0078 0122     		movs	r2, #1
 2060 007a 064B     		ldr	r3, .L166+8
 2061 007c 5A74     		strb	r2, [r3, #17]
 892:..\source/cal.c ****     
 2062              		.loc 1 892 0
 2063 007e 40F2DC50 		movw	r0, #1500
 2064 0082 F8BD     		pop	{r3, r4, r5, r6, r7, pc}
 2065              	.LVL249:
 2066              	.L164:
 2067 0084 40F2DC50 		movw	r0, #1500
 2068              	.LVL250:
 910:..\source/cal.c ****         }
 911:..\source/cal.c ****     }
 912:..\source/cal.c **** 
 913:..\source/cal.c ****     return pwm;
 914:..\source/cal.c **** }
 2069              		.loc 1 914 0
 2070 0088 F8BD     		pop	{r3, r4, r5, r6, r7, pc}
 2071              	.L167:
 2072 008a 00BF     		.align	2
 2073              	.L166:
ARM GAS  C:\Users\Tim\AppData\Local\Temp\ccnUoCGf.s 			page 56


 2074 008c 00000000 		.word	p_cal_eeprom
 2075 0090 00000000 		.word	WHEEL_DIR_TO_CAL_DATA
 2076 0094 00000000 		.word	.LANCHOR0
 2077 0098 600B0000 		.word	.LC56
 2078              		.cfi_endproc
 2079              	.LFE88:
 2080              		.size	Cal_CpsToPwm, .-Cal_CpsToPwm
 2081              		.section	.text.Cal_Clear,"ax",%progbits
 2082              		.align	2
 2083              		.global	Cal_Clear
 2084              		.thumb
 2085              		.thumb_func
 2086              		.type	Cal_Clear, %function
 2087              	Cal_Clear:
 2088              	.LFB89:
 915:..\source/cal.c **** 
 916:..\source/cal.c **** /*-------------------------------------------------------------------------------------------------
 917:..\source/cal.c ****  * Name: Cal_Clear
 918:..\source/cal.c ****  * Description: Clears the motor and PID calibration bits. 
 919:..\source/cal.c ****  * Parameters: None
 920:..\source/cal.c ****  * Return: None
 921:..\source/cal.c ****  * 
 922:..\source/cal.c ****  *-------------------------------------------------------------------------------------------------
 923:..\source/cal.c **** void Cal_Clear()
 924:..\source/cal.c **** {
 2089              		.loc 1 924 0
 2090              		.cfi_startproc
 2091              		@ args = 0, pretend = 0, frame = 0
 2092              		@ frame_needed = 0, uses_anonymous_args = 0
 2093 0000 08B5     		push	{r3, lr}
 2094              		.cfi_def_cfa_offset 8
 2095              		.cfi_offset 3, -8
 2096              		.cfi_offset 14, -4
 925:..\source/cal.c ****     ClearCalibrationStatusBit(CAL_MOTOR_BIT);
 2097              		.loc 1 925 0
 2098 0002 0120     		movs	r0, #1
 2099 0004 FFF7FEFF 		bl	ClearCalibrationStatusBit
 2100              	.LVL251:
 926:..\source/cal.c ****     ClearCalibrationStatusBit(CAL_PID_BIT);
 2101              		.loc 1 926 0
 2102 0008 0220     		movs	r0, #2
 2103 000a FFF7FEFF 		bl	ClearCalibrationStatusBit
 2104              	.LVL252:
 2105 000e 08BD     		pop	{r3, pc}
 2106              		.cfi_endproc
 2107              	.LFE89:
 2108              		.size	Cal_Clear, .-Cal_Clear
 2109              		.global	__aeabi_fcmplt
 2110              		.global	__aeabi_fsub
 2111              		.global	__aeabi_fdiv
 2112              		.global	__aeabi_fadd
 2113              		.section	.text.Cal_CalcTriangularProfile,"ax",%progbits
 2114              		.align	2
 2115              		.global	Cal_CalcTriangularProfile
 2116              		.thumb
 2117              		.thumb_func
 2118              		.type	Cal_CalcTriangularProfile, %function
ARM GAS  C:\Users\Tim\AppData\Local\Temp\ccnUoCGf.s 			page 57


 2119              	Cal_CalcTriangularProfile:
 2120              	.LFB90:
 927:..\source/cal.c **** }
 928:..\source/cal.c **** 
 929:..\source/cal.c **** /*-------------------------------------------------------------------------------------------------
 930:..\source/cal.c ****  * Name: Cal_CalcTriangularProfile
 931:..\source/cal.c ****  * Description: Calculates an array of values using a triangle profile based on a calibrated motor 
 932:..\source/cal.c ****  *              values. 
 933:..\source/cal.c ****  * Parameters: num_points - the number of points in the profile (must be odd) 
 934:..\source/cal.c ****  *             lower_limit - the start/end value as a percentage of the maximum motor value
 935:..\source/cal.c ****  *             upper_limit - the maximum value as a percentage of the maximum motor value
 936:..\source/cal.c ****  *             forward_profile - profile for the forward direction
 937:..\source/cal.c ****  *             backward_profile - profile for the backward direction
 938:..\source/cal.c ****  * Return: None
 939:..\source/cal.c ****  * 
 940:..\source/cal.c ****  *-------------------------------------------------------------------------------------------------
 941:..\source/cal.c **** void Cal_CalcTriangularProfile(uint8 num_points, float lower_limit, float upper_limit, float *forwa
 942:..\source/cal.c **** /* This routine calculates a series of count/second values in a triangle profile (slow, fast, slow)
 943:..\source/cal.c ****    calibration data to determine a range  of forward and reverse values for each wheel.  The routin
 944:..\source/cal.c ****    motor validation to confirm that motor calibration conversion from count/second to pwm is reason
 945:..\source/cal.c ****  */
 946:..\source/cal.c **** {
 2121              		.loc 1 946 0
 2122              		.cfi_startproc
 2123              		@ args = 4, pretend = 0, frame = 16
 2124              		@ frame_needed = 0, uses_anonymous_args = 0
 2125              	.LVL253:
 2126 0000 2DE9F04F 		push	{r4, r5, r6, r7, r8, r9, r10, fp, lr}
 2127              		.cfi_def_cfa_offset 36
 2128              		.cfi_offset 4, -36
 2129              		.cfi_offset 5, -32
 2130              		.cfi_offset 6, -28
 2131              		.cfi_offset 7, -24
 2132              		.cfi_offset 8, -20
 2133              		.cfi_offset 9, -16
 2134              		.cfi_offset 10, -12
 2135              		.cfi_offset 11, -8
 2136              		.cfi_offset 14, -4
 2137 0004 85B0     		sub	sp, sp, #20
 2138              		.cfi_def_cfa_offset 56
 2139 0006 8346     		mov	fp, r0
 2140 0008 0E46     		mov	r6, r1
 2141 000a 9246     		mov	r10, r2
 2142 000c 9946     		mov	r9, r3
 2143 000e 0E9D     		ldr	r5, [sp, #56]
 947:..\source/cal.c ****     uint8 ii;
 948:..\source/cal.c **** 
 949:..\source/cal.c ****     memset(forward_profile, 0, num_points * sizeof(float));
 2144              		.loc 1 949 0
 2145 0010 8400     		lsls	r4, r0, #2
 2146 0012 1846     		mov	r0, r3
 2147              	.LVL254:
 2148 0014 0021     		movs	r1, #0
 2149              	.LVL255:
 2150 0016 2246     		mov	r2, r4
 2151              	.LVL256:
 2152 0018 FFF7FEFF 		bl	memset
ARM GAS  C:\Users\Tim\AppData\Local\Temp\ccnUoCGf.s 			page 58


 2153              	.LVL257:
 950:..\source/cal.c ****     memset(backward_profile, 0, num_points * sizeof(float));
 2154              		.loc 1 950 0
 2155 001c 2846     		mov	r0, r5
 2156 001e 0021     		movs	r1, #0
 2157 0020 2246     		mov	r2, r4
 2158 0022 FFF7FEFF 		bl	memset
 2159              	.LVL258:
 951:..\source/cal.c **** 
 952:..\source/cal.c ****     if( num_points % 2 == 0 )
 2160              		.loc 1 952 0
 2161 0026 1BF0010F 		tst	fp, #1
 2162 002a 00F09280 		beq	.L170
 953:..\source/cal.c ****     {
 954:..\source/cal.c ****         return;
 955:..\source/cal.c ****     }
 956:..\source/cal.c ****     
 957:..\source/cal.c ****     if (p_cal_eeprom->status & CAL_MOTOR_BIT)
 2163              		.loc 1 957 0
 2164 002e 4A4B     		ldr	r3, .L183
 2165 0030 1F68     		ldr	r7, [r3]
 2166 0032 3B88     		ldrh	r3, [r7]
 2167 0034 13F0010F 		tst	r3, #1
 2168 0038 00F08B80 		beq	.L170
 2169              	.LBB3:
 958:..\source/cal.c ****     {    
 959:..\source/cal.c ****         float left_forward_cps_max = p_cal_eeprom->left_motor_fwd.cps_max / p_cal_eeprom->left_moto
 2170              		.loc 1 959 0
 2171 003c F86C     		ldr	r0, [r7, #76]
 2172 003e 3B6D     		ldr	r3, [r7, #80]
 2173 0040 90FBF3F0 		sdiv	r0, r0, r3
 2174 0044 FFF7FEFF 		bl	__aeabi_i2f
 2175              	.LVL259:
 2176 0048 0090     		str	r0, [sp]	@ float
 2177              	.LVL260:
 960:..\source/cal.c ****         float right_forward_cps_max = p_cal_eeprom->right_motor_fwd.cps_max / p_cal_eeprom->right_m
 2178              		.loc 1 960 0
 2179 004a D7F8CC02 		ldr	r0, [r7, #716]
 2180              	.LVL261:
 2181 004e D7F8D032 		ldr	r3, [r7, #720]
 2182 0052 90FBF3F0 		sdiv	r0, r0, r3
 2183 0056 FFF7FEFF 		bl	__aeabi_i2f
 2184              	.LVL262:
 2185 005a 0446     		mov	r4, r0
 2186              	.LVL263:
 961:..\source/cal.c ****         float left_backward_cps_min = p_cal_eeprom->left_motor_bwd.cps_min / p_cal_eeprom->left_mot
 2187              		.loc 1 961 0
 2188 005c D7F88801 		ldr	r0, [r7, #392]
 2189              	.LVL264:
 2190 0060 D7F89031 		ldr	r3, [r7, #400]
 2191 0064 90FBF3F0 		sdiv	r0, r0, r3
 2192 0068 FFF7FEFF 		bl	__aeabi_i2f
 2193              	.LVL265:
 2194 006c 8046     		mov	r8, r0
 2195              	.LVL266:
 962:..\source/cal.c ****         float right_backward_cps_min = p_cal_eeprom->right_motor_bwd.cps_min / p_cal_eeprom->right_
 2196              		.loc 1 962 0
ARM GAS  C:\Users\Tim\AppData\Local\Temp\ccnUoCGf.s 			page 59


 2197 006e D7F80804 		ldr	r0, [r7, #1032]
 2198              	.LVL267:
 2199 0072 D7F81034 		ldr	r3, [r7, #1040]
 2200 0076 90FBF3F0 		sdiv	r0, r0, r3
 2201 007a FFF7FEFF 		bl	__aeabi_i2f
 2202              	.LVL268:
 2203 007e 0390     		str	r0, [sp, #12]	@ float
 2204              	.LVL269:
 963:..\source/cal.c **** 
 964:..\source/cal.c ****         float forward_cps_max = min(left_forward_cps_max, right_forward_cps_max);
 2205              		.loc 1 964 0
 2206 0080 0098     		ldr	r0, [sp]	@ float
 2207              	.LVL270:
 2208 0082 2146     		mov	r1, r4
 2209 0084 FFF7FEFF 		bl	__aeabi_fcmplt
 2210              	.LVL271:
 2211 0088 00B1     		cbz	r0, .L172
 2212 008a 009C     		ldr	r4, [sp]	@ float
 2213              	.LVL272:
 2214              	.L172:
 965:..\source/cal.c ****         /* Note: Backward values are negative */
 966:..\source/cal.c ****         float backward_cps_max = max(left_backward_cps_min, right_backward_cps_min);
 2215              		.loc 1 966 0 discriminator 4
 2216 008c 4046     		mov	r0, r8
 2217 008e 0399     		ldr	r1, [sp, #12]	@ float
 2218 0090 FFF7FEFF 		bl	__aeabi_fcmpgt
 2219              	.LVL273:
 2220 0094 08B1     		cbz	r0, .L174
 2221              		.loc 1 966 0 is_stmt 0
 2222 0096 CDF80C80 		str	r8, [sp, #12]	@ float
 2223              	.LVL274:
 2224              	.L174:
 967:..\source/cal.c ****         
 968:..\source/cal.c ****         float fwd_cps_start = lower_limit * forward_cps_max;
 2225              		.loc 1 968 0 is_stmt 1 discriminator 4
 2226 009a 2046     		mov	r0, r4
 2227 009c 3146     		mov	r1, r6
 2228 009e FFF7FEFF 		bl	__aeabi_fmul
 2229              	.LVL275:
 2230 00a2 8046     		mov	r8, r0
 2231              	.LVL276:
 969:..\source/cal.c ****         float fwd_cps_end = upper_limit * forward_cps_max;
 2232              		.loc 1 969 0 discriminator 4
 2233 00a4 2046     		mov	r0, r4
 2234              	.LVL277:
 2235 00a6 5146     		mov	r1, r10
 2236 00a8 FFF7FEFF 		bl	__aeabi_fmul
 2237              	.LVL278:
 2238 00ac 0090     		str	r0, [sp]	@ float
 2239              	.LVL279:
 970:..\source/cal.c ****         float bwd_cps_start = lower_limit * backward_cps_max;
 2240              		.loc 1 970 0 discriminator 4
 2241 00ae 0398     		ldr	r0, [sp, #12]	@ float
 2242              	.LVL280:
 2243 00b0 3146     		mov	r1, r6
 2244 00b2 FFF7FEFF 		bl	__aeabi_fmul
 2245              	.LVL281:
ARM GAS  C:\Users\Tim\AppData\Local\Temp\ccnUoCGf.s 			page 60


 2246 00b6 0746     		mov	r7, r0
 2247              	.LVL282:
 971:..\source/cal.c ****         float bwd_cps_end = upper_limit * backward_cps_max;
 2248              		.loc 1 971 0 discriminator 4
 2249 00b8 0398     		ldr	r0, [sp, #12]	@ float
 2250              	.LVL283:
 2251 00ba 5146     		mov	r1, r10
 2252 00bc FFF7FEFF 		bl	__aeabi_fmul
 2253              	.LVL284:
 2254 00c0 0646     		mov	r6, r0
 2255              	.LVL285:
 972:..\source/cal.c ****         
 973:..\source/cal.c ****         float fwd_cps_delta = (fwd_cps_end - fwd_cps_start)/num_points;
 2256              		.loc 1 973 0 discriminator 4
 2257 00c2 0098     		ldr	r0, [sp]	@ float
 2258              	.LVL286:
 2259 00c4 4146     		mov	r1, r8
 2260 00c6 FFF7FEFF 		bl	__aeabi_fsub
 2261              	.LVL287:
 2262 00ca 0190     		str	r0, [sp, #4]	@ float
 2263 00cc 5846     		mov	r0, fp
 2264 00ce FFF7FEFF 		bl	__aeabi_i2f
 2265              	.LVL288:
 2266 00d2 8246     		mov	r10, r0
 2267              	.LVL289:
 2268 00d4 0198     		ldr	r0, [sp, #4]	@ float
 2269 00d6 5146     		mov	r1, r10
 2270 00d8 FFF7FEFF 		bl	__aeabi_fdiv
 2271              	.LVL290:
 2272 00dc 0190     		str	r0, [sp, #4]	@ float
 2273              	.LVL291:
 974:..\source/cal.c ****         float bwd_cps_delta = (bwd_cps_end - bwd_cps_start)/num_points;
 2274              		.loc 1 974 0 discriminator 4
 2275 00de 3046     		mov	r0, r6
 2276              	.LVL292:
 2277 00e0 3946     		mov	r1, r7
 2278 00e2 FFF7FEFF 		bl	__aeabi_fsub
 2279              	.LVL293:
 2280 00e6 5146     		mov	r1, r10
 2281 00e8 FFF7FEFF 		bl	__aeabi_fdiv
 2282              	.LVL294:
 2283 00ec 0290     		str	r0, [sp, #8]	@ float
 2284              	.LVL295:
 975:..\source/cal.c **** 
 976:..\source/cal.c ****         uint8 mid_sample_offset = num_points / 2;
 2285              		.loc 1 976 0 discriminator 4
 2286 00ee 4FEA5B0A 		lsr	r10, fp, #1
 2287              	.LVL296:
 977:..\source/cal.c ****         
 978:..\source/cal.c ****         forward_profile[mid_sample_offset] = forward_cps_max;
 2288              		.loc 1 978 0 discriminator 4
 2289 00f2 49F82A40 		str	r4, [r9, r10, lsl #2]	@ float
 979:..\source/cal.c ****         backward_profile[mid_sample_offset] = backward_cps_max;
 2290              		.loc 1 979 0 discriminator 4
 2291 00f6 039B     		ldr	r3, [sp, #12]	@ float
 2292 00f8 45F82A30 		str	r3, [r5, r10, lsl #2]	@ float
 2293              	.LVL297:
ARM GAS  C:\Users\Tim\AppData\Local\Temp\ccnUoCGf.s 			page 61


 980:..\source/cal.c ****         
 981:..\source/cal.c ****         float fwd_value = fwd_cps_start;
 982:..\source/cal.c ****         float bwd_value = bwd_cps_start;
 983:..\source/cal.c ****         for (ii = 0; ii < mid_sample_offset; ++ii)
 2294              		.loc 1 983 0 discriminator 4
 2295 00fc 0024     		movs	r4, #0
 2296              	.LVL298:
 2297 00fe 0FE0     		b	.L176
 2298              	.LVL299:
 2299              	.L177:
 984:..\source/cal.c ****         {
 985:..\source/cal.c ****             forward_profile[ii] = fwd_value;
 2300              		.loc 1 985 0 discriminator 3
 2301 0100 49F82480 		str	r8, [r9, r4, lsl #2]	@ float
 986:..\source/cal.c ****             backward_profile[ii] = bwd_value;
 2302              		.loc 1 986 0 discriminator 3
 2303 0104 45F82470 		str	r7, [r5, r4, lsl #2]	@ float
 987:..\source/cal.c ****             
 988:..\source/cal.c ****             fwd_value += fwd_cps_delta;
 2304              		.loc 1 988 0 discriminator 3
 2305 0108 4046     		mov	r0, r8
 2306 010a 0199     		ldr	r1, [sp, #4]	@ float
 2307 010c FFF7FEFF 		bl	__aeabi_fadd
 2308              	.LVL300:
 2309 0110 8046     		mov	r8, r0
 2310              	.LVL301:
 989:..\source/cal.c ****             bwd_value += bwd_cps_delta;
 2311              		.loc 1 989 0 discriminator 3
 2312 0112 3846     		mov	r0, r7
 2313              	.LVL302:
 2314 0114 0299     		ldr	r1, [sp, #8]	@ float
 2315 0116 FFF7FEFF 		bl	__aeabi_fadd
 2316              	.LVL303:
 2317 011a 0746     		mov	r7, r0
 2318              	.LVL304:
 983:..\source/cal.c ****         {
 2319              		.loc 1 983 0 discriminator 3
 2320 011c 0134     		adds	r4, r4, #1
 2321              	.LVL305:
 2322 011e E4B2     		uxtb	r4, r4
 2323              	.LVL306:
 2324              	.L176:
 983:..\source/cal.c ****         {
 2325              		.loc 1 983 0 is_stmt 0 discriminator 1
 2326 0120 5445     		cmp	r4, r10
 2327 0122 EDD3     		bcc	.L177
 2328 0124 0124     		movs	r4, #1
 2329              	.LVL307:
 2330 0126 12E0     		b	.L178
 2331              	.LVL308:
 2332              	.L179:
 990:..\source/cal.c ****         }
 991:..\source/cal.c ****         
 992:..\source/cal.c ****         fwd_value = fwd_cps_end;
 993:..\source/cal.c ****         bwd_value = bwd_cps_end;
 994:..\source/cal.c ****         for (ii = 1; ii < num_points; ++ii)
 995:..\source/cal.c ****         {
ARM GAS  C:\Users\Tim\AppData\Local\Temp\ccnUoCGf.s 			page 62


 996:..\source/cal.c ****             forward_profile[mid_sample_offset + ii] = fwd_value;
 2333              		.loc 1 996 0 is_stmt 1 discriminator 3
 2334 0128 0AEB0403 		add	r3, r10, r4
 2335 012c 009A     		ldr	r2, [sp]	@ float
 2336 012e 49F82320 		str	r2, [r9, r3, lsl #2]	@ float
 997:..\source/cal.c ****             backward_profile[mid_sample_offset + ii] = bwd_value;
 2337              		.loc 1 997 0 discriminator 3
 2338 0132 45F82360 		str	r6, [r5, r3, lsl #2]	@ float
 998:..\source/cal.c **** 
 999:..\source/cal.c ****             fwd_value -= fwd_cps_delta;
 2339              		.loc 1 999 0 discriminator 3
 2340 0136 1046     		mov	r0, r2
 2341 0138 0199     		ldr	r1, [sp, #4]	@ float
 2342 013a FFF7FEFF 		bl	__aeabi_fsub
 2343              	.LVL309:
 2344 013e 0090     		str	r0, [sp]	@ float
 2345              	.LVL310:
1000:..\source/cal.c ****             bwd_value -= bwd_cps_delta;
 2346              		.loc 1 1000 0 discriminator 3
 2347 0140 3046     		mov	r0, r6
 2348              	.LVL311:
 2349 0142 0299     		ldr	r1, [sp, #8]	@ float
 2350 0144 FFF7FEFF 		bl	__aeabi_fsub
 2351              	.LVL312:
 2352 0148 0646     		mov	r6, r0
 2353              	.LVL313:
 994:..\source/cal.c ****         {
 2354              		.loc 1 994 0 discriminator 3
 2355 014a 0134     		adds	r4, r4, #1
 2356              	.LVL314:
 2357 014c E4B2     		uxtb	r4, r4
 2358              	.LVL315:
 2359              	.L178:
 994:..\source/cal.c ****         {
 2360              		.loc 1 994 0 is_stmt 0 discriminator 1
 2361 014e 5C45     		cmp	r4, fp
 2362 0150 EAD3     		bcc	.L179
 2363              	.LVL316:
 2364              	.L170:
 2365              	.LBE3:
1001:..\source/cal.c ****         }
1002:..\source/cal.c ****     }
1003:..\source/cal.c **** }
 2366              		.loc 1 1003 0 is_stmt 1
 2367 0152 05B0     		add	sp, sp, #20
 2368              		.cfi_def_cfa_offset 36
 2369              		@ sp needed
 2370 0154 BDE8F08F 		pop	{r4, r5, r6, r7, r8, r9, r10, fp, pc}
 2371              	.LVL317:
 2372              	.L184:
 2373              		.align	2
 2374              	.L183:
 2375 0158 00000000 		.word	p_cal_eeprom
 2376              		.cfi_endproc
 2377              	.LFE90:
 2378              		.size	Cal_CalcTriangularProfile, .-Cal_CalcTriangularProfile
 2379              		.global	cal_state_to_string
ARM GAS  C:\Users\Tim\AppData\Local\Temp\ccnUoCGf.s 			page 63


 2380              		.global	cal_stage_to_string
 2381              		.comm	debug_control_enabled,2,2
 2382              		.comm	formatted_string,256,4
 2383              		.comm	CalAng_Calibration,4,4
 2384              		.comm	CalLin_Validation,4,4
 2385              		.comm	CalPid_RightValidation,4,4
 2386              		.comm	CalPid_LeftValidation,4,4
 2387              		.comm	CalPid_RightCalibration,4,4
 2388              		.comm	CalPid_LeftCalibration,4,4
 2389              		.comm	CalMotor_Validation,4,4
 2390              		.comm	CalMotor_Calibration,4,4
 2391              		.comm	WHEEL_DIR_TO_CAL_DATA,16,4
 2392              		.comm	Cal_RightTarget,4,4
 2393              		.comm	Cal_LeftTarget,4,4
 2394              		.comm	p_cal_eeprom,4,4
 2395              		.data
 2396              		.align	2
 2397              		.set	.LANCHOR1,. + 0
 2398              		.type	cal_stage_to_string, %object
 2399              		.size	cal_stage_to_string, 8
 2400              	cal_stage_to_string:
 2401 0000 D40B0000 		.word	.LC63
 2402 0004 E00B0000 		.word	.LC64
 2403              		.type	cal_state_to_string, %object
 2404              		.size	cal_state_to_string, 24
 2405              	cal_state_to_string:
 2406 0008 840B0000 		.word	.LC57
 2407 000c 900B0000 		.word	.LC58
 2408 0010 9C0B0000 		.word	.LC59
 2409 0014 AC0B0000 		.word	.LC60
 2410 0018 B80B0000 		.word	.LC61
 2411 001c C80B0000 		.word	.LC62
 2412              		.section	.rodata.str1.4,"aMS",%progbits,1
 2413              		.align	2
 2414              	.LC0:
 2415 0000 0D0A5765 		.ascii	"\015\012Welcome to the Arlobot calibration interfac"
 2415      6C636F6D 
 2415      6520746F 
 2415      20746865 
 2415      2041726C 
 2416 002d 652E0D0A 		.ascii	"e.\015\012\000"
 2416      00
 2417 0032 0000     		.space	2
 2418              	.LC1:
 2419 0034 54686520 		.ascii	"The following calibration operations are allowed:\015"
 2419      666F6C6C 
 2419      6F77696E 
 2419      67206361 
 2419      6C696272 
 2420 0066 0A00     		.ascii	"\012\000"
 2421              	.LC2:
 2422 0068 20202020 		.ascii	"    1. Motor Calibration - creates mapping between "
 2422      312E204D 
 2422      6F746F72 
 2422      2043616C 
 2422      69627261 
 2423 009b 636F756E 		.ascii	"count/sec and PWM.\015\012\000"
ARM GAS  C:\Users\Tim\AppData\Local\Temp\ccnUoCGf.s 			page 64


 2423      742F7365 
 2423      6320616E 
 2423      64205057 
 2423      4D2E0D0A 
 2424              	.LC3:
 2425 00b0 20202020 		.ascii	"    2. PID Left Calibration - enter gains, execute "
 2425      322E2050 
 2425      4944204C 
 2425      65667420 
 2425      43616C69 
 2426 00e3 73746570 		.ascii	"step input, print velocity response.\015\012\000"
 2426      20696E70 
 2426      75742C20 
 2426      7072696E 
 2426      74207665 
 2427 010a 0000     		.space	2
 2428              	.LC4:
 2429 010c 20202020 		.ascii	"    3. PID Right Calibration - enter gains, execute"
 2429      332E2050 
 2429      49442052 
 2429      69676874 
 2429      2043616C 
 2430 013f 20737465 		.ascii	" step input, print velocity response.\015\012\000"
 2430      7020696E 
 2430      7075742C 
 2430      20707269 
 2430      6E742076 
 2431 0167 00       		.space	1
 2432              	.LC5:
 2433 0168 0D0A00   		.ascii	"\015\012\000"
 2434 016b 00       		.space	1
 2435              	.LC6:
 2436 016c 0D0A456E 		.ascii	"\015\012Enter X to exit calibration\015\012\000"
 2436      74657220 
 2436      5820746F 
 2436      20657869 
 2436      74206361 
 2437              	.LC7:
 2438 018c 4D616B65 		.ascii	"Make an entry [1-3,X]: \000"
 2438      20616E20 
 2438      656E7472 
 2438      79205B31 
 2438      2D332C58 
 2439              	.LC8:
 2440 01a4 0D0A5765 		.ascii	"\015\012Welcome to the Arlobot validation interface"
 2440      6C636F6D 
 2440      6520746F 
 2440      20746865 
 2440      2041726C 
 2441 01d1 2E0D0A00 		.ascii	".\015\012\000"
 2442 01d5 000000   		.space	3
 2443              	.LC9:
 2444 01d8 54686520 		.ascii	"The following validation operations are allowed:\015"
 2444      666F6C6C 
 2444      6F77696E 
 2444      67207661 
 2444      6C696461 
ARM GAS  C:\Users\Tim\AppData\Local\Temp\ccnUoCGf.s 			page 65


 2445 0209 0A00     		.ascii	"\012\000"
 2446 020b 00       		.space	1
 2447              	.LC10:
 2448 020c 20202020 		.ascii	"    1. Motor Validation - operates the motors at va"
 2448      312E204D 
 2448      6F746F72 
 2448      2056616C 
 2448      69646174 
 2449 023f 7279696E 		.ascii	"rying velocities.\015\012\000"
 2449      67207665 
 2449      6C6F6369 
 2449      74696573 
 2449      2E0D0A00 
 2450 0253 00       		.space	1
 2451              	.LC11:
 2452 0254 20202020 		.ascii	"    2. PID Validation - operates the motors at vary"
 2452      322E2050 
 2452      49442056 
 2452      616C6964 
 2452      6174696F 
 2453 0287 696E6720 		.ascii	"ing velocities, moves in a straight line and rotate"
 2453      76656C6F 
 2453      63697469 
 2453      65732C20 
 2453      6D6F7665 
 2454 02ba 7320696E 		.ascii	"s in place.\015\012\000"
 2454      20706C61 
 2454      63652E0D 
 2454      0A00
 2455              	.LC12:
 2456 02c8 20202020 		.ascii	"    3. Left PID (forward) Validation - operates the"
 2456      332E204C 
 2456      65667420 
 2456      50494420 
 2456      28666F72 
 2457 02fb 206C6566 		.ascii	" left motor in the forward direction at various vel"
 2457      74206D6F 
 2457      746F7220 
 2457      696E2074 
 2457      68652066 
 2458 032e 6F636974 		.ascii	"ocities.\015\012\000"
 2458      6965732E 
 2458      0D0A00
 2459 0339 000000   		.space	3
 2460              	.LC13:
 2461 033c 20202020 		.ascii	"    4. Left PID (backward) Validation - operates th"
 2461      342E204C 
 2461      65667420 
 2461      50494420 
 2461      28626163 
 2462 036f 65206C65 		.ascii	"e left motor in the backward direction at various v"
 2462      6674206D 
 2462      6F746F72 
 2462      20696E20 
 2462      74686520 
 2463 03a2 656C6F63 		.ascii	"elocities.\015\012\000"
 2463      69746965 
ARM GAS  C:\Users\Tim\AppData\Local\Temp\ccnUoCGf.s 			page 66


 2463      732E0D0A 
 2463      00
 2464 03af 00       		.space	1
 2465              	.LC14:
 2466 03b0 20202020 		.ascii	"    5. Right PID (forward) Validation - operates th"
 2466      352E2052 
 2466      69676874 
 2466      20504944 
 2466      2028666F 
 2467 03e3 65207269 		.ascii	"e right motor in the forward direction at various v"
 2467      67687420 
 2467      6D6F746F 
 2467      7220696E 
 2467      20746865 
 2468 0416 656C6F63 		.ascii	"elocities.\015\012\000"
 2468      69746965 
 2468      732E0D0A 
 2468      00
 2469 0423 00       		.space	1
 2470              	.LC15:
 2471 0424 20202020 		.ascii	"    6. Right PID (backward) Validation - operates t"
 2471      362E2052 
 2471      69676874 
 2471      20504944 
 2471      20286261 
 2472 0457 68652072 		.ascii	"he right motor in the backward direction at various"
 2472      69676874 
 2472      206D6F74 
 2472      6F722069 
 2472      6E207468 
 2473 048a 2076656C 		.ascii	" velocities.\015\012\000"
 2473      6F636974 
 2473      6965732E 
 2473      0D0A00
 2474 0499 000000   		.space	3
 2475              	.LC16:
 2476 049c 20202020 		.ascii	"    7. Straight Line (forward) Validation - operate"
 2476      372E2053 
 2476      74726169 
 2476      67687420 
 2476      4C696E65 
 2477 04cf 73207468 		.ascii	"s the robot in the forward direction at a constant "
 2477      6520726F 
 2477      626F7420 
 2477      696E2074 
 2477      68652066 
 2478 0502 28736C6F 		.ascii	"(slow) velocity.\015\012\000"
 2478      77292076 
 2478      656C6F63 
 2478      6974792E 
 2478      0D0A00
 2479 0515 000000   		.space	3
 2480              	.LC17:
 2481 0518 20202020 		.ascii	"    8. Straight Line (backward) Validation - operat"
 2481      382E2053 
 2481      74726169 
 2481      67687420 
ARM GAS  C:\Users\Tim\AppData\Local\Temp\ccnUoCGf.s 			page 67


 2481      4C696E65 
 2482 054b 65732074 		.ascii	"es the robot in the backward direction at a constan"
 2482      68652072 
 2482      6F626F74 
 2482      20696E20 
 2482      74686520 
 2483 057e 74202873 		.ascii	"t (slow) velocity.\015\012\000"
 2483      6C6F7729 
 2483      2076656C 
 2483      6F636974 
 2483      792E0D0A 
 2484 0593 00       		.space	1
 2485              	.LC18:
 2486 0594 0D0A456E 		.ascii	"\015\012Enter X to exit validation\015\012\000"
 2486      74657220 
 2486      5820746F 
 2486      20657869 
 2486      74207661 
 2487 05b3 00       		.space	1
 2488              	.LC19:
 2489 05b4 4D616B65 		.ascii	"Make an entry [1-8,X]: \000"
 2489      20616E20 
 2489      656E7472 
 2489      79205B31 
 2489      2D382C58 
 2490              	.LC20:
 2491 05cc 0D0A5765 		.ascii	"\015\012Welcome to the Arlobot settings display\015"
 2491      6C636F6D 
 2491      6520746F 
 2491      20746865 
 2491      2041726C 
 2492 05f6 0A00     		.ascii	"\012\000"
 2493              	.LC21:
 2494 05f8 54686520 		.ascii	"The following settings can be displayed\015\012\000"
 2494      666F6C6C 
 2494      6F77696E 
 2494      67207365 
 2494      7474696E 
 2495 0622 0000     		.space	2
 2496              	.LC22:
 2497 0624 20202020 		.ascii	"    1. Left Motor Calibration\015\012\000"
 2497      312E204C 
 2497      65667420 
 2497      4D6F746F 
 2497      72204361 
 2498              	.LC23:
 2499 0644 20202020 		.ascii	"    2. Right Motor Calibration\015\012\000"
 2499      322E2052 
 2499      69676874 
 2499      204D6F74 
 2499      6F722043 
 2500 0665 000000   		.space	3
 2501              	.LC24:
 2502 0668 20202020 		.ascii	"    3. PID Gains: left pid and right pid\015\012\000"
 2502      332E2050 
 2502      49442047 
 2502      61696E73 
ARM GAS  C:\Users\Tim\AppData\Local\Temp\ccnUoCGf.s 			page 68


 2502      3A206C65 
 2503 0693 00       		.space	1
 2504              	.LC25:
 2505 0694 20202020 		.ascii	"    4. Display All\015\012\000"
 2505      342E2044 
 2505      6973706C 
 2505      61792041 
 2505      6C6C0D0A 
 2506 06a9 000000   		.space	3
 2507              	.LC26:
 2508 06ac 4D616B65 		.ascii	"Make an entry [1-4,X]: \000"
 2508      20616E20 
 2508      656E7472 
 2508      79205B31 
 2508      2D342C58 
 2509              	.LC27:
 2510 06c4 4572726F 		.ascii	"Error processing stage %s, state %s\015\012\000"
 2510      72207072 
 2510      6F636573 
 2510      73696E67 
 2510      20737461 
 2511 06ea 0000     		.space	2
 2512              	.LC28:
 2513 06ec 0D0A4578 		.ascii	"\015\012Exiting Arlobot calibration/validation inte"
 2513      6974696E 
 2513      67204172 
 2513      6C6F626F 
 2513      74206361 
 2514 0719 72666163 		.ascii	"rface.\000"
 2514      652E00
 2515              	.LC29:
 2516 0720 0D0A5479 		.ascii	"\015\012Type 'C' to enter calibration, 'V' to enter"
 2516      70652027 
 2516      43272074 
 2516      6F20656E 
 2516      74657220 
 2517 074d 2076616C 		.ascii	" validation, 'D' to display settings\015\012\000"
 2517      69646174 
 2517      696F6E2C 
 2517      20274427 
 2517      20746F20 
 2518              	.LC30:
 2519 0774 52656365 		.ascii	"Received c command\015\012\000"
 2519      69766564 
 2519      20632063 
 2519      6F6D6D61 
 2519      6E640D0A 
 2520 0789 000000   		.space	3
 2521              	.LC31:
 2522 078c 52656365 		.ascii	"Received v command\015\012\000"
 2522      69766564 
 2522      20762063 
 2522      6F6D6D61 
 2522      6E640D0A 
 2523 07a1 000000   		.space	3
 2524              	.LC32:
 2525 07a4 52656365 		.ascii	"Received d command\015\012\000"
ARM GAS  C:\Users\Tim\AppData\Local\Temp\ccnUoCGf.s 			page 69


 2525      69766564 
 2525      20642063 
 2525      6F6D6D61 
 2525      6E640D0A 
 2526 07b9 000000   		.space	3
 2527              	.LC33:
 2528 07bc 52656365 		.ascii	"Received x command\015\012\000"
 2528      69766564 
 2528      20782063 
 2528      6F6D6D61 
 2528      6E640D0A 
 2529 07d1 000000   		.space	3
 2530              	.LC34:
 2531 07d4 0D0A5065 		.ascii	"\015\012Performing Motor Validation by operating th"
 2531      72666F72 
 2531      6D696E67 
 2531      204D6F74 
 2531      6F722056 
 2532 0801 65206D6F 		.ascii	"e motors at varying velocities.\015\012\000"
 2532      746F7273 
 2532      20617420 
 2532      76617279 
 2532      696E6720 
 2533 0823 00       		.space	1
 2534              	.LC35:
 2535 0824 0D0A5065 		.ascii	"\015\012Performing Left/Right PID Validation by ope"
 2535      72666F72 
 2535      6D696E67 
 2535      204C6566 
 2535      742F5269 
 2536 0851 72617469 		.ascii	"rating the motors at varying velocities.\015\012\000"
 2536      6E672074 
 2536      6865206D 
 2536      6F746F72 
 2536      73206174 
 2537              	.LC36:
 2538 087c 0D0A5065 		.ascii	"\015\012Performing Left PID validation in the forwa"
 2538      72666F72 
 2538      6D696E67 
 2538      204C6566 
 2538      74205049 
 2539 08a9 72642064 		.ascii	"rd direction.\015\012\000"
 2539      69726563 
 2539      74696F6E 
 2539      2E0D0A00 
 2540 08b9 000000   		.space	3
 2541              	.LC37:
 2542 08bc 0D0A5065 		.ascii	"\015\012Performing Left PID validation in the backw"
 2542      72666F72 
 2542      6D696E67 
 2542      204C6566 
 2542      74205049 
 2543 08e9 61726420 		.ascii	"ard direction.\015\012\000"
 2543      64697265 
 2543      6374696F 
 2543      6E2E0D0A 
 2543      00
ARM GAS  C:\Users\Tim\AppData\Local\Temp\ccnUoCGf.s 			page 70


 2544 08fa 0000     		.space	2
 2545              	.LC38:
 2546 08fc 0D0A5065 		.ascii	"\015\012Performing Right PID validation in the forw"
 2546      72666F72 
 2546      6D696E67 
 2546      20526967 
 2546      68742050 
 2547 0929 61726420 		.ascii	"ard direction.\015\012\000"
 2547      64697265 
 2547      6374696F 
 2547      6E2E0D0A 
 2547      00
 2548 093a 0000     		.space	2
 2549              	.LC39:
 2550 093c 0D0A5065 		.ascii	"\015\012Performing Right PID validation in the back"
 2550      72666F72 
 2550      6D696E67 
 2550      20526967 
 2550      68742050 
 2551 0969 77617264 		.ascii	"ward direction.\015\012\000"
 2551      20646972 
 2551      65637469 
 2551      6F6E2E0D 
 2551      0A00
 2552 097b 00       		.space	1
 2553              	.LC40:
 2554 097c 0D0A5065 		.ascii	"\015\012Performing straight line validation in the "
 2554      72666F72 
 2554      6D696E67 
 2554      20737472 
 2554      61696768 
 2555 09a9 666F7277 		.ascii	"forward direction.\015\012\000"
 2555      61726420 
 2555      64697265 
 2555      6374696F 
 2555      6E2E0D0A 
 2556 09be 0000     		.space	2
 2557              	.LC41:
 2558 09c0 0D0A5065 		.ascii	"\015\012Performing straight line validation in the "
 2558      72666F72 
 2558      6D696E67 
 2558      20737472 
 2558      61696768 
 2559 09ed 6261636B 		.ascii	"backward direction.\015\012\000"
 2559      77617264 
 2559      20646972 
 2559      65637469 
 2559      6F6E2E0D 
 2560 0a03 00       		.space	1
 2561              	.LC42:
 2562 0a04 25730D0A 		.ascii	"%s\015\012\000"
 2562      00
 2563 0a09 000000   		.space	3
 2564              	.LC43:
 2565 0a0c 256C643A 		.ascii	"%ld:%d \000"
 2565      25642000 
 2566              	.LC44:
ARM GAS  C:\Users\Tim\AppData\Local\Temp\ccnUoCGf.s 			page 71


 2567 0a14 256C643A 		.ascii	"%ld:%d\015\012\015\012\000"
 2567      25640D0A 
 2567      0D0A00
 2568 0a1f 00       		.space	1
 2569              	.LC45:
 2570 0a20 2573202D 		.ascii	"%s - P: %s, I: %s, D: %s\015\012\000"
 2570      20503A20 
 2570      25732C20 
 2570      493A2025 
 2570      732C2044 
 2571 0a3b 00       		.space	1
 2572              	.LC46:
 2573 0a3c 0D0A4469 		.ascii	"\015\012Displaying left motor calibration: count/se"
 2573      73706C61 
 2573      79696E67 
 2573      206C6566 
 2573      74206D6F 
 2574 0a69 632C2070 		.ascii	"c, pwm mapping\000"
 2574      776D206D 
 2574      61707069 
 2574      6E6700
 2575              	.LC47:
 2576 0a78 4C656674 		.ascii	"Left-Forward\000"
 2576      2D466F72 
 2576      77617264 
 2576      00
 2577 0a85 000000   		.space	3
 2578              	.LC48:
 2579 0a88 4C656674 		.ascii	"Left-Backward\000"
 2579      2D426163 
 2579      6B776172 
 2579      6400
 2580 0a96 0000     		.space	2
 2581              	.LC49:
 2582 0a98 0D0A4469 		.ascii	"\015\012Displaying right motor calibration: count/s"
 2582      73706C61 
 2582      79696E67 
 2582      20726967 
 2582      6874206D 
 2583 0ac5 65632C20 		.ascii	"ec, pwm mapping\000"
 2583      70776D20 
 2583      6D617070 
 2583      696E6700 
 2584 0ad5 000000   		.space	3
 2585              	.LC50:
 2586 0ad8 52696768 		.ascii	"Right-Forward\000"
 2586      742D466F 
 2586      72776172 
 2586      6400
 2587 0ae6 0000     		.space	2
 2588              	.LC51:
 2589 0ae8 52696768 		.ascii	"Right-Backward\000"
 2589      742D4261 
 2589      636B7761 
 2589      726400
 2590 0af7 00       		.space	1
 2591              	.LC52:
ARM GAS  C:\Users\Tim\AppData\Local\Temp\ccnUoCGf.s 			page 72


 2592 0af8 0D0A4469 		.ascii	"\015\012Displaying all PID gains: left, right\000"
 2592      73706C61 
 2592      79696E67 
 2592      20616C6C 
 2592      20504944 
 2593              	.LC53:
 2594 0b20 4C656674 		.ascii	"Left PID\000"
 2594      20504944 
 2594      00
 2595 0b29 000000   		.space	3
 2596              	.LC54:
 2597 0b2c 52696768 		.ascii	"Right PID\000"
 2597      74205049 
 2597      4400
 2598 0b36 0000     		.space	2
 2599              	.LC55:
 2600 0b38 0D0A4469 		.ascii	"\015\012Displaying all calibration/settings\000"
 2600      73706C61 
 2600      79696E67 
 2600      20616C6C 
 2600      2063616C 
 2601 0b5e 0000     		.space	2
 2602              	.LC56:
 2603 0b60 4D6F746F 		.ascii	"Motor calibration status not set\015\012\000"
 2603      72206361 
 2603      6C696272 
 2603      6174696F 
 2603      6E207374 
 2604 0b83 00       		.space	1
 2605              	.LC57:
 2606 0b84 494E4954 		.ascii	"INIT STATE\000"
 2606      20535441 
 2606      544500
 2607 0b8f 00       		.space	1
 2608              	.LC58:
 2609 0b90 53544152 		.ascii	"START STATE\000"
 2609      54205354 
 2609      41544500 
 2610              	.LC59:
 2611 0b9c 52554E4E 		.ascii	"RUNNING STATE\000"
 2611      494E4720 
 2611      53544154 
 2611      4500
 2612 0baa 0000     		.space	2
 2613              	.LC60:
 2614 0bac 53544F50 		.ascii	"STOP STATE\000"
 2614      20535441 
 2614      544500
 2615 0bb7 00       		.space	1
 2616              	.LC61:
 2617 0bb8 52455355 		.ascii	"RESULTS STATE\000"
 2617      4C545320 
 2617      53544154 
 2617      4500
 2618 0bc6 0000     		.space	2
 2619              	.LC62:
 2620 0bc8 444F4E45 		.ascii	"DONE STATE\000"
ARM GAS  C:\Users\Tim\AppData\Local\Temp\ccnUoCGf.s 			page 73


 2620      20535441 
 2620      544500
 2621 0bd3 00       		.space	1
 2622              	.LC63:
 2623 0bd4 43414C49 		.ascii	"CALIBRATION\000"
 2623      42524154 
 2623      494F4E00 
 2624              	.LC64:
 2625 0be0 56414C49 		.ascii	"VALIDATE\000"
 2625      44415445 
 2625      00
 2626 0be9 000000   		.bss
 2627              		.align	2
 2628              		.set	.LANCHOR0,. + 0
 2629              		.type	left_cmd_velocity, %object
 2630              		.size	left_cmd_velocity, 4
 2631              	left_cmd_velocity:
 2632 0000 00000000 		.space	4
 2633              		.type	right_cmd_velocity, %object
 2634              		.size	right_cmd_velocity, 4
 2635              	right_cmd_velocity:
 2636 0004 00000000 		.space	4
 2637              		.type	active_cal, %object
 2638              		.size	active_cal, 4
 2639              	active_cal:
 2640 0008 00000000 		.space	4
 2641              		.type	active_val, %object
 2642              		.size	active_val, 4
 2643              	active_val:
 2644 000c 00000000 		.space	4
 2645              		.type	ui_state, %object
 2646              		.size	ui_state, 1
 2647              	ui_state:
 2648 0010 00       		.space	1
 2649              		.type	send_once.8154, %object
 2650              		.size	send_once.8154, 1
 2651              	send_once.8154:
 2652 0011 00       		.space	1
 2653 0012 0000     		.text
 2654              	.Letext0:
 2655              		.file 2 "c:\\program files (x86)\\cypress\\psoc creator\\3.3\\psoc creator\\import\\gnu\\arm\\4.9.
 2656              		.file 3 "c:\\program files (x86)\\cypress\\psoc creator\\3.3\\psoc creator\\import\\gnu\\arm\\4.9.
 2657              		.file 4 "Generated_Source\\PSoC5/cytypes.h"
 2658              		.file 5 "..\\source\\config.h"
 2659              		.file 6 "..\\source\\calstore.h"
 2660              		.file 7 "..\\source\\pwm.h"
 2661              		.file 8 "..\\source\\cal.h"
 2662              		.file 9 "..\\source\\calpid.h"
 2663              		.file 10 "..\\source\\callin.h"
 2664              		.file 11 "Generated_Source\\PSoC5/core_cm3.h"
 2665              		.file 12 "..\\source\\calmotor.h"
 2666              		.file 13 "..\\source\\calang.h"
 2667              		.file 14 "..\\source\\debug.h"
 2668              		.file 15 "..\\source\\serial.h"
 2669              		.file 16 "..\\source\\utils.h"
 2670              		.file 17 "c:\\program files (x86)\\cypress\\psoc creator\\3.3\\psoc creator\\import\\gnu\\arm\\4.9
 2671              		.file 18 "..\\source\\nvstore.h"
ARM GAS  C:\Users\Tim\AppData\Local\Temp\ccnUoCGf.s 			page 74


 2672              		.file 19 "..\\source\\i2c.h"
 2673              		.file 20 "..\\source\\control.h"
 2674              		.file 21 "c:\\program files (x86)\\cypress\\psoc creator\\3.3\\psoc creator\\import\\gnu\\arm\\4.9
 2675              		.section	.debug_info,"",%progbits
 2676              	.Ldebug_info0:
 2677 0000 3B190000 		.4byte	0x193b
 2678 0004 0400     		.2byte	0x4
 2679 0006 00000000 		.4byte	.Ldebug_abbrev0
 2680 000a 04       		.byte	0x4
 2681 000b 01       		.uleb128 0x1
 2682 000c 57090000 		.4byte	.LASF206
 2683 0010 01       		.byte	0x1
 2684 0011 E6060000 		.4byte	.LASF207
 2685 0015 DD0A0000 		.4byte	.LASF208
 2686 0019 00000000 		.4byte	.Ldebug_ranges0+0
 2687 001d 00000000 		.4byte	0
 2688 0021 00000000 		.4byte	.Ldebug_line0
 2689 0025 02       		.uleb128 0x2
 2690 0026 04       		.byte	0x4
 2691 0027 04       		.byte	0x4
 2692 0028 80020000 		.4byte	.LASF0
 2693 002c 02       		.uleb128 0x2
 2694 002d 01       		.byte	0x1
 2695 002e 06       		.byte	0x6
 2696 002f 430A0000 		.4byte	.LASF1
 2697 0033 02       		.uleb128 0x2
 2698 0034 01       		.byte	0x1
 2699 0035 08       		.byte	0x8
 2700 0036 1A090000 		.4byte	.LASF2
 2701 003a 02       		.uleb128 0x2
 2702 003b 02       		.byte	0x2
 2703 003c 05       		.byte	0x5
 2704 003d AF070000 		.4byte	.LASF3
 2705 0041 02       		.uleb128 0x2
 2706 0042 02       		.byte	0x2
 2707 0043 07       		.byte	0x7
 2708 0044 5F0A0000 		.4byte	.LASF4
 2709 0048 03       		.uleb128 0x3
 2710 0049 53010000 		.4byte	.LASF12
 2711 004d 02       		.byte	0x2
 2712 004e 3F       		.byte	0x3f
 2713 004f 53000000 		.4byte	0x53
 2714 0053 02       		.uleb128 0x2
 2715 0054 04       		.byte	0x4
 2716 0055 05       		.byte	0x5
 2717 0056 C8070000 		.4byte	.LASF5
 2718 005a 02       		.uleb128 0x2
 2719 005b 04       		.byte	0x4
 2720 005c 07       		.byte	0x7
 2721 005d CA080000 		.4byte	.LASF6
 2722 0061 02       		.uleb128 0x2
 2723 0062 08       		.byte	0x8
 2724 0063 05       		.byte	0x5
 2725 0064 E4050000 		.4byte	.LASF7
 2726 0068 02       		.uleb128 0x2
 2727 0069 08       		.byte	0x8
 2728 006a 07       		.byte	0x7
ARM GAS  C:\Users\Tim\AppData\Local\Temp\ccnUoCGf.s 			page 75


 2729 006b D4020000 		.4byte	.LASF8
 2730 006f 04       		.uleb128 0x4
 2731 0070 04       		.byte	0x4
 2732 0071 05       		.byte	0x5
 2733 0072 696E7400 		.ascii	"int\000"
 2734 0076 02       		.uleb128 0x2
 2735 0077 04       		.byte	0x4
 2736 0078 07       		.byte	0x7
 2737 0079 EA000000 		.4byte	.LASF9
 2738 007d 05       		.uleb128 0x5
 2739 007e 04       		.byte	0x4
 2740 007f 02       		.uleb128 0x2
 2741 0080 04       		.byte	0x4
 2742 0081 07       		.byte	0x7
 2743 0082 C1080000 		.4byte	.LASF10
 2744 0086 06       		.uleb128 0x6
 2745 0087 04       		.byte	0x4
 2746 0088 8C000000 		.4byte	0x8c
 2747 008c 02       		.uleb128 0x2
 2748 008d 01       		.byte	0x1
 2749 008e 08       		.byte	0x8
 2750 008f DF040000 		.4byte	.LASF11
 2751 0093 06       		.uleb128 0x6
 2752 0094 04       		.byte	0x4
 2753 0095 99000000 		.4byte	0x99
 2754 0099 07       		.uleb128 0x7
 2755 009a 8C000000 		.4byte	0x8c
 2756 009e 03       		.uleb128 0x3
 2757 009f FE080000 		.4byte	.LASF13
 2758 00a3 03       		.byte	0x3
 2759 00a4 2C       		.byte	0x2c
 2760 00a5 48000000 		.4byte	0x48
 2761 00a9 08       		.uleb128 0x8
 2762 00aa B10A0000 		.4byte	.LASF14
 2763 00ae 04       		.byte	0x4
 2764 00af 3801     		.2byte	0x138
 2765 00b1 33000000 		.4byte	0x33
 2766 00b5 08       		.uleb128 0x8
 2767 00b6 34050000 		.4byte	.LASF15
 2768 00ba 04       		.byte	0x4
 2769 00bb 3901     		.2byte	0x139
 2770 00bd 41000000 		.4byte	0x41
 2771 00c1 08       		.uleb128 0x8
 2772 00c2 F6060000 		.4byte	.LASF16
 2773 00c6 04       		.byte	0x4
 2774 00c7 3A01     		.2byte	0x13a
 2775 00c9 5A000000 		.4byte	0x5a
 2776 00cd 08       		.uleb128 0x8
 2777 00ce 5D010000 		.4byte	.LASF17
 2778 00d2 04       		.byte	0x4
 2779 00d3 3C01     		.2byte	0x13c
 2780 00d5 3A000000 		.4byte	0x3a
 2781 00d9 08       		.uleb128 0x8
 2782 00da 8F020000 		.4byte	.LASF18
 2783 00de 04       		.byte	0x4
 2784 00df 3D01     		.2byte	0x13d
 2785 00e1 53000000 		.4byte	0x53
ARM GAS  C:\Users\Tim\AppData\Local\Temp\ccnUoCGf.s 			page 76


 2786 00e5 02       		.uleb128 0x2
 2787 00e6 08       		.byte	0x8
 2788 00e7 04       		.byte	0x4
 2789 00e8 B70A0000 		.4byte	.LASF19
 2790 00ec 09       		.uleb128 0x9
 2791 00ed A9000000 		.4byte	0xa9
 2792 00f1 FC000000 		.4byte	0xfc
 2793 00f5 0A       		.uleb128 0xa
 2794 00f6 7F000000 		.4byte	0x7f
 2795 00fa 03       		.byte	0x3
 2796 00fb 00       		.byte	0
 2797 00fc 03       		.uleb128 0x3
 2798 00fd 10060000 		.4byte	.LASF20
 2799 0101 05       		.byte	0x5
 2800 0102 22       		.byte	0x22
 2801 0103 07010000 		.4byte	0x107
 2802 0107 06       		.uleb128 0x6
 2803 0108 04       		.byte	0x4
 2804 0109 0D010000 		.4byte	0x10d
 2805 010d 0B       		.uleb128 0xb
 2806 010e 25000000 		.4byte	0x25
 2807 0112 18010000 		.4byte	0x118
 2808 0116 0C       		.uleb128 0xc
 2809 0117 00       		.byte	0
 2810 0118 0D       		.uleb128 0xd
 2811 0119 01       		.byte	0x1
 2812 011a 05       		.byte	0x5
 2813 011b 24       		.byte	0x24
 2814 011c 33010000 		.4byte	0x133
 2815 0120 0E       		.uleb128 0xe
 2816 0121 380A0000 		.4byte	.LASF21
 2817 0125 00       		.sleb128 0
 2818 0126 0E       		.uleb128 0xe
 2819 0127 79010000 		.4byte	.LASF22
 2820 012b 01       		.sleb128 1
 2821 012c 0E       		.uleb128 0xe
 2822 012d 37000000 		.4byte	.LASF23
 2823 0131 02       		.sleb128 2
 2824 0132 00       		.byte	0
 2825 0133 03       		.uleb128 0x3
 2826 0134 48010000 		.4byte	.LASF24
 2827 0138 05       		.byte	0x5
 2828 0139 24       		.byte	0x24
 2829 013a 18010000 		.4byte	0x118
 2830 013e 0D       		.uleb128 0xd
 2831 013f 01       		.byte	0x1
 2832 0140 05       		.byte	0x5
 2833 0141 25       		.byte	0x25
 2834 0142 53010000 		.4byte	0x153
 2835 0146 0E       		.uleb128 0xe
 2836 0147 3A020000 		.4byte	.LASF25
 2837 014b 00       		.sleb128 0
 2838 014c 0E       		.uleb128 0xe
 2839 014d 6E020000 		.4byte	.LASF26
 2840 0151 01       		.sleb128 1
 2841 0152 00       		.byte	0
 2842 0153 03       		.uleb128 0x3
ARM GAS  C:\Users\Tim\AppData\Local\Temp\ccnUoCGf.s 			page 77


 2843 0154 D5050000 		.4byte	.LASF27
 2844 0158 05       		.byte	0x5
 2845 0159 25       		.byte	0x25
 2846 015a 3E010000 		.4byte	0x13e
 2847 015e 0F       		.uleb128 0xf
 2848 015f A3030000 		.4byte	.LASF35
 2849 0163 4001     		.2byte	0x140
 2850 0165 06       		.byte	0x6
 2851 0166 1F       		.byte	0x1f
 2852 0167 B5010000 		.4byte	0x1b5
 2853 016b 10       		.uleb128 0x10
 2854 016c 82060000 		.4byte	.LASF28
 2855 0170 06       		.byte	0x6
 2856 0171 21       		.byte	0x21
 2857 0172 D9000000 		.4byte	0xd9
 2858 0176 00       		.byte	0
 2859 0177 10       		.uleb128 0x10
 2860 0178 310B0000 		.4byte	.LASF29
 2861 017c 06       		.byte	0x6
 2862 017d 22       		.byte	0x22
 2863 017e D9000000 		.4byte	0xd9
 2864 0182 04       		.byte	0x4
 2865 0183 10       		.uleb128 0x10
 2866 0184 F3040000 		.4byte	.LASF30
 2867 0188 06       		.byte	0x6
 2868 0189 23       		.byte	0x23
 2869 018a 6F000000 		.4byte	0x6f
 2870 018e 08       		.byte	0x8
 2871 018f 10       		.uleb128 0x10
 2872 0190 26030000 		.4byte	.LASF31
 2873 0194 06       		.byte	0x6
 2874 0195 24       		.byte	0x24
 2875 0196 B5010000 		.4byte	0x1b5
 2876 019a 0C       		.byte	0xc
 2877 019b 10       		.uleb128 0x10
 2878 019c 1D030000 		.4byte	.LASF32
 2879 01a0 06       		.byte	0x6
 2880 01a1 25       		.byte	0x25
 2881 01a2 C5010000 		.4byte	0x1c5
 2882 01a6 D8       		.byte	0xd8
 2883 01a7 11       		.uleb128 0x11
 2884 01a8 960A0000 		.4byte	.LASF33
 2885 01ac 06       		.byte	0x6
 2886 01ad 27       		.byte	0x27
 2887 01ae B5000000 		.4byte	0xb5
 2888 01b2 3E01     		.2byte	0x13e
 2889 01b4 00       		.byte	0
 2890 01b5 09       		.uleb128 0x9
 2891 01b6 D9000000 		.4byte	0xd9
 2892 01ba C5010000 		.4byte	0x1c5
 2893 01be 0A       		.uleb128 0xa
 2894 01bf 7F000000 		.4byte	0x7f
 2895 01c3 32       		.byte	0x32
 2896 01c4 00       		.byte	0
 2897 01c5 09       		.uleb128 0x9
 2898 01c6 B5000000 		.4byte	0xb5
 2899 01ca D5010000 		.4byte	0x1d5
ARM GAS  C:\Users\Tim\AppData\Local\Temp\ccnUoCGf.s 			page 78


 2900 01ce 0A       		.uleb128 0xa
 2901 01cf 7F000000 		.4byte	0x7f
 2902 01d3 32       		.byte	0x32
 2903 01d4 00       		.byte	0
 2904 01d5 03       		.uleb128 0x3
 2905 01d6 DC000000 		.4byte	.LASF34
 2906 01da 06       		.byte	0x6
 2907 01db 29       		.byte	0x29
 2908 01dc 5E010000 		.4byte	0x15e
 2909 01e0 12       		.uleb128 0x12
 2910 01e1 2E040000 		.4byte	.LASF36
 2911 01e5 10       		.byte	0x10
 2912 01e6 06       		.byte	0x6
 2913 01e7 2B       		.byte	0x2b
 2914 01e8 1A020000 		.4byte	0x21a
 2915 01ec 13       		.uleb128 0x13
 2916 01ed 6B7000   		.ascii	"kp\000"
 2917 01f0 06       		.byte	0x6
 2918 01f1 2D       		.byte	0x2d
 2919 01f2 25000000 		.4byte	0x25
 2920 01f6 00       		.byte	0
 2921 01f7 13       		.uleb128 0x13
 2922 01f8 6B6900   		.ascii	"ki\000"
 2923 01fb 06       		.byte	0x6
 2924 01fc 2E       		.byte	0x2e
 2925 01fd 25000000 		.4byte	0x25
 2926 0201 04       		.byte	0x4
 2927 0202 13       		.uleb128 0x13
 2928 0203 6B6400   		.ascii	"kd\000"
 2929 0206 06       		.byte	0x6
 2930 0207 2F       		.byte	0x2f
 2931 0208 25000000 		.4byte	0x25
 2932 020c 08       		.byte	0x8
 2933 020d 10       		.uleb128 0x10
 2934 020e D3060000 		.4byte	.LASF37
 2935 0212 06       		.byte	0x6
 2936 0213 31       		.byte	0x31
 2937 0214 EC000000 		.4byte	0xec
 2938 0218 0C       		.byte	0xc
 2939 0219 00       		.byte	0
 2940 021a 03       		.uleb128 0x3
 2941 021b 60070000 		.4byte	.LASF38
 2942 021f 06       		.byte	0x6
 2943 0220 33       		.byte	0x33
 2944 0221 E0010000 		.4byte	0x1e0
 2945 0225 0F       		.uleb128 0xf
 2946 0226 A6000000 		.4byte	.LASF39
 2947 022a 4805     		.2byte	0x548
 2948 022c 06       		.byte	0x6
 2949 022d 35       		.byte	0x35
 2950 022e AE020000 		.4byte	0x2ae
 2951 0232 10       		.uleb128 0x10
 2952 0233 65050000 		.4byte	.LASF40
 2953 0237 06       		.byte	0x6
 2954 0238 38       		.byte	0x38
 2955 0239 B5000000 		.4byte	0xb5
 2956 023d 00       		.byte	0
ARM GAS  C:\Users\Tim\AppData\Local\Temp\ccnUoCGf.s 			page 79


 2957 023e 10       		.uleb128 0x10
 2958 023f 86020000 		.4byte	.LASF41
 2959 0243 06       		.byte	0x6
 2960 0244 3B       		.byte	0x3b
 2961 0245 B5000000 		.4byte	0xb5
 2962 0249 02       		.byte	0x2
 2963 024a 10       		.uleb128 0x10
 2964 024b 4F050000 		.4byte	.LASF42
 2965 024f 06       		.byte	0x6
 2966 0250 3C       		.byte	0x3c
 2967 0251 EC000000 		.4byte	0xec
 2968 0255 04       		.byte	0x4
 2969 0256 10       		.uleb128 0x10
 2970 0257 B3010000 		.4byte	.LASF43
 2971 025b 06       		.byte	0x6
 2972 025c 3D       		.byte	0x3d
 2973 025d 1A020000 		.4byte	0x21a
 2974 0261 08       		.byte	0x8
 2975 0262 10       		.uleb128 0x10
 2976 0263 41060000 		.4byte	.LASF44
 2977 0267 06       		.byte	0x6
 2978 0268 3E       		.byte	0x3e
 2979 0269 1A020000 		.4byte	0x21a
 2980 026d 18       		.byte	0x18
 2981 026e 10       		.uleb128 0x10
 2982 026f 81030000 		.4byte	.LASF45
 2983 0273 06       		.byte	0x6
 2984 0274 3F       		.byte	0x3f
 2985 0275 AE020000 		.4byte	0x2ae
 2986 0279 28       		.byte	0x28
 2987 027a 10       		.uleb128 0x10
 2988 027b F2050000 		.4byte	.LASF46
 2989 027f 06       		.byte	0x6
 2990 0280 40       		.byte	0x40
 2991 0281 D5010000 		.4byte	0x1d5
 2992 0285 48       		.byte	0x48
 2993 0286 11       		.uleb128 0x11
 2994 0287 73040000 		.4byte	.LASF47
 2995 028b 06       		.byte	0x6
 2996 028c 41       		.byte	0x41
 2997 028d D5010000 		.4byte	0x1d5
 2998 0291 8801     		.2byte	0x188
 2999 0293 11       		.uleb128 0x11
 3000 0294 63010000 		.4byte	.LASF48
 3001 0298 06       		.byte	0x6
 3002 0299 42       		.byte	0x42
 3003 029a D5010000 		.4byte	0x1d5
 3004 029e C802     		.2byte	0x2c8
 3005 02a0 11       		.uleb128 0x11
 3006 02a1 31060000 		.4byte	.LASF49
 3007 02a5 06       		.byte	0x6
 3008 02a6 43       		.byte	0x43
 3009 02a7 D5010000 		.4byte	0x1d5
 3010 02ab 0804     		.2byte	0x408
 3011 02ad 00       		.byte	0
 3012 02ae 09       		.uleb128 0x9
 3013 02af A9000000 		.4byte	0xa9
ARM GAS  C:\Users\Tim\AppData\Local\Temp\ccnUoCGf.s 			page 80


 3014 02b3 BE020000 		.4byte	0x2be
 3015 02b7 0A       		.uleb128 0xa
 3016 02b8 7F000000 		.4byte	0x7f
 3017 02bc 1F       		.byte	0x1f
 3018 02bd 00       		.byte	0
 3019 02be 03       		.uleb128 0x3
 3020 02bf 7E050000 		.4byte	.LASF50
 3021 02c3 06       		.byte	0x6
 3022 02c4 44       		.byte	0x44
 3023 02c5 25020000 		.4byte	0x225
 3024 02c9 03       		.uleb128 0x3
 3025 02ca 0F070000 		.4byte	.LASF51
 3026 02ce 07       		.byte	0x7
 3027 02cf 42       		.byte	0x42
 3028 02d0 B5000000 		.4byte	0xb5
 3029 02d4 0D       		.uleb128 0xd
 3030 02d5 01       		.byte	0x1
 3031 02d6 08       		.byte	0x8
 3032 02d7 46       		.byte	0x46
 3033 02d8 01030000 		.4byte	0x301
 3034 02dc 0E       		.uleb128 0xe
 3035 02dd 420B0000 		.4byte	.LASF52
 3036 02e1 00       		.sleb128 0
 3037 02e2 0E       		.uleb128 0xe
 3038 02e3 0D0A0000 		.4byte	.LASF53
 3039 02e7 01       		.sleb128 1
 3040 02e8 0E       		.uleb128 0xe
 3041 02e9 9A010000 		.4byte	.LASF54
 3042 02ed 02       		.sleb128 2
 3043 02ee 0E       		.uleb128 0xe
 3044 02ef CD000000 		.4byte	.LASF55
 3045 02f3 03       		.sleb128 3
 3046 02f4 0E       		.uleb128 0xe
 3047 02f5 5C020000 		.4byte	.LASF56
 3048 02f9 04       		.sleb128 4
 3049 02fa 0E       		.uleb128 0xe
 3050 02fb 8A060000 		.4byte	.LASF57
 3051 02ff 05       		.sleb128 5
 3052 0300 00       		.byte	0
 3053 0301 03       		.uleb128 0x3
 3054 0302 01060000 		.4byte	.LASF58
 3055 0306 08       		.byte	0x8
 3056 0307 46       		.byte	0x46
 3057 0308 D4020000 		.4byte	0x2d4
 3058 030c 0D       		.uleb128 0xd
 3059 030d 01       		.byte	0x1
 3060 030e 08       		.byte	0x8
 3061 030f 47       		.byte	0x47
 3062 0310 21030000 		.4byte	0x321
 3063 0314 0E       		.uleb128 0xe
 3064 0315 A7060000 		.4byte	.LASF59
 3065 0319 00       		.sleb128 0
 3066 031a 0E       		.uleb128 0xe
 3067 031b A9040000 		.4byte	.LASF60
 3068 031f 01       		.sleb128 1
 3069 0320 00       		.byte	0
 3070 0321 03       		.uleb128 0x3
ARM GAS  C:\Users\Tim\AppData\Local\Temp\ccnUoCGf.s 			page 81


 3071 0322 FC020000 		.4byte	.LASF61
 3072 0326 08       		.byte	0x8
 3073 0327 47       		.byte	0x47
 3074 0328 0C030000 		.4byte	0x30c
 3075 032c 03       		.uleb128 0x3
 3076 032d 2B020000 		.4byte	.LASF62
 3077 0331 08       		.byte	0x8
 3078 0332 49       		.byte	0x49
 3079 0333 37030000 		.4byte	0x337
 3080 0337 06       		.uleb128 0x6
 3081 0338 04       		.byte	0x4
 3082 0339 3D030000 		.4byte	0x33d
 3083 033d 14       		.uleb128 0x14
 3084 033e A9000000 		.4byte	0xa9
 3085 0342 51030000 		.4byte	0x351
 3086 0346 15       		.uleb128 0x15
 3087 0347 21030000 		.4byte	0x321
 3088 034b 15       		.uleb128 0x15
 3089 034c 7D000000 		.4byte	0x7d
 3090 0350 00       		.byte	0
 3091 0351 03       		.uleb128 0x3
 3092 0352 5F000000 		.4byte	.LASF63
 3093 0356 08       		.byte	0x8
 3094 0357 4A       		.byte	0x4a
 3095 0358 37030000 		.4byte	0x337
 3096 035c 03       		.uleb128 0x3
 3097 035d 98040000 		.4byte	.LASF64
 3098 0361 08       		.byte	0x8
 3099 0362 4B       		.byte	0x4b
 3100 0363 37030000 		.4byte	0x337
 3101 0367 03       		.uleb128 0x3
 3102 0368 31080000 		.4byte	.LASF65
 3103 036c 08       		.byte	0x8
 3104 036d 4C       		.byte	0x4c
 3105 036e 37030000 		.4byte	0x337
 3106 0372 03       		.uleb128 0x3
 3107 0373 B1020000 		.4byte	.LASF66
 3108 0377 08       		.byte	0x8
 3109 0378 4D       		.byte	0x4d
 3110 0379 37030000 		.4byte	0x337
 3111 037d 12       		.uleb128 0x12
 3112 037e 770B0000 		.4byte	.LASF67
 3113 0382 1C       		.byte	0x1c
 3114 0383 08       		.byte	0x8
 3115 0384 4F       		.byte	0x4f
 3116 0385 EA030000 		.4byte	0x3ea
 3117 0389 10       		.uleb128 0x10
 3118 038a 010A0000 		.4byte	.LASF68
 3119 038e 08       		.byte	0x8
 3120 038f 51       		.byte	0x51
 3121 0390 01030000 		.4byte	0x301
 3122 0394 00       		.byte	0
 3123 0395 10       		.uleb128 0x10
 3124 0396 73010000 		.4byte	.LASF69
 3125 039a 08       		.byte	0x8
 3126 039b 52       		.byte	0x52
 3127 039c 21030000 		.4byte	0x321
ARM GAS  C:\Users\Tim\AppData\Local\Temp\ccnUoCGf.s 			page 82


 3128 03a0 01       		.byte	0x1
 3129 03a1 10       		.uleb128 0x10
 3130 03a2 58000000 		.4byte	.LASF70
 3131 03a6 08       		.byte	0x8
 3132 03a7 53       		.byte	0x53
 3133 03a8 7D000000 		.4byte	0x7d
 3134 03ac 04       		.byte	0x4
 3135 03ad 10       		.uleb128 0x10
 3136 03ae A6080000 		.4byte	.LASF71
 3137 03b2 08       		.byte	0x8
 3138 03b3 54       		.byte	0x54
 3139 03b4 2C030000 		.4byte	0x32c
 3140 03b8 08       		.byte	0x8
 3141 03b9 10       		.uleb128 0x10
 3142 03ba 4A080000 		.4byte	.LASF72
 3143 03be 08       		.byte	0x8
 3144 03bf 55       		.byte	0x55
 3145 03c0 51030000 		.4byte	0x351
 3146 03c4 0C       		.byte	0xc
 3147 03c5 10       		.uleb128 0x10
 3148 03c6 E0010000 		.4byte	.LASF73
 3149 03ca 08       		.byte	0x8
 3150 03cb 56       		.byte	0x56
 3151 03cc 5C030000 		.4byte	0x35c
 3152 03d0 10       		.byte	0x10
 3153 03d1 10       		.uleb128 0x10
 3154 03d2 7B020000 		.4byte	.LASF74
 3155 03d6 08       		.byte	0x8
 3156 03d7 57       		.byte	0x57
 3157 03d8 67030000 		.4byte	0x367
 3158 03dc 14       		.byte	0x14
 3159 03dd 10       		.uleb128 0x10
 3160 03de F3010000 		.4byte	.LASF75
 3161 03e2 08       		.byte	0x8
 3162 03e3 58       		.byte	0x58
 3163 03e4 72030000 		.4byte	0x372
 3164 03e8 18       		.byte	0x18
 3165 03e9 00       		.byte	0
 3166 03ea 03       		.uleb128 0x3
 3167 03eb 770A0000 		.4byte	.LASF76
 3168 03ef 08       		.byte	0x8
 3169 03f0 59       		.byte	0x59
 3170 03f1 7D030000 		.4byte	0x37d
 3171 03f5 0D       		.uleb128 0xd
 3172 03f6 01       		.byte	0x1
 3173 03f7 09       		.byte	0x9
 3174 03f8 1A       		.byte	0x1a
 3175 03f9 0A040000 		.4byte	0x40a
 3176 03fd 0E       		.uleb128 0xe
 3177 03fe 2A0A0000 		.4byte	.LASF77
 3178 0402 00       		.sleb128 0
 3179 0403 0E       		.uleb128 0xe
 3180 0404 25050000 		.4byte	.LASF78
 3181 0408 01       		.sleb128 1
 3182 0409 00       		.byte	0
 3183 040a 03       		.uleb128 0x3
 3184 040b 19040000 		.4byte	.LASF79
ARM GAS  C:\Users\Tim\AppData\Local\Temp\ccnUoCGf.s 			page 83


 3185 040f 09       		.byte	0x9
 3186 0410 1A       		.byte	0x1a
 3187 0411 F5030000 		.4byte	0x3f5
 3188 0415 12       		.uleb128 0x12
 3189 0416 B7050000 		.4byte	.LASF80
 3190 041a 0C       		.byte	0xc
 3191 041b 09       		.byte	0x9
 3192 041c 1C       		.byte	0x1c
 3193 041d 52040000 		.4byte	0x452
 3194 0421 10       		.uleb128 0x10
 3195 0422 45080000 		.4byte	.LASF81
 3196 0426 09       		.byte	0x9
 3197 0427 1E       		.byte	0x1e
 3198 0428 52040000 		.4byte	0x452
 3199 042c 00       		.byte	0
 3200 042d 10       		.uleb128 0x10
 3201 042e 46050000 		.4byte	.LASF82
 3202 0432 09       		.byte	0x9
 3203 0433 1F       		.byte	0x1f
 3204 0434 0A040000 		.4byte	0x40a
 3205 0438 06       		.byte	0x6
 3206 0439 10       		.uleb128 0x10
 3207 043a 16000000 		.4byte	.LASF83
 3208 043e 09       		.byte	0x9
 3209 043f 20       		.byte	0x20
 3210 0440 53010000 		.4byte	0x153
 3211 0444 07       		.byte	0x7
 3212 0445 10       		.uleb128 0x10
 3213 0446 55040000 		.4byte	.LASF84
 3214 044a 09       		.byte	0x9
 3215 044b 21       		.byte	0x21
 3216 044c C1000000 		.4byte	0xc1
 3217 0450 08       		.byte	0x8
 3218 0451 00       		.byte	0
 3219 0452 09       		.uleb128 0x9
 3220 0453 8C000000 		.4byte	0x8c
 3221 0457 62040000 		.4byte	0x462
 3222 045b 0A       		.uleb128 0xa
 3223 045c 7F000000 		.4byte	0x7f
 3224 0460 05       		.byte	0x5
 3225 0461 00       		.byte	0
 3226 0462 03       		.uleb128 0x3
 3227 0463 39010000 		.4byte	.LASF85
 3228 0467 09       		.byte	0x9
 3229 0468 22       		.byte	0x22
 3230 0469 15040000 		.4byte	0x415
 3231 046d 12       		.uleb128 0x12
 3232 046e E4040000 		.4byte	.LASF86
 3233 0472 10       		.byte	0x10
 3234 0473 0A       		.byte	0xa
 3235 0474 19       		.byte	0x19
 3236 0475 AA040000 		.4byte	0x4aa
 3237 0479 10       		.uleb128 0x10
 3238 047a 16000000 		.4byte	.LASF83
 3239 047e 0A       		.byte	0xa
 3240 047f 1B       		.byte	0x1b
 3241 0480 53010000 		.4byte	0x153
ARM GAS  C:\Users\Tim\AppData\Local\Temp\ccnUoCGf.s 			page 84


 3242 0484 00       		.byte	0
 3243 0485 10       		.uleb128 0x10
 3244 0486 55040000 		.4byte	.LASF84
 3245 048a 0A       		.byte	0xa
 3246 048b 1C       		.byte	0x1c
 3247 048c C1000000 		.4byte	0xc1
 3248 0490 04       		.byte	0x4
 3249 0491 10       		.uleb128 0x10
 3250 0492 EA070000 		.4byte	.LASF87
 3251 0496 0A       		.byte	0xa
 3252 0497 1D       		.byte	0x1d
 3253 0498 25000000 		.4byte	0x25
 3254 049c 08       		.byte	0x8
 3255 049d 13       		.uleb128 0x13
 3256 049e 6D707300 		.ascii	"mps\000"
 3257 04a2 0A       		.byte	0xa
 3258 04a3 1E       		.byte	0x1e
 3259 04a4 25000000 		.4byte	0x25
 3260 04a8 0C       		.byte	0xc
 3261 04a9 00       		.byte	0
 3262 04aa 03       		.uleb128 0x3
 3263 04ab 0B090000 		.4byte	.LASF88
 3264 04af 0A       		.byte	0xa
 3265 04b0 1F       		.byte	0x1f
 3266 04b1 6D040000 		.4byte	0x46d
 3267 04b5 06       		.uleb128 0x6
 3268 04b6 04       		.byte	0x4
 3269 04b7 25000000 		.4byte	0x25
 3270 04bb 0D       		.uleb128 0xd
 3271 04bc 01       		.byte	0x1
 3272 04bd 01       		.byte	0x1
 3273 04be 42       		.byte	0x42
 3274 04bf E2040000 		.4byte	0x4e2
 3275 04c3 0E       		.uleb128 0xe
 3276 04c4 50080000 		.4byte	.LASF89
 3277 04c8 00       		.sleb128 0
 3278 04c9 0E       		.uleb128 0xe
 3279 04ca 20070000 		.4byte	.LASF90
 3280 04ce 01       		.sleb128 1
 3281 04cf 0E       		.uleb128 0xe
 3282 04d0 0B080000 		.4byte	.LASF91
 3283 04d4 02       		.sleb128 2
 3284 04d5 0E       		.uleb128 0xe
 3285 04d6 6D070000 		.4byte	.LASF92
 3286 04da 03       		.sleb128 3
 3287 04db 0E       		.uleb128 0xe
 3288 04dc 85010000 		.4byte	.LASF93
 3289 04e0 04       		.sleb128 4
 3290 04e1 00       		.byte	0
 3291 04e2 03       		.uleb128 0x3
 3292 04e3 880A0000 		.4byte	.LASF94
 3293 04e7 01       		.byte	0x1
 3294 04e8 42       		.byte	0x42
 3295 04e9 BB040000 		.4byte	0x4bb
 3296 04ed 16       		.uleb128 0x16
 3297 04ee 5A050000 		.4byte	.LASF95
 3298 04f2 01       		.byte	0x1
ARM GAS  C:\Users\Tim\AppData\Local\Temp\ccnUoCGf.s 			page 85


 3299 04f3 61       		.byte	0x61
 3300 04f4 25000000 		.4byte	0x25
 3301 04f8 00000000 		.4byte	.LFB63
 3302 04fc 0C000000 		.4byte	.LFE63-.LFB63
 3303 0500 01       		.uleb128 0x1
 3304 0501 9C       		.byte	0x9c
 3305 0502 16       		.uleb128 0x16
 3306 0503 0A000000 		.4byte	.LASF96
 3307 0507 01       		.byte	0x1
 3308 0508 66       		.byte	0x66
 3309 0509 25000000 		.4byte	0x25
 3310 050d 00000000 		.4byte	.LFB64
 3311 0511 0C000000 		.4byte	.LFE64-.LFB64
 3312 0515 01       		.uleb128 0x1
 3313 0516 9C       		.byte	0x9c
 3314 0517 17       		.uleb128 0x17
 3315 0518 95050000 		.4byte	.LASF97
 3316 051c 01       		.byte	0x1
 3317 051d C6       		.byte	0xc6
 3318 051e 00000000 		.4byte	.LFB69
 3319 0522 5C000000 		.4byte	.LFE69-.LFB69
 3320 0526 01       		.uleb128 0x1
 3321 0527 9C       		.byte	0x9c
 3322 0528 F2050000 		.4byte	0x5f2
 3323 052c 18       		.uleb128 0x18
 3324 052d 08000000 		.4byte	.LVL0
 3325 0531 C5170000 		.4byte	0x17c5
 3326 0535 43050000 		.4byte	0x543
 3327 0539 19       		.uleb128 0x19
 3328 053a 01       		.uleb128 0x1
 3329 053b 50       		.byte	0x50
 3330 053c 05       		.uleb128 0x5
 3331 053d 03       		.byte	0x3
 3332 053e 00000000 		.4byte	.LC0
 3333 0542 00       		.byte	0
 3334 0543 18       		.uleb128 0x18
 3335 0544 0E000000 		.4byte	.LVL1
 3336 0548 C5170000 		.4byte	0x17c5
 3337 054c 5A050000 		.4byte	0x55a
 3338 0550 19       		.uleb128 0x19
 3339 0551 01       		.uleb128 0x1
 3340 0552 50       		.byte	0x50
 3341 0553 05       		.uleb128 0x5
 3342 0554 03       		.byte	0x3
 3343 0555 34000000 		.4byte	.LC1
 3344 0559 00       		.byte	0
 3345 055a 18       		.uleb128 0x18
 3346 055b 14000000 		.4byte	.LVL2
 3347 055f C5170000 		.4byte	0x17c5
 3348 0563 71050000 		.4byte	0x571
 3349 0567 19       		.uleb128 0x19
 3350 0568 01       		.uleb128 0x1
 3351 0569 50       		.byte	0x50
 3352 056a 05       		.uleb128 0x5
 3353 056b 03       		.byte	0x3
 3354 056c 68000000 		.4byte	.LC2
 3355 0570 00       		.byte	0
ARM GAS  C:\Users\Tim\AppData\Local\Temp\ccnUoCGf.s 			page 86


 3356 0571 18       		.uleb128 0x18
 3357 0572 1A000000 		.4byte	.LVL3
 3358 0576 C5170000 		.4byte	0x17c5
 3359 057a 88050000 		.4byte	0x588
 3360 057e 19       		.uleb128 0x19
 3361 057f 01       		.uleb128 0x1
 3362 0580 50       		.byte	0x50
 3363 0581 05       		.uleb128 0x5
 3364 0582 03       		.byte	0x3
 3365 0583 B0000000 		.4byte	.LC3
 3366 0587 00       		.byte	0
 3367 0588 18       		.uleb128 0x18
 3368 0589 20000000 		.4byte	.LVL4
 3369 058d C5170000 		.4byte	0x17c5
 3370 0591 9F050000 		.4byte	0x59f
 3371 0595 19       		.uleb128 0x19
 3372 0596 01       		.uleb128 0x1
 3373 0597 50       		.byte	0x50
 3374 0598 05       		.uleb128 0x5
 3375 0599 03       		.byte	0x3
 3376 059a 0C010000 		.4byte	.LC4
 3377 059e 00       		.byte	0
 3378 059f 18       		.uleb128 0x18
 3379 05a0 28000000 		.4byte	.LVL5
 3380 05a4 C5170000 		.4byte	0x17c5
 3381 05a8 B3050000 		.4byte	0x5b3
 3382 05ac 19       		.uleb128 0x19
 3383 05ad 01       		.uleb128 0x1
 3384 05ae 50       		.byte	0x50
 3385 05af 02       		.uleb128 0x2
 3386 05b0 74       		.byte	0x74
 3387 05b1 00       		.sleb128 0
 3388 05b2 00       		.byte	0
 3389 05b3 18       		.uleb128 0x18
 3390 05b4 2E000000 		.4byte	.LVL6
 3391 05b8 C5170000 		.4byte	0x17c5
 3392 05bc CA050000 		.4byte	0x5ca
 3393 05c0 19       		.uleb128 0x19
 3394 05c1 01       		.uleb128 0x1
 3395 05c2 50       		.byte	0x50
 3396 05c3 05       		.uleb128 0x5
 3397 05c4 03       		.byte	0x3
 3398 05c5 6C010000 		.4byte	.LC6
 3399 05c9 00       		.byte	0
 3400 05ca 18       		.uleb128 0x18
 3401 05cb 34000000 		.4byte	.LVL7
 3402 05cf C5170000 		.4byte	0x17c5
 3403 05d3 DE050000 		.4byte	0x5de
 3404 05d7 19       		.uleb128 0x19
 3405 05d8 01       		.uleb128 0x1
 3406 05d9 50       		.byte	0x50
 3407 05da 02       		.uleb128 0x2
 3408 05db 74       		.byte	0x74
 3409 05dc 00       		.sleb128 0
 3410 05dd 00       		.byte	0
 3411 05de 1A       		.uleb128 0x1a
 3412 05df 3A000000 		.4byte	.LVL8
ARM GAS  C:\Users\Tim\AppData\Local\Temp\ccnUoCGf.s 			page 87


 3413 05e3 C5170000 		.4byte	0x17c5
 3414 05e7 19       		.uleb128 0x19
 3415 05e8 01       		.uleb128 0x1
 3416 05e9 50       		.byte	0x50
 3417 05ea 05       		.uleb128 0x5
 3418 05eb 03       		.byte	0x3
 3419 05ec 8C010000 		.4byte	.LC7
 3420 05f0 00       		.byte	0
 3421 05f1 00       		.byte	0
 3422 05f2 17       		.uleb128 0x17
 3423 05f3 06010000 		.4byte	.LASF98
 3424 05f7 01       		.byte	0x1
 3425 05f8 DA       		.byte	0xda
 3426 05f9 00000000 		.4byte	.LFB70
 3427 05fd 90000000 		.4byte	.LFE70-.LFB70
 3428 0601 01       		.uleb128 0x1
 3429 0602 9C       		.byte	0x9c
 3430 0603 40070000 		.4byte	0x740
 3431 0607 18       		.uleb128 0x18
 3432 0608 08000000 		.4byte	.LVL9
 3433 060c C5170000 		.4byte	0x17c5
 3434 0610 1E060000 		.4byte	0x61e
 3435 0614 19       		.uleb128 0x19
 3436 0615 01       		.uleb128 0x1
 3437 0616 50       		.byte	0x50
 3438 0617 05       		.uleb128 0x5
 3439 0618 03       		.byte	0x3
 3440 0619 A4010000 		.4byte	.LC8
 3441 061d 00       		.byte	0
 3442 061e 18       		.uleb128 0x18
 3443 061f 0E000000 		.4byte	.LVL10
 3444 0623 C5170000 		.4byte	0x17c5
 3445 0627 35060000 		.4byte	0x635
 3446 062b 19       		.uleb128 0x19
 3447 062c 01       		.uleb128 0x1
 3448 062d 50       		.byte	0x50
 3449 062e 05       		.uleb128 0x5
 3450 062f 03       		.byte	0x3
 3451 0630 D8010000 		.4byte	.LC9
 3452 0634 00       		.byte	0
 3453 0635 18       		.uleb128 0x18
 3454 0636 14000000 		.4byte	.LVL11
 3455 063a C5170000 		.4byte	0x17c5
 3456 063e 4C060000 		.4byte	0x64c
 3457 0642 19       		.uleb128 0x19
 3458 0643 01       		.uleb128 0x1
 3459 0644 50       		.byte	0x50
 3460 0645 05       		.uleb128 0x5
 3461 0646 03       		.byte	0x3
 3462 0647 0C020000 		.4byte	.LC10
 3463 064b 00       		.byte	0
 3464 064c 18       		.uleb128 0x18
 3465 064d 1A000000 		.4byte	.LVL12
 3466 0651 C5170000 		.4byte	0x17c5
 3467 0655 63060000 		.4byte	0x663
 3468 0659 19       		.uleb128 0x19
 3469 065a 01       		.uleb128 0x1
ARM GAS  C:\Users\Tim\AppData\Local\Temp\ccnUoCGf.s 			page 88


 3470 065b 50       		.byte	0x50
 3471 065c 05       		.uleb128 0x5
 3472 065d 03       		.byte	0x3
 3473 065e 54020000 		.4byte	.LC11
 3474 0662 00       		.byte	0
 3475 0663 18       		.uleb128 0x18
 3476 0664 20000000 		.4byte	.LVL13
 3477 0668 C5170000 		.4byte	0x17c5
 3478 066c 7A060000 		.4byte	0x67a
 3479 0670 19       		.uleb128 0x19
 3480 0671 01       		.uleb128 0x1
 3481 0672 50       		.byte	0x50
 3482 0673 05       		.uleb128 0x5
 3483 0674 03       		.byte	0x3
 3484 0675 C8020000 		.4byte	.LC12
 3485 0679 00       		.byte	0
 3486 067a 18       		.uleb128 0x18
 3487 067b 26000000 		.4byte	.LVL14
 3488 067f C5170000 		.4byte	0x17c5
 3489 0683 91060000 		.4byte	0x691
 3490 0687 19       		.uleb128 0x19
 3491 0688 01       		.uleb128 0x1
 3492 0689 50       		.byte	0x50
 3493 068a 05       		.uleb128 0x5
 3494 068b 03       		.byte	0x3
 3495 068c 3C030000 		.4byte	.LC13
 3496 0690 00       		.byte	0
 3497 0691 18       		.uleb128 0x18
 3498 0692 2C000000 		.4byte	.LVL15
 3499 0696 C5170000 		.4byte	0x17c5
 3500 069a A8060000 		.4byte	0x6a8
 3501 069e 19       		.uleb128 0x19
 3502 069f 01       		.uleb128 0x1
 3503 06a0 50       		.byte	0x50
 3504 06a1 05       		.uleb128 0x5
 3505 06a2 03       		.byte	0x3
 3506 06a3 B0030000 		.4byte	.LC14
 3507 06a7 00       		.byte	0
 3508 06a8 18       		.uleb128 0x18
 3509 06a9 32000000 		.4byte	.LVL16
 3510 06ad C5170000 		.4byte	0x17c5
 3511 06b1 BF060000 		.4byte	0x6bf
 3512 06b5 19       		.uleb128 0x19
 3513 06b6 01       		.uleb128 0x1
 3514 06b7 50       		.byte	0x50
 3515 06b8 05       		.uleb128 0x5
 3516 06b9 03       		.byte	0x3
 3517 06ba 24040000 		.4byte	.LC15
 3518 06be 00       		.byte	0
 3519 06bf 18       		.uleb128 0x18
 3520 06c0 38000000 		.4byte	.LVL17
 3521 06c4 C5170000 		.4byte	0x17c5
 3522 06c8 D6060000 		.4byte	0x6d6
 3523 06cc 19       		.uleb128 0x19
 3524 06cd 01       		.uleb128 0x1
 3525 06ce 50       		.byte	0x50
 3526 06cf 05       		.uleb128 0x5
ARM GAS  C:\Users\Tim\AppData\Local\Temp\ccnUoCGf.s 			page 89


 3527 06d0 03       		.byte	0x3
 3528 06d1 9C040000 		.4byte	.LC16
 3529 06d5 00       		.byte	0
 3530 06d6 18       		.uleb128 0x18
 3531 06d7 3E000000 		.4byte	.LVL18
 3532 06db C5170000 		.4byte	0x17c5
 3533 06df ED060000 		.4byte	0x6ed
 3534 06e3 19       		.uleb128 0x19
 3535 06e4 01       		.uleb128 0x1
 3536 06e5 50       		.byte	0x50
 3537 06e6 05       		.uleb128 0x5
 3538 06e7 03       		.byte	0x3
 3539 06e8 18050000 		.4byte	.LC17
 3540 06ec 00       		.byte	0
 3541 06ed 18       		.uleb128 0x18
 3542 06ee 46000000 		.4byte	.LVL19
 3543 06f2 C5170000 		.4byte	0x17c5
 3544 06f6 01070000 		.4byte	0x701
 3545 06fa 19       		.uleb128 0x19
 3546 06fb 01       		.uleb128 0x1
 3547 06fc 50       		.byte	0x50
 3548 06fd 02       		.uleb128 0x2
 3549 06fe 74       		.byte	0x74
 3550 06ff 00       		.sleb128 0
 3551 0700 00       		.byte	0
 3552 0701 18       		.uleb128 0x18
 3553 0702 4C000000 		.4byte	.LVL20
 3554 0706 C5170000 		.4byte	0x17c5
 3555 070a 18070000 		.4byte	0x718
 3556 070e 19       		.uleb128 0x19
 3557 070f 01       		.uleb128 0x1
 3558 0710 50       		.byte	0x50
 3559 0711 05       		.uleb128 0x5
 3560 0712 03       		.byte	0x3
 3561 0713 94050000 		.4byte	.LC18
 3562 0717 00       		.byte	0
 3563 0718 18       		.uleb128 0x18
 3564 0719 52000000 		.4byte	.LVL21
 3565 071d C5170000 		.4byte	0x17c5
 3566 0721 2C070000 		.4byte	0x72c
 3567 0725 19       		.uleb128 0x19
 3568 0726 01       		.uleb128 0x1
 3569 0727 50       		.byte	0x50
 3570 0728 02       		.uleb128 0x2
 3571 0729 74       		.byte	0x74
 3572 072a 00       		.sleb128 0
 3573 072b 00       		.byte	0
 3574 072c 1A       		.uleb128 0x1a
 3575 072d 58000000 		.4byte	.LVL22
 3576 0731 C5170000 		.4byte	0x17c5
 3577 0735 19       		.uleb128 0x19
 3578 0736 01       		.uleb128 0x1
 3579 0737 50       		.byte	0x50
 3580 0738 05       		.uleb128 0x5
 3581 0739 03       		.byte	0x3
 3582 073a B4050000 		.4byte	.LC19
 3583 073e 00       		.byte	0
ARM GAS  C:\Users\Tim\AppData\Local\Temp\ccnUoCGf.s 			page 90


 3584 073f 00       		.byte	0
 3585 0740 1B       		.uleb128 0x1b
 3586 0741 46020000 		.4byte	.LASF100
 3587 0745 01       		.byte	0x1
 3588 0746 1501     		.2byte	0x115
 3589 0748 00000000 		.4byte	.LFB73
 3590 074c 20000000 		.4byte	.LFE73-.LFB73
 3591 0750 01       		.uleb128 0x1
 3592 0751 9C       		.byte	0x9c
 3593 0752 79070000 		.4byte	0x779
 3594 0756 1C       		.uleb128 0x1c
 3595 0757 73010000 		.4byte	.LASF69
 3596 075b 01       		.byte	0x1
 3597 075c 1501     		.2byte	0x115
 3598 075e 21030000 		.4byte	0x321
 3599 0762 00000000 		.4byte	.LLST0
 3600 0766 1D       		.uleb128 0x1d
 3601 0767 0E000000 		.4byte	.LVL24
 3602 076b 17050000 		.4byte	0x517
 3603 076f 1D       		.uleb128 0x1d
 3604 0770 18000000 		.4byte	.LVL26
 3605 0774 F2050000 		.4byte	0x5f2
 3606 0778 00       		.byte	0
 3607 0779 17       		.uleb128 0x17
 3608 077a 1D0B0000 		.4byte	.LASF99
 3609 077e 01       		.byte	0x1
 3610 077f F3       		.byte	0xf3
 3611 0780 00000000 		.4byte	.LFB71
 3612 0784 68000000 		.4byte	.LFE71-.LFB71
 3613 0788 01       		.uleb128 0x1
 3614 0789 9C       		.byte	0x9c
 3615 078a 6B080000 		.4byte	0x86b
 3616 078e 18       		.uleb128 0x18
 3617 078f 08000000 		.4byte	.LVL27
 3618 0793 C5170000 		.4byte	0x17c5
 3619 0797 A5070000 		.4byte	0x7a5
 3620 079b 19       		.uleb128 0x19
 3621 079c 01       		.uleb128 0x1
 3622 079d 50       		.byte	0x50
 3623 079e 05       		.uleb128 0x5
 3624 079f 03       		.byte	0x3
 3625 07a0 CC050000 		.4byte	.LC20
 3626 07a4 00       		.byte	0
 3627 07a5 18       		.uleb128 0x18
 3628 07a6 0E000000 		.4byte	.LVL28
 3629 07aa C5170000 		.4byte	0x17c5
 3630 07ae BC070000 		.4byte	0x7bc
 3631 07b2 19       		.uleb128 0x19
 3632 07b3 01       		.uleb128 0x1
 3633 07b4 50       		.byte	0x50
 3634 07b5 05       		.uleb128 0x5
 3635 07b6 03       		.byte	0x3
 3636 07b7 F8050000 		.4byte	.LC21
 3637 07bb 00       		.byte	0
 3638 07bc 18       		.uleb128 0x18
 3639 07bd 14000000 		.4byte	.LVL29
 3640 07c1 C5170000 		.4byte	0x17c5
ARM GAS  C:\Users\Tim\AppData\Local\Temp\ccnUoCGf.s 			page 91


 3641 07c5 D3070000 		.4byte	0x7d3
 3642 07c9 19       		.uleb128 0x19
 3643 07ca 01       		.uleb128 0x1
 3644 07cb 50       		.byte	0x50
 3645 07cc 05       		.uleb128 0x5
 3646 07cd 03       		.byte	0x3
 3647 07ce 24060000 		.4byte	.LC22
 3648 07d2 00       		.byte	0
 3649 07d3 18       		.uleb128 0x18
 3650 07d4 1A000000 		.4byte	.LVL30
 3651 07d8 C5170000 		.4byte	0x17c5
 3652 07dc EA070000 		.4byte	0x7ea
 3653 07e0 19       		.uleb128 0x19
 3654 07e1 01       		.uleb128 0x1
 3655 07e2 50       		.byte	0x50
 3656 07e3 05       		.uleb128 0x5
 3657 07e4 03       		.byte	0x3
 3658 07e5 44060000 		.4byte	.LC23
 3659 07e9 00       		.byte	0
 3660 07ea 18       		.uleb128 0x18
 3661 07eb 20000000 		.4byte	.LVL31
 3662 07ef C5170000 		.4byte	0x17c5
 3663 07f3 01080000 		.4byte	0x801
 3664 07f7 19       		.uleb128 0x19
 3665 07f8 01       		.uleb128 0x1
 3666 07f9 50       		.byte	0x50
 3667 07fa 05       		.uleb128 0x5
 3668 07fb 03       		.byte	0x3
 3669 07fc 68060000 		.4byte	.LC24
 3670 0800 00       		.byte	0
 3671 0801 18       		.uleb128 0x18
 3672 0802 26000000 		.4byte	.LVL32
 3673 0806 C5170000 		.4byte	0x17c5
 3674 080a 18080000 		.4byte	0x818
 3675 080e 19       		.uleb128 0x19
 3676 080f 01       		.uleb128 0x1
 3677 0810 50       		.byte	0x50
 3678 0811 05       		.uleb128 0x5
 3679 0812 03       		.byte	0x3
 3680 0813 94060000 		.4byte	.LC25
 3681 0817 00       		.byte	0
 3682 0818 18       		.uleb128 0x18
 3683 0819 2E000000 		.4byte	.LVL33
 3684 081d C5170000 		.4byte	0x17c5
 3685 0821 2C080000 		.4byte	0x82c
 3686 0825 19       		.uleb128 0x19
 3687 0826 01       		.uleb128 0x1
 3688 0827 50       		.byte	0x50
 3689 0828 02       		.uleb128 0x2
 3690 0829 74       		.byte	0x74
 3691 082a 00       		.sleb128 0
 3692 082b 00       		.byte	0
 3693 082c 18       		.uleb128 0x18
 3694 082d 34000000 		.4byte	.LVL34
 3695 0831 C5170000 		.4byte	0x17c5
 3696 0835 43080000 		.4byte	0x843
 3697 0839 19       		.uleb128 0x19
ARM GAS  C:\Users\Tim\AppData\Local\Temp\ccnUoCGf.s 			page 92


 3698 083a 01       		.uleb128 0x1
 3699 083b 50       		.byte	0x50
 3700 083c 05       		.uleb128 0x5
 3701 083d 03       		.byte	0x3
 3702 083e 94050000 		.4byte	.LC18
 3703 0842 00       		.byte	0
 3704 0843 18       		.uleb128 0x18
 3705 0844 3A000000 		.4byte	.LVL35
 3706 0848 C5170000 		.4byte	0x17c5
 3707 084c 57080000 		.4byte	0x857
 3708 0850 19       		.uleb128 0x19
 3709 0851 01       		.uleb128 0x1
 3710 0852 50       		.byte	0x50
 3711 0853 02       		.uleb128 0x2
 3712 0854 74       		.byte	0x74
 3713 0855 00       		.sleb128 0
 3714 0856 00       		.byte	0
 3715 0857 1A       		.uleb128 0x1a
 3716 0858 40000000 		.4byte	.LVL36
 3717 085c C5170000 		.4byte	0x17c5
 3718 0860 19       		.uleb128 0x19
 3719 0861 01       		.uleb128 0x1
 3720 0862 50       		.byte	0x50
 3721 0863 05       		.uleb128 0x5
 3722 0864 03       		.byte	0x3
 3723 0865 AC060000 		.4byte	.LC26
 3724 0869 00       		.byte	0
 3725 086a 00       		.byte	0
 3726 086b 1B       		.uleb128 0x1b
 3727 086c 4C000000 		.4byte	.LASF101
 3728 0870 01       		.byte	0x1
 3729 0871 0702     		.2byte	0x207
 3730 0873 00000000 		.4byte	.LFB78
 3731 0877 30000000 		.4byte	.LFE78-.LFB78
 3732 087b 01       		.uleb128 0x1
 3733 087c 9C       		.byte	0x9c
 3734 087d CF080000 		.4byte	0x8cf
 3735 0881 1C       		.uleb128 0x1c
 3736 0882 AC010000 		.4byte	.LASF102
 3737 0886 01       		.byte	0x1
 3738 0887 0702     		.2byte	0x207
 3739 0889 CF080000 		.4byte	0x8cf
 3740 088d 3A000000 		.4byte	.LLST1
 3741 0891 1E       		.uleb128 0x1e
 3742 0892 8E050000 		.4byte	.LASF104
 3743 0896 01       		.byte	0x1
 3744 0897 0902     		.2byte	0x209
 3745 0899 D5080000 		.4byte	0x8d5
 3746 089d 03       		.uleb128 0x3
 3747 089e 91       		.byte	0x91
 3748 089f B87F     		.sleb128 -72
 3749 08a1 18       		.uleb128 0x18
 3750 08a2 1C000000 		.4byte	.LVL39
 3751 08a6 D6170000 		.4byte	0x17d6
 3752 08aa BE080000 		.4byte	0x8be
 3753 08ae 19       		.uleb128 0x19
 3754 08af 01       		.uleb128 0x1
ARM GAS  C:\Users\Tim\AppData\Local\Temp\ccnUoCGf.s 			page 93


 3755 08b0 51       		.byte	0x51
 3756 08b1 05       		.uleb128 0x5
 3757 08b2 03       		.byte	0x3
 3758 08b3 C4060000 		.4byte	.LC27
 3759 08b7 19       		.uleb128 0x19
 3760 08b8 01       		.uleb128 0x1
 3761 08b9 50       		.byte	0x50
 3762 08ba 02       		.uleb128 0x2
 3763 08bb 7D       		.byte	0x7d
 3764 08bc 00       		.sleb128 0
 3765 08bd 00       		.byte	0
 3766 08be 1A       		.uleb128 0x1a
 3767 08bf 22000000 		.4byte	.LVL40
 3768 08c3 C5170000 		.4byte	0x17c5
 3769 08c7 19       		.uleb128 0x19
 3770 08c8 01       		.uleb128 0x1
 3771 08c9 50       		.byte	0x50
 3772 08ca 02       		.uleb128 0x2
 3773 08cb 7D       		.byte	0x7d
 3774 08cc 00       		.sleb128 0
 3775 08cd 00       		.byte	0
 3776 08ce 00       		.byte	0
 3777 08cf 06       		.uleb128 0x6
 3778 08d0 04       		.byte	0x4
 3779 08d1 EA030000 		.4byte	0x3ea
 3780 08d5 09       		.uleb128 0x9
 3781 08d6 8C000000 		.4byte	0x8c
 3782 08da E5080000 		.4byte	0x8e5
 3783 08de 0A       		.uleb128 0xa
 3784 08df 7F000000 		.4byte	0x7f
 3785 08e3 3F       		.byte	0x3f
 3786 08e4 00       		.byte	0
 3787 08e5 1F       		.uleb128 0x1f
 3788 08e6 A9020000 		.4byte	.LASF103
 3789 08ea 01       		.byte	0x1
 3790 08eb 1902     		.2byte	0x219
 3791 08ed 00000000 		.4byte	.LFB79
 3792 08f1 A4000000 		.4byte	.LFE79-.LFB79
 3793 08f5 01       		.uleb128 0x1
 3794 08f6 9C       		.byte	0x9c
 3795 08f7 89090000 		.4byte	0x989
 3796 08fb 1C       		.uleb128 0x1c
 3797 08fc AC010000 		.4byte	.LASF102
 3798 0900 01       		.byte	0x1
 3799 0901 1902     		.2byte	0x219
 3800 0903 CF080000 		.4byte	0x8cf
 3801 0907 5B000000 		.4byte	.LLST2
 3802 090b 20       		.uleb128 0x20
 3803 090c C3020000 		.4byte	.LASF105
 3804 0910 01       		.byte	0x1
 3805 0911 1B02     		.2byte	0x21b
 3806 0913 A9000000 		.4byte	0xa9
 3807 0917 F5000000 		.4byte	.LLST3
 3808 091b 18       		.uleb128 0x18
 3809 091c 2A000000 		.4byte	.LVL46
 3810 0920 6B080000 		.4byte	0x86b
 3811 0924 2F090000 		.4byte	0x92f
ARM GAS  C:\Users\Tim\AppData\Local\Temp\ccnUoCGf.s 			page 94


 3812 0928 19       		.uleb128 0x19
 3813 0929 01       		.uleb128 0x1
 3814 092a 50       		.byte	0x50
 3815 092b 02       		.uleb128 0x2
 3816 092c 74       		.byte	0x74
 3817 092d 00       		.sleb128 0
 3818 092e 00       		.byte	0
 3819 092f 18       		.uleb128 0x18
 3820 0930 42000000 		.4byte	.LVL52
 3821 0934 6B080000 		.4byte	0x86b
 3822 0938 43090000 		.4byte	0x943
 3823 093c 19       		.uleb128 0x19
 3824 093d 01       		.uleb128 0x1
 3825 093e 50       		.byte	0x50
 3826 093f 02       		.uleb128 0x2
 3827 0940 74       		.byte	0x74
 3828 0941 00       		.sleb128 0
 3829 0942 00       		.byte	0
 3830 0943 18       		.uleb128 0x18
 3831 0944 5E000000 		.4byte	.LVL58
 3832 0948 6B080000 		.4byte	0x86b
 3833 094c 57090000 		.4byte	0x957
 3834 0950 19       		.uleb128 0x19
 3835 0951 01       		.uleb128 0x1
 3836 0952 50       		.byte	0x50
 3837 0953 02       		.uleb128 0x2
 3838 0954 74       		.byte	0x74
 3839 0955 00       		.sleb128 0
 3840 0956 00       		.byte	0
 3841 0957 18       		.uleb128 0x18
 3842 0958 76000000 		.4byte	.LVL64
 3843 095c 6B080000 		.4byte	0x86b
 3844 0960 6B090000 		.4byte	0x96b
 3845 0964 19       		.uleb128 0x19
 3846 0965 01       		.uleb128 0x1
 3847 0966 50       		.byte	0x50
 3848 0967 02       		.uleb128 0x2
 3849 0968 74       		.byte	0x74
 3850 0969 00       		.sleb128 0
 3851 096a 00       		.byte	0
 3852 096b 18       		.uleb128 0x18
 3853 096c 8E000000 		.4byte	.LVL70
 3854 0970 6B080000 		.4byte	0x86b
 3855 0974 7F090000 		.4byte	0x97f
 3856 0978 19       		.uleb128 0x19
 3857 0979 01       		.uleb128 0x1
 3858 097a 50       		.byte	0x50
 3859 097b 02       		.uleb128 0x2
 3860 097c 74       		.byte	0x74
 3861 097d 00       		.sleb128 0
 3862 097e 00       		.byte	0
 3863 097f 1D       		.uleb128 0x1d
 3864 0980 9E000000 		.4byte	.LVL73
 3865 0984 40070000 		.4byte	0x740
 3866 0988 00       		.byte	0
 3867 0989 21       		.uleb128 0x21
 3868 098a B5080000 		.4byte	.LASF106
ARM GAS  C:\Users\Tim\AppData\Local\Temp\ccnUoCGf.s 			page 95


 3869 098e 01       		.byte	0x1
 3870 098f 0801     		.2byte	0x108
 3871 0991 00000000 		.4byte	.LFB72
 3872 0995 18000000 		.4byte	.LFE72-.LFB72
 3873 0999 01       		.uleb128 0x1
 3874 099a 9C       		.byte	0x9c
 3875 099b CA090000 		.4byte	0x9ca
 3876 099f 18       		.uleb128 0x18
 3877 09a0 08000000 		.4byte	.LVL75
 3878 09a4 C5170000 		.4byte	0x17c5
 3879 09a8 B6090000 		.4byte	0x9b6
 3880 09ac 19       		.uleb128 0x19
 3881 09ad 01       		.uleb128 0x1
 3882 09ae 50       		.byte	0x50
 3883 09af 05       		.uleb128 0x5
 3884 09b0 03       		.byte	0x3
 3885 09b1 EC060000 		.4byte	.LC28
 3886 09b5 00       		.byte	0
 3887 09b6 1A       		.uleb128 0x1a
 3888 09b7 0E000000 		.4byte	.LVL76
 3889 09bb C5170000 		.4byte	0x17c5
 3890 09bf 19       		.uleb128 0x19
 3891 09c0 01       		.uleb128 0x1
 3892 09c1 50       		.byte	0x50
 3893 09c2 05       		.uleb128 0x5
 3894 09c3 03       		.byte	0x3
 3895 09c4 20070000 		.4byte	.LC29
 3896 09c8 00       		.byte	0
 3897 09c9 00       		.byte	0
 3898 09ca 22       		.uleb128 0x22
 3899 09cb 3B050000 		.4byte	.LASF107
 3900 09cf 01       		.byte	0x1
 3901 09d0 6001     		.2byte	0x160
 3902 09d2 A9000000 		.4byte	0xa9
 3903 09d6 00000000 		.4byte	.LFB75
 3904 09da 80000000 		.4byte	.LFE75-.LFB75
 3905 09de 01       		.uleb128 0x1
 3906 09df 9C       		.byte	0x9c
 3907 09e0 560A0000 		.4byte	0xa56
 3908 09e4 20       		.uleb128 0x20
 3909 09e5 46030000 		.4byte	.LASF108
 3910 09e9 01       		.byte	0x1
 3911 09ea 6201     		.2byte	0x162
 3912 09ec 8C000000 		.4byte	0x8c
 3913 09f0 34010000 		.4byte	.LLST4
 3914 09f4 1D       		.uleb128 0x1d
 3915 09f5 06000000 		.4byte	.LVL77
 3916 09f9 F1170000 		.4byte	0x17f1
 3917 09fd 18       		.uleb128 0x18
 3918 09fe 4E000000 		.4byte	.LVL79
 3919 0a02 C5170000 		.4byte	0x17c5
 3920 0a06 140A0000 		.4byte	0xa14
 3921 0a0a 19       		.uleb128 0x19
 3922 0a0b 01       		.uleb128 0x1
 3923 0a0c 50       		.byte	0x50
 3924 0a0d 05       		.uleb128 0x5
 3925 0a0e 03       		.byte	0x3
ARM GAS  C:\Users\Tim\AppData\Local\Temp\ccnUoCGf.s 			page 96


 3926 0a0f 74070000 		.4byte	.LC30
 3927 0a13 00       		.byte	0
 3928 0a14 18       		.uleb128 0x18
 3929 0a15 58000000 		.4byte	.LVL81
 3930 0a19 C5170000 		.4byte	0x17c5
 3931 0a1d 2B0A0000 		.4byte	0xa2b
 3932 0a21 19       		.uleb128 0x19
 3933 0a22 01       		.uleb128 0x1
 3934 0a23 50       		.byte	0x50
 3935 0a24 05       		.uleb128 0x5
 3936 0a25 03       		.byte	0x3
 3937 0a26 8C070000 		.4byte	.LC31
 3938 0a2a 00       		.byte	0
 3939 0a2b 18       		.uleb128 0x18
 3940 0a2c 62000000 		.4byte	.LVL83
 3941 0a30 C5170000 		.4byte	0x17c5
 3942 0a34 420A0000 		.4byte	0xa42
 3943 0a38 19       		.uleb128 0x19
 3944 0a39 01       		.uleb128 0x1
 3945 0a3a 50       		.byte	0x50
 3946 0a3b 05       		.uleb128 0x5
 3947 0a3c 03       		.byte	0x3
 3948 0a3d A4070000 		.4byte	.LC32
 3949 0a41 00       		.byte	0
 3950 0a42 1A       		.uleb128 0x1a
 3951 0a43 6C000000 		.4byte	.LVL85
 3952 0a47 C5170000 		.4byte	0x17c5
 3953 0a4b 19       		.uleb128 0x19
 3954 0a4c 01       		.uleb128 0x1
 3955 0a4d 50       		.byte	0x50
 3956 0a4e 05       		.uleb128 0x5
 3957 0a4f 03       		.byte	0x3
 3958 0a50 BC070000 		.4byte	.LC33
 3959 0a54 00       		.byte	0
 3960 0a55 00       		.byte	0
 3961 0a56 23       		.uleb128 0x23
 3962 0a57 BE0A0000 		.4byte	.LASF109
 3963 0a5b 01       		.byte	0x1
 3964 0a5c 8901     		.2byte	0x189
 3965 0a5e CF080000 		.4byte	0x8cf
 3966 0a62 00000000 		.4byte	.LFB76
 3967 0a66 50000000 		.4byte	.LFE76-.LFB76
 3968 0a6a 01       		.uleb128 0x1
 3969 0a6b 9C       		.byte	0x9c
 3970 0a6c A80A0000 		.4byte	0xaa8
 3971 0a70 24       		.uleb128 0x24
 3972 0a71 636D6400 		.ascii	"cmd\000"
 3973 0a75 01       		.byte	0x1
 3974 0a76 8901     		.2byte	0x189
 3975 0a78 A9000000 		.4byte	0xa9
 3976 0a7c 86010000 		.4byte	.LLST5
 3977 0a80 25       		.uleb128 0x25
 3978 0a81 4D060000 		.4byte	.LASF209
 3979 0a85 01       		.byte	0x1
 3980 0a86 8B01     		.2byte	0x18b
 3981 0a88 A80A0000 		.4byte	0xaa8
 3982 0a8c 1D       		.uleb128 0x1d
ARM GAS  C:\Users\Tim\AppData\Local\Temp\ccnUoCGf.s 			page 97


 3983 0a8d 12000000 		.4byte	.LVL88
 3984 0a91 02180000 		.4byte	0x1802
 3985 0a95 1D       		.uleb128 0x1d
 3986 0a96 22000000 		.4byte	.LVL90
 3987 0a9a 02180000 		.4byte	0x1802
 3988 0a9e 1D       		.uleb128 0x1d
 3989 0a9f 32000000 		.4byte	.LVL92
 3990 0aa3 02180000 		.4byte	0x1802
 3991 0aa7 00       		.byte	0
 3992 0aa8 06       		.uleb128 0x6
 3993 0aa9 04       		.byte	0x4
 3994 0aaa 62040000 		.4byte	0x462
 3995 0aae 23       		.uleb128 0x23
 3996 0aaf 99060000 		.4byte	.LASF110
 3997 0ab3 01       		.byte	0x1
 3998 0ab4 AE01     		.2byte	0x1ae
 3999 0ab6 CF080000 		.4byte	0x8cf
 4000 0aba 00000000 		.4byte	.LFB77
 4001 0abe 48010000 		.4byte	.LFE77-.LFB77
 4002 0ac2 01       		.uleb128 0x1
 4003 0ac3 9C       		.byte	0x9c
 4004 0ac4 D50B0000 		.4byte	0xbd5
 4005 0ac8 24       		.uleb128 0x24
 4006 0ac9 636D6400 		.ascii	"cmd\000"
 4007 0acd 01       		.byte	0x1
 4008 0ace AE01     		.2byte	0x1ae
 4009 0ad0 A9000000 		.4byte	0xa9
 4010 0ad4 F2010000 		.4byte	.LLST6
 4011 0ad8 1D       		.uleb128 0x1d
 4012 0ad9 1C000000 		.4byte	.LVL96
 4013 0add 02180000 		.4byte	0x1802
 4014 0ae1 18       		.uleb128 0x18
 4015 0ae2 22000000 		.4byte	.LVL97
 4016 0ae6 C5170000 		.4byte	0x17c5
 4017 0aea F80A0000 		.4byte	0xaf8
 4018 0aee 19       		.uleb128 0x19
 4019 0aef 01       		.uleb128 0x1
 4020 0af0 50       		.byte	0x50
 4021 0af1 05       		.uleb128 0x5
 4022 0af2 03       		.byte	0x3
 4023 0af3 D4070000 		.4byte	.LC34
 4024 0af7 00       		.byte	0
 4025 0af8 1D       		.uleb128 0x1d
 4026 0af9 38000000 		.4byte	.LVL99
 4027 0afd 02180000 		.4byte	0x1802
 4028 0b01 18       		.uleb128 0x18
 4029 0b02 3E000000 		.4byte	.LVL100
 4030 0b06 C5170000 		.4byte	0x17c5
 4031 0b0a 180B0000 		.4byte	0xb18
 4032 0b0e 19       		.uleb128 0x19
 4033 0b0f 01       		.uleb128 0x1
 4034 0b10 50       		.byte	0x50
 4035 0b11 05       		.uleb128 0x5
 4036 0b12 03       		.byte	0x3
 4037 0b13 24080000 		.4byte	.LC35
 4038 0b17 00       		.byte	0
 4039 0b18 1D       		.uleb128 0x1d
ARM GAS  C:\Users\Tim\AppData\Local\Temp\ccnUoCGf.s 			page 98


 4040 0b19 54000000 		.4byte	.LVL102
 4041 0b1d 02180000 		.4byte	0x1802
 4042 0b21 18       		.uleb128 0x18
 4043 0b22 5A000000 		.4byte	.LVL103
 4044 0b26 C5170000 		.4byte	0x17c5
 4045 0b2a 380B0000 		.4byte	0xb38
 4046 0b2e 19       		.uleb128 0x19
 4047 0b2f 01       		.uleb128 0x1
 4048 0b30 50       		.byte	0x50
 4049 0b31 05       		.uleb128 0x5
 4050 0b32 03       		.byte	0x3
 4051 0b33 7C080000 		.4byte	.LC36
 4052 0b37 00       		.byte	0
 4053 0b38 1D       		.uleb128 0x1d
 4054 0b39 74000000 		.4byte	.LVL105
 4055 0b3d 02180000 		.4byte	0x1802
 4056 0b41 18       		.uleb128 0x18
 4057 0b42 7A000000 		.4byte	.LVL106
 4058 0b46 C5170000 		.4byte	0x17c5
 4059 0b4a 580B0000 		.4byte	0xb58
 4060 0b4e 19       		.uleb128 0x19
 4061 0b4f 01       		.uleb128 0x1
 4062 0b50 50       		.byte	0x50
 4063 0b51 05       		.uleb128 0x5
 4064 0b52 03       		.byte	0x3
 4065 0b53 BC080000 		.4byte	.LC37
 4066 0b57 00       		.byte	0
 4067 0b58 1D       		.uleb128 0x1d
 4068 0b59 94000000 		.4byte	.LVL108
 4069 0b5d 02180000 		.4byte	0x1802
 4070 0b61 18       		.uleb128 0x18
 4071 0b62 9A000000 		.4byte	.LVL109
 4072 0b66 C5170000 		.4byte	0x17c5
 4073 0b6a 780B0000 		.4byte	0xb78
 4074 0b6e 19       		.uleb128 0x19
 4075 0b6f 01       		.uleb128 0x1
 4076 0b70 50       		.byte	0x50
 4077 0b71 05       		.uleb128 0x5
 4078 0b72 03       		.byte	0x3
 4079 0b73 FC080000 		.4byte	.LC38
 4080 0b77 00       		.byte	0
 4081 0b78 1D       		.uleb128 0x1d
 4082 0b79 B4000000 		.4byte	.LVL111
 4083 0b7d 02180000 		.4byte	0x1802
 4084 0b81 18       		.uleb128 0x18
 4085 0b82 BA000000 		.4byte	.LVL112
 4086 0b86 C5170000 		.4byte	0x17c5
 4087 0b8a 980B0000 		.4byte	0xb98
 4088 0b8e 19       		.uleb128 0x19
 4089 0b8f 01       		.uleb128 0x1
 4090 0b90 50       		.byte	0x50
 4091 0b91 05       		.uleb128 0x5
 4092 0b92 03       		.byte	0x3
 4093 0b93 3C090000 		.4byte	.LC39
 4094 0b97 00       		.byte	0
 4095 0b98 1D       		.uleb128 0x1d
 4096 0b99 D4000000 		.4byte	.LVL114
ARM GAS  C:\Users\Tim\AppData\Local\Temp\ccnUoCGf.s 			page 99


 4097 0b9d 02180000 		.4byte	0x1802
 4098 0ba1 18       		.uleb128 0x18
 4099 0ba2 DA000000 		.4byte	.LVL115
 4100 0ba6 C5170000 		.4byte	0x17c5
 4101 0baa B80B0000 		.4byte	0xbb8
 4102 0bae 19       		.uleb128 0x19
 4103 0baf 01       		.uleb128 0x1
 4104 0bb0 50       		.byte	0x50
 4105 0bb1 05       		.uleb128 0x5
 4106 0bb2 03       		.byte	0x3
 4107 0bb3 7C090000 		.4byte	.LC40
 4108 0bb7 00       		.byte	0
 4109 0bb8 1D       		.uleb128 0x1d
 4110 0bb9 F6000000 		.4byte	.LVL117
 4111 0bbd 02180000 		.4byte	0x1802
 4112 0bc1 1A       		.uleb128 0x1a
 4113 0bc2 FC000000 		.4byte	.LVL118
 4114 0bc6 C5170000 		.4byte	0x17c5
 4115 0bca 19       		.uleb128 0x19
 4116 0bcb 01       		.uleb128 0x1
 4117 0bcc 50       		.byte	0x50
 4118 0bcd 05       		.uleb128 0x5
 4119 0bce 03       		.byte	0x3
 4120 0bcf C0090000 		.4byte	.LC41
 4121 0bd3 00       		.byte	0
 4122 0bd4 00       		.byte	0
 4123 0bd5 23       		.uleb128 0x23
 4124 0bd6 E9030000 		.4byte	.LASF111
 4125 0bda 01       		.byte	0x1
 4126 0bdb 7602     		.2byte	0x276
 4127 0bdd B5000000 		.4byte	0xb5
 4128 0be1 00000000 		.4byte	.LFB80
 4129 0be5 72000000 		.4byte	.LFE80-.LFB80
 4130 0be9 01       		.uleb128 0x1
 4131 0bea 9C       		.byte	0x9c
 4132 0beb 950C0000 		.4byte	0xc95
 4133 0bef 24       		.uleb128 0x24
 4134 0bf0 63707300 		.ascii	"cps\000"
 4135 0bf4 01       		.byte	0x1
 4136 0bf5 7602     		.2byte	0x276
 4137 0bf7 D9000000 		.4byte	0xd9
 4138 0bfb DB020000 		.4byte	.LLST7
 4139 0bff 1C       		.uleb128 0x1c
 4140 0c00 26030000 		.4byte	.LASF31
 4141 0c04 01       		.byte	0x1
 4142 0c05 7602     		.2byte	0x276
 4143 0c07 950C0000 		.4byte	0xc95
 4144 0c0b 12030000 		.4byte	.LLST8
 4145 0c0f 1C       		.uleb128 0x1c
 4146 0c10 1D030000 		.4byte	.LASF32
 4147 0c14 01       		.byte	0x1
 4148 0c15 7602     		.2byte	0x276
 4149 0c17 9B0C0000 		.4byte	0xc9b
 4150 0c1b 30030000 		.4byte	.LLST9
 4151 0c1f 1C       		.uleb128 0x1c
 4152 0c20 99030000 		.4byte	.LASF112
 4153 0c24 01       		.byte	0x1
ARM GAS  C:\Users\Tim\AppData\Local\Temp\ccnUoCGf.s 			page 100


 4154 0c25 7602     		.2byte	0x276
 4155 0c27 A9000000 		.4byte	0xa9
 4156 0c2b 67030000 		.4byte	.LLST10
 4157 0c2f 26       		.uleb128 0x26
 4158 0c30 70776D00 		.ascii	"pwm\000"
 4159 0c34 01       		.byte	0x1
 4160 0c35 7802     		.2byte	0x278
 4161 0c37 C9020000 		.4byte	0x2c9
 4162 0c3b A1030000 		.4byte	.LLST11
 4163 0c3f 1E       		.uleb128 0x1e
 4164 0c40 2F030000 		.4byte	.LASF113
 4165 0c44 01       		.byte	0x1
 4166 0c45 7902     		.2byte	0x279
 4167 0c47 A9000000 		.4byte	0xa9
 4168 0c4b 02       		.uleb128 0x2
 4169 0c4c 91       		.byte	0x91
 4170 0c4d 6F       		.sleb128 -17
 4171 0c4e 1E       		.uleb128 0x1e
 4172 0c4f E5090000 		.4byte	.LASF114
 4173 0c53 01       		.byte	0x1
 4174 0c54 7A02     		.2byte	0x27a
 4175 0c56 A9000000 		.4byte	0xa9
 4176 0c5a 02       		.uleb128 0x2
 4177 0c5b 91       		.byte	0x91
 4178 0c5c 6E       		.sleb128 -18
 4179 0c5d 18       		.uleb128 0x18
 4180 0c5e 28000000 		.4byte	.LVL126
 4181 0c62 13180000 		.4byte	0x1813
 4182 0c66 840C0000 		.4byte	0xc84
 4183 0c6a 19       		.uleb128 0x19
 4184 0c6b 01       		.uleb128 0x1
 4185 0c6c 53       		.byte	0x53
 4186 0c6d 02       		.uleb128 0x2
 4187 0c6e 91       		.byte	0x91
 4188 0c6f 6F       		.sleb128 -17
 4189 0c70 19       		.uleb128 0x19
 4190 0c71 01       		.uleb128 0x1
 4191 0c72 51       		.byte	0x51
 4192 0c73 02       		.uleb128 0x2
 4193 0c74 74       		.byte	0x74
 4194 0c75 00       		.sleb128 0
 4195 0c76 19       		.uleb128 0x19
 4196 0c77 01       		.uleb128 0x1
 4197 0c78 50       		.byte	0x50
 4198 0c79 02       		.uleb128 0x2
 4199 0c7a 75       		.byte	0x75
 4200 0c7b 00       		.sleb128 0
 4201 0c7c 19       		.uleb128 0x19
 4202 0c7d 02       		.uleb128 0x2
 4203 0c7e 7D       		.byte	0x7d
 4204 0c7f 00       		.sleb128 0
 4205 0c80 02       		.uleb128 0x2
 4206 0c81 91       		.byte	0x91
 4207 0c82 6E       		.sleb128 -18
 4208 0c83 00       		.byte	0
 4209 0c84 1A       		.uleb128 0x1a
 4210 0c85 48000000 		.4byte	.LVL127
ARM GAS  C:\Users\Tim\AppData\Local\Temp\ccnUoCGf.s 			page 101


 4211 0c89 3E180000 		.4byte	0x183e
 4212 0c8d 19       		.uleb128 0x19
 4213 0c8e 01       		.uleb128 0x1
 4214 0c8f 50       		.byte	0x50
 4215 0c90 02       		.uleb128 0x2
 4216 0c91 75       		.byte	0x75
 4217 0c92 00       		.sleb128 0
 4218 0c93 00       		.byte	0
 4219 0c94 00       		.byte	0
 4220 0c95 06       		.uleb128 0x6
 4221 0c96 04       		.byte	0x4
 4222 0c97 D9000000 		.4byte	0xd9
 4223 0c9b 06       		.uleb128 0x6
 4224 0c9c 04       		.byte	0x4
 4225 0c9d B5000000 		.4byte	0xb5
 4226 0ca1 27       		.uleb128 0x27
 4227 0ca2 76000000 		.4byte	.LASF115
 4228 0ca6 01       		.byte	0x1
 4229 0ca7 73       		.byte	0x73
 4230 0ca8 00000000 		.4byte	.LFB65
 4231 0cac 2C000000 		.4byte	.LFE65-.LFB65
 4232 0cb0 01       		.uleb128 0x1
 4233 0cb1 9C       		.byte	0x9c
 4234 0cb2 EE0C0000 		.4byte	0xcee
 4235 0cb6 28       		.uleb128 0x28
 4236 0cb7 62697400 		.ascii	"bit\000"
 4237 0cbb 01       		.byte	0x1
 4238 0cbc 73       		.byte	0x73
 4239 0cbd B5000000 		.4byte	0xb5
 4240 0cc1 DB030000 		.4byte	.LLST12
 4241 0cc5 29       		.uleb128 0x29
 4242 0cc6 65050000 		.4byte	.LASF40
 4243 0cca 01       		.byte	0x1
 4244 0ccb 75       		.byte	0x75
 4245 0ccc B5000000 		.4byte	0xb5
 4246 0cd0 FC030000 		.4byte	.LLST13
 4247 0cd4 1D       		.uleb128 0x1d
 4248 0cd5 1E000000 		.4byte	.LVL137
 4249 0cd9 67180000 		.4byte	0x1867
 4250 0cdd 1A       		.uleb128 0x1a
 4251 0cde 24000000 		.4byte	.LVL138
 4252 0ce2 7D180000 		.4byte	0x187d
 4253 0ce6 19       		.uleb128 0x19
 4254 0ce7 01       		.uleb128 0x1
 4255 0ce8 50       		.byte	0x50
 4256 0ce9 02       		.uleb128 0x2
 4257 0cea 74       		.byte	0x74
 4258 0ceb 00       		.sleb128 0
 4259 0cec 00       		.byte	0
 4260 0ced 00       		.byte	0
 4261 0cee 27       		.uleb128 0x27
 4262 0cef D1030000 		.4byte	.LASF116
 4263 0cf3 01       		.byte	0x1
 4264 0cf4 7A       		.byte	0x7a
 4265 0cf5 00000000 		.4byte	.LFB66
 4266 0cf9 24000000 		.4byte	.LFE66-.LFB66
 4267 0cfd 01       		.uleb128 0x1
ARM GAS  C:\Users\Tim\AppData\Local\Temp\ccnUoCGf.s 			page 102


 4268 0cfe 9C       		.byte	0x9c
 4269 0cff 3B0D0000 		.4byte	0xd3b
 4270 0d03 28       		.uleb128 0x28
 4271 0d04 62697400 		.ascii	"bit\000"
 4272 0d08 01       		.byte	0x1
 4273 0d09 7A       		.byte	0x7a
 4274 0d0a B5000000 		.4byte	0xb5
 4275 0d0e 0F040000 		.4byte	.LLST14
 4276 0d12 29       		.uleb128 0x29
 4277 0d13 65050000 		.4byte	.LASF40
 4278 0d17 01       		.byte	0x1
 4279 0d18 7C       		.byte	0x7c
 4280 0d19 B5000000 		.4byte	0xb5
 4281 0d1d 30040000 		.4byte	.LLST15
 4282 0d21 1D       		.uleb128 0x1d
 4283 0d22 18000000 		.4byte	.LVL143
 4284 0d26 67180000 		.4byte	0x1867
 4285 0d2a 1A       		.uleb128 0x1a
 4286 0d2b 1E000000 		.4byte	.LVL144
 4287 0d2f 8E180000 		.4byte	0x188e
 4288 0d33 19       		.uleb128 0x19
 4289 0d34 01       		.uleb128 0x1
 4290 0d35 50       		.byte	0x50
 4291 0d36 02       		.uleb128 0x2
 4292 0d37 74       		.byte	0x74
 4293 0d38 00       		.sleb128 0
 4294 0d39 00       		.byte	0
 4295 0d3a 00       		.byte	0
 4296 0d3b 27       		.uleb128 0x27
 4297 0d3c 8C0B0000 		.4byte	.LASF117
 4298 0d40 01       		.byte	0x1
 4299 0d41 92       		.byte	0x92
 4300 0d42 00000000 		.4byte	.LFB67
 4301 0d46 64000000 		.4byte	.LFE67-.LFB67
 4302 0d4a 01       		.uleb128 0x1
 4303 0d4b 9C       		.byte	0x9c
 4304 0d4c 440E0000 		.4byte	0xe44
 4305 0d50 2A       		.uleb128 0x2a
 4306 0d51 070A0000 		.4byte	.LASF118
 4307 0d55 01       		.byte	0x1
 4308 0d56 92       		.byte	0x92
 4309 0d57 86000000 		.4byte	0x86
 4310 0d5b 48040000 		.4byte	.LLST16
 4311 0d5f 2A       		.uleb128 0x2a
 4312 0d60 F2080000 		.4byte	.LASF119
 4313 0d64 01       		.byte	0x1
 4314 0d65 92       		.byte	0x92
 4315 0d66 950C0000 		.4byte	0xc95
 4316 0d6a 74040000 		.4byte	.LLST17
 4317 0d6e 2A       		.uleb128 0x2a
 4318 0d6f 8D030000 		.4byte	.LASF120
 4319 0d73 01       		.byte	0x1
 4320 0d74 92       		.byte	0x92
 4321 0d75 9B0C0000 		.4byte	0xc9b
 4322 0d79 A0040000 		.4byte	.LLST18
 4323 0d7d 2B       		.uleb128 0x2b
 4324 0d7e 696900   		.ascii	"ii\000"
ARM GAS  C:\Users\Tim\AppData\Local\Temp\ccnUoCGf.s 			page 103


 4325 0d81 01       		.byte	0x1
 4326 0d82 94       		.byte	0x94
 4327 0d83 A9000000 		.4byte	0xa9
 4328 0d87 CC040000 		.4byte	.LLST19
 4329 0d8b 2C       		.uleb128 0x2c
 4330 0d8c B2000000 		.4byte	.LASF121
 4331 0d90 01       		.byte	0x1
 4332 0d91 95       		.byte	0x95
 4333 0d92 440E0000 		.4byte	0xe44
 4334 0d96 03       		.uleb128 0x3
 4335 0d97 91       		.byte	0x91
 4336 0d98 8C7F     		.sleb128 -116
 4337 0d9a 2C       		.uleb128 0x2c
 4338 0d9b 5A060000 		.4byte	.LASF122
 4339 0d9f 01       		.byte	0x1
 4340 0da0 96       		.byte	0x96
 4341 0da1 540E0000 		.4byte	0xe54
 4342 0da5 03       		.uleb128 0x3
 4343 0da6 91       		.byte	0x91
 4344 0da7 F87E     		.sleb128 -136
 4345 0da9 18       		.uleb128 0x18
 4346 0daa 14000000 		.4byte	.LVL149
 4347 0dae D6170000 		.4byte	0x17d6
 4348 0db2 CD0D0000 		.4byte	0xdcd
 4349 0db6 19       		.uleb128 0x19
 4350 0db7 01       		.uleb128 0x1
 4351 0db8 52       		.byte	0x52
 4352 0db9 03       		.uleb128 0x3
 4353 0dba F3       		.byte	0xf3
 4354 0dbb 01       		.uleb128 0x1
 4355 0dbc 50       		.byte	0x50
 4356 0dbd 19       		.uleb128 0x19
 4357 0dbe 01       		.uleb128 0x1
 4358 0dbf 51       		.byte	0x51
 4359 0dc0 05       		.uleb128 0x5
 4360 0dc1 03       		.byte	0x3
 4361 0dc2 040A0000 		.4byte	.LC42
 4362 0dc6 19       		.uleb128 0x19
 4363 0dc7 01       		.uleb128 0x1
 4364 0dc8 50       		.byte	0x50
 4365 0dc9 02       		.uleb128 0x2
 4366 0dca 7D       		.byte	0x7d
 4367 0dcb 00       		.sleb128 0
 4368 0dcc 00       		.byte	0
 4369 0dcd 18       		.uleb128 0x18
 4370 0dce 1A000000 		.4byte	.LVL150
 4371 0dd2 C5170000 		.4byte	0x17c5
 4372 0dd6 E10D0000 		.4byte	0xde1
 4373 0dda 19       		.uleb128 0x19
 4374 0ddb 01       		.uleb128 0x1
 4375 0ddc 50       		.byte	0x50
 4376 0ddd 02       		.uleb128 0x2
 4377 0dde 7D       		.byte	0x7d
 4378 0ddf 00       		.sleb128 0
 4379 0de0 00       		.byte	0
 4380 0de1 18       		.uleb128 0x18
 4381 0de2 2E000000 		.4byte	.LVL152
ARM GAS  C:\Users\Tim\AppData\Local\Temp\ccnUoCGf.s 			page 104


 4382 0de6 D6170000 		.4byte	0x17d6
 4383 0dea FF0D0000 		.4byte	0xdff
 4384 0dee 19       		.uleb128 0x19
 4385 0def 01       		.uleb128 0x1
 4386 0df0 51       		.byte	0x51
 4387 0df1 05       		.uleb128 0x5
 4388 0df2 03       		.byte	0x3
 4389 0df3 0C0A0000 		.4byte	.LC43
 4390 0df7 19       		.uleb128 0x19
 4391 0df8 01       		.uleb128 0x1
 4392 0df9 50       		.byte	0x50
 4393 0dfa 03       		.uleb128 0x3
 4394 0dfb 91       		.byte	0x91
 4395 0dfc 8C7F     		.sleb128 -116
 4396 0dfe 00       		.byte	0
 4397 0dff 18       		.uleb128 0x18
 4398 0e00 34000000 		.4byte	.LVL153
 4399 0e04 C5170000 		.4byte	0x17c5
 4400 0e08 140E0000 		.4byte	0xe14
 4401 0e0c 19       		.uleb128 0x19
 4402 0e0d 01       		.uleb128 0x1
 4403 0e0e 50       		.byte	0x50
 4404 0e0f 03       		.uleb128 0x3
 4405 0e10 91       		.byte	0x91
 4406 0e11 8C7F     		.sleb128 -116
 4407 0e13 00       		.byte	0
 4408 0e14 18       		.uleb128 0x18
 4409 0e15 4C000000 		.4byte	.LVL156
 4410 0e19 D6170000 		.4byte	0x17d6
 4411 0e1d 320E0000 		.4byte	0xe32
 4412 0e21 19       		.uleb128 0x19
 4413 0e22 01       		.uleb128 0x1
 4414 0e23 51       		.byte	0x51
 4415 0e24 05       		.uleb128 0x5
 4416 0e25 03       		.byte	0x3
 4417 0e26 140A0000 		.4byte	.LC44
 4418 0e2a 19       		.uleb128 0x19
 4419 0e2b 01       		.uleb128 0x1
 4420 0e2c 50       		.byte	0x50
 4421 0e2d 03       		.uleb128 0x3
 4422 0e2e 91       		.byte	0x91
 4423 0e2f 8C7F     		.sleb128 -116
 4424 0e31 00       		.byte	0
 4425 0e32 1A       		.uleb128 0x1a
 4426 0e33 52000000 		.4byte	.LVL157
 4427 0e37 C5170000 		.4byte	0x17c5
 4428 0e3b 19       		.uleb128 0x19
 4429 0e3c 01       		.uleb128 0x1
 4430 0e3d 50       		.byte	0x50
 4431 0e3e 03       		.uleb128 0x3
 4432 0e3f 91       		.byte	0x91
 4433 0e40 8C7F     		.sleb128 -116
 4434 0e42 00       		.byte	0
 4435 0e43 00       		.byte	0
 4436 0e44 09       		.uleb128 0x9
 4437 0e45 8C000000 		.4byte	0x8c
 4438 0e49 540E0000 		.4byte	0xe54
ARM GAS  C:\Users\Tim\AppData\Local\Temp\ccnUoCGf.s 			page 105


 4439 0e4d 0A       		.uleb128 0xa
 4440 0e4e 7F000000 		.4byte	0x7f
 4441 0e52 63       		.byte	0x63
 4442 0e53 00       		.byte	0
 4443 0e54 09       		.uleb128 0x9
 4444 0e55 8C000000 		.4byte	0x8c
 4445 0e59 640E0000 		.4byte	0xe64
 4446 0e5d 0A       		.uleb128 0xa
 4447 0e5e 7F000000 		.4byte	0x7f
 4448 0e62 13       		.byte	0x13
 4449 0e63 00       		.byte	0
 4450 0e64 27       		.uleb128 0x27
 4451 0e65 F7000000 		.4byte	.LASF123
 4452 0e69 01       		.byte	0x1
 4453 0e6a AC       		.byte	0xac
 4454 0e6b 00000000 		.4byte	.LFB68
 4455 0e6f 48000000 		.4byte	.LFE68-.LFB68
 4456 0e73 01       		.uleb128 0x1
 4457 0e74 9C       		.byte	0x9c
 4458 0e75 6A0F0000 		.4byte	0xf6a
 4459 0e79 2A       		.uleb128 0x2a
 4460 0e7a 070A0000 		.4byte	.LASF118
 4461 0e7e 01       		.byte	0x1
 4462 0e7f AC       		.byte	0xac
 4463 0e80 86000000 		.4byte	0x86
 4464 0e84 F6040000 		.4byte	.LLST20
 4465 0e88 2A       		.uleb128 0x2a
 4466 0e89 9D0B0000 		.4byte	.LASF124
 4467 0e8d 01       		.byte	0x1
 4468 0e8e AC       		.byte	0xac
 4469 0e8f B5040000 		.4byte	0x4b5
 4470 0e93 22050000 		.4byte	.LLST21
 4471 0e97 2C       		.uleb128 0x2c
 4472 0e98 6F000000 		.4byte	.LASF125
 4473 0e9c 01       		.byte	0x1
 4474 0e9d AE       		.byte	0xae
 4475 0e9e D5080000 		.4byte	0x8d5
 4476 0ea2 03       		.uleb128 0x3
 4477 0ea3 91       		.byte	0x91
 4478 0ea4 A87F     		.sleb128 -88
 4479 0ea6 2C       		.uleb128 0x2c
 4480 0ea7 42000000 		.4byte	.LASF126
 4481 0eab 01       		.byte	0x1
 4482 0eac AF       		.byte	0xaf
 4483 0ead 6A0F0000 		.4byte	0xf6a
 4484 0eb1 03       		.uleb128 0x3
 4485 0eb2 91       		.byte	0x91
 4486 0eb3 9C7F     		.sleb128 -100
 4487 0eb5 2C       		.uleb128 0x2c
 4488 0eb6 00000000 		.4byte	.LASF127
 4489 0eba 01       		.byte	0x1
 4490 0ebb B0       		.byte	0xb0
 4491 0ebc 6A0F0000 		.4byte	0xf6a
 4492 0ec0 03       		.uleb128 0x3
 4493 0ec1 91       		.byte	0x91
 4494 0ec2 907F     		.sleb128 -112
 4495 0ec4 2C       		.uleb128 0x2c
ARM GAS  C:\Users\Tim\AppData\Local\Temp\ccnUoCGf.s 			page 106


 4496 0ec5 DC060000 		.4byte	.LASF128
 4497 0ec9 01       		.byte	0x1
 4498 0eca B1       		.byte	0xb1
 4499 0ecb 6A0F0000 		.4byte	0xf6a
 4500 0ecf 03       		.uleb128 0x3
 4501 0ed0 91       		.byte	0x91
 4502 0ed1 847F     		.sleb128 -124
 4503 0ed3 18       		.uleb128 0x18
 4504 0ed4 12000000 		.4byte	.LVL162
 4505 0ed8 9F180000 		.4byte	0x189f
 4506 0edc ED0E0000 		.4byte	0xeed
 4507 0ee0 19       		.uleb128 0x19
 4508 0ee1 01       		.uleb128 0x1
 4509 0ee2 52       		.byte	0x52
 4510 0ee3 01       		.uleb128 0x1
 4511 0ee4 33       		.byte	0x33
 4512 0ee5 19       		.uleb128 0x19
 4513 0ee6 01       		.uleb128 0x1
 4514 0ee7 51       		.byte	0x51
 4515 0ee8 03       		.uleb128 0x3
 4516 0ee9 91       		.byte	0x91
 4517 0eea 9C7F     		.sleb128 -100
 4518 0eec 00       		.byte	0
 4519 0eed 18       		.uleb128 0x18
 4520 0eee 1E000000 		.4byte	.LVL163
 4521 0ef2 9F180000 		.4byte	0x189f
 4522 0ef6 060F0000 		.4byte	0xf06
 4523 0efa 19       		.uleb128 0x19
 4524 0efb 01       		.uleb128 0x1
 4525 0efc 52       		.byte	0x52
 4526 0efd 01       		.uleb128 0x1
 4527 0efe 33       		.byte	0x33
 4528 0eff 19       		.uleb128 0x19
 4529 0f00 01       		.uleb128 0x1
 4530 0f01 51       		.byte	0x51
 4531 0f02 02       		.uleb128 0x2
 4532 0f03 76       		.byte	0x76
 4533 0f04 00       		.sleb128 0
 4534 0f05 00       		.byte	0
 4535 0f06 18       		.uleb128 0x18
 4536 0f07 2A000000 		.4byte	.LVL164
 4537 0f0b 9F180000 		.4byte	0x189f
 4538 0f0f 1F0F0000 		.4byte	0xf1f
 4539 0f13 19       		.uleb128 0x19
 4540 0f14 01       		.uleb128 0x1
 4541 0f15 52       		.byte	0x52
 4542 0f16 01       		.uleb128 0x1
 4543 0f17 33       		.byte	0x33
 4544 0f18 19       		.uleb128 0x19
 4545 0f19 01       		.uleb128 0x1
 4546 0f1a 51       		.byte	0x51
 4547 0f1b 02       		.uleb128 0x2
 4548 0f1c 75       		.byte	0x75
 4549 0f1d 00       		.sleb128 0
 4550 0f1e 00       		.byte	0
 4551 0f1f 18       		.uleb128 0x18
 4552 0f20 3A000000 		.4byte	.LVL165
ARM GAS  C:\Users\Tim\AppData\Local\Temp\ccnUoCGf.s 			page 107


 4553 0f24 D6170000 		.4byte	0x17d6
 4554 0f28 580F0000 		.4byte	0xf58
 4555 0f2c 19       		.uleb128 0x19
 4556 0f2d 01       		.uleb128 0x1
 4557 0f2e 53       		.byte	0x53
 4558 0f2f 03       		.uleb128 0x3
 4559 0f30 91       		.byte	0x91
 4560 0f31 9C7F     		.sleb128 -100
 4561 0f33 19       		.uleb128 0x19
 4562 0f34 01       		.uleb128 0x1
 4563 0f35 52       		.byte	0x52
 4564 0f36 02       		.uleb128 0x2
 4565 0f37 77       		.byte	0x77
 4566 0f38 00       		.sleb128 0
 4567 0f39 19       		.uleb128 0x19
 4568 0f3a 01       		.uleb128 0x1
 4569 0f3b 51       		.byte	0x51
 4570 0f3c 05       		.uleb128 0x5
 4571 0f3d 03       		.byte	0x3
 4572 0f3e 200A0000 		.4byte	.LC45
 4573 0f42 19       		.uleb128 0x19
 4574 0f43 01       		.uleb128 0x1
 4575 0f44 50       		.byte	0x50
 4576 0f45 03       		.uleb128 0x3
 4577 0f46 91       		.byte	0x91
 4578 0f47 A87F     		.sleb128 -88
 4579 0f49 19       		.uleb128 0x19
 4580 0f4a 02       		.uleb128 0x2
 4581 0f4b 7D       		.byte	0x7d
 4582 0f4c 04       		.sleb128 4
 4583 0f4d 02       		.uleb128 0x2
 4584 0f4e 75       		.byte	0x75
 4585 0f4f 00       		.sleb128 0
 4586 0f50 19       		.uleb128 0x19
 4587 0f51 02       		.uleb128 0x2
 4588 0f52 7D       		.byte	0x7d
 4589 0f53 00       		.sleb128 0
 4590 0f54 02       		.uleb128 0x2
 4591 0f55 76       		.byte	0x76
 4592 0f56 00       		.sleb128 0
 4593 0f57 00       		.byte	0
 4594 0f58 1A       		.uleb128 0x1a
 4595 0f59 40000000 		.4byte	.LVL166
 4596 0f5d C5170000 		.4byte	0x17c5
 4597 0f61 19       		.uleb128 0x19
 4598 0f62 01       		.uleb128 0x1
 4599 0f63 50       		.byte	0x50
 4600 0f64 03       		.uleb128 0x3
 4601 0f65 91       		.byte	0x91
 4602 0f66 A87F     		.sleb128 -88
 4603 0f68 00       		.byte	0
 4604 0f69 00       		.byte	0
 4605 0f6a 09       		.uleb128 0x9
 4606 0f6b 8C000000 		.4byte	0x8c
 4607 0f6f 7A0F0000 		.4byte	0xf7a
 4608 0f73 0A       		.uleb128 0xa
 4609 0f74 7F000000 		.4byte	0x7f
ARM GAS  C:\Users\Tim\AppData\Local\Temp\ccnUoCGf.s 			page 108


 4610 0f78 09       		.byte	0x9
 4611 0f79 00       		.byte	0
 4612 0f7a 1B       		.uleb128 0x1b
 4613 0f7b 15010000 		.4byte	.LASF129
 4614 0f7f 01       		.byte	0x1
 4615 0f80 2B01     		.2byte	0x12b
 4616 0f82 00000000 		.4byte	.LFB74
 4617 0f86 04010000 		.4byte	.LFE74-.LFB74
 4618 0f8a 01       		.uleb128 0x1
 4619 0f8b 9C       		.byte	0x9c
 4620 0f8c 4D110000 		.4byte	0x114d
 4621 0f90 24       		.uleb128 0x24
 4622 0f91 636D6400 		.ascii	"cmd\000"
 4623 0f95 01       		.byte	0x1
 4624 0f96 2B01     		.2byte	0x12b
 4625 0f98 A9000000 		.4byte	0xa9
 4626 0f9c 4E050000 		.4byte	.LLST22
 4627 0fa0 1D       		.uleb128 0x1d
 4628 0fa1 16000000 		.4byte	.LVL169
 4629 0fa5 02180000 		.4byte	0x1802
 4630 0fa9 18       		.uleb128 0x18
 4631 0faa 1C000000 		.4byte	.LVL170
 4632 0fae C5170000 		.4byte	0x17c5
 4633 0fb2 C00F0000 		.4byte	0xfc0
 4634 0fb6 19       		.uleb128 0x19
 4635 0fb7 01       		.uleb128 0x1
 4636 0fb8 50       		.byte	0x50
 4637 0fb9 05       		.uleb128 0x5
 4638 0fba 03       		.byte	0x3
 4639 0fbb 3C0A0000 		.4byte	.LC46
 4640 0fbf 00       		.byte	0
 4641 0fc0 18       		.uleb128 0x18
 4642 0fc1 24000000 		.4byte	.LVL171
 4643 0fc5 C5170000 		.4byte	0x17c5
 4644 0fc9 D40F0000 		.4byte	0xfd4
 4645 0fcd 19       		.uleb128 0x19
 4646 0fce 01       		.uleb128 0x1
 4647 0fcf 50       		.byte	0x50
 4648 0fd0 02       		.uleb128 0x2
 4649 0fd1 74       		.byte	0x74
 4650 0fd2 00       		.sleb128 0
 4651 0fd3 00       		.byte	0
 4652 0fd4 18       		.uleb128 0x18
 4653 0fd5 36000000 		.4byte	.LVL172
 4654 0fd9 3B0D0000 		.4byte	0xd3b
 4655 0fdd EB0F0000 		.4byte	0xfeb
 4656 0fe1 19       		.uleb128 0x19
 4657 0fe2 01       		.uleb128 0x1
 4658 0fe3 50       		.byte	0x50
 4659 0fe4 05       		.uleb128 0x5
 4660 0fe5 03       		.byte	0x3
 4661 0fe6 780A0000 		.4byte	.LC47
 4662 0fea 00       		.byte	0
 4663 0feb 18       		.uleb128 0x18
 4664 0fec 46000000 		.4byte	.LVL173
 4665 0ff0 3B0D0000 		.4byte	0xd3b
 4666 0ff4 02100000 		.4byte	0x1002
ARM GAS  C:\Users\Tim\AppData\Local\Temp\ccnUoCGf.s 			page 109


 4667 0ff8 19       		.uleb128 0x19
 4668 0ff9 01       		.uleb128 0x1
 4669 0ffa 50       		.byte	0x50
 4670 0ffb 05       		.uleb128 0x5
 4671 0ffc 03       		.byte	0x3
 4672 0ffd 880A0000 		.4byte	.LC48
 4673 1001 00       		.byte	0
 4674 1002 18       		.uleb128 0x18
 4675 1003 4C000000 		.4byte	.LVL174
 4676 1007 C5170000 		.4byte	0x17c5
 4677 100b 16100000 		.4byte	0x1016
 4678 100f 19       		.uleb128 0x19
 4679 1010 01       		.uleb128 0x1
 4680 1011 50       		.byte	0x50
 4681 1012 02       		.uleb128 0x2
 4682 1013 74       		.byte	0x74
 4683 1014 00       		.sleb128 0
 4684 1015 00       		.byte	0
 4685 1016 1D       		.uleb128 0x1d
 4686 1017 50000000 		.4byte	.LVL175
 4687 101b 79070000 		.4byte	0x779
 4688 101f 1D       		.uleb128 0x1d
 4689 1020 56000000 		.4byte	.LVL177
 4690 1024 02180000 		.4byte	0x1802
 4691 1028 18       		.uleb128 0x18
 4692 1029 5C000000 		.4byte	.LVL178
 4693 102d C5170000 		.4byte	0x17c5
 4694 1031 3F100000 		.4byte	0x103f
 4695 1035 19       		.uleb128 0x19
 4696 1036 01       		.uleb128 0x1
 4697 1037 50       		.byte	0x50
 4698 1038 05       		.uleb128 0x5
 4699 1039 03       		.byte	0x3
 4700 103a 980A0000 		.4byte	.LC49
 4701 103e 00       		.byte	0
 4702 103f 18       		.uleb128 0x18
 4703 1040 64000000 		.4byte	.LVL179
 4704 1044 C5170000 		.4byte	0x17c5
 4705 1048 53100000 		.4byte	0x1053
 4706 104c 19       		.uleb128 0x19
 4707 104d 01       		.uleb128 0x1
 4708 104e 50       		.byte	0x50
 4709 104f 02       		.uleb128 0x2
 4710 1050 74       		.byte	0x74
 4711 1051 00       		.sleb128 0
 4712 1052 00       		.byte	0
 4713 1053 18       		.uleb128 0x18
 4714 1054 76000000 		.4byte	.LVL180
 4715 1058 3B0D0000 		.4byte	0xd3b
 4716 105c 6A100000 		.4byte	0x106a
 4717 1060 19       		.uleb128 0x19
 4718 1061 01       		.uleb128 0x1
 4719 1062 50       		.byte	0x50
 4720 1063 05       		.uleb128 0x5
 4721 1064 03       		.byte	0x3
 4722 1065 D80A0000 		.4byte	.LC50
 4723 1069 00       		.byte	0
ARM GAS  C:\Users\Tim\AppData\Local\Temp\ccnUoCGf.s 			page 110


 4724 106a 18       		.uleb128 0x18
 4725 106b 86000000 		.4byte	.LVL181
 4726 106f 3B0D0000 		.4byte	0xd3b
 4727 1073 81100000 		.4byte	0x1081
 4728 1077 19       		.uleb128 0x19
 4729 1078 01       		.uleb128 0x1
 4730 1079 50       		.byte	0x50
 4731 107a 05       		.uleb128 0x5
 4732 107b 03       		.byte	0x3
 4733 107c E80A0000 		.4byte	.LC51
 4734 1080 00       		.byte	0
 4735 1081 18       		.uleb128 0x18
 4736 1082 8C000000 		.4byte	.LVL182
 4737 1086 C5170000 		.4byte	0x17c5
 4738 108a 95100000 		.4byte	0x1095
 4739 108e 19       		.uleb128 0x19
 4740 108f 01       		.uleb128 0x1
 4741 1090 50       		.byte	0x50
 4742 1091 02       		.uleb128 0x2
 4743 1092 74       		.byte	0x74
 4744 1093 00       		.sleb128 0
 4745 1094 00       		.byte	0
 4746 1095 1D       		.uleb128 0x1d
 4747 1096 90000000 		.4byte	.LVL183
 4748 109a 79070000 		.4byte	0x779
 4749 109e 1D       		.uleb128 0x1d
 4750 109f 96000000 		.4byte	.LVL185
 4751 10a3 02180000 		.4byte	0x1802
 4752 10a7 18       		.uleb128 0x18
 4753 10a8 9C000000 		.4byte	.LVL186
 4754 10ac C5170000 		.4byte	0x17c5
 4755 10b0 BE100000 		.4byte	0x10be
 4756 10b4 19       		.uleb128 0x19
 4757 10b5 01       		.uleb128 0x1
 4758 10b6 50       		.byte	0x50
 4759 10b7 05       		.uleb128 0x5
 4760 10b8 03       		.byte	0x3
 4761 10b9 F80A0000 		.4byte	.LC52
 4762 10bd 00       		.byte	0
 4763 10be 18       		.uleb128 0x18
 4764 10bf A2000000 		.4byte	.LVL187
 4765 10c3 C5170000 		.4byte	0x17c5
 4766 10c7 D5100000 		.4byte	0x10d5
 4767 10cb 19       		.uleb128 0x19
 4768 10cc 01       		.uleb128 0x1
 4769 10cd 50       		.byte	0x50
 4770 10ce 05       		.uleb128 0x5
 4771 10cf 03       		.byte	0x3
 4772 10d0 68010000 		.4byte	.LC5
 4773 10d4 00       		.byte	0
 4774 10d5 18       		.uleb128 0x18
 4775 10d6 AE000000 		.4byte	.LVL188
 4776 10da 640E0000 		.4byte	0xe64
 4777 10de EC100000 		.4byte	0x10ec
 4778 10e2 19       		.uleb128 0x19
 4779 10e3 01       		.uleb128 0x1
 4780 10e4 50       		.byte	0x50
ARM GAS  C:\Users\Tim\AppData\Local\Temp\ccnUoCGf.s 			page 111


 4781 10e5 05       		.uleb128 0x5
 4782 10e6 03       		.byte	0x3
 4783 10e7 200B0000 		.4byte	.LC53
 4784 10eb 00       		.byte	0
 4785 10ec 18       		.uleb128 0x18
 4786 10ed B8000000 		.4byte	.LVL189
 4787 10f1 640E0000 		.4byte	0xe64
 4788 10f5 03110000 		.4byte	0x1103
 4789 10f9 19       		.uleb128 0x19
 4790 10fa 01       		.uleb128 0x1
 4791 10fb 50       		.byte	0x50
 4792 10fc 05       		.uleb128 0x5
 4793 10fd 03       		.byte	0x3
 4794 10fe 2C0B0000 		.4byte	.LC54
 4795 1102 00       		.byte	0
 4796 1103 1D       		.uleb128 0x1d
 4797 1104 BC000000 		.4byte	.LVL190
 4798 1108 79070000 		.4byte	0x779
 4799 110c 1D       		.uleb128 0x1d
 4800 110d C2000000 		.4byte	.LVL192
 4801 1111 02180000 		.4byte	0x1802
 4802 1115 18       		.uleb128 0x18
 4803 1116 C8000000 		.4byte	.LVL193
 4804 111a C5170000 		.4byte	0x17c5
 4805 111e 2C110000 		.4byte	0x112c
 4806 1122 19       		.uleb128 0x19
 4807 1123 01       		.uleb128 0x1
 4808 1124 50       		.byte	0x50
 4809 1125 05       		.uleb128 0x5
 4810 1126 03       		.byte	0x3
 4811 1127 380B0000 		.4byte	.LC55
 4812 112b 00       		.byte	0
 4813 112c 18       		.uleb128 0x18
 4814 112d CE000000 		.4byte	.LVL194
 4815 1131 C5170000 		.4byte	0x17c5
 4816 1135 43110000 		.4byte	0x1143
 4817 1139 19       		.uleb128 0x19
 4818 113a 01       		.uleb128 0x1
 4819 113b 50       		.byte	0x50
 4820 113c 05       		.uleb128 0x5
 4821 113d 03       		.byte	0x3
 4822 113e 68010000 		.4byte	.LC5
 4823 1142 00       		.byte	0
 4824 1143 1D       		.uleb128 0x1d
 4825 1144 D2000000 		.4byte	.LVL195
 4826 1148 79070000 		.4byte	0x779
 4827 114c 00       		.byte	0
 4828 114d 2D       		.uleb128 0x2d
 4829 114e 390B0000 		.4byte	.LASF130
 4830 1152 01       		.byte	0x1
 4831 1153 9302     		.2byte	0x293
 4832 1155 00000000 		.4byte	.LFB81
 4833 1159 3C000000 		.4byte	.LFE81-.LFB81
 4834 115d 01       		.uleb128 0x1
 4835 115e 9C       		.byte	0x9c
 4836 115f 7F110000 		.4byte	0x117f
 4837 1163 1D       		.uleb128 0x1d
ARM GAS  C:\Users\Tim\AppData\Local\Temp\ccnUoCGf.s 			page 112


 4838 1164 18000000 		.4byte	.LVL196
 4839 1168 BA180000 		.4byte	0x18ba
 4840 116c 1D       		.uleb128 0x1d
 4841 116d 1C000000 		.4byte	.LVL197
 4842 1171 C7180000 		.4byte	0x18c7
 4843 1175 1D       		.uleb128 0x1d
 4844 1176 20000000 		.4byte	.LVL198
 4845 117a D4180000 		.4byte	0x18d4
 4846 117e 00       		.byte	0
 4847 117f 2D       		.uleb128 0x2d
 4848 1180 CA020000 		.4byte	.LASF131
 4849 1184 01       		.byte	0x1
 4850 1185 A602     		.2byte	0x2a6
 4851 1187 00000000 		.4byte	.LFB82
 4852 118b 14000000 		.4byte	.LFE82-.LFB82
 4853 118f 01       		.uleb128 0x1
 4854 1190 9C       		.byte	0x9c
 4855 1191 AF110000 		.4byte	0x11af
 4856 1195 20       		.uleb128 0x20
 4857 1196 65050000 		.4byte	.LASF40
 4858 119a 01       		.byte	0x1
 4859 119b B002     		.2byte	0x2b0
 4860 119d B5000000 		.4byte	0xb5
 4861 11a1 BA050000 		.4byte	.LLST23
 4862 11a5 1D       		.uleb128 0x1d
 4863 11a6 0E000000 		.4byte	.LVL200
 4864 11aa E1180000 		.4byte	0x18e1
 4865 11ae 00       		.byte	0
 4866 11af 2D       		.uleb128 0x2d
 4867 11b0 8C070000 		.4byte	.LASF132
 4868 11b4 01       		.byte	0x1
 4869 11b5 BB02     		.2byte	0x2bb
 4870 11b7 00000000 		.4byte	.LFB83
 4871 11bb D4000000 		.4byte	.LFE83-.LFB83
 4872 11bf 01       		.uleb128 0x1
 4873 11c0 9C       		.byte	0x9c
 4874 11c1 65120000 		.4byte	0x1265
 4875 11c5 26       		.uleb128 0x26
 4876 11c6 636D6400 		.ascii	"cmd\000"
 4877 11ca 01       		.byte	0x1
 4878 11cb D902     		.2byte	0x2d9
 4879 11cd A9000000 		.4byte	0xa9
 4880 11d1 CD050000 		.4byte	.LLST24
 4881 11d5 1D       		.uleb128 0x1d
 4882 11d6 06000000 		.4byte	.LVL201
 4883 11da CA090000 		.4byte	0x9ca
 4884 11de 1D       		.uleb128 0x1d
 4885 11df 2A000000 		.4byte	.LVL203
 4886 11e3 17050000 		.4byte	0x517
 4887 11e7 1D       		.uleb128 0x1d
 4888 11e8 36000000 		.4byte	.LVL205
 4889 11ec F2050000 		.4byte	0x5f2
 4890 11f0 1D       		.uleb128 0x1d
 4891 11f1 42000000 		.4byte	.LVL207
 4892 11f5 79070000 		.4byte	0x779
 4893 11f9 1D       		.uleb128 0x1d
 4894 11fa 54000000 		.4byte	.LVL209
ARM GAS  C:\Users\Tim\AppData\Local\Temp\ccnUoCGf.s 			page 113


 4895 11fe 560A0000 		.4byte	0xa56
 4896 1202 18       		.uleb128 0x18
 4897 1203 64000000 		.4byte	.LVL210
 4898 1207 F2180000 		.4byte	0x18f2
 4899 120b 15120000 		.4byte	0x1215
 4900 120f 19       		.uleb128 0x19
 4901 1210 01       		.uleb128 0x1
 4902 1211 50       		.byte	0x50
 4903 1212 01       		.uleb128 0x1
 4904 1213 31       		.byte	0x31
 4905 1214 00       		.byte	0
 4906 1215 1D       		.uleb128 0x1d
 4907 1216 6C000000 		.4byte	.LVL211
 4908 121a E5080000 		.4byte	0x8e5
 4909 121e 1D       		.uleb128 0x1d
 4910 121f 82000000 		.4byte	.LVL213
 4911 1223 AE0A0000 		.4byte	0xaae
 4912 1227 18       		.uleb128 0x18
 4913 1228 92000000 		.4byte	.LVL214
 4914 122c F2180000 		.4byte	0x18f2
 4915 1230 3A120000 		.4byte	0x123a
 4916 1234 19       		.uleb128 0x19
 4917 1235 01       		.uleb128 0x1
 4918 1236 50       		.byte	0x50
 4919 1237 01       		.uleb128 0x1
 4920 1238 31       		.byte	0x31
 4921 1239 00       		.byte	0
 4922 123a 1D       		.uleb128 0x1d
 4923 123b 9A000000 		.4byte	.LVL215
 4924 123f E5080000 		.4byte	0x8e5
 4925 1243 1D       		.uleb128 0x1d
 4926 1244 AA000000 		.4byte	.LVL217
 4927 1248 7A0F0000 		.4byte	0xf7a
 4928 124c 1D       		.uleb128 0x1d
 4929 124d BA000000 		.4byte	.LVL219
 4930 1251 89090000 		.4byte	0x989
 4931 1255 1A       		.uleb128 0x1a
 4932 1256 C0000000 		.4byte	.LVL220
 4933 125a F2180000 		.4byte	0x18f2
 4934 125e 19       		.uleb128 0x19
 4935 125f 01       		.uleb128 0x1
 4936 1260 50       		.byte	0x50
 4937 1261 01       		.uleb128 0x1
 4938 1262 30       		.byte	0x30
 4939 1263 00       		.byte	0
 4940 1264 00       		.byte	0
 4941 1265 2E       		.uleb128 0x2e
 4942 1266 28010000 		.4byte	.LASF133
 4943 126a 01       		.byte	0x1
 4944 126b 3503     		.2byte	0x335
 4945 126d 25000000 		.4byte	0x25
 4946 1271 00000000 		.4byte	.LFB84
 4947 1275 46000000 		.4byte	.LFE84-.LFB84
 4948 1279 01       		.uleb128 0x1
 4949 127a 9C       		.byte	0x9c
 4950 127b F1120000 		.4byte	0x12f1
 4951 127f 1E       		.uleb128 0x1e
ARM GAS  C:\Users\Tim\AppData\Local\Temp\ccnUoCGf.s 			page 114


 4952 1280 0B030000 		.4byte	.LASF134
 4953 1284 01       		.byte	0x1
 4954 1285 3703     		.2byte	0x337
 4955 1287 F1120000 		.4byte	0x12f1
 4956 128b 02       		.uleb128 0x2
 4957 128c 91       		.byte	0x91
 4958 128d 68       		.sleb128 -24
 4959 128e 20       		.uleb128 0x20
 4960 128f 170B0000 		.4byte	.LASF135
 4961 1293 01       		.byte	0x1
 4962 1294 3803     		.2byte	0x338
 4963 1296 A9000000 		.4byte	0xa9
 4964 129a 2D060000 		.4byte	.LLST25
 4965 129e 1E       		.uleb128 0x1e
 4966 129f 46030000 		.4byte	.LASF108
 4967 12a3 01       		.byte	0x1
 4968 12a4 3903     		.2byte	0x339
 4969 12a6 A9000000 		.4byte	0xa9
 4970 12aa 01       		.uleb128 0x1
 4971 12ab 55       		.byte	0x55
 4972 12ac 1E       		.uleb128 0x1e
 4973 12ad C3020000 		.4byte	.LASF105
 4974 12b1 01       		.byte	0x1
 4975 12b2 4903     		.2byte	0x349
 4976 12b4 25000000 		.4byte	0x25
 4977 12b8 01       		.uleb128 0x1
 4978 12b9 50       		.byte	0x50
 4979 12ba 1D       		.uleb128 0x1d
 4980 12bb 0A000000 		.4byte	.LVL225
 4981 12bf 03190000 		.4byte	0x1903
 4982 12c3 1D       		.uleb128 0x1d
 4983 12c4 0E000000 		.4byte	.LVL226
 4984 12c8 F1170000 		.4byte	0x17f1
 4985 12cc 18       		.uleb128 0x18
 4986 12cd 14000000 		.4byte	.LVL228
 4987 12d1 02180000 		.4byte	0x1802
 4988 12d5 E0120000 		.4byte	0x12e0
 4989 12d9 19       		.uleb128 0x19
 4990 12da 01       		.uleb128 0x1
 4991 12db 50       		.byte	0x50
 4992 12dc 02       		.uleb128 0x2
 4993 12dd 75       		.byte	0x75
 4994 12de 00       		.sleb128 0
 4995 12df 00       		.byte	0
 4996 12e0 1A       		.uleb128 0x1a
 4997 12e1 3E000000 		.4byte	.LVL231
 4998 12e5 10190000 		.4byte	0x1910
 4999 12e9 19       		.uleb128 0x19
 5000 12ea 01       		.uleb128 0x1
 5001 12eb 50       		.byte	0x50
 5002 12ec 02       		.uleb128 0x2
 5003 12ed 7D       		.byte	0x7d
 5004 12ee 00       		.sleb128 0
 5005 12ef 00       		.byte	0
 5006 12f0 00       		.byte	0
 5007 12f1 09       		.uleb128 0x9
 5008 12f2 A9000000 		.4byte	0xa9
ARM GAS  C:\Users\Tim\AppData\Local\Temp\ccnUoCGf.s 			page 115


 5009 12f6 01130000 		.4byte	0x1301
 5010 12fa 0A       		.uleb128 0xa
 5011 12fb 7F000000 		.4byte	0x7f
 5012 12ff 05       		.byte	0x5
 5013 1300 00       		.byte	0
 5014 1301 2F       		.uleb128 0x2f
 5015 1302 95020000 		.4byte	.LASF136
 5016 1306 01       		.byte	0x1
 5017 1307 5503     		.2byte	0x355
 5018 1309 17130000 		.4byte	0x1317
 5019 130d 00000000 		.4byte	.LFB85
 5020 1311 0C000000 		.4byte	.LFE85-.LFB85
 5021 1315 01       		.uleb128 0x1
 5022 1316 9C       		.byte	0x9c
 5023 1317 06       		.uleb128 0x6
 5024 1318 04       		.byte	0x4
 5025 1319 1A020000 		.4byte	0x21a
 5026 131d 2F       		.uleb128 0x2f
 5027 131e BC040000 		.4byte	.LASF137
 5028 1322 01       		.byte	0x1
 5029 1323 5A03     		.2byte	0x35a
 5030 1325 17130000 		.4byte	0x1317
 5031 1329 00000000 		.4byte	.LFB86
 5032 132d 0C000000 		.4byte	.LFE86-.LFB86
 5033 1331 01       		.uleb128 0x1
 5034 1332 9C       		.byte	0x9c
 5035 1333 30       		.uleb128 0x30
 5036 1334 00040000 		.4byte	.LASF138
 5037 1338 01       		.byte	0x1
 5038 1339 6803     		.2byte	0x368
 5039 133b 00000000 		.4byte	.LFB87
 5040 133f 0C000000 		.4byte	.LFE87-.LFB87
 5041 1343 01       		.uleb128 0x1
 5042 1344 9C       		.byte	0x9c
 5043 1345 66130000 		.4byte	0x1366
 5044 1349 31       		.uleb128 0x31
 5045 134a 40080000 		.4byte	.LASF139
 5046 134e 01       		.byte	0x1
 5047 134f 6803     		.2byte	0x368
 5048 1351 25000000 		.4byte	0x25
 5049 1355 01       		.uleb128 0x1
 5050 1356 50       		.byte	0x50
 5051 1357 31       		.uleb128 0x31
 5052 1358 DE050000 		.4byte	.LASF140
 5053 135c 01       		.byte	0x1
 5054 135d 6803     		.2byte	0x368
 5055 135f 25000000 		.4byte	0x25
 5056 1363 01       		.uleb128 0x1
 5057 1364 51       		.byte	0x51
 5058 1365 00       		.byte	0
 5059 1366 32       		.uleb128 0x32
 5060 1367 7F070000 		.4byte	.LASF210
 5061 136b 01       		.byte	0x1
 5062 136c 7603     		.2byte	0x376
 5063 136e C9020000 		.4byte	0x2c9
 5064 1372 00000000 		.4byte	.LFB88
 5065 1376 9C000000 		.4byte	.LFE88-.LFB88
ARM GAS  C:\Users\Tim\AppData\Local\Temp\ccnUoCGf.s 			page 116


 5066 137a 01       		.uleb128 0x1
 5067 137b 9C       		.byte	0x9c
 5068 137c 11140000 		.4byte	0x1411
 5069 1380 1C       		.uleb128 0x1c
 5070 1381 0F020000 		.4byte	.LASF141
 5071 1385 01       		.byte	0x1
 5072 1386 7603     		.2byte	0x376
 5073 1388 33010000 		.4byte	0x133
 5074 138c 57060000 		.4byte	.LLST26
 5075 1390 24       		.uleb128 0x24
 5076 1391 63707300 		.ascii	"cps\000"
 5077 1395 01       		.byte	0x1
 5078 1396 7603     		.2byte	0x376
 5079 1398 25000000 		.4byte	0x25
 5080 139c AA060000 		.4byte	.LLST27
 5081 13a0 1E       		.uleb128 0x1e
 5082 13a1 01080000 		.4byte	.LASF142
 5083 13a5 01       		.byte	0x1
 5084 13a6 7803     		.2byte	0x378
 5085 13a8 A9000000 		.4byte	0xa9
 5086 13ac 05       		.uleb128 0x5
 5087 13ad 03       		.byte	0x3
 5088 13ae 11000000 		.4byte	send_once.8154
 5089 13b2 26       		.uleb128 0x26
 5090 13b3 70776D00 		.ascii	"pwm\000"
 5091 13b7 01       		.byte	0x1
 5092 13b8 7903     		.2byte	0x379
 5093 13ba C9020000 		.4byte	0x2c9
 5094 13be 04070000 		.4byte	.LLST28
 5095 13c2 33       		.uleb128 0x33
 5096 13c3 12000000 		.4byte	.LBB2
 5097 13c7 58000000 		.4byte	.LBE2-.LBB2
 5098 13cb FD130000 		.4byte	0x13fd
 5099 13cf 20       		.uleb128 0x20
 5100 13d0 12030000 		.4byte	.LASF143
 5101 13d4 01       		.byte	0x1
 5102 13d5 8303     		.2byte	0x383
 5103 13d7 11140000 		.4byte	0x1411
 5104 13db 3E070000 		.4byte	.LLST29
 5105 13df 1A       		.uleb128 0x1a
 5106 13e0 6A000000 		.4byte	.LVL245
 5107 13e4 D50B0000 		.4byte	0xbd5
 5108 13e8 19       		.uleb128 0x19
 5109 13e9 01       		.uleb128 0x1
 5110 13ea 53       		.byte	0x53
 5111 13eb 02       		.uleb128 0x2
 5112 13ec 08       		.byte	0x8
 5113 13ed 33       		.byte	0x33
 5114 13ee 19       		.uleb128 0x19
 5115 13ef 01       		.uleb128 0x1
 5116 13f0 52       		.byte	0x52
 5117 13f1 03       		.uleb128 0x3
 5118 13f2 74       		.byte	0x74
 5119 13f3 D801     		.sleb128 216
 5120 13f5 19       		.uleb128 0x19
 5121 13f6 01       		.uleb128 0x1
 5122 13f7 51       		.byte	0x51
ARM GAS  C:\Users\Tim\AppData\Local\Temp\ccnUoCGf.s 			page 117


 5123 13f8 02       		.uleb128 0x2
 5124 13f9 74       		.byte	0x74
 5125 13fa 0C       		.sleb128 12
 5126 13fb 00       		.byte	0
 5127 13fc 00       		.byte	0
 5128 13fd 1A       		.uleb128 0x1a
 5129 13fe 78000000 		.4byte	.LVL248
 5130 1402 C5170000 		.4byte	0x17c5
 5131 1406 19       		.uleb128 0x19
 5132 1407 01       		.uleb128 0x1
 5133 1408 50       		.byte	0x50
 5134 1409 05       		.uleb128 0x5
 5135 140a 03       		.byte	0x3
 5136 140b 600B0000 		.4byte	.LC56
 5137 140f 00       		.byte	0
 5138 1410 00       		.byte	0
 5139 1411 06       		.uleb128 0x6
 5140 1412 04       		.byte	0x4
 5141 1413 D5010000 		.4byte	0x1d5
 5142 1417 2D       		.uleb128 0x2d
 5143 1418 AB080000 		.4byte	.LASF144
 5144 141c 01       		.byte	0x1
 5145 141d 9B03     		.2byte	0x39b
 5146 141f 00000000 		.4byte	.LFB89
 5147 1423 10000000 		.4byte	.LFE89-.LFB89
 5148 1427 01       		.uleb128 0x1
 5149 1428 9C       		.byte	0x9c
 5150 1429 50140000 		.4byte	0x1450
 5151 142d 18       		.uleb128 0x18
 5152 142e 08000000 		.4byte	.LVL251
 5153 1432 A10C0000 		.4byte	0xca1
 5154 1436 40140000 		.4byte	0x1440
 5155 143a 19       		.uleb128 0x19
 5156 143b 01       		.uleb128 0x1
 5157 143c 50       		.byte	0x50
 5158 143d 01       		.uleb128 0x1
 5159 143e 31       		.byte	0x31
 5160 143f 00       		.byte	0
 5161 1440 1A       		.uleb128 0x1a
 5162 1441 0E000000 		.4byte	.LVL252
 5163 1445 A10C0000 		.4byte	0xca1
 5164 1449 19       		.uleb128 0x19
 5165 144a 01       		.uleb128 0x1
 5166 144b 50       		.byte	0x50
 5167 144c 01       		.uleb128 0x1
 5168 144d 32       		.byte	0x32
 5169 144e 00       		.byte	0
 5170 144f 00       		.byte	0
 5171 1450 34       		.uleb128 0x34
 5172 1451 FD040000 		.4byte	.LASF145
 5173 1455 01       		.byte	0x1
 5174 1456 AD03     		.2byte	0x3ad
 5175 1458 00000000 		.4byte	.LFB90
 5176 145c 5C010000 		.4byte	.LFE90-.LFB90
 5177 1460 01       		.uleb128 0x1
 5178 1461 9C       		.byte	0x9c
 5179 1462 FE150000 		.4byte	0x15fe
ARM GAS  C:\Users\Tim\AppData\Local\Temp\ccnUoCGf.s 			page 118


 5180 1466 1C       		.uleb128 0x1c
 5181 1467 CA050000 		.4byte	.LASF146
 5182 146b 01       		.byte	0x1
 5183 146c AD03     		.2byte	0x3ad
 5184 146e A9000000 		.4byte	0xa9
 5185 1472 51070000 		.4byte	.LLST30
 5186 1476 1C       		.uleb128 0x1c
 5187 1477 25060000 		.4byte	.LASF147
 5188 147b 01       		.byte	0x1
 5189 147c AD03     		.2byte	0x3ad
 5190 147e 25000000 		.4byte	0x25
 5191 1482 72070000 		.4byte	.LLST31
 5192 1486 1C       		.uleb128 0x1c
 5193 1487 E7010000 		.4byte	.LASF148
 5194 148b 01       		.byte	0x1
 5195 148c AD03     		.2byte	0x3ad
 5196 148e 25000000 		.4byte	0x25
 5197 1492 A0070000 		.4byte	.LLST32
 5198 1496 1C       		.uleb128 0x1c
 5199 1497 4F0A0000 		.4byte	.LASF149
 5200 149b 01       		.byte	0x1
 5201 149c AD03     		.2byte	0x3ad
 5202 149e B5040000 		.4byte	0x4b5
 5203 14a2 CE070000 		.4byte	.LLST33
 5204 14a6 1C       		.uleb128 0x1c
 5205 14a7 35030000 		.4byte	.LASF150
 5206 14ab 01       		.byte	0x1
 5207 14ac AD03     		.2byte	0x3ad
 5208 14ae B5040000 		.4byte	0x4b5
 5209 14b2 FA070000 		.4byte	.LLST34
 5210 14b6 26       		.uleb128 0x26
 5211 14b7 696900   		.ascii	"ii\000"
 5212 14ba 01       		.byte	0x1
 5213 14bb B303     		.2byte	0x3b3
 5214 14bd A9000000 		.4byte	0xa9
 5215 14c1 1A080000 		.4byte	.LLST35
 5216 14c5 33       		.uleb128 0x33
 5217 14c6 3C000000 		.4byte	.LBB3
 5218 14ca 16010000 		.4byte	.LBE3-.LBB3
 5219 14ce C3150000 		.4byte	0x15c3
 5220 14d2 20       		.uleb128 0x20
 5221 14d3 5E040000 		.4byte	.LASF151
 5222 14d7 01       		.byte	0x1
 5223 14d8 BF03     		.2byte	0x3bf
 5224 14da 25000000 		.4byte	0x25
 5225 14de 5A080000 		.4byte	.LLST36
 5226 14e2 20       		.uleb128 0x20
 5227 14e3 82040000 		.4byte	.LASF152
 5228 14e7 01       		.byte	0x1
 5229 14e8 C003     		.2byte	0x3c0
 5230 14ea 25000000 		.4byte	0x25
 5231 14ee 79080000 		.4byte	.LLST37
 5232 14f2 20       		.uleb128 0x20
 5233 14f3 DC080000 		.4byte	.LASF153
 5234 14f7 01       		.byte	0x1
 5235 14f8 C103     		.2byte	0x3c1
 5236 14fa 25000000 		.4byte	0x25
ARM GAS  C:\Users\Tim\AppData\Local\Temp\ccnUoCGf.s 			page 119


 5237 14fe 97080000 		.4byte	.LLST38
 5238 1502 20       		.uleb128 0x20
 5239 1503 8F080000 		.4byte	.LASF154
 5240 1507 01       		.byte	0x1
 5241 1508 C203     		.2byte	0x3c2
 5242 150a 25000000 		.4byte	0x25
 5243 150e B5080000 		.4byte	.LLST39
 5244 1512 20       		.uleb128 0x20
 5245 1513 CD0A0000 		.4byte	.LASF155
 5246 1517 01       		.byte	0x1
 5247 1518 C403     		.2byte	0x3c4
 5248 151a 25000000 		.4byte	0x25
 5249 151e D4080000 		.4byte	.LLST40
 5250 1522 20       		.uleb128 0x20
 5251 1523 C0030000 		.4byte	.LASF156
 5252 1527 01       		.byte	0x1
 5253 1528 C603     		.2byte	0x3c6
 5254 152a 25000000 		.4byte	0x25
 5255 152e E7080000 		.4byte	.LLST41
 5256 1532 20       		.uleb128 0x20
 5257 1533 3B040000 		.4byte	.LASF157
 5258 1537 01       		.byte	0x1
 5259 1538 C803     		.2byte	0x3c8
 5260 153a 25000000 		.4byte	0x25
 5261 153e FB080000 		.4byte	.LLST42
 5262 1542 20       		.uleb128 0x20
 5263 1543 DE070000 		.4byte	.LASF158
 5264 1547 01       		.byte	0x1
 5265 1548 C903     		.2byte	0x3c9
 5266 154a 25000000 		.4byte	0x25
 5267 154e 19090000 		.4byte	.LLST43
 5268 1552 20       		.uleb128 0x20
 5269 1553 F2030000 		.4byte	.LASF159
 5270 1557 01       		.byte	0x1
 5271 1558 CA03     		.2byte	0x3ca
 5272 155a 25000000 		.4byte	0x25
 5273 155e 38090000 		.4byte	.LLST44
 5274 1562 20       		.uleb128 0x20
 5275 1563 22040000 		.4byte	.LASF160
 5276 1567 01       		.byte	0x1
 5277 1568 CB03     		.2byte	0x3cb
 5278 156a 25000000 		.4byte	0x25
 5279 156e 56090000 		.4byte	.LLST45
 5280 1572 20       		.uleb128 0x20
 5281 1573 17050000 		.4byte	.LASF161
 5282 1577 01       		.byte	0x1
 5283 1578 CD03     		.2byte	0x3cd
 5284 157a 25000000 		.4byte	0x25
 5285 157e 74090000 		.4byte	.LLST46
 5286 1582 20       		.uleb128 0x20
 5287 1583 D1040000 		.4byte	.LASF162
 5288 1587 01       		.byte	0x1
 5289 1588 CE03     		.2byte	0x3ce
 5290 158a 25000000 		.4byte	0x25
 5291 158e 93090000 		.4byte	.LLST47
 5292 1592 20       		.uleb128 0x20
 5293 1593 6C050000 		.4byte	.LASF163
ARM GAS  C:\Users\Tim\AppData\Local\Temp\ccnUoCGf.s 			page 120


 5294 1597 01       		.byte	0x1
 5295 1598 D003     		.2byte	0x3d0
 5296 159a A9000000 		.4byte	0xa9
 5297 159e B2090000 		.4byte	.LLST48
 5298 15a2 20       		.uleb128 0x20
 5299 15a3 52020000 		.4byte	.LASF164
 5300 15a7 01       		.byte	0x1
 5301 15a8 D503     		.2byte	0x3d5
 5302 15aa 25000000 		.4byte	0x25
 5303 15ae C5090000 		.4byte	.LLST49
 5304 15b2 20       		.uleb128 0x20
 5305 15b3 9C000000 		.4byte	.LASF165
 5306 15b7 01       		.byte	0x1
 5307 15b8 D603     		.2byte	0x3d6
 5308 15ba 25000000 		.4byte	0x25
 5309 15be 110A0000 		.4byte	.LLST50
 5310 15c2 00       		.byte	0
 5311 15c3 18       		.uleb128 0x18
 5312 15c4 1C000000 		.4byte	.LVL257
 5313 15c8 25190000 		.4byte	0x1925
 5314 15cc E2150000 		.4byte	0x15e2
 5315 15d0 19       		.uleb128 0x19
 5316 15d1 01       		.uleb128 0x1
 5317 15d2 52       		.byte	0x52
 5318 15d3 02       		.uleb128 0x2
 5319 15d4 74       		.byte	0x74
 5320 15d5 00       		.sleb128 0
 5321 15d6 19       		.uleb128 0x19
 5322 15d7 01       		.uleb128 0x1
 5323 15d8 51       		.byte	0x51
 5324 15d9 01       		.uleb128 0x1
 5325 15da 30       		.byte	0x30
 5326 15db 19       		.uleb128 0x19
 5327 15dc 01       		.uleb128 0x1
 5328 15dd 50       		.byte	0x50
 5329 15de 02       		.uleb128 0x2
 5330 15df 79       		.byte	0x79
 5331 15e0 00       		.sleb128 0
 5332 15e1 00       		.byte	0
 5333 15e2 1A       		.uleb128 0x1a
 5334 15e3 26000000 		.4byte	.LVL258
 5335 15e7 25190000 		.4byte	0x1925
 5336 15eb 19       		.uleb128 0x19
 5337 15ec 01       		.uleb128 0x1
 5338 15ed 52       		.byte	0x52
 5339 15ee 02       		.uleb128 0x2
 5340 15ef 74       		.byte	0x74
 5341 15f0 00       		.sleb128 0
 5342 15f1 19       		.uleb128 0x19
 5343 15f2 01       		.uleb128 0x1
 5344 15f3 51       		.byte	0x51
 5345 15f4 01       		.uleb128 0x1
 5346 15f5 30       		.byte	0x30
 5347 15f6 19       		.uleb128 0x19
 5348 15f7 01       		.uleb128 0x1
 5349 15f8 50       		.byte	0x50
 5350 15f9 02       		.uleb128 0x2
ARM GAS  C:\Users\Tim\AppData\Local\Temp\ccnUoCGf.s 			page 121


 5351 15fa 75       		.byte	0x75
 5352 15fb 00       		.sleb128 0
 5353 15fc 00       		.byte	0
 5354 15fd 00       		.byte	0
 5355 15fe 2C       		.uleb128 0x2c
 5356 15ff A30B0000 		.4byte	.LASF166
 5357 1603 01       		.byte	0x1
 5358 1604 4B       		.byte	0x4b
 5359 1605 E2040000 		.4byte	0x4e2
 5360 1609 05       		.uleb128 0x5
 5361 160a 03       		.byte	0x3
 5362 160b 10000000 		.4byte	ui_state
 5363 160f 2C       		.uleb128 0x2c
 5364 1610 D5010000 		.4byte	.LASF167
 5365 1614 01       		.byte	0x1
 5366 1615 4D       		.byte	0x4d
 5367 1616 CF080000 		.4byte	0x8cf
 5368 161a 05       		.uleb128 0x5
 5369 161b 03       		.byte	0x3
 5370 161c 08000000 		.4byte	active_cal
 5371 1620 2C       		.uleb128 0x2c
 5372 1621 97070000 		.4byte	.LASF168
 5373 1625 01       		.byte	0x1
 5374 1626 4E       		.byte	0x4e
 5375 1627 CF080000 		.4byte	0x8cf
 5376 162b 05       		.uleb128 0x5
 5377 162c 03       		.byte	0x3
 5378 162d 0C000000 		.4byte	active_val
 5379 1631 2C       		.uleb128 0x2c
 5380 1632 9F0A0000 		.4byte	.LASF169
 5381 1636 01       		.byte	0x1
 5382 1637 50       		.byte	0x50
 5383 1638 25000000 		.4byte	0x25
 5384 163c 05       		.uleb128 0x5
 5385 163d 03       		.byte	0x3
 5386 163e 00000000 		.4byte	left_cmd_velocity
 5387 1642 2C       		.uleb128 0x2c
 5388 1643 4C030000 		.4byte	.LASF170
 5389 1647 01       		.byte	0x1
 5390 1648 51       		.byte	0x51
 5391 1649 25000000 		.4byte	0x25
 5392 164d 05       		.uleb128 0x5
 5393 164e 03       		.byte	0x3
 5394 164f 04000000 		.4byte	right_cmd_velocity
 5395 1653 35       		.uleb128 0x35
 5396 1654 D1070000 		.4byte	.LASF171
 5397 1658 0B       		.byte	0xb
 5398 1659 5506     		.2byte	0x655
 5399 165b 5F160000 		.4byte	0x165f
 5400 165f 36       		.uleb128 0x36
 5401 1660 9E000000 		.4byte	0x9e
 5402 1664 09       		.uleb128 0x9
 5403 1665 86000000 		.4byte	0x86
 5404 1669 74160000 		.4byte	0x1674
 5405 166d 0A       		.uleb128 0xa
 5406 166e 7F000000 		.4byte	0x7f
 5407 1672 01       		.byte	0x1
ARM GAS  C:\Users\Tim\AppData\Local\Temp\ccnUoCGf.s 			page 122


 5408 1673 00       		.byte	0
 5409 1674 37       		.uleb128 0x37
 5410 1675 B9000000 		.4byte	.LASF172
 5411 1679 01       		.byte	0x1
 5412 167a 48       		.byte	0x48
 5413 167b 64160000 		.4byte	0x1664
 5414 167f 05       		.uleb128 0x5
 5415 1680 03       		.byte	0x3
 5416 1681 00000000 		.4byte	cal_stage_to_string
 5417 1685 09       		.uleb128 0x9
 5418 1686 86000000 		.4byte	0x86
 5419 168a 95160000 		.4byte	0x1695
 5420 168e 0A       		.uleb128 0xa
 5421 168f 7F000000 		.4byte	0x7f
 5422 1693 05       		.byte	0x5
 5423 1694 00       		.byte	0
 5424 1695 37       		.uleb128 0x37
 5425 1696 4C070000 		.4byte	.LASF173
 5426 169a 01       		.byte	0x1
 5427 169b 49       		.byte	0x49
 5428 169c 85160000 		.4byte	0x1685
 5429 16a0 05       		.uleb128 0x5
 5430 16a1 03       		.byte	0x3
 5431 16a2 00000000 		.4byte	cal_state_to_string
 5432 16a6 37       		.uleb128 0x37
 5433 16a7 A2070000 		.4byte	.LASF174
 5434 16ab 08       		.byte	0x8
 5435 16ac 61       		.byte	0x61
 5436 16ad B7160000 		.4byte	0x16b7
 5437 16b1 05       		.uleb128 0x5
 5438 16b2 03       		.byte	0x3
 5439 16b3 00000000 		.4byte	p_cal_eeprom
 5440 16b7 06       		.uleb128 0x6
 5441 16b8 04       		.byte	0x4
 5442 16b9 BD160000 		.4byte	0x16bd
 5443 16bd 36       		.uleb128 0x36
 5444 16be BE020000 		.4byte	0x2be
 5445 16c2 37       		.uleb128 0x37
 5446 16c3 B9070000 		.4byte	.LASF175
 5447 16c7 08       		.byte	0x8
 5448 16c8 63       		.byte	0x63
 5449 16c9 FC000000 		.4byte	0xfc
 5450 16cd 05       		.uleb128 0x5
 5451 16ce 03       		.byte	0x3
 5452 16cf 00000000 		.4byte	Cal_LeftTarget
 5453 16d3 37       		.uleb128 0x37
 5454 16d4 670B0000 		.4byte	.LASF176
 5455 16d8 08       		.byte	0x8
 5456 16d9 64       		.byte	0x64
 5457 16da FC000000 		.4byte	0xfc
 5458 16de 05       		.uleb128 0x5
 5459 16df 03       		.byte	0x3
 5460 16e0 00000000 		.4byte	Cal_RightTarget
 5461 16e4 09       		.uleb128 0x9
 5462 16e5 11140000 		.4byte	0x1411
 5463 16e9 FA160000 		.4byte	0x16fa
 5464 16ed 0A       		.uleb128 0xa
ARM GAS  C:\Users\Tim\AppData\Local\Temp\ccnUoCGf.s 			page 123


 5465 16ee 7F000000 		.4byte	0x7f
 5466 16f2 01       		.byte	0x1
 5467 16f3 0A       		.uleb128 0xa
 5468 16f4 7F000000 		.4byte	0x7f
 5469 16f8 01       		.byte	0x1
 5470 16f9 00       		.byte	0
 5471 16fa 37       		.uleb128 0x37
 5472 16fb 15020000 		.4byte	.LASF177
 5473 16ff 0C       		.byte	0xc
 5474 1700 21       		.byte	0x21
 5475 1701 E4160000 		.4byte	0x16e4
 5476 1705 05       		.uleb128 0x5
 5477 1706 03       		.byte	0x3
 5478 1707 00000000 		.4byte	WHEEL_DIR_TO_CAL_DATA
 5479 170b 37       		.uleb128 0x37
 5480 170c 5E080000 		.4byte	.LASF178
 5481 1710 0C       		.byte	0xc
 5482 1711 23       		.byte	0x23
 5483 1712 CF080000 		.4byte	0x8cf
 5484 1716 05       		.uleb128 0x5
 5485 1717 03       		.byte	0x3
 5486 1718 00000000 		.4byte	CalMotor_Calibration
 5487 171c 37       		.uleb128 0x37
 5488 171d 5F030000 		.4byte	.LASF179
 5489 1721 0C       		.byte	0xc
 5490 1722 24       		.byte	0x24
 5491 1723 CF080000 		.4byte	0x8cf
 5492 1727 05       		.uleb128 0x5
 5493 1728 03       		.byte	0x3
 5494 1729 00000000 		.4byte	CalMotor_Validation
 5495 172d 37       		.uleb128 0x37
 5496 172e 20000000 		.4byte	.LASF180
 5497 1732 09       		.byte	0x9
 5498 1733 27       		.byte	0x27
 5499 1734 CF080000 		.4byte	0x8cf
 5500 1738 05       		.uleb128 0x5
 5501 1739 03       		.byte	0x3
 5502 173a 00000000 		.4byte	CalPid_LeftCalibration
 5503 173e 37       		.uleb128 0x37
 5504 173f BB060000 		.4byte	.LASF181
 5505 1743 09       		.byte	0x9
 5506 1744 28       		.byte	0x28
 5507 1745 CF080000 		.4byte	0x8cf
 5508 1749 05       		.uleb128 0x5
 5509 174a 03       		.byte	0x3
 5510 174b 00000000 		.4byte	CalPid_RightCalibration
 5511 174f 37       		.uleb128 0x37
 5512 1750 28090000 		.4byte	.LASF182
 5513 1754 09       		.byte	0x9
 5514 1755 29       		.byte	0x29
 5515 1756 CF080000 		.4byte	0x8cf
 5516 175a 05       		.uleb128 0x5
 5517 175b 03       		.byte	0x3
 5518 175c 00000000 		.4byte	CalPid_LeftValidation
 5519 1760 37       		.uleb128 0x37
 5520 1761 BE010000 		.4byte	.LASF183
 5521 1765 09       		.byte	0x9
ARM GAS  C:\Users\Tim\AppData\Local\Temp\ccnUoCGf.s 			page 124


 5522 1766 2A       		.byte	0x2a
 5523 1767 CF080000 		.4byte	0x8cf
 5524 176b 05       		.uleb128 0x5
 5525 176c 03       		.byte	0x3
 5526 176d 00000000 		.4byte	CalPid_RightValidation
 5527 1771 37       		.uleb128 0x37
 5528 1772 FD060000 		.4byte	.LASF184
 5529 1776 0A       		.byte	0xa
 5530 1777 24       		.byte	0x24
 5531 1778 CF080000 		.4byte	0x8cf
 5532 177c 05       		.uleb128 0x5
 5533 177d 03       		.byte	0x3
 5534 177e 00000000 		.4byte	CalLin_Validation
 5535 1782 37       		.uleb128 0x37
 5536 1783 A4050000 		.4byte	.LASF185
 5537 1787 0D       		.byte	0xd
 5538 1788 07       		.byte	0x7
 5539 1789 CF080000 		.4byte	0x8cf
 5540 178d 05       		.uleb128 0x5
 5541 178e 03       		.byte	0x3
 5542 178f 00000000 		.4byte	CalAng_Calibration
 5543 1793 09       		.uleb128 0x9
 5544 1794 8C000000 		.4byte	0x8c
 5545 1798 A3170000 		.4byte	0x17a3
 5546 179c 0A       		.uleb128 0xa
 5547 179d 7F000000 		.4byte	0x7f
 5548 17a1 FF       		.byte	0xff
 5549 17a2 00       		.byte	0
 5550 17a3 37       		.uleb128 0x37
 5551 17a4 EB020000 		.4byte	.LASF186
 5552 17a8 0E       		.byte	0xe
 5553 17a9 37       		.byte	0x37
 5554 17aa 93170000 		.4byte	0x1793
 5555 17ae 05       		.uleb128 0x5
 5556 17af 03       		.byte	0x3
 5557 17b0 00000000 		.4byte	formatted_string
 5558 17b4 37       		.uleb128 0x37
 5559 17b5 EB090000 		.4byte	.LASF187
 5560 17b9 0E       		.byte	0xe
 5561 17ba 88       		.byte	0x88
 5562 17bb B5000000 		.4byte	0xb5
 5563 17bf 05       		.uleb128 0x5
 5564 17c0 03       		.byte	0x3
 5565 17c1 00000000 		.4byte	debug_control_enabled
 5566 17c5 38       		.uleb128 0x38
 5567 17c6 B2030000 		.4byte	.LASF188
 5568 17ca 0F       		.byte	0xf
 5569 17cb 16       		.byte	0x16
 5570 17cc D6170000 		.4byte	0x17d6
 5571 17d0 15       		.uleb128 0x15
 5572 17d1 86000000 		.4byte	0x86
 5573 17d5 00       		.byte	0
 5574 17d6 39       		.uleb128 0x39
 5575 17d7 18070000 		.4byte	.LASF192
 5576 17db 11       		.byte	0x11
 5577 17dc DE       		.byte	0xde
 5578 17dd 6F000000 		.4byte	0x6f
ARM GAS  C:\Users\Tim\AppData\Local\Temp\ccnUoCGf.s 			page 125


 5579 17e1 F1170000 		.4byte	0x17f1
 5580 17e5 15       		.uleb128 0x15
 5581 17e6 86000000 		.4byte	0x86
 5582 17ea 15       		.uleb128 0x15
 5583 17eb 93000000 		.4byte	0x93
 5584 17ef 0C       		.uleb128 0xc
 5585 17f0 00       		.byte	0
 5586 17f1 3A       		.uleb128 0x3a
 5587 17f2 1D0A0000 		.4byte	.LASF189
 5588 17f6 0F       		.byte	0xf
 5589 17f7 17       		.byte	0x17
 5590 17f8 A9000000 		.4byte	0xa9
 5591 17fc 02180000 		.4byte	0x1802
 5592 1800 0C       		.uleb128 0xc
 5593 1801 00       		.byte	0
 5594 1802 38       		.uleb128 0x38
 5595 1803 73030000 		.4byte	.LASF190
 5596 1807 0F       		.byte	0xf
 5597 1808 18       		.byte	0x18
 5598 1809 13180000 		.4byte	0x1813
 5599 180d 15       		.uleb128 0x15
 5600 180e A9000000 		.4byte	0xa9
 5601 1812 00       		.byte	0
 5602 1813 38       		.uleb128 0x38
 5603 1814 1F080000 		.4byte	.LASF191
 5604 1818 10       		.byte	0x10
 5605 1819 61       		.byte	0x61
 5606 181a 38180000 		.4byte	0x1838
 5607 181e 15       		.uleb128 0x15
 5608 181f D9000000 		.4byte	0xd9
 5609 1823 15       		.uleb128 0x15
 5610 1824 950C0000 		.4byte	0xc95
 5611 1828 15       		.uleb128 0x15
 5612 1829 A9000000 		.4byte	0xa9
 5613 182d 15       		.uleb128 0x15
 5614 182e 38180000 		.4byte	0x1838
 5615 1832 15       		.uleb128 0x15
 5616 1833 38180000 		.4byte	0x1838
 5617 1837 00       		.byte	0
 5618 1838 06       		.uleb128 0x6
 5619 1839 04       		.byte	0x4
 5620 183a A9000000 		.4byte	0xa9
 5621 183e 39       		.uleb128 0x39
 5622 183f 49040000 		.4byte	.LASF193
 5623 1843 10       		.byte	0x10
 5624 1844 66       		.byte	0x66
 5625 1845 CD000000 		.4byte	0xcd
 5626 1849 67180000 		.4byte	0x1867
 5627 184d 15       		.uleb128 0x15
 5628 184e CD000000 		.4byte	0xcd
 5629 1852 15       		.uleb128 0x15
 5630 1853 CD000000 		.4byte	0xcd
 5631 1857 15       		.uleb128 0x15
 5632 1858 CD000000 		.4byte	0xcd
 5633 185c 15       		.uleb128 0x15
 5634 185d B5000000 		.4byte	0xb5
 5635 1861 15       		.uleb128 0x15
ARM GAS  C:\Users\Tim\AppData\Local\Temp\ccnUoCGf.s 			page 126


 5636 1862 B5000000 		.4byte	0xb5
 5637 1866 00       		.byte	0
 5638 1867 38       		.uleb128 0x38
 5639 1868 FB010000 		.4byte	.LASF194
 5640 186c 12       		.byte	0x12
 5641 186d 34       		.byte	0x34
 5642 186e 7D180000 		.4byte	0x187d
 5643 1872 15       		.uleb128 0x15
 5644 1873 B5000000 		.4byte	0xb5
 5645 1877 15       		.uleb128 0x15
 5646 1878 B5000000 		.4byte	0xb5
 5647 187c 00       		.byte	0
 5648 187d 38       		.uleb128 0x38
 5649 187e 64060000 		.4byte	.LASF195
 5650 1882 13       		.byte	0x13
 5651 1883 28       		.byte	0x28
 5652 1884 8E180000 		.4byte	0x188e
 5653 1888 15       		.uleb128 0x15
 5654 1889 B5000000 		.4byte	0xb5
 5655 188d 00       		.byte	0
 5656 188e 38       		.uleb128 0x38
 5657 188f 73080000 		.4byte	.LASF196
 5658 1893 13       		.byte	0x13
 5659 1894 27       		.byte	0x27
 5660 1895 9F180000 		.4byte	0x189f
 5661 1899 15       		.uleb128 0x15
 5662 189a B5000000 		.4byte	0xb5
 5663 189e 00       		.byte	0
 5664 189f 38       		.uleb128 0x38
 5665 18a0 06090000 		.4byte	.LASF197
 5666 18a4 10       		.byte	0x10
 5667 18a5 5E       		.byte	0x5e
 5668 18a6 BA180000 		.4byte	0x18ba
 5669 18aa 15       		.uleb128 0x15
 5670 18ab 25000000 		.4byte	0x25
 5671 18af 15       		.uleb128 0x15
 5672 18b0 86000000 		.4byte	0x86
 5673 18b4 15       		.uleb128 0x15
 5674 18b5 6F000000 		.4byte	0x6f
 5675 18b9 00       		.byte	0
 5676 18ba 3B       		.uleb128 0x3b
 5677 18bb F3070000 		.4byte	.LASF198
 5678 18bf 0C       		.byte	0xc
 5679 18c0 29       		.byte	0x29
 5680 18c1 C7180000 		.4byte	0x18c7
 5681 18c5 0C       		.uleb128 0xc
 5682 18c6 00       		.byte	0
 5683 18c7 3B       		.uleb128 0x3b
 5684 18c8 90000000 		.4byte	.LASF199
 5685 18cc 09       		.byte	0x9
 5686 18cd 2F       		.byte	0x2f
 5687 18ce D4180000 		.4byte	0x18d4
 5688 18d2 0C       		.uleb128 0xc
 5689 18d3 00       		.byte	0
 5690 18d4 3B       		.uleb128 0x3b
 5691 18d5 35070000 		.4byte	.LASF200
 5692 18d9 0A       		.byte	0xa
ARM GAS  C:\Users\Tim\AppData\Local\Temp\ccnUoCGf.s 			page 127


 5693 18da 29       		.byte	0x29
 5694 18db E1180000 		.4byte	0x18e1
 5695 18df 0C       		.uleb128 0xc
 5696 18e0 00       		.byte	0
 5697 18e1 38       		.uleb128 0x38
 5698 18e2 3E090000 		.4byte	.LASF201
 5699 18e6 13       		.byte	0x13
 5700 18e7 29       		.byte	0x29
 5701 18e8 F2180000 		.4byte	0x18f2
 5702 18ec 15       		.uleb128 0x15
 5703 18ed B5000000 		.4byte	0xb5
 5704 18f1 00       		.byte	0
 5705 18f2 38       		.uleb128 0x38
 5706 18f3 510B0000 		.4byte	.LASF202
 5707 18f7 14       		.byte	0x14
 5708 18f8 2B       		.byte	0x2b
 5709 18f9 03190000 		.4byte	0x1903
 5710 18fd 15       		.uleb128 0x15
 5711 18fe A9000000 		.4byte	0xa9
 5712 1902 00       		.byte	0
 5713 1903 3B       		.uleb128 0x3b
 5714 1904 41070000 		.4byte	.LASF203
 5715 1908 0F       		.byte	0xf
 5716 1909 14       		.byte	0x14
 5717 190a 10190000 		.4byte	0x1910
 5718 190e 0C       		.uleb128 0xc
 5719 190f 00       		.byte	0
 5720 1910 39       		.uleb128 0x39
 5721 1911 720A0000 		.4byte	.LASF204
 5722 1915 15       		.byte	0x15
 5723 1916 46       		.byte	0x46
 5724 1917 E5000000 		.4byte	0xe5
 5725 191b 25190000 		.4byte	0x1925
 5726 191f 15       		.uleb128 0x15
 5727 1920 93000000 		.4byte	0x93
 5728 1924 00       		.byte	0
 5729 1925 3C       		.uleb128 0x3c
 5730 1926 93010000 		.4byte	.LASF205
 5731 192a 7D000000 		.4byte	0x7d
 5732 192e 15       		.uleb128 0x15
 5733 192f 7D000000 		.4byte	0x7d
 5734 1933 15       		.uleb128 0x15
 5735 1934 6F000000 		.4byte	0x6f
 5736 1938 15       		.uleb128 0x15
 5737 1939 7F000000 		.4byte	0x7f
 5738 193d 00       		.byte	0
 5739 193e 00       		.byte	0
 5740              		.section	.debug_abbrev,"",%progbits
 5741              	.Ldebug_abbrev0:
 5742 0000 01       		.uleb128 0x1
 5743 0001 11       		.uleb128 0x11
 5744 0002 01       		.byte	0x1
 5745 0003 25       		.uleb128 0x25
 5746 0004 0E       		.uleb128 0xe
 5747 0005 13       		.uleb128 0x13
 5748 0006 0B       		.uleb128 0xb
 5749 0007 03       		.uleb128 0x3
ARM GAS  C:\Users\Tim\AppData\Local\Temp\ccnUoCGf.s 			page 128


 5750 0008 0E       		.uleb128 0xe
 5751 0009 1B       		.uleb128 0x1b
 5752 000a 0E       		.uleb128 0xe
 5753 000b 55       		.uleb128 0x55
 5754 000c 17       		.uleb128 0x17
 5755 000d 11       		.uleb128 0x11
 5756 000e 01       		.uleb128 0x1
 5757 000f 10       		.uleb128 0x10
 5758 0010 17       		.uleb128 0x17
 5759 0011 00       		.byte	0
 5760 0012 00       		.byte	0
 5761 0013 02       		.uleb128 0x2
 5762 0014 24       		.uleb128 0x24
 5763 0015 00       		.byte	0
 5764 0016 0B       		.uleb128 0xb
 5765 0017 0B       		.uleb128 0xb
 5766 0018 3E       		.uleb128 0x3e
 5767 0019 0B       		.uleb128 0xb
 5768 001a 03       		.uleb128 0x3
 5769 001b 0E       		.uleb128 0xe
 5770 001c 00       		.byte	0
 5771 001d 00       		.byte	0
 5772 001e 03       		.uleb128 0x3
 5773 001f 16       		.uleb128 0x16
 5774 0020 00       		.byte	0
 5775 0021 03       		.uleb128 0x3
 5776 0022 0E       		.uleb128 0xe
 5777 0023 3A       		.uleb128 0x3a
 5778 0024 0B       		.uleb128 0xb
 5779 0025 3B       		.uleb128 0x3b
 5780 0026 0B       		.uleb128 0xb
 5781 0027 49       		.uleb128 0x49
 5782 0028 13       		.uleb128 0x13
 5783 0029 00       		.byte	0
 5784 002a 00       		.byte	0
 5785 002b 04       		.uleb128 0x4
 5786 002c 24       		.uleb128 0x24
 5787 002d 00       		.byte	0
 5788 002e 0B       		.uleb128 0xb
 5789 002f 0B       		.uleb128 0xb
 5790 0030 3E       		.uleb128 0x3e
 5791 0031 0B       		.uleb128 0xb
 5792 0032 03       		.uleb128 0x3
 5793 0033 08       		.uleb128 0x8
 5794 0034 00       		.byte	0
 5795 0035 00       		.byte	0
 5796 0036 05       		.uleb128 0x5
 5797 0037 0F       		.uleb128 0xf
 5798 0038 00       		.byte	0
 5799 0039 0B       		.uleb128 0xb
 5800 003a 0B       		.uleb128 0xb
 5801 003b 00       		.byte	0
 5802 003c 00       		.byte	0
 5803 003d 06       		.uleb128 0x6
 5804 003e 0F       		.uleb128 0xf
 5805 003f 00       		.byte	0
 5806 0040 0B       		.uleb128 0xb
ARM GAS  C:\Users\Tim\AppData\Local\Temp\ccnUoCGf.s 			page 129


 5807 0041 0B       		.uleb128 0xb
 5808 0042 49       		.uleb128 0x49
 5809 0043 13       		.uleb128 0x13
 5810 0044 00       		.byte	0
 5811 0045 00       		.byte	0
 5812 0046 07       		.uleb128 0x7
 5813 0047 26       		.uleb128 0x26
 5814 0048 00       		.byte	0
 5815 0049 49       		.uleb128 0x49
 5816 004a 13       		.uleb128 0x13
 5817 004b 00       		.byte	0
 5818 004c 00       		.byte	0
 5819 004d 08       		.uleb128 0x8
 5820 004e 16       		.uleb128 0x16
 5821 004f 00       		.byte	0
 5822 0050 03       		.uleb128 0x3
 5823 0051 0E       		.uleb128 0xe
 5824 0052 3A       		.uleb128 0x3a
 5825 0053 0B       		.uleb128 0xb
 5826 0054 3B       		.uleb128 0x3b
 5827 0055 05       		.uleb128 0x5
 5828 0056 49       		.uleb128 0x49
 5829 0057 13       		.uleb128 0x13
 5830 0058 00       		.byte	0
 5831 0059 00       		.byte	0
 5832 005a 09       		.uleb128 0x9
 5833 005b 01       		.uleb128 0x1
 5834 005c 01       		.byte	0x1
 5835 005d 49       		.uleb128 0x49
 5836 005e 13       		.uleb128 0x13
 5837 005f 01       		.uleb128 0x1
 5838 0060 13       		.uleb128 0x13
 5839 0061 00       		.byte	0
 5840 0062 00       		.byte	0
 5841 0063 0A       		.uleb128 0xa
 5842 0064 21       		.uleb128 0x21
 5843 0065 00       		.byte	0
 5844 0066 49       		.uleb128 0x49
 5845 0067 13       		.uleb128 0x13
 5846 0068 2F       		.uleb128 0x2f
 5847 0069 0B       		.uleb128 0xb
 5848 006a 00       		.byte	0
 5849 006b 00       		.byte	0
 5850 006c 0B       		.uleb128 0xb
 5851 006d 15       		.uleb128 0x15
 5852 006e 01       		.byte	0x1
 5853 006f 49       		.uleb128 0x49
 5854 0070 13       		.uleb128 0x13
 5855 0071 01       		.uleb128 0x1
 5856 0072 13       		.uleb128 0x13
 5857 0073 00       		.byte	0
 5858 0074 00       		.byte	0
 5859 0075 0C       		.uleb128 0xc
 5860 0076 18       		.uleb128 0x18
 5861 0077 00       		.byte	0
 5862 0078 00       		.byte	0
 5863 0079 00       		.byte	0
ARM GAS  C:\Users\Tim\AppData\Local\Temp\ccnUoCGf.s 			page 130


 5864 007a 0D       		.uleb128 0xd
 5865 007b 04       		.uleb128 0x4
 5866 007c 01       		.byte	0x1
 5867 007d 0B       		.uleb128 0xb
 5868 007e 0B       		.uleb128 0xb
 5869 007f 3A       		.uleb128 0x3a
 5870 0080 0B       		.uleb128 0xb
 5871 0081 3B       		.uleb128 0x3b
 5872 0082 0B       		.uleb128 0xb
 5873 0083 01       		.uleb128 0x1
 5874 0084 13       		.uleb128 0x13
 5875 0085 00       		.byte	0
 5876 0086 00       		.byte	0
 5877 0087 0E       		.uleb128 0xe
 5878 0088 28       		.uleb128 0x28
 5879 0089 00       		.byte	0
 5880 008a 03       		.uleb128 0x3
 5881 008b 0E       		.uleb128 0xe
 5882 008c 1C       		.uleb128 0x1c
 5883 008d 0D       		.uleb128 0xd
 5884 008e 00       		.byte	0
 5885 008f 00       		.byte	0
 5886 0090 0F       		.uleb128 0xf
 5887 0091 13       		.uleb128 0x13
 5888 0092 01       		.byte	0x1
 5889 0093 03       		.uleb128 0x3
 5890 0094 0E       		.uleb128 0xe
 5891 0095 0B       		.uleb128 0xb
 5892 0096 05       		.uleb128 0x5
 5893 0097 3A       		.uleb128 0x3a
 5894 0098 0B       		.uleb128 0xb
 5895 0099 3B       		.uleb128 0x3b
 5896 009a 0B       		.uleb128 0xb
 5897 009b 01       		.uleb128 0x1
 5898 009c 13       		.uleb128 0x13
 5899 009d 00       		.byte	0
 5900 009e 00       		.byte	0
 5901 009f 10       		.uleb128 0x10
 5902 00a0 0D       		.uleb128 0xd
 5903 00a1 00       		.byte	0
 5904 00a2 03       		.uleb128 0x3
 5905 00a3 0E       		.uleb128 0xe
 5906 00a4 3A       		.uleb128 0x3a
 5907 00a5 0B       		.uleb128 0xb
 5908 00a6 3B       		.uleb128 0x3b
 5909 00a7 0B       		.uleb128 0xb
 5910 00a8 49       		.uleb128 0x49
 5911 00a9 13       		.uleb128 0x13
 5912 00aa 38       		.uleb128 0x38
 5913 00ab 0B       		.uleb128 0xb
 5914 00ac 00       		.byte	0
 5915 00ad 00       		.byte	0
 5916 00ae 11       		.uleb128 0x11
 5917 00af 0D       		.uleb128 0xd
 5918 00b0 00       		.byte	0
 5919 00b1 03       		.uleb128 0x3
 5920 00b2 0E       		.uleb128 0xe
ARM GAS  C:\Users\Tim\AppData\Local\Temp\ccnUoCGf.s 			page 131


 5921 00b3 3A       		.uleb128 0x3a
 5922 00b4 0B       		.uleb128 0xb
 5923 00b5 3B       		.uleb128 0x3b
 5924 00b6 0B       		.uleb128 0xb
 5925 00b7 49       		.uleb128 0x49
 5926 00b8 13       		.uleb128 0x13
 5927 00b9 38       		.uleb128 0x38
 5928 00ba 05       		.uleb128 0x5
 5929 00bb 00       		.byte	0
 5930 00bc 00       		.byte	0
 5931 00bd 12       		.uleb128 0x12
 5932 00be 13       		.uleb128 0x13
 5933 00bf 01       		.byte	0x1
 5934 00c0 03       		.uleb128 0x3
 5935 00c1 0E       		.uleb128 0xe
 5936 00c2 0B       		.uleb128 0xb
 5937 00c3 0B       		.uleb128 0xb
 5938 00c4 3A       		.uleb128 0x3a
 5939 00c5 0B       		.uleb128 0xb
 5940 00c6 3B       		.uleb128 0x3b
 5941 00c7 0B       		.uleb128 0xb
 5942 00c8 01       		.uleb128 0x1
 5943 00c9 13       		.uleb128 0x13
 5944 00ca 00       		.byte	0
 5945 00cb 00       		.byte	0
 5946 00cc 13       		.uleb128 0x13
 5947 00cd 0D       		.uleb128 0xd
 5948 00ce 00       		.byte	0
 5949 00cf 03       		.uleb128 0x3
 5950 00d0 08       		.uleb128 0x8
 5951 00d1 3A       		.uleb128 0x3a
 5952 00d2 0B       		.uleb128 0xb
 5953 00d3 3B       		.uleb128 0x3b
 5954 00d4 0B       		.uleb128 0xb
 5955 00d5 49       		.uleb128 0x49
 5956 00d6 13       		.uleb128 0x13
 5957 00d7 38       		.uleb128 0x38
 5958 00d8 0B       		.uleb128 0xb
 5959 00d9 00       		.byte	0
 5960 00da 00       		.byte	0
 5961 00db 14       		.uleb128 0x14
 5962 00dc 15       		.uleb128 0x15
 5963 00dd 01       		.byte	0x1
 5964 00de 27       		.uleb128 0x27
 5965 00df 19       		.uleb128 0x19
 5966 00e0 49       		.uleb128 0x49
 5967 00e1 13       		.uleb128 0x13
 5968 00e2 01       		.uleb128 0x1
 5969 00e3 13       		.uleb128 0x13
 5970 00e4 00       		.byte	0
 5971 00e5 00       		.byte	0
 5972 00e6 15       		.uleb128 0x15
 5973 00e7 05       		.uleb128 0x5
 5974 00e8 00       		.byte	0
 5975 00e9 49       		.uleb128 0x49
 5976 00ea 13       		.uleb128 0x13
 5977 00eb 00       		.byte	0
ARM GAS  C:\Users\Tim\AppData\Local\Temp\ccnUoCGf.s 			page 132


 5978 00ec 00       		.byte	0
 5979 00ed 16       		.uleb128 0x16
 5980 00ee 2E       		.uleb128 0x2e
 5981 00ef 00       		.byte	0
 5982 00f0 03       		.uleb128 0x3
 5983 00f1 0E       		.uleb128 0xe
 5984 00f2 3A       		.uleb128 0x3a
 5985 00f3 0B       		.uleb128 0xb
 5986 00f4 3B       		.uleb128 0x3b
 5987 00f5 0B       		.uleb128 0xb
 5988 00f6 49       		.uleb128 0x49
 5989 00f7 13       		.uleb128 0x13
 5990 00f8 11       		.uleb128 0x11
 5991 00f9 01       		.uleb128 0x1
 5992 00fa 12       		.uleb128 0x12
 5993 00fb 06       		.uleb128 0x6
 5994 00fc 40       		.uleb128 0x40
 5995 00fd 18       		.uleb128 0x18
 5996 00fe 9742     		.uleb128 0x2117
 5997 0100 19       		.uleb128 0x19
 5998 0101 00       		.byte	0
 5999 0102 00       		.byte	0
 6000 0103 17       		.uleb128 0x17
 6001 0104 2E       		.uleb128 0x2e
 6002 0105 01       		.byte	0x1
 6003 0106 03       		.uleb128 0x3
 6004 0107 0E       		.uleb128 0xe
 6005 0108 3A       		.uleb128 0x3a
 6006 0109 0B       		.uleb128 0xb
 6007 010a 3B       		.uleb128 0x3b
 6008 010b 0B       		.uleb128 0xb
 6009 010c 11       		.uleb128 0x11
 6010 010d 01       		.uleb128 0x1
 6011 010e 12       		.uleb128 0x12
 6012 010f 06       		.uleb128 0x6
 6013 0110 40       		.uleb128 0x40
 6014 0111 18       		.uleb128 0x18
 6015 0112 9742     		.uleb128 0x2117
 6016 0114 19       		.uleb128 0x19
 6017 0115 01       		.uleb128 0x1
 6018 0116 13       		.uleb128 0x13
 6019 0117 00       		.byte	0
 6020 0118 00       		.byte	0
 6021 0119 18       		.uleb128 0x18
 6022 011a 898201   		.uleb128 0x4109
 6023 011d 01       		.byte	0x1
 6024 011e 11       		.uleb128 0x11
 6025 011f 01       		.uleb128 0x1
 6026 0120 31       		.uleb128 0x31
 6027 0121 13       		.uleb128 0x13
 6028 0122 01       		.uleb128 0x1
 6029 0123 13       		.uleb128 0x13
 6030 0124 00       		.byte	0
 6031 0125 00       		.byte	0
 6032 0126 19       		.uleb128 0x19
 6033 0127 8A8201   		.uleb128 0x410a
 6034 012a 00       		.byte	0
ARM GAS  C:\Users\Tim\AppData\Local\Temp\ccnUoCGf.s 			page 133


 6035 012b 02       		.uleb128 0x2
 6036 012c 18       		.uleb128 0x18
 6037 012d 9142     		.uleb128 0x2111
 6038 012f 18       		.uleb128 0x18
 6039 0130 00       		.byte	0
 6040 0131 00       		.byte	0
 6041 0132 1A       		.uleb128 0x1a
 6042 0133 898201   		.uleb128 0x4109
 6043 0136 01       		.byte	0x1
 6044 0137 11       		.uleb128 0x11
 6045 0138 01       		.uleb128 0x1
 6046 0139 31       		.uleb128 0x31
 6047 013a 13       		.uleb128 0x13
 6048 013b 00       		.byte	0
 6049 013c 00       		.byte	0
 6050 013d 1B       		.uleb128 0x1b
 6051 013e 2E       		.uleb128 0x2e
 6052 013f 01       		.byte	0x1
 6053 0140 03       		.uleb128 0x3
 6054 0141 0E       		.uleb128 0xe
 6055 0142 3A       		.uleb128 0x3a
 6056 0143 0B       		.uleb128 0xb
 6057 0144 3B       		.uleb128 0x3b
 6058 0145 05       		.uleb128 0x5
 6059 0146 27       		.uleb128 0x27
 6060 0147 19       		.uleb128 0x19
 6061 0148 11       		.uleb128 0x11
 6062 0149 01       		.uleb128 0x1
 6063 014a 12       		.uleb128 0x12
 6064 014b 06       		.uleb128 0x6
 6065 014c 40       		.uleb128 0x40
 6066 014d 18       		.uleb128 0x18
 6067 014e 9742     		.uleb128 0x2117
 6068 0150 19       		.uleb128 0x19
 6069 0151 01       		.uleb128 0x1
 6070 0152 13       		.uleb128 0x13
 6071 0153 00       		.byte	0
 6072 0154 00       		.byte	0
 6073 0155 1C       		.uleb128 0x1c
 6074 0156 05       		.uleb128 0x5
 6075 0157 00       		.byte	0
 6076 0158 03       		.uleb128 0x3
 6077 0159 0E       		.uleb128 0xe
 6078 015a 3A       		.uleb128 0x3a
 6079 015b 0B       		.uleb128 0xb
 6080 015c 3B       		.uleb128 0x3b
 6081 015d 05       		.uleb128 0x5
 6082 015e 49       		.uleb128 0x49
 6083 015f 13       		.uleb128 0x13
 6084 0160 02       		.uleb128 0x2
 6085 0161 17       		.uleb128 0x17
 6086 0162 00       		.byte	0
 6087 0163 00       		.byte	0
 6088 0164 1D       		.uleb128 0x1d
 6089 0165 898201   		.uleb128 0x4109
 6090 0168 00       		.byte	0
 6091 0169 11       		.uleb128 0x11
ARM GAS  C:\Users\Tim\AppData\Local\Temp\ccnUoCGf.s 			page 134


 6092 016a 01       		.uleb128 0x1
 6093 016b 31       		.uleb128 0x31
 6094 016c 13       		.uleb128 0x13
 6095 016d 00       		.byte	0
 6096 016e 00       		.byte	0
 6097 016f 1E       		.uleb128 0x1e
 6098 0170 34       		.uleb128 0x34
 6099 0171 00       		.byte	0
 6100 0172 03       		.uleb128 0x3
 6101 0173 0E       		.uleb128 0xe
 6102 0174 3A       		.uleb128 0x3a
 6103 0175 0B       		.uleb128 0xb
 6104 0176 3B       		.uleb128 0x3b
 6105 0177 05       		.uleb128 0x5
 6106 0178 49       		.uleb128 0x49
 6107 0179 13       		.uleb128 0x13
 6108 017a 02       		.uleb128 0x2
 6109 017b 18       		.uleb128 0x18
 6110 017c 00       		.byte	0
 6111 017d 00       		.byte	0
 6112 017e 1F       		.uleb128 0x1f
 6113 017f 2E       		.uleb128 0x2e
 6114 0180 01       		.byte	0x1
 6115 0181 03       		.uleb128 0x3
 6116 0182 0E       		.uleb128 0xe
 6117 0183 3A       		.uleb128 0x3a
 6118 0184 0B       		.uleb128 0xb
 6119 0185 3B       		.uleb128 0x3b
 6120 0186 05       		.uleb128 0x5
 6121 0187 27       		.uleb128 0x27
 6122 0188 19       		.uleb128 0x19
 6123 0189 11       		.uleb128 0x11
 6124 018a 01       		.uleb128 0x1
 6125 018b 12       		.uleb128 0x12
 6126 018c 06       		.uleb128 0x6
 6127 018d 40       		.uleb128 0x40
 6128 018e 18       		.uleb128 0x18
 6129 018f 9642     		.uleb128 0x2116
 6130 0191 19       		.uleb128 0x19
 6131 0192 01       		.uleb128 0x1
 6132 0193 13       		.uleb128 0x13
 6133 0194 00       		.byte	0
 6134 0195 00       		.byte	0
 6135 0196 20       		.uleb128 0x20
 6136 0197 34       		.uleb128 0x34
 6137 0198 00       		.byte	0
 6138 0199 03       		.uleb128 0x3
 6139 019a 0E       		.uleb128 0xe
 6140 019b 3A       		.uleb128 0x3a
 6141 019c 0B       		.uleb128 0xb
 6142 019d 3B       		.uleb128 0x3b
 6143 019e 05       		.uleb128 0x5
 6144 019f 49       		.uleb128 0x49
 6145 01a0 13       		.uleb128 0x13
 6146 01a1 02       		.uleb128 0x2
 6147 01a2 17       		.uleb128 0x17
 6148 01a3 00       		.byte	0
ARM GAS  C:\Users\Tim\AppData\Local\Temp\ccnUoCGf.s 			page 135


 6149 01a4 00       		.byte	0
 6150 01a5 21       		.uleb128 0x21
 6151 01a6 2E       		.uleb128 0x2e
 6152 01a7 01       		.byte	0x1
 6153 01a8 03       		.uleb128 0x3
 6154 01a9 0E       		.uleb128 0xe
 6155 01aa 3A       		.uleb128 0x3a
 6156 01ab 0B       		.uleb128 0xb
 6157 01ac 3B       		.uleb128 0x3b
 6158 01ad 05       		.uleb128 0x5
 6159 01ae 11       		.uleb128 0x11
 6160 01af 01       		.uleb128 0x1
 6161 01b0 12       		.uleb128 0x12
 6162 01b1 06       		.uleb128 0x6
 6163 01b2 40       		.uleb128 0x40
 6164 01b3 18       		.uleb128 0x18
 6165 01b4 9742     		.uleb128 0x2117
 6166 01b6 19       		.uleb128 0x19
 6167 01b7 01       		.uleb128 0x1
 6168 01b8 13       		.uleb128 0x13
 6169 01b9 00       		.byte	0
 6170 01ba 00       		.byte	0
 6171 01bb 22       		.uleb128 0x22
 6172 01bc 2E       		.uleb128 0x2e
 6173 01bd 01       		.byte	0x1
 6174 01be 03       		.uleb128 0x3
 6175 01bf 0E       		.uleb128 0xe
 6176 01c0 3A       		.uleb128 0x3a
 6177 01c1 0B       		.uleb128 0xb
 6178 01c2 3B       		.uleb128 0x3b
 6179 01c3 05       		.uleb128 0x5
 6180 01c4 49       		.uleb128 0x49
 6181 01c5 13       		.uleb128 0x13
 6182 01c6 11       		.uleb128 0x11
 6183 01c7 01       		.uleb128 0x1
 6184 01c8 12       		.uleb128 0x12
 6185 01c9 06       		.uleb128 0x6
 6186 01ca 40       		.uleb128 0x40
 6187 01cb 18       		.uleb128 0x18
 6188 01cc 9742     		.uleb128 0x2117
 6189 01ce 19       		.uleb128 0x19
 6190 01cf 01       		.uleb128 0x1
 6191 01d0 13       		.uleb128 0x13
 6192 01d1 00       		.byte	0
 6193 01d2 00       		.byte	0
 6194 01d3 23       		.uleb128 0x23
 6195 01d4 2E       		.uleb128 0x2e
 6196 01d5 01       		.byte	0x1
 6197 01d6 03       		.uleb128 0x3
 6198 01d7 0E       		.uleb128 0xe
 6199 01d8 3A       		.uleb128 0x3a
 6200 01d9 0B       		.uleb128 0xb
 6201 01da 3B       		.uleb128 0x3b
 6202 01db 05       		.uleb128 0x5
 6203 01dc 27       		.uleb128 0x27
 6204 01dd 19       		.uleb128 0x19
 6205 01de 49       		.uleb128 0x49
ARM GAS  C:\Users\Tim\AppData\Local\Temp\ccnUoCGf.s 			page 136


 6206 01df 13       		.uleb128 0x13
 6207 01e0 11       		.uleb128 0x11
 6208 01e1 01       		.uleb128 0x1
 6209 01e2 12       		.uleb128 0x12
 6210 01e3 06       		.uleb128 0x6
 6211 01e4 40       		.uleb128 0x40
 6212 01e5 18       		.uleb128 0x18
 6213 01e6 9742     		.uleb128 0x2117
 6214 01e8 19       		.uleb128 0x19
 6215 01e9 01       		.uleb128 0x1
 6216 01ea 13       		.uleb128 0x13
 6217 01eb 00       		.byte	0
 6218 01ec 00       		.byte	0
 6219 01ed 24       		.uleb128 0x24
 6220 01ee 05       		.uleb128 0x5
 6221 01ef 00       		.byte	0
 6222 01f0 03       		.uleb128 0x3
 6223 01f1 08       		.uleb128 0x8
 6224 01f2 3A       		.uleb128 0x3a
 6225 01f3 0B       		.uleb128 0xb
 6226 01f4 3B       		.uleb128 0x3b
 6227 01f5 05       		.uleb128 0x5
 6228 01f6 49       		.uleb128 0x49
 6229 01f7 13       		.uleb128 0x13
 6230 01f8 02       		.uleb128 0x2
 6231 01f9 17       		.uleb128 0x17
 6232 01fa 00       		.byte	0
 6233 01fb 00       		.byte	0
 6234 01fc 25       		.uleb128 0x25
 6235 01fd 34       		.uleb128 0x34
 6236 01fe 00       		.byte	0
 6237 01ff 03       		.uleb128 0x3
 6238 0200 0E       		.uleb128 0xe
 6239 0201 3A       		.uleb128 0x3a
 6240 0202 0B       		.uleb128 0xb
 6241 0203 3B       		.uleb128 0x3b
 6242 0204 05       		.uleb128 0x5
 6243 0205 49       		.uleb128 0x49
 6244 0206 13       		.uleb128 0x13
 6245 0207 00       		.byte	0
 6246 0208 00       		.byte	0
 6247 0209 26       		.uleb128 0x26
 6248 020a 34       		.uleb128 0x34
 6249 020b 00       		.byte	0
 6250 020c 03       		.uleb128 0x3
 6251 020d 08       		.uleb128 0x8
 6252 020e 3A       		.uleb128 0x3a
 6253 020f 0B       		.uleb128 0xb
 6254 0210 3B       		.uleb128 0x3b
 6255 0211 05       		.uleb128 0x5
 6256 0212 49       		.uleb128 0x49
 6257 0213 13       		.uleb128 0x13
 6258 0214 02       		.uleb128 0x2
 6259 0215 17       		.uleb128 0x17
 6260 0216 00       		.byte	0
 6261 0217 00       		.byte	0
 6262 0218 27       		.uleb128 0x27
ARM GAS  C:\Users\Tim\AppData\Local\Temp\ccnUoCGf.s 			page 137


 6263 0219 2E       		.uleb128 0x2e
 6264 021a 01       		.byte	0x1
 6265 021b 3F       		.uleb128 0x3f
 6266 021c 19       		.uleb128 0x19
 6267 021d 03       		.uleb128 0x3
 6268 021e 0E       		.uleb128 0xe
 6269 021f 3A       		.uleb128 0x3a
 6270 0220 0B       		.uleb128 0xb
 6271 0221 3B       		.uleb128 0x3b
 6272 0222 0B       		.uleb128 0xb
 6273 0223 27       		.uleb128 0x27
 6274 0224 19       		.uleb128 0x19
 6275 0225 11       		.uleb128 0x11
 6276 0226 01       		.uleb128 0x1
 6277 0227 12       		.uleb128 0x12
 6278 0228 06       		.uleb128 0x6
 6279 0229 40       		.uleb128 0x40
 6280 022a 18       		.uleb128 0x18
 6281 022b 9742     		.uleb128 0x2117
 6282 022d 19       		.uleb128 0x19
 6283 022e 01       		.uleb128 0x1
 6284 022f 13       		.uleb128 0x13
 6285 0230 00       		.byte	0
 6286 0231 00       		.byte	0
 6287 0232 28       		.uleb128 0x28
 6288 0233 05       		.uleb128 0x5
 6289 0234 00       		.byte	0
 6290 0235 03       		.uleb128 0x3
 6291 0236 08       		.uleb128 0x8
 6292 0237 3A       		.uleb128 0x3a
 6293 0238 0B       		.uleb128 0xb
 6294 0239 3B       		.uleb128 0x3b
 6295 023a 0B       		.uleb128 0xb
 6296 023b 49       		.uleb128 0x49
 6297 023c 13       		.uleb128 0x13
 6298 023d 02       		.uleb128 0x2
 6299 023e 17       		.uleb128 0x17
 6300 023f 00       		.byte	0
 6301 0240 00       		.byte	0
 6302 0241 29       		.uleb128 0x29
 6303 0242 34       		.uleb128 0x34
 6304 0243 00       		.byte	0
 6305 0244 03       		.uleb128 0x3
 6306 0245 0E       		.uleb128 0xe
 6307 0246 3A       		.uleb128 0x3a
 6308 0247 0B       		.uleb128 0xb
 6309 0248 3B       		.uleb128 0x3b
 6310 0249 0B       		.uleb128 0xb
 6311 024a 49       		.uleb128 0x49
 6312 024b 13       		.uleb128 0x13
 6313 024c 02       		.uleb128 0x2
 6314 024d 17       		.uleb128 0x17
 6315 024e 00       		.byte	0
 6316 024f 00       		.byte	0
 6317 0250 2A       		.uleb128 0x2a
 6318 0251 05       		.uleb128 0x5
 6319 0252 00       		.byte	0
ARM GAS  C:\Users\Tim\AppData\Local\Temp\ccnUoCGf.s 			page 138


 6320 0253 03       		.uleb128 0x3
 6321 0254 0E       		.uleb128 0xe
 6322 0255 3A       		.uleb128 0x3a
 6323 0256 0B       		.uleb128 0xb
 6324 0257 3B       		.uleb128 0x3b
 6325 0258 0B       		.uleb128 0xb
 6326 0259 49       		.uleb128 0x49
 6327 025a 13       		.uleb128 0x13
 6328 025b 02       		.uleb128 0x2
 6329 025c 17       		.uleb128 0x17
 6330 025d 00       		.byte	0
 6331 025e 00       		.byte	0
 6332 025f 2B       		.uleb128 0x2b
 6333 0260 34       		.uleb128 0x34
 6334 0261 00       		.byte	0
 6335 0262 03       		.uleb128 0x3
 6336 0263 08       		.uleb128 0x8
 6337 0264 3A       		.uleb128 0x3a
 6338 0265 0B       		.uleb128 0xb
 6339 0266 3B       		.uleb128 0x3b
 6340 0267 0B       		.uleb128 0xb
 6341 0268 49       		.uleb128 0x49
 6342 0269 13       		.uleb128 0x13
 6343 026a 02       		.uleb128 0x2
 6344 026b 17       		.uleb128 0x17
 6345 026c 00       		.byte	0
 6346 026d 00       		.byte	0
 6347 026e 2C       		.uleb128 0x2c
 6348 026f 34       		.uleb128 0x34
 6349 0270 00       		.byte	0
 6350 0271 03       		.uleb128 0x3
 6351 0272 0E       		.uleb128 0xe
 6352 0273 3A       		.uleb128 0x3a
 6353 0274 0B       		.uleb128 0xb
 6354 0275 3B       		.uleb128 0x3b
 6355 0276 0B       		.uleb128 0xb
 6356 0277 49       		.uleb128 0x49
 6357 0278 13       		.uleb128 0x13
 6358 0279 02       		.uleb128 0x2
 6359 027a 18       		.uleb128 0x18
 6360 027b 00       		.byte	0
 6361 027c 00       		.byte	0
 6362 027d 2D       		.uleb128 0x2d
 6363 027e 2E       		.uleb128 0x2e
 6364 027f 01       		.byte	0x1
 6365 0280 3F       		.uleb128 0x3f
 6366 0281 19       		.uleb128 0x19
 6367 0282 03       		.uleb128 0x3
 6368 0283 0E       		.uleb128 0xe
 6369 0284 3A       		.uleb128 0x3a
 6370 0285 0B       		.uleb128 0xb
 6371 0286 3B       		.uleb128 0x3b
 6372 0287 05       		.uleb128 0x5
 6373 0288 11       		.uleb128 0x11
 6374 0289 01       		.uleb128 0x1
 6375 028a 12       		.uleb128 0x12
 6376 028b 06       		.uleb128 0x6
ARM GAS  C:\Users\Tim\AppData\Local\Temp\ccnUoCGf.s 			page 139


 6377 028c 40       		.uleb128 0x40
 6378 028d 18       		.uleb128 0x18
 6379 028e 9742     		.uleb128 0x2117
 6380 0290 19       		.uleb128 0x19
 6381 0291 01       		.uleb128 0x1
 6382 0292 13       		.uleb128 0x13
 6383 0293 00       		.byte	0
 6384 0294 00       		.byte	0
 6385 0295 2E       		.uleb128 0x2e
 6386 0296 2E       		.uleb128 0x2e
 6387 0297 01       		.byte	0x1
 6388 0298 3F       		.uleb128 0x3f
 6389 0299 19       		.uleb128 0x19
 6390 029a 03       		.uleb128 0x3
 6391 029b 0E       		.uleb128 0xe
 6392 029c 3A       		.uleb128 0x3a
 6393 029d 0B       		.uleb128 0xb
 6394 029e 3B       		.uleb128 0x3b
 6395 029f 05       		.uleb128 0x5
 6396 02a0 49       		.uleb128 0x49
 6397 02a1 13       		.uleb128 0x13
 6398 02a2 11       		.uleb128 0x11
 6399 02a3 01       		.uleb128 0x1
 6400 02a4 12       		.uleb128 0x12
 6401 02a5 06       		.uleb128 0x6
 6402 02a6 40       		.uleb128 0x40
 6403 02a7 18       		.uleb128 0x18
 6404 02a8 9642     		.uleb128 0x2116
 6405 02aa 19       		.uleb128 0x19
 6406 02ab 01       		.uleb128 0x1
 6407 02ac 13       		.uleb128 0x13
 6408 02ad 00       		.byte	0
 6409 02ae 00       		.byte	0
 6410 02af 2F       		.uleb128 0x2f
 6411 02b0 2E       		.uleb128 0x2e
 6412 02b1 00       		.byte	0
 6413 02b2 3F       		.uleb128 0x3f
 6414 02b3 19       		.uleb128 0x19
 6415 02b4 03       		.uleb128 0x3
 6416 02b5 0E       		.uleb128 0xe
 6417 02b6 3A       		.uleb128 0x3a
 6418 02b7 0B       		.uleb128 0xb
 6419 02b8 3B       		.uleb128 0x3b
 6420 02b9 05       		.uleb128 0x5
 6421 02ba 49       		.uleb128 0x49
 6422 02bb 13       		.uleb128 0x13
 6423 02bc 11       		.uleb128 0x11
 6424 02bd 01       		.uleb128 0x1
 6425 02be 12       		.uleb128 0x12
 6426 02bf 06       		.uleb128 0x6
 6427 02c0 40       		.uleb128 0x40
 6428 02c1 18       		.uleb128 0x18
 6429 02c2 9742     		.uleb128 0x2117
 6430 02c4 19       		.uleb128 0x19
 6431 02c5 00       		.byte	0
 6432 02c6 00       		.byte	0
 6433 02c7 30       		.uleb128 0x30
ARM GAS  C:\Users\Tim\AppData\Local\Temp\ccnUoCGf.s 			page 140


 6434 02c8 2E       		.uleb128 0x2e
 6435 02c9 01       		.byte	0x1
 6436 02ca 3F       		.uleb128 0x3f
 6437 02cb 19       		.uleb128 0x19
 6438 02cc 03       		.uleb128 0x3
 6439 02cd 0E       		.uleb128 0xe
 6440 02ce 3A       		.uleb128 0x3a
 6441 02cf 0B       		.uleb128 0xb
 6442 02d0 3B       		.uleb128 0x3b
 6443 02d1 05       		.uleb128 0x5
 6444 02d2 27       		.uleb128 0x27
 6445 02d3 19       		.uleb128 0x19
 6446 02d4 11       		.uleb128 0x11
 6447 02d5 01       		.uleb128 0x1
 6448 02d6 12       		.uleb128 0x12
 6449 02d7 06       		.uleb128 0x6
 6450 02d8 40       		.uleb128 0x40
 6451 02d9 18       		.uleb128 0x18
 6452 02da 9742     		.uleb128 0x2117
 6453 02dc 19       		.uleb128 0x19
 6454 02dd 01       		.uleb128 0x1
 6455 02de 13       		.uleb128 0x13
 6456 02df 00       		.byte	0
 6457 02e0 00       		.byte	0
 6458 02e1 31       		.uleb128 0x31
 6459 02e2 05       		.uleb128 0x5
 6460 02e3 00       		.byte	0
 6461 02e4 03       		.uleb128 0x3
 6462 02e5 0E       		.uleb128 0xe
 6463 02e6 3A       		.uleb128 0x3a
 6464 02e7 0B       		.uleb128 0xb
 6465 02e8 3B       		.uleb128 0x3b
 6466 02e9 05       		.uleb128 0x5
 6467 02ea 49       		.uleb128 0x49
 6468 02eb 13       		.uleb128 0x13
 6469 02ec 02       		.uleb128 0x2
 6470 02ed 18       		.uleb128 0x18
 6471 02ee 00       		.byte	0
 6472 02ef 00       		.byte	0
 6473 02f0 32       		.uleb128 0x32
 6474 02f1 2E       		.uleb128 0x2e
 6475 02f2 01       		.byte	0x1
 6476 02f3 3F       		.uleb128 0x3f
 6477 02f4 19       		.uleb128 0x19
 6478 02f5 03       		.uleb128 0x3
 6479 02f6 0E       		.uleb128 0xe
 6480 02f7 3A       		.uleb128 0x3a
 6481 02f8 0B       		.uleb128 0xb
 6482 02f9 3B       		.uleb128 0x3b
 6483 02fa 05       		.uleb128 0x5
 6484 02fb 27       		.uleb128 0x27
 6485 02fc 19       		.uleb128 0x19
 6486 02fd 49       		.uleb128 0x49
 6487 02fe 13       		.uleb128 0x13
 6488 02ff 11       		.uleb128 0x11
 6489 0300 01       		.uleb128 0x1
 6490 0301 12       		.uleb128 0x12
ARM GAS  C:\Users\Tim\AppData\Local\Temp\ccnUoCGf.s 			page 141


 6491 0302 06       		.uleb128 0x6
 6492 0303 40       		.uleb128 0x40
 6493 0304 18       		.uleb128 0x18
 6494 0305 9642     		.uleb128 0x2116
 6495 0307 19       		.uleb128 0x19
 6496 0308 01       		.uleb128 0x1
 6497 0309 13       		.uleb128 0x13
 6498 030a 00       		.byte	0
 6499 030b 00       		.byte	0
 6500 030c 33       		.uleb128 0x33
 6501 030d 0B       		.uleb128 0xb
 6502 030e 01       		.byte	0x1
 6503 030f 11       		.uleb128 0x11
 6504 0310 01       		.uleb128 0x1
 6505 0311 12       		.uleb128 0x12
 6506 0312 06       		.uleb128 0x6
 6507 0313 01       		.uleb128 0x1
 6508 0314 13       		.uleb128 0x13
 6509 0315 00       		.byte	0
 6510 0316 00       		.byte	0
 6511 0317 34       		.uleb128 0x34
 6512 0318 2E       		.uleb128 0x2e
 6513 0319 01       		.byte	0x1
 6514 031a 3F       		.uleb128 0x3f
 6515 031b 19       		.uleb128 0x19
 6516 031c 03       		.uleb128 0x3
 6517 031d 0E       		.uleb128 0xe
 6518 031e 3A       		.uleb128 0x3a
 6519 031f 0B       		.uleb128 0xb
 6520 0320 3B       		.uleb128 0x3b
 6521 0321 05       		.uleb128 0x5
 6522 0322 27       		.uleb128 0x27
 6523 0323 19       		.uleb128 0x19
 6524 0324 11       		.uleb128 0x11
 6525 0325 01       		.uleb128 0x1
 6526 0326 12       		.uleb128 0x12
 6527 0327 06       		.uleb128 0x6
 6528 0328 40       		.uleb128 0x40
 6529 0329 18       		.uleb128 0x18
 6530 032a 9642     		.uleb128 0x2116
 6531 032c 19       		.uleb128 0x19
 6532 032d 01       		.uleb128 0x1
 6533 032e 13       		.uleb128 0x13
 6534 032f 00       		.byte	0
 6535 0330 00       		.byte	0
 6536 0331 35       		.uleb128 0x35
 6537 0332 34       		.uleb128 0x34
 6538 0333 00       		.byte	0
 6539 0334 03       		.uleb128 0x3
 6540 0335 0E       		.uleb128 0xe
 6541 0336 3A       		.uleb128 0x3a
 6542 0337 0B       		.uleb128 0xb
 6543 0338 3B       		.uleb128 0x3b
 6544 0339 05       		.uleb128 0x5
 6545 033a 49       		.uleb128 0x49
 6546 033b 13       		.uleb128 0x13
 6547 033c 3F       		.uleb128 0x3f
ARM GAS  C:\Users\Tim\AppData\Local\Temp\ccnUoCGf.s 			page 142


 6548 033d 19       		.uleb128 0x19
 6549 033e 3C       		.uleb128 0x3c
 6550 033f 19       		.uleb128 0x19
 6551 0340 00       		.byte	0
 6552 0341 00       		.byte	0
 6553 0342 36       		.uleb128 0x36
 6554 0343 35       		.uleb128 0x35
 6555 0344 00       		.byte	0
 6556 0345 49       		.uleb128 0x49
 6557 0346 13       		.uleb128 0x13
 6558 0347 00       		.byte	0
 6559 0348 00       		.byte	0
 6560 0349 37       		.uleb128 0x37
 6561 034a 34       		.uleb128 0x34
 6562 034b 00       		.byte	0
 6563 034c 03       		.uleb128 0x3
 6564 034d 0E       		.uleb128 0xe
 6565 034e 3A       		.uleb128 0x3a
 6566 034f 0B       		.uleb128 0xb
 6567 0350 3B       		.uleb128 0x3b
 6568 0351 0B       		.uleb128 0xb
 6569 0352 49       		.uleb128 0x49
 6570 0353 13       		.uleb128 0x13
 6571 0354 3F       		.uleb128 0x3f
 6572 0355 19       		.uleb128 0x19
 6573 0356 02       		.uleb128 0x2
 6574 0357 18       		.uleb128 0x18
 6575 0358 00       		.byte	0
 6576 0359 00       		.byte	0
 6577 035a 38       		.uleb128 0x38
 6578 035b 2E       		.uleb128 0x2e
 6579 035c 01       		.byte	0x1
 6580 035d 3F       		.uleb128 0x3f
 6581 035e 19       		.uleb128 0x19
 6582 035f 03       		.uleb128 0x3
 6583 0360 0E       		.uleb128 0xe
 6584 0361 3A       		.uleb128 0x3a
 6585 0362 0B       		.uleb128 0xb
 6586 0363 3B       		.uleb128 0x3b
 6587 0364 0B       		.uleb128 0xb
 6588 0365 27       		.uleb128 0x27
 6589 0366 19       		.uleb128 0x19
 6590 0367 3C       		.uleb128 0x3c
 6591 0368 19       		.uleb128 0x19
 6592 0369 01       		.uleb128 0x1
 6593 036a 13       		.uleb128 0x13
 6594 036b 00       		.byte	0
 6595 036c 00       		.byte	0
 6596 036d 39       		.uleb128 0x39
 6597 036e 2E       		.uleb128 0x2e
 6598 036f 01       		.byte	0x1
 6599 0370 3F       		.uleb128 0x3f
 6600 0371 19       		.uleb128 0x19
 6601 0372 03       		.uleb128 0x3
 6602 0373 0E       		.uleb128 0xe
 6603 0374 3A       		.uleb128 0x3a
 6604 0375 0B       		.uleb128 0xb
ARM GAS  C:\Users\Tim\AppData\Local\Temp\ccnUoCGf.s 			page 143


 6605 0376 3B       		.uleb128 0x3b
 6606 0377 0B       		.uleb128 0xb
 6607 0378 27       		.uleb128 0x27
 6608 0379 19       		.uleb128 0x19
 6609 037a 49       		.uleb128 0x49
 6610 037b 13       		.uleb128 0x13
 6611 037c 3C       		.uleb128 0x3c
 6612 037d 19       		.uleb128 0x19
 6613 037e 01       		.uleb128 0x1
 6614 037f 13       		.uleb128 0x13
 6615 0380 00       		.byte	0
 6616 0381 00       		.byte	0
 6617 0382 3A       		.uleb128 0x3a
 6618 0383 2E       		.uleb128 0x2e
 6619 0384 01       		.byte	0x1
 6620 0385 3F       		.uleb128 0x3f
 6621 0386 19       		.uleb128 0x19
 6622 0387 03       		.uleb128 0x3
 6623 0388 0E       		.uleb128 0xe
 6624 0389 3A       		.uleb128 0x3a
 6625 038a 0B       		.uleb128 0xb
 6626 038b 3B       		.uleb128 0x3b
 6627 038c 0B       		.uleb128 0xb
 6628 038d 49       		.uleb128 0x49
 6629 038e 13       		.uleb128 0x13
 6630 038f 3C       		.uleb128 0x3c
 6631 0390 19       		.uleb128 0x19
 6632 0391 01       		.uleb128 0x1
 6633 0392 13       		.uleb128 0x13
 6634 0393 00       		.byte	0
 6635 0394 00       		.byte	0
 6636 0395 3B       		.uleb128 0x3b
 6637 0396 2E       		.uleb128 0x2e
 6638 0397 01       		.byte	0x1
 6639 0398 3F       		.uleb128 0x3f
 6640 0399 19       		.uleb128 0x19
 6641 039a 03       		.uleb128 0x3
 6642 039b 0E       		.uleb128 0xe
 6643 039c 3A       		.uleb128 0x3a
 6644 039d 0B       		.uleb128 0xb
 6645 039e 3B       		.uleb128 0x3b
 6646 039f 0B       		.uleb128 0xb
 6647 03a0 3C       		.uleb128 0x3c
 6648 03a1 19       		.uleb128 0x19
 6649 03a2 01       		.uleb128 0x1
 6650 03a3 13       		.uleb128 0x13
 6651 03a4 00       		.byte	0
 6652 03a5 00       		.byte	0
 6653 03a6 3C       		.uleb128 0x3c
 6654 03a7 2E       		.uleb128 0x2e
 6655 03a8 01       		.byte	0x1
 6656 03a9 3F       		.uleb128 0x3f
 6657 03aa 19       		.uleb128 0x19
 6658 03ab 03       		.uleb128 0x3
 6659 03ac 0E       		.uleb128 0xe
 6660 03ad 27       		.uleb128 0x27
 6661 03ae 19       		.uleb128 0x19
ARM GAS  C:\Users\Tim\AppData\Local\Temp\ccnUoCGf.s 			page 144


 6662 03af 49       		.uleb128 0x49
 6663 03b0 13       		.uleb128 0x13
 6664 03b1 34       		.uleb128 0x34
 6665 03b2 19       		.uleb128 0x19
 6666 03b3 3C       		.uleb128 0x3c
 6667 03b4 19       		.uleb128 0x19
 6668 03b5 00       		.byte	0
 6669 03b6 00       		.byte	0
 6670 03b7 00       		.byte	0
 6671              		.section	.debug_loc,"",%progbits
 6672              	.Ldebug_loc0:
 6673              	.LLST0:
 6674 0000 00000000 		.4byte	.LVL23
 6675 0004 0D000000 		.4byte	.LVL24-1
 6676 0008 0100     		.2byte	0x1
 6677 000a 50       		.byte	0x50
 6678 000b 0D000000 		.4byte	.LVL24-1
 6679 000f 10000000 		.4byte	.LVL25
 6680 0013 0400     		.2byte	0x4
 6681 0015 F3       		.byte	0xf3
 6682 0016 01       		.uleb128 0x1
 6683 0017 50       		.byte	0x50
 6684 0018 9F       		.byte	0x9f
 6685 0019 10000000 		.4byte	.LVL25
 6686 001d 17000000 		.4byte	.LVL26-1
 6687 0021 0100     		.2byte	0x1
 6688 0023 50       		.byte	0x50
 6689 0024 17000000 		.4byte	.LVL26-1
 6690 0028 20000000 		.4byte	.LFE73
 6691 002c 0400     		.2byte	0x4
 6692 002e F3       		.byte	0xf3
 6693 002f 01       		.uleb128 0x1
 6694 0030 50       		.byte	0x50
 6695 0031 9F       		.byte	0x9f
 6696 0032 00000000 		.4byte	0
 6697 0036 00000000 		.4byte	0
 6698              	.LLST1:
 6699 003a 00000000 		.4byte	.LVL37
 6700 003e 10000000 		.4byte	.LVL38
 6701 0042 0100     		.2byte	0x1
 6702 0044 50       		.byte	0x50
 6703 0045 10000000 		.4byte	.LVL38
 6704 0049 30000000 		.4byte	.LFE78
 6705 004d 0400     		.2byte	0x4
 6706 004f F3       		.byte	0xf3
 6707 0050 01       		.uleb128 0x1
 6708 0051 50       		.byte	0x50
 6709 0052 9F       		.byte	0x9f
 6710 0053 00000000 		.4byte	0
 6711 0057 00000000 		.4byte	0
 6712              	.LLST2:
 6713 005b 00000000 		.4byte	.LVL41
 6714 005f 18000000 		.4byte	.LVL42
 6715 0063 0100     		.2byte	0x1
 6716 0065 50       		.byte	0x50
 6717 0066 18000000 		.4byte	.LVL42
 6718 006a 2C000000 		.4byte	.LVL47
ARM GAS  C:\Users\Tim\AppData\Local\Temp\ccnUoCGf.s 			page 145


 6719 006e 0100     		.2byte	0x1
 6720 0070 54       		.byte	0x54
 6721 0071 2C000000 		.4byte	.LVL47
 6722 0075 30000000 		.4byte	.LVL48
 6723 0079 0100     		.2byte	0x1
 6724 007b 50       		.byte	0x50
 6725 007c 30000000 		.4byte	.LVL48
 6726 0080 44000000 		.4byte	.LVL53
 6727 0084 0100     		.2byte	0x1
 6728 0086 54       		.byte	0x54
 6729 0087 44000000 		.4byte	.LVL53
 6730 008b 48000000 		.4byte	.LVL54
 6731 008f 0100     		.2byte	0x1
 6732 0091 50       		.byte	0x50
 6733 0092 48000000 		.4byte	.LVL54
 6734 0096 60000000 		.4byte	.LVL59
 6735 009a 0100     		.2byte	0x1
 6736 009c 54       		.byte	0x54
 6737 009d 60000000 		.4byte	.LVL59
 6738 00a1 64000000 		.4byte	.LVL60
 6739 00a5 0100     		.2byte	0x1
 6740 00a7 50       		.byte	0x50
 6741 00a8 64000000 		.4byte	.LVL60
 6742 00ac 78000000 		.4byte	.LVL65
 6743 00b0 0100     		.2byte	0x1
 6744 00b2 54       		.byte	0x54
 6745 00b3 78000000 		.4byte	.LVL65
 6746 00b7 7C000000 		.4byte	.LVL66
 6747 00bb 0100     		.2byte	0x1
 6748 00bd 50       		.byte	0x50
 6749 00be 7C000000 		.4byte	.LVL66
 6750 00c2 90000000 		.4byte	.LVL71
 6751 00c6 0100     		.2byte	0x1
 6752 00c8 54       		.byte	0x54
 6753 00c9 90000000 		.4byte	.LVL71
 6754 00cd 9A000000 		.4byte	.LVL72
 6755 00d1 0100     		.2byte	0x1
 6756 00d3 50       		.byte	0x50
 6757 00d4 9A000000 		.4byte	.LVL72
 6758 00d8 A0000000 		.4byte	.LVL74
 6759 00dc 0100     		.2byte	0x1
 6760 00de 54       		.byte	0x54
 6761 00df A0000000 		.4byte	.LVL74
 6762 00e3 A4000000 		.4byte	.LFE79
 6763 00e7 0400     		.2byte	0x4
 6764 00e9 F3       		.byte	0xf3
 6765 00ea 01       		.uleb128 0x1
 6766 00eb 50       		.byte	0x50
 6767 00ec 9F       		.byte	0x9f
 6768 00ed 00000000 		.4byte	0
 6769 00f1 00000000 		.4byte	0
 6770              	.LLST3:
 6771 00f5 1C000000 		.4byte	.LVL43
 6772 00f9 26000000 		.4byte	.LVL45
 6773 00fd 0100     		.2byte	0x1
 6774 00ff 50       		.byte	0x50
 6775 0100 34000000 		.4byte	.LVL49
ARM GAS  C:\Users\Tim\AppData\Local\Temp\ccnUoCGf.s 			page 146


 6776 0104 3E000000 		.4byte	.LVL51
 6777 0108 0100     		.2byte	0x1
 6778 010a 50       		.byte	0x50
 6779 010b 4C000000 		.4byte	.LVL55
 6780 010f 5A000000 		.4byte	.LVL57
 6781 0113 0100     		.2byte	0x1
 6782 0115 50       		.byte	0x50
 6783 0116 68000000 		.4byte	.LVL61
 6784 011a 72000000 		.4byte	.LVL63
 6785 011e 0100     		.2byte	0x1
 6786 0120 50       		.byte	0x50
 6787 0121 80000000 		.4byte	.LVL67
 6788 0125 8A000000 		.4byte	.LVL69
 6789 0129 0100     		.2byte	0x1
 6790 012b 50       		.byte	0x50
 6791 012c 00000000 		.4byte	0
 6792 0130 00000000 		.4byte	0
 6793              	.LLST4:
 6794 0134 06000000 		.4byte	.LVL77
 6795 0138 48000000 		.4byte	.LVL78
 6796 013c 0100     		.2byte	0x1
 6797 013e 50       		.byte	0x50
 6798 013f 48000000 		.4byte	.LVL78
 6799 0143 52000000 		.4byte	.LVL80
 6800 0147 0300     		.2byte	0x3
 6801 0149 08       		.byte	0x8
 6802 014a 63       		.byte	0x63
 6803 014b 9F       		.byte	0x9f
 6804 014c 52000000 		.4byte	.LVL80
 6805 0150 5C000000 		.4byte	.LVL82
 6806 0154 0300     		.2byte	0x3
 6807 0156 08       		.byte	0x8
 6808 0157 76       		.byte	0x76
 6809 0158 9F       		.byte	0x9f
 6810 0159 5C000000 		.4byte	.LVL82
 6811 015d 66000000 		.4byte	.LVL84
 6812 0161 0300     		.2byte	0x3
 6813 0163 08       		.byte	0x8
 6814 0164 73       		.byte	0x73
 6815 0165 9F       		.byte	0x9f
 6816 0166 66000000 		.4byte	.LVL84
 6817 016a 6E000000 		.4byte	.LVL86
 6818 016e 0300     		.2byte	0x3
 6819 0170 08       		.byte	0x8
 6820 0171 78       		.byte	0x78
 6821 0172 9F       		.byte	0x9f
 6822 0173 6E000000 		.4byte	.LVL86
 6823 0177 80000000 		.4byte	.LFE75
 6824 017b 0100     		.2byte	0x1
 6825 017d 50       		.byte	0x50
 6826 017e 00000000 		.4byte	0
 6827 0182 00000000 		.4byte	0
 6828              	.LLST5:
 6829 0186 00000000 		.4byte	.LVL87
 6830 018a 11000000 		.4byte	.LVL88-1
 6831 018e 0100     		.2byte	0x1
 6832 0190 50       		.byte	0x50
ARM GAS  C:\Users\Tim\AppData\Local\Temp\ccnUoCGf.s 			page 147


 6833 0191 11000000 		.4byte	.LVL88-1
 6834 0195 1E000000 		.4byte	.LVL89
 6835 0199 0400     		.2byte	0x4
 6836 019b F3       		.byte	0xf3
 6837 019c 01       		.uleb128 0x1
 6838 019d 50       		.byte	0x50
 6839 019e 9F       		.byte	0x9f
 6840 019f 1E000000 		.4byte	.LVL89
 6841 01a3 21000000 		.4byte	.LVL90-1
 6842 01a7 0100     		.2byte	0x1
 6843 01a9 50       		.byte	0x50
 6844 01aa 21000000 		.4byte	.LVL90-1
 6845 01ae 2E000000 		.4byte	.LVL91
 6846 01b2 0400     		.2byte	0x4
 6847 01b4 F3       		.byte	0xf3
 6848 01b5 01       		.uleb128 0x1
 6849 01b6 50       		.byte	0x50
 6850 01b7 9F       		.byte	0x9f
 6851 01b8 2E000000 		.4byte	.LVL91
 6852 01bc 31000000 		.4byte	.LVL92-1
 6853 01c0 0100     		.2byte	0x1
 6854 01c2 50       		.byte	0x50
 6855 01c3 31000000 		.4byte	.LVL92-1
 6856 01c7 3E000000 		.4byte	.LVL93
 6857 01cb 0400     		.2byte	0x4
 6858 01cd F3       		.byte	0xf3
 6859 01ce 01       		.uleb128 0x1
 6860 01cf 50       		.byte	0x50
 6861 01d0 9F       		.byte	0x9f
 6862 01d1 3E000000 		.4byte	.LVL93
 6863 01d5 40000000 		.4byte	.LVL94
 6864 01d9 0100     		.2byte	0x1
 6865 01db 50       		.byte	0x50
 6866 01dc 40000000 		.4byte	.LVL94
 6867 01e0 50000000 		.4byte	.LFE76
 6868 01e4 0400     		.2byte	0x4
 6869 01e6 F3       		.byte	0xf3
 6870 01e7 01       		.uleb128 0x1
 6871 01e8 50       		.byte	0x50
 6872 01e9 9F       		.byte	0x9f
 6873 01ea 00000000 		.4byte	0
 6874 01ee 00000000 		.4byte	0
 6875              	.LLST6:
 6876 01f2 00000000 		.4byte	.LVL95
 6877 01f6 1B000000 		.4byte	.LVL96-1
 6878 01fa 0100     		.2byte	0x1
 6879 01fc 50       		.byte	0x50
 6880 01fd 1B000000 		.4byte	.LVL96-1
 6881 0201 34000000 		.4byte	.LVL98
 6882 0205 0400     		.2byte	0x4
 6883 0207 F3       		.byte	0xf3
 6884 0208 01       		.uleb128 0x1
 6885 0209 50       		.byte	0x50
 6886 020a 9F       		.byte	0x9f
 6887 020b 34000000 		.4byte	.LVL98
 6888 020f 37000000 		.4byte	.LVL99-1
 6889 0213 0100     		.2byte	0x1
ARM GAS  C:\Users\Tim\AppData\Local\Temp\ccnUoCGf.s 			page 148


 6890 0215 50       		.byte	0x50
 6891 0216 37000000 		.4byte	.LVL99-1
 6892 021a 50000000 		.4byte	.LVL101
 6893 021e 0400     		.2byte	0x4
 6894 0220 F3       		.byte	0xf3
 6895 0221 01       		.uleb128 0x1
 6896 0222 50       		.byte	0x50
 6897 0223 9F       		.byte	0x9f
 6898 0224 50000000 		.4byte	.LVL101
 6899 0228 53000000 		.4byte	.LVL102-1
 6900 022c 0100     		.2byte	0x1
 6901 022e 50       		.byte	0x50
 6902 022f 53000000 		.4byte	.LVL102-1
 6903 0233 70000000 		.4byte	.LVL104
 6904 0237 0400     		.2byte	0x4
 6905 0239 F3       		.byte	0xf3
 6906 023a 01       		.uleb128 0x1
 6907 023b 50       		.byte	0x50
 6908 023c 9F       		.byte	0x9f
 6909 023d 70000000 		.4byte	.LVL104
 6910 0241 73000000 		.4byte	.LVL105-1
 6911 0245 0100     		.2byte	0x1
 6912 0247 50       		.byte	0x50
 6913 0248 73000000 		.4byte	.LVL105-1
 6914 024c 90000000 		.4byte	.LVL107
 6915 0250 0400     		.2byte	0x4
 6916 0252 F3       		.byte	0xf3
 6917 0253 01       		.uleb128 0x1
 6918 0254 50       		.byte	0x50
 6919 0255 9F       		.byte	0x9f
 6920 0256 90000000 		.4byte	.LVL107
 6921 025a 93000000 		.4byte	.LVL108-1
 6922 025e 0100     		.2byte	0x1
 6923 0260 50       		.byte	0x50
 6924 0261 93000000 		.4byte	.LVL108-1
 6925 0265 B0000000 		.4byte	.LVL110
 6926 0269 0400     		.2byte	0x4
 6927 026b F3       		.byte	0xf3
 6928 026c 01       		.uleb128 0x1
 6929 026d 50       		.byte	0x50
 6930 026e 9F       		.byte	0x9f
 6931 026f B0000000 		.4byte	.LVL110
 6932 0273 B3000000 		.4byte	.LVL111-1
 6933 0277 0100     		.2byte	0x1
 6934 0279 50       		.byte	0x50
 6935 027a B3000000 		.4byte	.LVL111-1
 6936 027e D0000000 		.4byte	.LVL113
 6937 0282 0400     		.2byte	0x4
 6938 0284 F3       		.byte	0xf3
 6939 0285 01       		.uleb128 0x1
 6940 0286 50       		.byte	0x50
 6941 0287 9F       		.byte	0x9f
 6942 0288 D0000000 		.4byte	.LVL113
 6943 028c D3000000 		.4byte	.LVL114-1
 6944 0290 0100     		.2byte	0x1
 6945 0292 50       		.byte	0x50
 6946 0293 D3000000 		.4byte	.LVL114-1
ARM GAS  C:\Users\Tim\AppData\Local\Temp\ccnUoCGf.s 			page 149


 6947 0297 F2000000 		.4byte	.LVL116
 6948 029b 0400     		.2byte	0x4
 6949 029d F3       		.byte	0xf3
 6950 029e 01       		.uleb128 0x1
 6951 029f 50       		.byte	0x50
 6952 02a0 9F       		.byte	0x9f
 6953 02a1 F2000000 		.4byte	.LVL116
 6954 02a5 F5000000 		.4byte	.LVL117-1
 6955 02a9 0100     		.2byte	0x1
 6956 02ab 50       		.byte	0x50
 6957 02ac F5000000 		.4byte	.LVL117-1
 6958 02b0 14010000 		.4byte	.LVL119
 6959 02b4 0400     		.2byte	0x4
 6960 02b6 F3       		.byte	0xf3
 6961 02b7 01       		.uleb128 0x1
 6962 02b8 50       		.byte	0x50
 6963 02b9 9F       		.byte	0x9f
 6964 02ba 14010000 		.4byte	.LVL119
 6965 02be 16010000 		.4byte	.LVL120
 6966 02c2 0100     		.2byte	0x1
 6967 02c4 50       		.byte	0x50
 6968 02c5 16010000 		.4byte	.LVL120
 6969 02c9 48010000 		.4byte	.LFE77
 6970 02cd 0400     		.2byte	0x4
 6971 02cf F3       		.byte	0xf3
 6972 02d0 01       		.uleb128 0x1
 6973 02d1 50       		.byte	0x50
 6974 02d2 9F       		.byte	0x9f
 6975 02d3 00000000 		.4byte	0
 6976 02d7 00000000 		.4byte	0
 6977              	.LLST7:
 6978 02db 00000000 		.4byte	.LVL121
 6979 02df 27000000 		.4byte	.LVL126-1
 6980 02e3 0100     		.2byte	0x1
 6981 02e5 50       		.byte	0x50
 6982 02e6 27000000 		.4byte	.LVL126-1
 6983 02ea 6A000000 		.4byte	.LVL132
 6984 02ee 0100     		.2byte	0x1
 6985 02f0 55       		.byte	0x55
 6986 02f1 6A000000 		.4byte	.LVL132
 6987 02f5 6E000000 		.4byte	.LVL133
 6988 02f9 0100     		.2byte	0x1
 6989 02fb 50       		.byte	0x50
 6990 02fc 6E000000 		.4byte	.LVL133
 6991 0300 72000000 		.4byte	.LFE80
 6992 0304 0400     		.2byte	0x4
 6993 0306 F3       		.byte	0xf3
 6994 0307 01       		.uleb128 0x1
 6995 0308 50       		.byte	0x50
 6996 0309 9F       		.byte	0x9f
 6997 030a 00000000 		.4byte	0
 6998 030e 00000000 		.4byte	0
 6999              	.LLST8:
 7000 0312 00000000 		.4byte	.LVL121
 7001 0316 08000000 		.4byte	.LVL123
 7002 031a 0100     		.2byte	0x1
 7003 031c 51       		.byte	0x51
ARM GAS  C:\Users\Tim\AppData\Local\Temp\ccnUoCGf.s 			page 150


 7004 031d 08000000 		.4byte	.LVL123
 7005 0321 72000000 		.4byte	.LFE80
 7006 0325 0100     		.2byte	0x1
 7007 0327 54       		.byte	0x54
 7008 0328 00000000 		.4byte	0
 7009 032c 00000000 		.4byte	0
 7010              	.LLST9:
 7011 0330 00000000 		.4byte	.LVL121
 7012 0334 1A000000 		.4byte	.LVL124
 7013 0338 0100     		.2byte	0x1
 7014 033a 52       		.byte	0x52
 7015 033b 1A000000 		.4byte	.LVL124
 7016 033f 6A000000 		.4byte	.LVL132
 7017 0343 0100     		.2byte	0x1
 7018 0345 56       		.byte	0x56
 7019 0346 6A000000 		.4byte	.LVL132
 7020 034a 6E000000 		.4byte	.LVL133
 7021 034e 0100     		.2byte	0x1
 7022 0350 52       		.byte	0x52
 7023 0351 6E000000 		.4byte	.LVL133
 7024 0355 72000000 		.4byte	.LFE80
 7025 0359 0400     		.2byte	0x4
 7026 035b F3       		.byte	0xf3
 7027 035c 01       		.uleb128 0x1
 7028 035d 52       		.byte	0x52
 7029 035e 9F       		.byte	0x9f
 7030 035f 00000000 		.4byte	0
 7031 0363 00000000 		.4byte	0
 7032              	.LLST10:
 7033 0367 00000000 		.4byte	.LVL121
 7034 036b 24000000 		.4byte	.LVL125
 7035 036f 0100     		.2byte	0x1
 7036 0371 53       		.byte	0x53
 7037 0372 24000000 		.4byte	.LVL125
 7038 0376 6A000000 		.4byte	.LVL132
 7039 037a 0400     		.2byte	0x4
 7040 037c F3       		.byte	0xf3
 7041 037d 01       		.uleb128 0x1
 7042 037e 53       		.byte	0x53
 7043 037f 9F       		.byte	0x9f
 7044 0380 6A000000 		.4byte	.LVL132
 7045 0384 6E000000 		.4byte	.LVL133
 7046 0388 0100     		.2byte	0x1
 7047 038a 53       		.byte	0x53
 7048 038b 6E000000 		.4byte	.LVL133
 7049 038f 72000000 		.4byte	.LFE80
 7050 0393 0400     		.2byte	0x4
 7051 0395 F3       		.byte	0xf3
 7052 0396 01       		.uleb128 0x1
 7053 0397 53       		.byte	0x53
 7054 0398 9F       		.byte	0x9f
 7055 0399 00000000 		.4byte	0
 7056 039d 00000000 		.4byte	0
 7057              	.LLST11:
 7058 03a1 06000000 		.4byte	.LVL122
 7059 03a5 4A000000 		.4byte	.LVL128
 7060 03a9 0400     		.2byte	0x4
ARM GAS  C:\Users\Tim\AppData\Local\Temp\ccnUoCGf.s 			page 151


 7061 03ab 0A       		.byte	0xa
 7062 03ac DC05     		.2byte	0x5dc
 7063 03ae 9F       		.byte	0x9f
 7064 03af 4A000000 		.4byte	.LVL128
 7065 03b3 62000000 		.4byte	.LVL129
 7066 03b7 0100     		.2byte	0x1
 7067 03b9 50       		.byte	0x50
 7068 03ba 64000000 		.4byte	.LVL130
 7069 03be 68000000 		.4byte	.LVL131
 7070 03c2 0100     		.2byte	0x1
 7071 03c4 50       		.byte	0x50
 7072 03c5 6A000000 		.4byte	.LVL132
 7073 03c9 6E000000 		.4byte	.LVL133
 7074 03cd 0400     		.2byte	0x4
 7075 03cf 0A       		.byte	0xa
 7076 03d0 DC05     		.2byte	0x5dc
 7077 03d2 9F       		.byte	0x9f
 7078 03d3 00000000 		.4byte	0
 7079 03d7 00000000 		.4byte	0
 7080              	.LLST12:
 7081 03db 00000000 		.4byte	.LVL134
 7082 03df 0A000000 		.4byte	.LVL135
 7083 03e3 0100     		.2byte	0x1
 7084 03e5 50       		.byte	0x50
 7085 03e6 0A000000 		.4byte	.LVL135
 7086 03ea 2C000000 		.4byte	.LFE65
 7087 03ee 0400     		.2byte	0x4
 7088 03f0 F3       		.byte	0xf3
 7089 03f1 01       		.uleb128 0x1
 7090 03f2 50       		.byte	0x50
 7091 03f3 9F       		.byte	0x9f
 7092 03f4 00000000 		.4byte	0
 7093 03f8 00000000 		.4byte	0
 7094              	.LLST13:
 7095 03fc 14000000 		.4byte	.LVL136
 7096 0400 1D000000 		.4byte	.LVL137-1
 7097 0404 0100     		.2byte	0x1
 7098 0406 50       		.byte	0x50
 7099 0407 00000000 		.4byte	0
 7100 040b 00000000 		.4byte	0
 7101              	.LLST14:
 7102 040f 00000000 		.4byte	.LVL139
 7103 0413 0A000000 		.4byte	.LVL140
 7104 0417 0100     		.2byte	0x1
 7105 0419 50       		.byte	0x50
 7106 041a 0A000000 		.4byte	.LVL140
 7107 041e 24000000 		.4byte	.LFE66
 7108 0422 0400     		.2byte	0x4
 7109 0424 F3       		.byte	0xf3
 7110 0425 01       		.uleb128 0x1
 7111 0426 50       		.byte	0x50
 7112 0427 9F       		.byte	0x9f
 7113 0428 00000000 		.4byte	0
 7114 042c 00000000 		.4byte	0
 7115              	.LLST15:
 7116 0430 0C000000 		.4byte	.LVL141
 7117 0434 12000000 		.4byte	.LVL142
ARM GAS  C:\Users\Tim\AppData\Local\Temp\ccnUoCGf.s 			page 152


 7118 0438 0600     		.2byte	0x6
 7119 043a 70       		.byte	0x70
 7120 043b 00       		.sleb128 0
 7121 043c 74       		.byte	0x74
 7122 043d 00       		.sleb128 0
 7123 043e 21       		.byte	0x21
 7124 043f 9F       		.byte	0x9f
 7125 0440 00000000 		.4byte	0
 7126 0444 00000000 		.4byte	0
 7127              	.LLST16:
 7128 0448 00000000 		.4byte	.LVL145
 7129 044c 0C000000 		.4byte	.LVL146
 7130 0450 0100     		.2byte	0x1
 7131 0452 50       		.byte	0x50
 7132 0453 0C000000 		.4byte	.LVL146
 7133 0457 13000000 		.4byte	.LVL149-1
 7134 045b 0100     		.2byte	0x1
 7135 045d 53       		.byte	0x53
 7136 045e 13000000 		.4byte	.LVL149-1
 7137 0462 64000000 		.4byte	.LFE67
 7138 0466 0400     		.2byte	0x4
 7139 0468 F3       		.byte	0xf3
 7140 0469 01       		.uleb128 0x1
 7141 046a 50       		.byte	0x50
 7142 046b 9F       		.byte	0x9f
 7143 046c 00000000 		.4byte	0
 7144 0470 00000000 		.4byte	0
 7145              	.LLST17:
 7146 0474 00000000 		.4byte	.LVL145
 7147 0478 0E000000 		.4byte	.LVL147
 7148 047c 0100     		.2byte	0x1
 7149 047e 51       		.byte	0x51
 7150 047f 0E000000 		.4byte	.LVL147
 7151 0483 56000000 		.4byte	.LVL158
 7152 0487 0100     		.2byte	0x1
 7153 0489 56       		.byte	0x56
 7154 048a 56000000 		.4byte	.LVL158
 7155 048e 64000000 		.4byte	.LFE67
 7156 0492 0400     		.2byte	0x4
 7157 0494 F3       		.byte	0xf3
 7158 0495 01       		.uleb128 0x1
 7159 0496 51       		.byte	0x51
 7160 0497 9F       		.byte	0x9f
 7161 0498 00000000 		.4byte	0
 7162 049c 00000000 		.4byte	0
 7163              	.LLST18:
 7164 04a0 00000000 		.4byte	.LVL145
 7165 04a4 10000000 		.4byte	.LVL148
 7166 04a8 0100     		.2byte	0x1
 7167 04aa 52       		.byte	0x52
 7168 04ab 10000000 		.4byte	.LVL148
 7169 04af 56000000 		.4byte	.LVL158
 7170 04b3 0100     		.2byte	0x1
 7171 04b5 55       		.byte	0x55
 7172 04b6 56000000 		.4byte	.LVL158
 7173 04ba 64000000 		.4byte	.LFE67
 7174 04be 0400     		.2byte	0x4
ARM GAS  C:\Users\Tim\AppData\Local\Temp\ccnUoCGf.s 			page 153


 7175 04c0 F3       		.byte	0xf3
 7176 04c1 01       		.uleb128 0x1
 7177 04c2 52       		.byte	0x52
 7178 04c3 9F       		.byte	0x9f
 7179 04c4 00000000 		.4byte	0
 7180 04c8 00000000 		.4byte	0
 7181              	.LLST19:
 7182 04cc 1A000000 		.4byte	.LVL150
 7183 04d0 1E000000 		.4byte	.LVL151
 7184 04d4 0200     		.2byte	0x2
 7185 04d6 30       		.byte	0x30
 7186 04d7 9F       		.byte	0x9f
 7187 04d8 1E000000 		.4byte	.LVL151
 7188 04dc 36000000 		.4byte	.LVL154
 7189 04e0 0100     		.2byte	0x1
 7190 04e2 54       		.byte	0x54
 7191 04e3 38000000 		.4byte	.LVL155
 7192 04e7 56000000 		.4byte	.LVL158
 7193 04eb 0100     		.2byte	0x1
 7194 04ed 54       		.byte	0x54
 7195 04ee 00000000 		.4byte	0
 7196 04f2 00000000 		.4byte	0
 7197              	.LLST20:
 7198 04f6 00000000 		.4byte	.LVL159
 7199 04fa 0A000000 		.4byte	.LVL160
 7200 04fe 0100     		.2byte	0x1
 7201 0500 50       		.byte	0x50
 7202 0501 0A000000 		.4byte	.LVL160
 7203 0505 44000000 		.4byte	.LVL167
 7204 0509 0100     		.2byte	0x1
 7205 050b 57       		.byte	0x57
 7206 050c 44000000 		.4byte	.LVL167
 7207 0510 48000000 		.4byte	.LFE68
 7208 0514 0400     		.2byte	0x4
 7209 0516 F3       		.byte	0xf3
 7210 0517 01       		.uleb128 0x1
 7211 0518 50       		.byte	0x50
 7212 0519 9F       		.byte	0x9f
 7213 051a 00000000 		.4byte	0
 7214 051e 00000000 		.4byte	0
 7215              	.LLST21:
 7216 0522 00000000 		.4byte	.LVL159
 7217 0526 0C000000 		.4byte	.LVL161
 7218 052a 0100     		.2byte	0x1
 7219 052c 51       		.byte	0x51
 7220 052d 0C000000 		.4byte	.LVL161
 7221 0531 44000000 		.4byte	.LVL167
 7222 0535 0100     		.2byte	0x1
 7223 0537 54       		.byte	0x54
 7224 0538 44000000 		.4byte	.LVL167
 7225 053c 48000000 		.4byte	.LFE68
 7226 0540 0400     		.2byte	0x4
 7227 0542 F3       		.byte	0xf3
 7228 0543 01       		.uleb128 0x1
 7229 0544 51       		.byte	0x51
 7230 0545 9F       		.byte	0x9f
 7231 0546 00000000 		.4byte	0
ARM GAS  C:\Users\Tim\AppData\Local\Temp\ccnUoCGf.s 			page 154


 7232 054a 00000000 		.4byte	0
 7233              	.LLST22:
 7234 054e 00000000 		.4byte	.LVL168
 7235 0552 15000000 		.4byte	.LVL169-1
 7236 0556 0100     		.2byte	0x1
 7237 0558 50       		.byte	0x50
 7238 0559 15000000 		.4byte	.LVL169-1
 7239 055d 52000000 		.4byte	.LVL176
 7240 0561 0400     		.2byte	0x4
 7241 0563 F3       		.byte	0xf3
 7242 0564 01       		.uleb128 0x1
 7243 0565 50       		.byte	0x50
 7244 0566 9F       		.byte	0x9f
 7245 0567 52000000 		.4byte	.LVL176
 7246 056b 55000000 		.4byte	.LVL177-1
 7247 056f 0100     		.2byte	0x1
 7248 0571 50       		.byte	0x50
 7249 0572 55000000 		.4byte	.LVL177-1
 7250 0576 92000000 		.4byte	.LVL184
 7251 057a 0400     		.2byte	0x4
 7252 057c F3       		.byte	0xf3
 7253 057d 01       		.uleb128 0x1
 7254 057e 50       		.byte	0x50
 7255 057f 9F       		.byte	0x9f
 7256 0580 92000000 		.4byte	.LVL184
 7257 0584 95000000 		.4byte	.LVL185-1
 7258 0588 0100     		.2byte	0x1
 7259 058a 50       		.byte	0x50
 7260 058b 95000000 		.4byte	.LVL185-1
 7261 058f BE000000 		.4byte	.LVL191
 7262 0593 0400     		.2byte	0x4
 7263 0595 F3       		.byte	0xf3
 7264 0596 01       		.uleb128 0x1
 7265 0597 50       		.byte	0x50
 7266 0598 9F       		.byte	0x9f
 7267 0599 BE000000 		.4byte	.LVL191
 7268 059d C1000000 		.4byte	.LVL192-1
 7269 05a1 0100     		.2byte	0x1
 7270 05a3 50       		.byte	0x50
 7271 05a4 C1000000 		.4byte	.LVL192-1
 7272 05a8 04010000 		.4byte	.LFE74
 7273 05ac 0400     		.2byte	0x4
 7274 05ae F3       		.byte	0xf3
 7275 05af 01       		.uleb128 0x1
 7276 05b0 50       		.byte	0x50
 7277 05b1 9F       		.byte	0x9f
 7278 05b2 00000000 		.4byte	0
 7279 05b6 00000000 		.4byte	0
 7280              	.LLST23:
 7281 05ba 08000000 		.4byte	.LVL199
 7282 05be 0D000000 		.4byte	.LVL200-1
 7283 05c2 0100     		.2byte	0x1
 7284 05c4 50       		.byte	0x50
 7285 05c5 00000000 		.4byte	0
 7286 05c9 00000000 		.4byte	0
 7287              	.LLST24:
 7288 05cd 08000000 		.4byte	.LVL202
ARM GAS  C:\Users\Tim\AppData\Local\Temp\ccnUoCGf.s 			page 155


 7289 05d1 29000000 		.4byte	.LVL203-1
 7290 05d5 0100     		.2byte	0x1
 7291 05d7 50       		.byte	0x50
 7292 05d8 32000000 		.4byte	.LVL204
 7293 05dc 35000000 		.4byte	.LVL205-1
 7294 05e0 0100     		.2byte	0x1
 7295 05e2 50       		.byte	0x50
 7296 05e3 3E000000 		.4byte	.LVL206
 7297 05e7 41000000 		.4byte	.LVL207-1
 7298 05eb 0100     		.2byte	0x1
 7299 05ed 50       		.byte	0x50
 7300 05ee 4A000000 		.4byte	.LVL208
 7301 05f2 53000000 		.4byte	.LVL209-1
 7302 05f6 0100     		.2byte	0x1
 7303 05f8 50       		.byte	0x50
 7304 05f9 78000000 		.4byte	.LVL212
 7305 05fd 81000000 		.4byte	.LVL213-1
 7306 0601 0100     		.2byte	0x1
 7307 0603 50       		.byte	0x50
 7308 0604 A6000000 		.4byte	.LVL216
 7309 0608 A9000000 		.4byte	.LVL217-1
 7310 060c 0100     		.2byte	0x1
 7311 060e 50       		.byte	0x50
 7312 060f B6000000 		.4byte	.LVL218
 7313 0613 B9000000 		.4byte	.LVL219-1
 7314 0617 0100     		.2byte	0x1
 7315 0619 50       		.byte	0x50
 7316 061a C8000000 		.4byte	.LVL221
 7317 061e CE000000 		.4byte	.LVL222
 7318 0622 0100     		.2byte	0x1
 7319 0624 50       		.byte	0x50
 7320 0625 00000000 		.4byte	0
 7321 0629 00000000 		.4byte	0
 7322              	.LLST25:
 7323 062d 04000000 		.4byte	.LVL223
 7324 0631 06000000 		.4byte	.LVL224
 7325 0635 0200     		.2byte	0x2
 7326 0637 30       		.byte	0x30
 7327 0638 9F       		.byte	0x9f
 7328 0639 06000000 		.4byte	.LVL224
 7329 063d 2C000000 		.4byte	.LVL229
 7330 0641 0100     		.2byte	0x1
 7331 0643 54       		.byte	0x54
 7332 0644 2E000000 		.4byte	.LVL230
 7333 0648 46000000 		.4byte	.LFE84
 7334 064c 0100     		.2byte	0x1
 7335 064e 54       		.byte	0x54
 7336 064f 00000000 		.4byte	0
 7337 0653 00000000 		.4byte	0
 7338              	.LLST26:
 7339 0657 00000000 		.4byte	.LVL234
 7340 065b 18000000 		.4byte	.LVL236
 7341 065f 0100     		.2byte	0x1
 7342 0661 50       		.byte	0x50
 7343 0662 18000000 		.4byte	.LVL236
 7344 0666 6C000000 		.4byte	.LVL246
 7345 066a 0400     		.2byte	0x4
ARM GAS  C:\Users\Tim\AppData\Local\Temp\ccnUoCGf.s 			page 156


 7346 066c F3       		.byte	0xf3
 7347 066d 01       		.uleb128 0x1
 7348 066e 50       		.byte	0x50
 7349 066f 9F       		.byte	0x9f
 7350 0670 6C000000 		.4byte	.LVL246
 7351 0674 74000000 		.4byte	.LVL247
 7352 0678 0100     		.2byte	0x1
 7353 067a 50       		.byte	0x50
 7354 067b 74000000 		.4byte	.LVL247
 7355 067f 84000000 		.4byte	.LVL249
 7356 0683 0400     		.2byte	0x4
 7357 0685 F3       		.byte	0xf3
 7358 0686 01       		.uleb128 0x1
 7359 0687 50       		.byte	0x50
 7360 0688 9F       		.byte	0x9f
 7361 0689 84000000 		.4byte	.LVL249
 7362 068d 88000000 		.4byte	.LVL250
 7363 0691 0100     		.2byte	0x1
 7364 0693 50       		.byte	0x50
 7365 0694 88000000 		.4byte	.LVL250
 7366 0698 9C000000 		.4byte	.LFE88
 7367 069c 0400     		.2byte	0x4
 7368 069e F3       		.byte	0xf3
 7369 069f 01       		.uleb128 0x1
 7370 06a0 50       		.byte	0x50
 7371 06a1 9F       		.byte	0x9f
 7372 06a2 00000000 		.4byte	0
 7373 06a6 00000000 		.4byte	0
 7374              	.LLST27:
 7375 06aa 00000000 		.4byte	.LVL234
 7376 06ae 1A000000 		.4byte	.LVL237
 7377 06b2 0100     		.2byte	0x1
 7378 06b4 51       		.byte	0x51
 7379 06b5 1A000000 		.4byte	.LVL237
 7380 06b9 1D000000 		.4byte	.LVL238-1
 7381 06bd 0100     		.2byte	0x1
 7382 06bf 50       		.byte	0x50
 7383 06c0 1D000000 		.4byte	.LVL238-1
 7384 06c4 58000000 		.4byte	.LVL243
 7385 06c8 0100     		.2byte	0x1
 7386 06ca 55       		.byte	0x55
 7387 06cb 58000000 		.4byte	.LVL243
 7388 06cf 5B000000 		.4byte	.LVL244-1
 7389 06d3 0100     		.2byte	0x1
 7390 06d5 50       		.byte	0x50
 7391 06d6 6C000000 		.4byte	.LVL246
 7392 06da 77000000 		.4byte	.LVL248-1
 7393 06de 0100     		.2byte	0x1
 7394 06e0 51       		.byte	0x51
 7395 06e1 77000000 		.4byte	.LVL248-1
 7396 06e5 84000000 		.4byte	.LVL249
 7397 06e9 0600     		.2byte	0x6
 7398 06eb F3       		.byte	0xf3
 7399 06ec 03       		.uleb128 0x3
 7400 06ed F5       		.byte	0xf5
 7401 06ee 01       		.uleb128 0x1
 7402 06ef 25       		.uleb128 0x25
ARM GAS  C:\Users\Tim\AppData\Local\Temp\ccnUoCGf.s 			page 157


 7403 06f0 9F       		.byte	0x9f
 7404 06f1 84000000 		.4byte	.LVL249
 7405 06f5 9C000000 		.4byte	.LFE88
 7406 06f9 0100     		.2byte	0x1
 7407 06fb 51       		.byte	0x51
 7408 06fc 00000000 		.4byte	0
 7409 0700 00000000 		.4byte	0
 7410              	.LLST28:
 7411 0704 02000000 		.4byte	.LVL235
 7412 0708 6A000000 		.4byte	.LVL245
 7413 070c 0400     		.2byte	0x4
 7414 070e 0A       		.byte	0xa
 7415 070f DC05     		.2byte	0x5dc
 7416 0711 9F       		.byte	0x9f
 7417 0712 6A000000 		.4byte	.LVL245
 7418 0716 6C000000 		.4byte	.LVL246
 7419 071a 0100     		.2byte	0x1
 7420 071c 50       		.byte	0x50
 7421 071d 6C000000 		.4byte	.LVL246
 7422 0721 88000000 		.4byte	.LVL250
 7423 0725 0400     		.2byte	0x4
 7424 0727 0A       		.byte	0xa
 7425 0728 DC05     		.2byte	0x5dc
 7426 072a 9F       		.byte	0x9f
 7427 072b 88000000 		.4byte	.LVL250
 7428 072f 9C000000 		.4byte	.LFE88
 7429 0733 0100     		.2byte	0x1
 7430 0735 50       		.byte	0x50
 7431 0736 00000000 		.4byte	0
 7432 073a 00000000 		.4byte	0
 7433              	.LLST29:
 7434 073e 34000000 		.4byte	.LVL239
 7435 0742 6C000000 		.4byte	.LVL246
 7436 0746 0100     		.2byte	0x1
 7437 0748 54       		.byte	0x54
 7438 0749 00000000 		.4byte	0
 7439 074d 00000000 		.4byte	0
 7440              	.LLST30:
 7441 0751 00000000 		.4byte	.LVL253
 7442 0755 14000000 		.4byte	.LVL254
 7443 0759 0100     		.2byte	0x1
 7444 075b 50       		.byte	0x50
 7445 075c 14000000 		.4byte	.LVL254
 7446 0760 5C010000 		.4byte	.LFE90
 7447 0764 0400     		.2byte	0x4
 7448 0766 F3       		.byte	0xf3
 7449 0767 01       		.uleb128 0x1
 7450 0768 50       		.byte	0x50
 7451 0769 9F       		.byte	0x9f
 7452 076a 00000000 		.4byte	0
 7453 076e 00000000 		.4byte	0
 7454              	.LLST31:
 7455 0772 00000000 		.4byte	.LVL253
 7456 0776 16000000 		.4byte	.LVL255
 7457 077a 0100     		.2byte	0x1
 7458 077c 51       		.byte	0x51
 7459 077d 16000000 		.4byte	.LVL255
ARM GAS  C:\Users\Tim\AppData\Local\Temp\ccnUoCGf.s 			page 158


 7460 0781 C2000000 		.4byte	.LVL285
 7461 0785 0100     		.2byte	0x1
 7462 0787 56       		.byte	0x56
 7463 0788 C2000000 		.4byte	.LVL285
 7464 078c 5C010000 		.4byte	.LFE90
 7465 0790 0600     		.2byte	0x6
 7466 0792 F3       		.byte	0xf3
 7467 0793 03       		.uleb128 0x3
 7468 0794 F5       		.byte	0xf5
 7469 0795 01       		.uleb128 0x1
 7470 0796 25       		.uleb128 0x25
 7471 0797 9F       		.byte	0x9f
 7472 0798 00000000 		.4byte	0
 7473 079c 00000000 		.4byte	0
 7474              	.LLST32:
 7475 07a0 00000000 		.4byte	.LVL253
 7476 07a4 18000000 		.4byte	.LVL256
 7477 07a8 0100     		.2byte	0x1
 7478 07aa 52       		.byte	0x52
 7479 07ab 18000000 		.4byte	.LVL256
 7480 07af D4000000 		.4byte	.LVL289
 7481 07b3 0100     		.2byte	0x1
 7482 07b5 5A       		.byte	0x5a
 7483 07b6 D4000000 		.4byte	.LVL289
 7484 07ba 5C010000 		.4byte	.LFE90
 7485 07be 0600     		.2byte	0x6
 7486 07c0 F3       		.byte	0xf3
 7487 07c1 03       		.uleb128 0x3
 7488 07c2 F5       		.byte	0xf5
 7489 07c3 02       		.uleb128 0x2
 7490 07c4 25       		.uleb128 0x25
 7491 07c5 9F       		.byte	0x9f
 7492 07c6 00000000 		.4byte	0
 7493 07ca 00000000 		.4byte	0
 7494              	.LLST33:
 7495 07ce 00000000 		.4byte	.LVL253
 7496 07d2 1B000000 		.4byte	.LVL257-1
 7497 07d6 0100     		.2byte	0x1
 7498 07d8 53       		.byte	0x53
 7499 07d9 1B000000 		.4byte	.LVL257-1
 7500 07dd 58010000 		.4byte	.LVL317
 7501 07e1 0100     		.2byte	0x1
 7502 07e3 59       		.byte	0x59
 7503 07e4 58010000 		.4byte	.LVL317
 7504 07e8 5C010000 		.4byte	.LFE90
 7505 07ec 0400     		.2byte	0x4
 7506 07ee F3       		.byte	0xf3
 7507 07ef 01       		.uleb128 0x1
 7508 07f0 53       		.byte	0x53
 7509 07f1 9F       		.byte	0x9f
 7510 07f2 00000000 		.4byte	0
 7511 07f6 00000000 		.4byte	0
 7512              	.LLST34:
 7513 07fa 00000000 		.4byte	.LVL253
 7514 07fe 58010000 		.4byte	.LVL317
 7515 0802 0200     		.2byte	0x2
 7516 0804 91       		.byte	0x91
ARM GAS  C:\Users\Tim\AppData\Local\Temp\ccnUoCGf.s 			page 159


 7517 0805 00       		.sleb128 0
 7518 0806 58010000 		.4byte	.LVL317
 7519 080a 5C010000 		.4byte	.LFE90
 7520 080e 0200     		.2byte	0x2
 7521 0810 7D       		.byte	0x7d
 7522 0811 00       		.sleb128 0
 7523 0812 00000000 		.4byte	0
 7524 0816 00000000 		.4byte	0
 7525              	.LLST35:
 7526 081a FC000000 		.4byte	.LVL297
 7527 081e 00010000 		.4byte	.LVL299
 7528 0822 0200     		.2byte	0x2
 7529 0824 30       		.byte	0x30
 7530 0825 9F       		.byte	0x9f
 7531 0826 00010000 		.4byte	.LVL299
 7532 082a 1E010000 		.4byte	.LVL305
 7533 082e 0100     		.2byte	0x1
 7534 0830 54       		.byte	0x54
 7535 0831 20010000 		.4byte	.LVL306
 7536 0835 26010000 		.4byte	.LVL307
 7537 0839 0100     		.2byte	0x1
 7538 083b 54       		.byte	0x54
 7539 083c 28010000 		.4byte	.LVL308
 7540 0840 4C010000 		.4byte	.LVL314
 7541 0844 0100     		.2byte	0x1
 7542 0846 54       		.byte	0x54
 7543 0847 4E010000 		.4byte	.LVL315
 7544 084b 52010000 		.4byte	.LVL316
 7545 084f 0100     		.2byte	0x1
 7546 0851 54       		.byte	0x54
 7547 0852 00000000 		.4byte	0
 7548 0856 00000000 		.4byte	0
 7549              	.LLST36:
 7550 085a 4A000000 		.4byte	.LVL260
 7551 085e 4E000000 		.4byte	.LVL261
 7552 0862 0100     		.2byte	0x1
 7553 0864 50       		.byte	0x50
 7554 0865 4E000000 		.4byte	.LVL261
 7555 0869 AE000000 		.4byte	.LVL279
 7556 086d 0200     		.2byte	0x2
 7557 086f 7D       		.byte	0x7d
 7558 0870 00       		.sleb128 0
 7559 0871 00000000 		.4byte	0
 7560 0875 00000000 		.4byte	0
 7561              	.LLST37:
 7562 0879 5C000000 		.4byte	.LVL263
 7563 087d 60000000 		.4byte	.LVL264
 7564 0881 0100     		.2byte	0x1
 7565 0883 50       		.byte	0x50
 7566 0884 60000000 		.4byte	.LVL264
 7567 0888 8C000000 		.4byte	.LVL272
 7568 088c 0100     		.2byte	0x1
 7569 088e 54       		.byte	0x54
 7570 088f 00000000 		.4byte	0
 7571 0893 00000000 		.4byte	0
 7572              	.LLST38:
 7573 0897 6E000000 		.4byte	.LVL266
ARM GAS  C:\Users\Tim\AppData\Local\Temp\ccnUoCGf.s 			page 160


 7574 089b 72000000 		.4byte	.LVL267
 7575 089f 0100     		.2byte	0x1
 7576 08a1 50       		.byte	0x50
 7577 08a2 72000000 		.4byte	.LVL267
 7578 08a6 A4000000 		.4byte	.LVL276
 7579 08aa 0100     		.2byte	0x1
 7580 08ac 58       		.byte	0x58
 7581 08ad 00000000 		.4byte	0
 7582 08b1 00000000 		.4byte	0
 7583              	.LLST39:
 7584 08b5 80000000 		.4byte	.LVL269
 7585 08b9 82000000 		.4byte	.LVL270
 7586 08bd 0100     		.2byte	0x1
 7587 08bf 50       		.byte	0x50
 7588 08c0 82000000 		.4byte	.LVL270
 7589 08c4 9A000000 		.4byte	.LVL274
 7590 08c8 0200     		.2byte	0x2
 7591 08ca 91       		.byte	0x91
 7592 08cb 54       		.sleb128 -44
 7593 08cc 00000000 		.4byte	0
 7594 08d0 00000000 		.4byte	0
 7595              	.LLST40:
 7596 08d4 8C000000 		.4byte	.LVL272
 7597 08d8 FE000000 		.4byte	.LVL298
 7598 08dc 0100     		.2byte	0x1
 7599 08de 54       		.byte	0x54
 7600 08df 00000000 		.4byte	0
 7601 08e3 00000000 		.4byte	0
 7602              	.LLST41:
 7603 08e7 9A000000 		.4byte	.LVL274
 7604 08eb 52010000 		.4byte	.LVL316
 7605 08ef 0200     		.2byte	0x2
 7606 08f1 91       		.byte	0x91
 7607 08f2 54       		.sleb128 -44
 7608 08f3 00000000 		.4byte	0
 7609 08f7 00000000 		.4byte	0
 7610              	.LLST42:
 7611 08fb A4000000 		.4byte	.LVL276
 7612 08ff A6000000 		.4byte	.LVL277
 7613 0903 0100     		.2byte	0x1
 7614 0905 50       		.byte	0x50
 7615 0906 A6000000 		.4byte	.LVL277
 7616 090a 00010000 		.4byte	.LVL299
 7617 090e 0100     		.2byte	0x1
 7618 0910 58       		.byte	0x58
 7619 0911 00000000 		.4byte	0
 7620 0915 00000000 		.4byte	0
 7621              	.LLST43:
 7622 0919 AE000000 		.4byte	.LVL279
 7623 091d B0000000 		.4byte	.LVL280
 7624 0921 0100     		.2byte	0x1
 7625 0923 50       		.byte	0x50
 7626 0924 B0000000 		.4byte	.LVL280
 7627 0928 28010000 		.4byte	.LVL308
 7628 092c 0200     		.2byte	0x2
 7629 092e 7D       		.byte	0x7d
 7630 092f 00       		.sleb128 0
ARM GAS  C:\Users\Tim\AppData\Local\Temp\ccnUoCGf.s 			page 161


 7631 0930 00000000 		.4byte	0
 7632 0934 00000000 		.4byte	0
 7633              	.LLST44:
 7634 0938 B8000000 		.4byte	.LVL282
 7635 093c BA000000 		.4byte	.LVL283
 7636 0940 0100     		.2byte	0x1
 7637 0942 50       		.byte	0x50
 7638 0943 BA000000 		.4byte	.LVL283
 7639 0947 00010000 		.4byte	.LVL299
 7640 094b 0100     		.2byte	0x1
 7641 094d 57       		.byte	0x57
 7642 094e 00000000 		.4byte	0
 7643 0952 00000000 		.4byte	0
 7644              	.LLST45:
 7645 0956 C2000000 		.4byte	.LVL285
 7646 095a C4000000 		.4byte	.LVL286
 7647 095e 0100     		.2byte	0x1
 7648 0960 50       		.byte	0x50
 7649 0961 C4000000 		.4byte	.LVL286
 7650 0965 28010000 		.4byte	.LVL308
 7651 0969 0100     		.2byte	0x1
 7652 096b 56       		.byte	0x56
 7653 096c 00000000 		.4byte	0
 7654 0970 00000000 		.4byte	0
 7655              	.LLST46:
 7656 0974 DE000000 		.4byte	.LVL291
 7657 0978 E0000000 		.4byte	.LVL292
 7658 097c 0100     		.2byte	0x1
 7659 097e 50       		.byte	0x50
 7660 097f E0000000 		.4byte	.LVL292
 7661 0983 52010000 		.4byte	.LVL316
 7662 0987 0200     		.2byte	0x2
 7663 0989 91       		.byte	0x91
 7664 098a 4C       		.sleb128 -52
 7665 098b 00000000 		.4byte	0
 7666 098f 00000000 		.4byte	0
 7667              	.LLST47:
 7668 0993 EE000000 		.4byte	.LVL295
 7669 0997 00010000 		.4byte	.LVL299
 7670 099b 0100     		.2byte	0x1
 7671 099d 50       		.byte	0x50
 7672 099e 00010000 		.4byte	.LVL299
 7673 09a2 52010000 		.4byte	.LVL316
 7674 09a6 0200     		.2byte	0x2
 7675 09a8 91       		.byte	0x91
 7676 09a9 50       		.sleb128 -48
 7677 09aa 00000000 		.4byte	0
 7678 09ae 00000000 		.4byte	0
 7679              	.LLST48:
 7680 09b2 F2000000 		.4byte	.LVL296
 7681 09b6 52010000 		.4byte	.LVL316
 7682 09ba 0100     		.2byte	0x1
 7683 09bc 5A       		.byte	0x5a
 7684 09bd 00000000 		.4byte	0
 7685 09c1 00000000 		.4byte	0
 7686              	.LLST49:
 7687 09c5 FC000000 		.4byte	.LVL297
ARM GAS  C:\Users\Tim\AppData\Local\Temp\ccnUoCGf.s 			page 162


 7688 09c9 12010000 		.4byte	.LVL301
 7689 09cd 0100     		.2byte	0x1
 7690 09cf 58       		.byte	0x58
 7691 09d0 12010000 		.4byte	.LVL301
 7692 09d4 14010000 		.4byte	.LVL302
 7693 09d8 0100     		.2byte	0x1
 7694 09da 50       		.byte	0x50
 7695 09db 14010000 		.4byte	.LVL302
 7696 09df 28010000 		.4byte	.LVL308
 7697 09e3 0100     		.2byte	0x1
 7698 09e5 58       		.byte	0x58
 7699 09e6 28010000 		.4byte	.LVL308
 7700 09ea 40010000 		.4byte	.LVL310
 7701 09ee 0200     		.2byte	0x2
 7702 09f0 7D       		.byte	0x7d
 7703 09f1 00       		.sleb128 0
 7704 09f2 40010000 		.4byte	.LVL310
 7705 09f6 42010000 		.4byte	.LVL311
 7706 09fa 0100     		.2byte	0x1
 7707 09fc 50       		.byte	0x50
 7708 09fd 42010000 		.4byte	.LVL311
 7709 0a01 52010000 		.4byte	.LVL316
 7710 0a05 0200     		.2byte	0x2
 7711 0a07 7D       		.byte	0x7d
 7712 0a08 00       		.sleb128 0
 7713 0a09 00000000 		.4byte	0
 7714 0a0d 00000000 		.4byte	0
 7715              	.LLST50:
 7716 0a11 FC000000 		.4byte	.LVL297
 7717 0a15 1C010000 		.4byte	.LVL304
 7718 0a19 0100     		.2byte	0x1
 7719 0a1b 57       		.byte	0x57
 7720 0a1c 1C010000 		.4byte	.LVL304
 7721 0a20 20010000 		.4byte	.LVL306
 7722 0a24 0100     		.2byte	0x1
 7723 0a26 50       		.byte	0x50
 7724 0a27 20010000 		.4byte	.LVL306
 7725 0a2b 28010000 		.4byte	.LVL308
 7726 0a2f 0100     		.2byte	0x1
 7727 0a31 57       		.byte	0x57
 7728 0a32 28010000 		.4byte	.LVL308
 7729 0a36 4A010000 		.4byte	.LVL313
 7730 0a3a 0100     		.2byte	0x1
 7731 0a3c 56       		.byte	0x56
 7732 0a3d 4A010000 		.4byte	.LVL313
 7733 0a41 4E010000 		.4byte	.LVL315
 7734 0a45 0100     		.2byte	0x1
 7735 0a47 50       		.byte	0x50
 7736 0a48 4E010000 		.4byte	.LVL315
 7737 0a4c 52010000 		.4byte	.LVL316
 7738 0a50 0100     		.2byte	0x1
 7739 0a52 56       		.byte	0x56
 7740 0a53 00000000 		.4byte	0
 7741 0a57 00000000 		.4byte	0
 7742              		.section	.debug_aranges,"",%progbits
 7743 0000 F4000000 		.4byte	0xf4
 7744 0004 0200     		.2byte	0x2
ARM GAS  C:\Users\Tim\AppData\Local\Temp\ccnUoCGf.s 			page 163


 7745 0006 00000000 		.4byte	.Ldebug_info0
 7746 000a 04       		.byte	0x4
 7747 000b 00       		.byte	0
 7748 000c 0000     		.2byte	0
 7749 000e 0000     		.2byte	0
 7750 0010 00000000 		.4byte	.LFB63
 7751 0014 0C000000 		.4byte	.LFE63-.LFB63
 7752 0018 00000000 		.4byte	.LFB64
 7753 001c 0C000000 		.4byte	.LFE64-.LFB64
 7754 0020 00000000 		.4byte	.LFB69
 7755 0024 5C000000 		.4byte	.LFE69-.LFB69
 7756 0028 00000000 		.4byte	.LFB70
 7757 002c 90000000 		.4byte	.LFE70-.LFB70
 7758 0030 00000000 		.4byte	.LFB73
 7759 0034 20000000 		.4byte	.LFE73-.LFB73
 7760 0038 00000000 		.4byte	.LFB71
 7761 003c 68000000 		.4byte	.LFE71-.LFB71
 7762 0040 00000000 		.4byte	.LFB78
 7763 0044 30000000 		.4byte	.LFE78-.LFB78
 7764 0048 00000000 		.4byte	.LFB79
 7765 004c A4000000 		.4byte	.LFE79-.LFB79
 7766 0050 00000000 		.4byte	.LFB72
 7767 0054 18000000 		.4byte	.LFE72-.LFB72
 7768 0058 00000000 		.4byte	.LFB75
 7769 005c 80000000 		.4byte	.LFE75-.LFB75
 7770 0060 00000000 		.4byte	.LFB76
 7771 0064 50000000 		.4byte	.LFE76-.LFB76
 7772 0068 00000000 		.4byte	.LFB77
 7773 006c 48010000 		.4byte	.LFE77-.LFB77
 7774 0070 00000000 		.4byte	.LFB80
 7775 0074 72000000 		.4byte	.LFE80-.LFB80
 7776 0078 00000000 		.4byte	.LFB65
 7777 007c 2C000000 		.4byte	.LFE65-.LFB65
 7778 0080 00000000 		.4byte	.LFB66
 7779 0084 24000000 		.4byte	.LFE66-.LFB66
 7780 0088 00000000 		.4byte	.LFB67
 7781 008c 64000000 		.4byte	.LFE67-.LFB67
 7782 0090 00000000 		.4byte	.LFB68
 7783 0094 48000000 		.4byte	.LFE68-.LFB68
 7784 0098 00000000 		.4byte	.LFB74
 7785 009c 04010000 		.4byte	.LFE74-.LFB74
 7786 00a0 00000000 		.4byte	.LFB81
 7787 00a4 3C000000 		.4byte	.LFE81-.LFB81
 7788 00a8 00000000 		.4byte	.LFB82
 7789 00ac 14000000 		.4byte	.LFE82-.LFB82
 7790 00b0 00000000 		.4byte	.LFB83
 7791 00b4 D4000000 		.4byte	.LFE83-.LFB83
 7792 00b8 00000000 		.4byte	.LFB84
 7793 00bc 46000000 		.4byte	.LFE84-.LFB84
 7794 00c0 00000000 		.4byte	.LFB85
 7795 00c4 0C000000 		.4byte	.LFE85-.LFB85
 7796 00c8 00000000 		.4byte	.LFB86
 7797 00cc 0C000000 		.4byte	.LFE86-.LFB86
 7798 00d0 00000000 		.4byte	.LFB87
 7799 00d4 0C000000 		.4byte	.LFE87-.LFB87
 7800 00d8 00000000 		.4byte	.LFB88
 7801 00dc 9C000000 		.4byte	.LFE88-.LFB88
ARM GAS  C:\Users\Tim\AppData\Local\Temp\ccnUoCGf.s 			page 164


 7802 00e0 00000000 		.4byte	.LFB89
 7803 00e4 10000000 		.4byte	.LFE89-.LFB89
 7804 00e8 00000000 		.4byte	.LFB90
 7805 00ec 5C010000 		.4byte	.LFE90-.LFB90
 7806 00f0 00000000 		.4byte	0
 7807 00f4 00000000 		.4byte	0
 7808              		.section	.debug_ranges,"",%progbits
 7809              	.Ldebug_ranges0:
 7810 0000 00000000 		.4byte	.LFB63
 7811 0004 0C000000 		.4byte	.LFE63
 7812 0008 00000000 		.4byte	.LFB64
 7813 000c 0C000000 		.4byte	.LFE64
 7814 0010 00000000 		.4byte	.LFB69
 7815 0014 5C000000 		.4byte	.LFE69
 7816 0018 00000000 		.4byte	.LFB70
 7817 001c 90000000 		.4byte	.LFE70
 7818 0020 00000000 		.4byte	.LFB73
 7819 0024 20000000 		.4byte	.LFE73
 7820 0028 00000000 		.4byte	.LFB71
 7821 002c 68000000 		.4byte	.LFE71
 7822 0030 00000000 		.4byte	.LFB78
 7823 0034 30000000 		.4byte	.LFE78
 7824 0038 00000000 		.4byte	.LFB79
 7825 003c A4000000 		.4byte	.LFE79
 7826 0040 00000000 		.4byte	.LFB72
 7827 0044 18000000 		.4byte	.LFE72
 7828 0048 00000000 		.4byte	.LFB75
 7829 004c 80000000 		.4byte	.LFE75
 7830 0050 00000000 		.4byte	.LFB76
 7831 0054 50000000 		.4byte	.LFE76
 7832 0058 00000000 		.4byte	.LFB77
 7833 005c 48010000 		.4byte	.LFE77
 7834 0060 00000000 		.4byte	.LFB80
 7835 0064 72000000 		.4byte	.LFE80
 7836 0068 00000000 		.4byte	.LFB65
 7837 006c 2C000000 		.4byte	.LFE65
 7838 0070 00000000 		.4byte	.LFB66
 7839 0074 24000000 		.4byte	.LFE66
 7840 0078 00000000 		.4byte	.LFB67
 7841 007c 64000000 		.4byte	.LFE67
 7842 0080 00000000 		.4byte	.LFB68
 7843 0084 48000000 		.4byte	.LFE68
 7844 0088 00000000 		.4byte	.LFB74
 7845 008c 04010000 		.4byte	.LFE74
 7846 0090 00000000 		.4byte	.LFB81
 7847 0094 3C000000 		.4byte	.LFE81
 7848 0098 00000000 		.4byte	.LFB82
 7849 009c 14000000 		.4byte	.LFE82
 7850 00a0 00000000 		.4byte	.LFB83
 7851 00a4 D4000000 		.4byte	.LFE83
 7852 00a8 00000000 		.4byte	.LFB84
 7853 00ac 46000000 		.4byte	.LFE84
 7854 00b0 00000000 		.4byte	.LFB85
 7855 00b4 0C000000 		.4byte	.LFE85
 7856 00b8 00000000 		.4byte	.LFB86
 7857 00bc 0C000000 		.4byte	.LFE86
 7858 00c0 00000000 		.4byte	.LFB87
ARM GAS  C:\Users\Tim\AppData\Local\Temp\ccnUoCGf.s 			page 165


 7859 00c4 0C000000 		.4byte	.LFE87
 7860 00c8 00000000 		.4byte	.LFB88
 7861 00cc 9C000000 		.4byte	.LFE88
 7862 00d0 00000000 		.4byte	.LFB89
 7863 00d4 10000000 		.4byte	.LFE89
 7864 00d8 00000000 		.4byte	.LFB90
 7865 00dc 5C010000 		.4byte	.LFE90
 7866 00e0 00000000 		.4byte	0
 7867 00e4 00000000 		.4byte	0
 7868              		.section	.debug_line,"",%progbits
 7869              	.Ldebug_line0:
 7870 0000 9A050000 		.section	.debug_str,"MS",%progbits,1
 7870      02000A02 
 7870      00000201 
 7870      FB0E0D00 
 7870      01010101 
 7871              	.LASF127:
 7872 0000 69676169 		.ascii	"igain_str\000"
 7872      6E5F7374 
 7872      7200
 7873              	.LASF96:
 7874 000a 52696768 		.ascii	"RightTarget\000"
 7874      74546172 
 7874      67657400 
 7875              	.LASF83:
 7876 0016 64697265 		.ascii	"direction\000"
 7876      6374696F 
 7876      6E00
 7877              	.LASF180:
 7878 0020 43616C50 		.ascii	"CalPid_LeftCalibration\000"
 7878      69645F4C 
 7878      65667443 
 7878      616C6962 
 7878      72617469 
 7879              	.LASF23:
 7880 0037 57484545 		.ascii	"WHEEL_BOTH\000"
 7880      4C5F424F 
 7880      544800
 7881              	.LASF126:
 7882 0042 70676169 		.ascii	"pgain_str\000"
 7882      6E5F7374 
 7882      7200
 7883              	.LASF101:
 7884 004c 48616E64 		.ascii	"HandleError\000"
 7884      6C654572 
 7884      726F7200 
 7885              	.LASF70:
 7886 0058 70617261 		.ascii	"params\000"
 7886      6D7300
 7887              	.LASF63:
 7888 005f 53544152 		.ascii	"START_FUNC_TYPE\000"
 7888      545F4655 
 7888      4E435F54 
 7888      59504500 
 7889              	.LASF125:
 7890 006f 6F757470 		.ascii	"output\000"
 7890      757400
ARM GAS  C:\Users\Tim\AppData\Local\Temp\ccnUoCGf.s 			page 166


 7891              	.LASF115:
 7892 0076 436C6561 		.ascii	"ClearCalibrationStatusBit\000"
 7892      7243616C 
 7892      69627261 
 7892      74696F6E 
 7892      53746174 
 7893              	.LASF199:
 7894 0090 43616C50 		.ascii	"CalPid_Init\000"
 7894      69645F49 
 7894      6E697400 
 7895              	.LASF165:
 7896 009c 6277645F 		.ascii	"bwd_value\000"
 7896      76616C75 
 7896      6500
 7897              	.LASF39:
 7898 00a6 5F656570 		.ascii	"_eeprom_tag\000"
 7898      726F6D5F 
 7898      74616700 
 7899              	.LASF121:
 7900 00b2 62756666 		.ascii	"buffer\000"
 7900      657200
 7901              	.LASF172:
 7902 00b9 63616C5F 		.ascii	"cal_stage_to_string\000"
 7902      73746167 
 7902      655F746F 
 7902      5F737472 
 7902      696E6700 
 7903              	.LASF55:
 7904 00cd 43414C5F 		.ascii	"CAL_STOP_STATE\000"
 7904      53544F50 
 7904      5F535441 
 7904      544500
 7905              	.LASF34:
 7906 00dc 43414C5F 		.ascii	"CAL_DATA_TYPE\000"
 7906      44415441 
 7906      5F545950 
 7906      4500
 7907              	.LASF9:
 7908 00ea 756E7369 		.ascii	"unsigned int\000"
 7908      676E6564 
 7908      20696E74 
 7908      00
 7909              	.LASF123:
 7910 00f7 43616C5F 		.ascii	"Cal_PrintGains\000"
 7910      5072696E 
 7910      74476169 
 7910      6E7300
 7911              	.LASF98:
 7912 0106 44697370 		.ascii	"DisplayValMenu\000"
 7912      6C617956 
 7912      616C4D65 
 7912      6E7500
 7913              	.LASF129:
 7914 0115 50726F63 		.ascii	"ProcessSettingsCmd\000"
 7914      65737353 
 7914      65747469 
 7914      6E677343 
ARM GAS  C:\Users\Tim\AppData\Local\Temp\ccnUoCGf.s 			page 167


 7914      6D6400
 7915              	.LASF133:
 7916 0128 43616C5F 		.ascii	"Cal_ReadResponse\000"
 7916      52656164 
 7916      52657370 
 7916      6F6E7365 
 7916      00
 7917              	.LASF85:
 7918 0139 43414C5F 		.ascii	"CAL_PID_PARAMS\000"
 7918      5049445F 
 7918      50415241 
 7918      4D5300
 7919              	.LASF24:
 7920 0148 57484545 		.ascii	"WHEEL_TYPE\000"
 7920      4C5F5459 
 7920      504500
 7921              	.LASF12:
 7922 0153 5F5F696E 		.ascii	"__int32_t\000"
 7922      7433325F 
 7922      7400
 7923              	.LASF17:
 7924 015d 696E7431 		.ascii	"int16\000"
 7924      3600
 7925              	.LASF48:
 7926 0163 72696768 		.ascii	"right_motor_fwd\000"
 7926      745F6D6F 
 7926      746F725F 
 7926      66776400 
 7927              	.LASF69:
 7928 0173 73746167 		.ascii	"stage\000"
 7928      6500
 7929              	.LASF22:
 7930 0179 57484545 		.ascii	"WHEEL_RIGHT\000"
 7930      4C5F5249 
 7930      47485400 
 7931              	.LASF93:
 7932 0185 55495F53 		.ascii	"UI_STATE_EXIT\000"
 7932      54415445 
 7932      5F455849 
 7932      5400
 7933              	.LASF205:
 7934 0193 6D656D73 		.ascii	"memset\000"
 7934      657400
 7935              	.LASF54:
 7936 019a 43414C5F 		.ascii	"CAL_RUNNING_STATE\000"
 7936      52554E4E 
 7936      494E475F 
 7936      53544154 
 7936      4500
 7937              	.LASF102:
 7938 01ac 63616C76 		.ascii	"calval\000"
 7938      616C00
 7939              	.LASF43:
 7940 01b3 6C656674 		.ascii	"left_gains\000"
 7940      5F676169 
 7940      6E7300
 7941              	.LASF183:
ARM GAS  C:\Users\Tim\AppData\Local\Temp\ccnUoCGf.s 			page 168


 7942 01be 43616C50 		.ascii	"CalPid_RightValidation\000"
 7942      69645F52 
 7942      69676874 
 7942      56616C69 
 7942      64617469 
 7943              	.LASF167:
 7944 01d5 61637469 		.ascii	"active_cal\000"
 7944      76655F63 
 7944      616C00
 7945              	.LASF73:
 7946 01e0 75706461 		.ascii	"update\000"
 7946      746500
 7947              	.LASF148:
 7948 01e7 75707065 		.ascii	"upper_limit\000"
 7948      725F6C69 
 7948      6D697400 
 7949              	.LASF75:
 7950 01f3 72657375 		.ascii	"results\000"
 7950      6C747300 
 7951              	.LASF194:
 7952 01fb 4E767374 		.ascii	"Nvstore_WriteUint16\000"
 7952      6F72655F 
 7952      57726974 
 7952      6555696E 
 7952      74313600 
 7953              	.LASF141:
 7954 020f 77686565 		.ascii	"wheel\000"
 7954      6C00
 7955              	.LASF177:
 7956 0215 57484545 		.ascii	"WHEEL_DIR_TO_CAL_DATA\000"
 7956      4C5F4449 
 7956      525F544F 
 7956      5F43414C 
 7956      5F444154 
 7957              	.LASF62:
 7958 022b 494E4954 		.ascii	"INIT_FUNC_TYPE\000"
 7958      5F46554E 
 7958      435F5459 
 7958      504500
 7959              	.LASF25:
 7960 023a 4449525F 		.ascii	"DIR_FORWARD\000"
 7960      464F5257 
 7960      41524400 
 7961              	.LASF100:
 7962 0246 44697370 		.ascii	"DisplayMenu\000"
 7962      6C61794D 
 7962      656E7500 
 7963              	.LASF164:
 7964 0252 6677645F 		.ascii	"fwd_value\000"
 7964      76616C75 
 7964      6500
 7965              	.LASF56:
 7966 025c 43414C5F 		.ascii	"CAL_RESULTS_STATE\000"
 7966      52455355 
 7966      4C54535F 
 7966      53544154 
 7966      4500
ARM GAS  C:\Users\Tim\AppData\Local\Temp\ccnUoCGf.s 			page 169


 7967              	.LASF26:
 7968 026e 4449525F 		.ascii	"DIR_BACKWARD\000"
 7968      4241434B 
 7968      57415244 
 7968      00
 7969              	.LASF74:
 7970 027b 73746F70 		.ascii	"stop\000"
 7970      00
 7971              	.LASF0:
 7972 0280 666C6F61 		.ascii	"float\000"
 7972      7400
 7973              	.LASF41:
 7974 0286 63686563 		.ascii	"checksum\000"
 7974      6B73756D 
 7974      00
 7975              	.LASF18:
 7976 028f 696E7433 		.ascii	"int32\000"
 7976      3200
 7977              	.LASF136:
 7978 0295 43616C5F 		.ascii	"Cal_LeftGetPidGains\000"
 7978      4C656674 
 7978      47657450 
 7978      69644761 
 7978      696E7300 
 7979              	.LASF103:
 7980 02a9 50726F63 		.ascii	"Process\000"
 7980      65737300 
 7981              	.LASF66:
 7982 02b1 52455355 		.ascii	"RESULTS_FUNC_TYPE\000"
 7982      4C54535F 
 7982      46554E43 
 7982      5F545950 
 7982      4500
 7983              	.LASF105:
 7984 02c3 72657375 		.ascii	"result\000"
 7984      6C7400
 7985              	.LASF131:
 7986 02ca 43616C5F 		.ascii	"Cal_Start\000"
 7986      53746172 
 7986      7400
 7987              	.LASF8:
 7988 02d4 6C6F6E67 		.ascii	"long long unsigned int\000"
 7988      206C6F6E 
 7988      6720756E 
 7988      7369676E 
 7988      65642069 
 7989              	.LASF186:
 7990 02eb 666F726D 		.ascii	"formatted_string\000"
 7990      61747465 
 7990      645F7374 
 7990      72696E67 
 7990      00
 7991              	.LASF61:
 7992 02fc 43414C5F 		.ascii	"CAL_STAGE_TYPE\000"
 7992      53544147 
 7992      455F5459 
 7992      504500
ARM GAS  C:\Users\Tim\AppData\Local\Temp\ccnUoCGf.s 			page 170


 7993              	.LASF134:
 7994 030b 64696769 		.ascii	"digits\000"
 7994      747300
 7995              	.LASF143:
 7996 0312 705F6361 		.ascii	"p_cal_data\000"
 7996      6C5F6461 
 7996      746100
 7997              	.LASF32:
 7998 031d 70776D5F 		.ascii	"pwm_data\000"
 7998      64617461 
 7998      00
 7999              	.LASF31:
 8000 0326 6370735F 		.ascii	"cps_data\000"
 8000      64617461 
 8000      00
 8001              	.LASF113:
 8002 032f 6C6F7765 		.ascii	"lower\000"
 8002      7200
 8003              	.LASF150:
 8004 0335 6261636B 		.ascii	"backward_profile\000"
 8004      77617264 
 8004      5F70726F 
 8004      66696C65 
 8004      00
 8005              	.LASF108:
 8006 0346 76616C75 		.ascii	"value\000"
 8006      6500
 8007              	.LASF170:
 8008 034c 72696768 		.ascii	"right_cmd_velocity\000"
 8008      745F636D 
 8008      645F7665 
 8008      6C6F6369 
 8008      747900
 8009              	.LASF179:
 8010 035f 43616C4D 		.ascii	"CalMotor_Validation\000"
 8010      6F746F72 
 8010      5F56616C 
 8010      69646174 
 8010      696F6E00 
 8011              	.LASF190:
 8012 0373 5365725F 		.ascii	"Ser_WriteByte\000"
 8012      57726974 
 8012      65427974 
 8012      6500
 8013              	.LASF45:
 8014 0381 72657665 		.ascii	"reversed_32\000"
 8014      72736564 
 8014      5F333200 
 8015              	.LASF120:
 8016 038d 70776D5F 		.ascii	"pwm_samples\000"
 8016      73616D70 
 8016      6C657300 
 8017              	.LASF112:
 8018 0399 64617461 		.ascii	"data_size\000"
 8018      5F73697A 
 8018      6500
 8019              	.LASF35:
ARM GAS  C:\Users\Tim\AppData\Local\Temp\ccnUoCGf.s 			page 171


 8020 03a3 5F43414C 		.ascii	"_CAL_DATA_TYPE\000"
 8020      5F444154 
 8020      415F5459 
 8020      504500
 8021              	.LASF188:
 8022 03b2 5365725F 		.ascii	"Ser_PutString\000"
 8022      50757453 
 8022      7472696E 
 8022      6700
 8023              	.LASF156:
 8024 03c0 6261636B 		.ascii	"backward_cps_max\000"
 8024      77617264 
 8024      5F637073 
 8024      5F6D6178 
 8024      00
 8025              	.LASF116:
 8026 03d1 53657443 		.ascii	"SetCalibrationStatusBit\000"
 8026      616C6962 
 8026      72617469 
 8026      6F6E5374 
 8026      61747573 
 8027              	.LASF111:
 8028 03e9 43707354 		.ascii	"CpsToPwm\000"
 8028      6F50776D 
 8028      00
 8029              	.LASF159:
 8030 03f2 6277645F 		.ascii	"bwd_cps_start\000"
 8030      6370735F 
 8030      73746172 
 8030      7400
 8031              	.LASF138:
 8032 0400 43616C5F 		.ascii	"Cal_SetLeftRightVelocity\000"
 8032      5365744C 
 8032      65667452 
 8032      69676874 
 8032      56656C6F 
 8033              	.LASF79:
 8034 0419 5049445F 		.ascii	"PID_TYPE\000"
 8034      54595045 
 8034      00
 8035              	.LASF160:
 8036 0422 6277645F 		.ascii	"bwd_cps_end\000"
 8036      6370735F 
 8036      656E6400 
 8037              	.LASF36:
 8038 042e 5F63616C 		.ascii	"_cal_pid_tag\000"
 8038      5F706964 
 8038      5F746167 
 8038      00
 8039              	.LASF157:
 8040 043b 6677645F 		.ascii	"fwd_cps_start\000"
 8040      6370735F 
 8040      73746172 
 8040      7400
 8041              	.LASF193:
 8042 0449 496E7465 		.ascii	"Interpolate\000"
 8042      72706F6C 
ARM GAS  C:\Users\Tim\AppData\Local\Temp\ccnUoCGf.s 			page 172


 8042      61746500 
 8043              	.LASF84:
 8044 0455 72756E5F 		.ascii	"run_time\000"
 8044      74696D65 
 8044      00
 8045              	.LASF151:
 8046 045e 6C656674 		.ascii	"left_forward_cps_max\000"
 8046      5F666F72 
 8046      77617264 
 8046      5F637073 
 8046      5F6D6178 
 8047              	.LASF47:
 8048 0473 6C656674 		.ascii	"left_motor_bwd\000"
 8048      5F6D6F74 
 8048      6F725F62 
 8048      776400
 8049              	.LASF152:
 8050 0482 72696768 		.ascii	"right_forward_cps_max\000"
 8050      745F666F 
 8050      72776172 
 8050      645F6370 
 8050      735F6D61 
 8051              	.LASF64:
 8052 0498 55504441 		.ascii	"UPDATE_FUNC_TYPE\000"
 8052      54455F46 
 8052      554E435F 
 8052      54595045 
 8052      00
 8053              	.LASF60:
 8054 04a9 43414C5F 		.ascii	"CAL_VALIDATE_STAGE\000"
 8054      56414C49 
 8054      44415445 
 8054      5F535441 
 8054      474500
 8055              	.LASF137:
 8056 04bc 43616C5F 		.ascii	"Cal_RightGetPidGains\000"
 8056      52696768 
 8056      74476574 
 8056      50696447 
 8056      61696E73 
 8057              	.LASF162:
 8058 04d1 6277645F 		.ascii	"bwd_cps_delta\000"
 8058      6370735F 
 8058      64656C74 
 8058      6100
 8059              	.LASF11:
 8060 04df 63686172 		.ascii	"char\000"
 8060      00
 8061              	.LASF86:
 8062 04e4 5F6C696E 		.ascii	"_linear_params\000"
 8062      6561725F 
 8062      70617261 
 8062      6D7300
 8063              	.LASF30:
 8064 04f3 6370735F 		.ascii	"cps_scale\000"
 8064      7363616C 
 8064      6500
ARM GAS  C:\Users\Tim\AppData\Local\Temp\ccnUoCGf.s 			page 173


 8065              	.LASF145:
 8066 04fd 43616C5F 		.ascii	"Cal_CalcTriangularProfile\000"
 8066      43616C63 
 8066      54726961 
 8066      6E67756C 
 8066      61725072 
 8067              	.LASF161:
 8068 0517 6677645F 		.ascii	"fwd_cps_delta\000"
 8068      6370735F 
 8068      64656C74 
 8068      6100
 8069              	.LASF78:
 8070 0525 5049445F 		.ascii	"PID_TYPE_RIGHT\000"
 8070      54595045 
 8070      5F524947 
 8070      485400
 8071              	.LASF15:
 8072 0534 75696E74 		.ascii	"uint16\000"
 8072      313600
 8073              	.LASF107:
 8074 053b 47657443 		.ascii	"GetCommand\000"
 8074      6F6D6D61 
 8074      6E6400
 8075              	.LASF82:
 8076 0546 7069645F 		.ascii	"pid_type\000"
 8076      74797065 
 8076      00
 8077              	.LASF42:
 8078 054f 72657365 		.ascii	"reserved_4\000"
 8078      72766564 
 8078      5F3400
 8079              	.LASF95:
 8080 055a 4C656674 		.ascii	"LeftTarget\000"
 8080      54617267 
 8080      657400
 8081              	.LASF40:
 8082 0565 73746174 		.ascii	"status\000"
 8082      757300
 8083              	.LASF163:
 8084 056c 6D69645F 		.ascii	"mid_sample_offset\000"
 8084      73616D70 
 8084      6C655F6F 
 8084      66667365 
 8084      7400
 8085              	.LASF50:
 8086 057e 43414C5F 		.ascii	"CAL_EEPROM_TYPE\000"
 8086      45455052 
 8086      4F4D5F54 
 8086      59504500 
 8087              	.LASF104:
 8088 058e 6F757462 		.ascii	"outbuf\000"
 8088      756600
 8089              	.LASF97:
 8090 0595 44697370 		.ascii	"DisplayCalMenu\000"
 8090      6C617943 
 8090      616C4D65 
 8090      6E7500
ARM GAS  C:\Users\Tim\AppData\Local\Temp\ccnUoCGf.s 			page 174


 8091              	.LASF185:
 8092 05a4 43616C41 		.ascii	"CalAng_Calibration\000"
 8092      6E675F43 
 8092      616C6962 
 8092      72617469 
 8092      6F6E00
 8093              	.LASF80:
 8094 05b7 63616C5F 		.ascii	"cal_pid_params_tag\000"
 8094      7069645F 
 8094      70617261 
 8094      6D735F74 
 8094      616700
 8095              	.LASF146:
 8096 05ca 6E756D5F 		.ascii	"num_points\000"
 8096      706F696E 
 8096      747300
 8097              	.LASF27:
 8098 05d5 4449525F 		.ascii	"DIR_TYPE\000"
 8098      54595045 
 8098      00
 8099              	.LASF140:
 8100 05de 72696768 		.ascii	"right\000"
 8100      7400
 8101              	.LASF7:
 8102 05e4 6C6F6E67 		.ascii	"long long int\000"
 8102      206C6F6E 
 8102      6720696E 
 8102      7400
 8103              	.LASF46:
 8104 05f2 6C656674 		.ascii	"left_motor_fwd\000"
 8104      5F6D6F74 
 8104      6F725F66 
 8104      776400
 8105              	.LASF58:
 8106 0601 43414C5F 		.ascii	"CAL_STATE_TYPE\000"
 8106      53544154 
 8106      455F5459 
 8106      504500
 8107              	.LASF20:
 8108 0610 4745545F 		.ascii	"GET_TARGET_FUNC_TYPE\000"
 8108      54415247 
 8108      45545F46 
 8108      554E435F 
 8108      54595045 
 8109              	.LASF147:
 8110 0625 6C6F7765 		.ascii	"lower_limit\000"
 8110      725F6C69 
 8110      6D697400 
 8111              	.LASF49:
 8112 0631 72696768 		.ascii	"right_motor_bwd\000"
 8112      745F6D6F 
 8112      746F725F 
 8112      62776400 
 8113              	.LASF44:
 8114 0641 72696768 		.ascii	"right_gains\000"
 8114      745F6761 
 8114      696E7300 
ARM GAS  C:\Users\Tim\AppData\Local\Temp\ccnUoCGf.s 			page 175


 8115              	.LASF209:
 8116 064d 705F7069 		.ascii	"p_pid_params\000"
 8116      645F7061 
 8116      72616D73 
 8116      00
 8117              	.LASF122:
 8118 065a 6C616265 		.ascii	"label_str\000"
 8118      6C5F7374 
 8118      7200
 8119              	.LASF195:
 8120 0664 4932635F 		.ascii	"I2c_ClearCalibrationStatusBit\000"
 8120      436C6561 
 8120      7243616C 
 8120      69627261 
 8120      74696F6E 
 8121              	.LASF28:
 8122 0682 6370735F 		.ascii	"cps_min\000"
 8122      6D696E00 
 8123              	.LASF57:
 8124 068a 43414C5F 		.ascii	"CAL_DONE_STATE\000"
 8124      444F4E45 
 8124      5F535441 
 8124      544500
 8125              	.LASF110:
 8126 0699 47657456 		.ascii	"GetValidation\000"
 8126      616C6964 
 8126      6174696F 
 8126      6E00
 8127              	.LASF59:
 8128 06a7 43414C5F 		.ascii	"CAL_CALIBRATE_STAGE\000"
 8128      43414C49 
 8128      42524154 
 8128      455F5354 
 8128      41474500 
 8129              	.LASF181:
 8130 06bb 43616C50 		.ascii	"CalPid_RightCalibration\000"
 8130      69645F52 
 8130      69676874 
 8130      43616C69 
 8130      62726174 
 8131              	.LASF37:
 8132 06d3 72657665 		.ascii	"reversed\000"
 8132      72736564 
 8132      00
 8133              	.LASF128:
 8134 06dc 64676169 		.ascii	"dgain_str\000"
 8134      6E5F7374 
 8134      7200
 8135              	.LASF207:
 8136 06e6 2E2E5C73 		.ascii	"..\\source\\cal.c\000"
 8136      6F757263 
 8136      655C6361 
 8136      6C2E6300 
 8137              	.LASF16:
 8138 06f6 75696E74 		.ascii	"uint32\000"
 8138      333200
 8139              	.LASF184:
ARM GAS  C:\Users\Tim\AppData\Local\Temp\ccnUoCGf.s 			page 176


 8140 06fd 43616C4C 		.ascii	"CalLin_Validation\000"
 8140      696E5F56 
 8140      616C6964 
 8140      6174696F 
 8140      6E00
 8141              	.LASF51:
 8142 070f 50574D5F 		.ascii	"PWM_TYPE\000"
 8142      54595045 
 8142      00
 8143              	.LASF192:
 8144 0718 73707269 		.ascii	"sprintf\000"
 8144      6E746600 
 8145              	.LASF90:
 8146 0720 55495F53 		.ascii	"UI_STATE_CALIBRATION\000"
 8146      54415445 
 8146      5F43414C 
 8146      49425241 
 8146      54494F4E 
 8147              	.LASF200:
 8148 0735 43616C4C 		.ascii	"CalLin_Init\000"
 8148      696E5F49 
 8148      6E697400 
 8149              	.LASF203:
 8150 0741 5365725F 		.ascii	"Ser_Update\000"
 8150      55706461 
 8150      746500
 8151              	.LASF173:
 8152 074c 63616C5F 		.ascii	"cal_state_to_string\000"
 8152      73746174 
 8152      655F746F 
 8152      5F737472 
 8152      696E6700 
 8153              	.LASF38:
 8154 0760 43414C5F 		.ascii	"CAL_PID_TYPE\000"
 8154      5049445F 
 8154      54595045 
 8154      00
 8155              	.LASF92:
 8156 076d 55495F53 		.ascii	"UI_STATE_SETTINGS\000"
 8156      54415445 
 8156      5F534554 
 8156      54494E47 
 8156      5300
 8157              	.LASF210:
 8158 077f 43616C5F 		.ascii	"Cal_CpsToPwm\000"
 8158      43707354 
 8158      6F50776D 
 8158      00
 8159              	.LASF132:
 8160 078c 43616C5F 		.ascii	"Cal_Update\000"
 8160      55706461 
 8160      746500
 8161              	.LASF168:
 8162 0797 61637469 		.ascii	"active_val\000"
 8162      76655F76 
 8162      616C00
 8163              	.LASF174:
ARM GAS  C:\Users\Tim\AppData\Local\Temp\ccnUoCGf.s 			page 177


 8164 07a2 705F6361 		.ascii	"p_cal_eeprom\000"
 8164      6C5F6565 
 8164      70726F6D 
 8164      00
 8165              	.LASF3:
 8166 07af 73686F72 		.ascii	"short int\000"
 8166      7420696E 
 8166      7400
 8167              	.LASF175:
 8168 07b9 43616C5F 		.ascii	"Cal_LeftTarget\000"
 8168      4C656674 
 8168      54617267 
 8168      657400
 8169              	.LASF5:
 8170 07c8 6C6F6E67 		.ascii	"long int\000"
 8170      20696E74 
 8170      00
 8171              	.LASF171:
 8172 07d1 49544D5F 		.ascii	"ITM_RxBuffer\000"
 8172      52784275 
 8172      66666572 
 8172      00
 8173              	.LASF158:
 8174 07de 6677645F 		.ascii	"fwd_cps_end\000"
 8174      6370735F 
 8174      656E6400 
 8175              	.LASF87:
 8176 07ea 64697374 		.ascii	"distance\000"
 8176      616E6365 
 8176      00
 8177              	.LASF198:
 8178 07f3 43616C4D 		.ascii	"CalMotor_Init\000"
 8178      6F746F72 
 8178      5F496E69 
 8178      7400
 8179              	.LASF142:
 8180 0801 73656E64 		.ascii	"send_once\000"
 8180      5F6F6E63 
 8180      6500
 8181              	.LASF91:
 8182 080b 55495F53 		.ascii	"UI_STATE_VALIDATION\000"
 8182      54415445 
 8182      5F56414C 
 8182      49444154 
 8182      494F4E00 
 8183              	.LASF191:
 8184 081f 42696E61 		.ascii	"BinaryRangeSearch\000"
 8184      72795261 
 8184      6E676553 
 8184      65617263 
 8184      6800
 8185              	.LASF65:
 8186 0831 53544F50 		.ascii	"STOP_FUNC_TYPE\000"
 8186      5F46554E 
 8186      435F5459 
 8186      504500
 8187              	.LASF139:
ARM GAS  C:\Users\Tim\AppData\Local\Temp\ccnUoCGf.s 			page 178


 8188 0840 6C656674 		.ascii	"left\000"
 8188      00
 8189              	.LASF81:
 8190 0845 6E616D65 		.ascii	"name\000"
 8190      00
 8191              	.LASF72:
 8192 084a 73746172 		.ascii	"start\000"
 8192      7400
 8193              	.LASF89:
 8194 0850 55495F53 		.ascii	"UI_STATE_INIT\000"
 8194      54415445 
 8194      5F494E49 
 8194      5400
 8195              	.LASF178:
 8196 085e 43616C4D 		.ascii	"CalMotor_Calibration\000"
 8196      6F746F72 
 8196      5F43616C 
 8196      69627261 
 8196      74696F6E 
 8197              	.LASF196:
 8198 0873 4932635F 		.ascii	"I2c_SetCalibrationStatusBit\000"
 8198      53657443 
 8198      616C6962 
 8198      72617469 
 8198      6F6E5374 
 8199              	.LASF154:
 8200 088f 72696768 		.ascii	"right_backward_cps_min\000"
 8200      745F6261 
 8200      636B7761 
 8200      72645F63 
 8200      70735F6D 
 8201              	.LASF71:
 8202 08a6 696E6974 		.ascii	"init\000"
 8202      00
 8203              	.LASF144:
 8204 08ab 43616C5F 		.ascii	"Cal_Clear\000"
 8204      436C6561 
 8204      7200
 8205              	.LASF106:
 8206 08b5 44697370 		.ascii	"DisplayExit\000"
 8206      6C617945 
 8206      78697400 
 8207              	.LASF10:
 8208 08c1 73697A65 		.ascii	"sizetype\000"
 8208      74797065 
 8208      00
 8209              	.LASF6:
 8210 08ca 6C6F6E67 		.ascii	"long unsigned int\000"
 8210      20756E73 
 8210      69676E65 
 8210      6420696E 
 8210      7400
 8211              	.LASF153:
 8212 08dc 6C656674 		.ascii	"left_backward_cps_min\000"
 8212      5F626163 
 8212      6B776172 
 8212      645F6370 
ARM GAS  C:\Users\Tim\AppData\Local\Temp\ccnUoCGf.s 			page 179


 8212      735F6D69 
 8213              	.LASF119:
 8214 08f2 6370735F 		.ascii	"cps_samples\000"
 8214      73616D70 
 8214      6C657300 
 8215              	.LASF13:
 8216 08fe 696E7433 		.ascii	"int32_t\000"
 8216      325F7400 
 8217              	.LASF197:
 8218 0906 66746F61 		.ascii	"ftoa\000"
 8218      00
 8219              	.LASF88:
 8220 090b 43414C5F 		.ascii	"CAL_LIN_PARAMS\000"
 8220      4C494E5F 
 8220      50415241 
 8220      4D5300
 8221              	.LASF2:
 8222 091a 756E7369 		.ascii	"unsigned char\000"
 8222      676E6564 
 8222      20636861 
 8222      7200
 8223              	.LASF182:
 8224 0928 43616C50 		.ascii	"CalPid_LeftValidation\000"
 8224      69645F4C 
 8224      65667456 
 8224      616C6964 
 8224      6174696F 
 8225              	.LASF201:
 8226 093e 4932635F 		.ascii	"I2c_SetCalibrationStatus\000"
 8226      53657443 
 8226      616C6962 
 8226      72617469 
 8226      6F6E5374 
 8227              	.LASF206:
 8228 0957 474E5520 		.ascii	"GNU C 4.9.3 20150303 (release) [ARM/embedded-4_9-br"
 8228      4320342E 
 8228      392E3320 
 8228      32303135 
 8228      30333033 
 8229 098a 616E6368 		.ascii	"anch revision 221220] -mcpu=cortex-m3 -mthumb -g -O"
 8229      20726576 
 8229      6973696F 
 8229      6E203232 
 8229      31323230 
 8230 09bd 67202D66 		.ascii	"g -ffunction-sections -ffat-lto-objects\000"
 8230      66756E63 
 8230      74696F6E 
 8230      2D736563 
 8230      74696F6E 
 8231              	.LASF114:
 8232 09e5 75707065 		.ascii	"upper\000"
 8232      7200
 8233              	.LASF187:
 8234 09eb 64656275 		.ascii	"debug_control_enabled\000"
 8234      675F636F 
 8234      6E74726F 
 8234      6C5F656E 
ARM GAS  C:\Users\Tim\AppData\Local\Temp\ccnUoCGf.s 			page 180


 8234      61626C65 
 8235              	.LASF68:
 8236 0a01 73746174 		.ascii	"state\000"
 8236      6500
 8237              	.LASF118:
 8238 0a07 6C616265 		.ascii	"label\000"
 8238      6C00
 8239              	.LASF53:
 8240 0a0d 43414C5F 		.ascii	"CAL_START_STATE\000"
 8240      53544152 
 8240      545F5354 
 8240      41544500 
 8241              	.LASF189:
 8242 0a1d 5365725F 		.ascii	"Ser_ReadByte\000"
 8242      52656164 
 8242      42797465 
 8242      00
 8243              	.LASF77:
 8244 0a2a 5049445F 		.ascii	"PID_TYPE_LEFT\000"
 8244      54595045 
 8244      5F4C4546 
 8244      5400
 8245              	.LASF21:
 8246 0a38 57484545 		.ascii	"WHEEL_LEFT\000"
 8246      4C5F4C45 
 8246      465400
 8247              	.LASF1:
 8248 0a43 7369676E 		.ascii	"signed char\000"
 8248      65642063 
 8248      68617200 
 8249              	.LASF149:
 8250 0a4f 666F7277 		.ascii	"forward_profile\000"
 8250      6172645F 
 8250      70726F66 
 8250      696C6500 
 8251              	.LASF4:
 8252 0a5f 73686F72 		.ascii	"short unsigned int\000"
 8252      7420756E 
 8252      7369676E 
 8252      65642069 
 8252      6E7400
 8253              	.LASF204:
 8254 0a72 61746F66 		.ascii	"atof\000"
 8254      00
 8255              	.LASF76:
 8256 0a77 43414C49 		.ascii	"CALIBRATION_TYPE\000"
 8256      42524154 
 8256      494F4E5F 
 8256      54595045 
 8256      00
 8257              	.LASF94:
 8258 0a88 55495F53 		.ascii	"UI_STATE_ENUM\000"
 8258      54415445 
 8258      5F454E55 
 8258      4D00
 8259              	.LASF33:
 8260 0a96 72657365 		.ascii	"reserved\000"
ARM GAS  C:\Users\Tim\AppData\Local\Temp\ccnUoCGf.s 			page 181


 8260      72766564 
 8260      00
 8261              	.LASF169:
 8262 0a9f 6C656674 		.ascii	"left_cmd_velocity\000"
 8262      5F636D64 
 8262      5F76656C 
 8262      6F636974 
 8262      7900
 8263              	.LASF14:
 8264 0ab1 75696E74 		.ascii	"uint8\000"
 8264      3800
 8265              	.LASF19:
 8266 0ab7 646F7562 		.ascii	"double\000"
 8266      6C6500
 8267              	.LASF109:
 8268 0abe 47657443 		.ascii	"GetCalibration\000"
 8268      616C6962 
 8268      72617469 
 8268      6F6E00
 8269              	.LASF155:
 8270 0acd 666F7277 		.ascii	"forward_cps_max\000"
 8270      6172645F 
 8270      6370735F 
 8270      6D617800 
 8271              	.LASF208:
 8272 0add 463A5C64 		.ascii	"F:\\d_drive\\projects\\ArloBot\\arlobot_freesoc\\fr"
 8272      5F647269 
 8272      76655C70 
 8272      726F6A65 
 8272      6374735C 
 8273 0b0b 6565736F 		.ascii	"eesoc.cydsn\000"
 8273      632E6379 
 8273      64736E00 
 8274              	.LASF135:
 8275 0b17 696E6465 		.ascii	"index\000"
 8275      7800
 8276              	.LASF99:
 8277 0b1d 44697370 		.ascii	"DisplaySettingsMenu\000"
 8277      6C617953 
 8277      65747469 
 8277      6E67734D 
 8277      656E7500 
 8278              	.LASF29:
 8279 0b31 6370735F 		.ascii	"cps_max\000"
 8279      6D617800 
 8280              	.LASF130:
 8281 0b39 43616C5F 		.ascii	"Cal_Init\000"
 8281      496E6974 
 8281      00
 8282              	.LASF52:
 8283 0b42 43414C5F 		.ascii	"CAL_INIT_STATE\000"
 8283      494E4954 
 8283      5F535441 
 8283      544500
 8284              	.LASF202:
 8285 0b51 436F6E74 		.ascii	"Control_OverrideDebug\000"
 8285      726F6C5F 
ARM GAS  C:\Users\Tim\AppData\Local\Temp\ccnUoCGf.s 			page 182


 8285      4F766572 
 8285      72696465 
 8285      44656275 
 8286              	.LASF176:
 8287 0b67 43616C5F 		.ascii	"Cal_RightTarget\000"
 8287      52696768 
 8287      74546172 
 8287      67657400 
 8288              	.LASF67:
 8289 0b77 63616C69 		.ascii	"calibration_type_tag\000"
 8289      62726174 
 8289      696F6E5F 
 8289      74797065 
 8289      5F746167 
 8290              	.LASF117:
 8291 0b8c 43616C5F 		.ascii	"Cal_PrintSamples\000"
 8291      5072696E 
 8291      7453616D 
 8291      706C6573 
 8291      00
 8292              	.LASF124:
 8293 0b9d 6761696E 		.ascii	"gains\000"
 8293      7300
 8294              	.LASF166:
 8295 0ba3 75695F73 		.ascii	"ui_state\000"
 8295      74617465 
 8295      00
 8296              		.ident	"GCC: (GNU Tools for ARM Embedded Processors) 4.9.3 20150303 (release) [ARM/embedded-4_9-br
