ARM GAS  C:\Users\tslator\AppData\Local\Temp\ccc8OXeR.s 			page 1


   1              		.syntax unified
   2              		.cpu cortex-m3
   3              		.fpu softvfp
   4              		.eabi_attribute 20, 1
   5              		.eabi_attribute 21, 1
   6              		.eabi_attribute 23, 3
   7              		.eabi_attribute 24, 1
   8              		.eabi_attribute 25, 1
   9              		.eabi_attribute 26, 1
  10              		.eabi_attribute 30, 1
  11              		.eabi_attribute 34, 1
  12              		.eabi_attribute 18, 4
  13              		.thumb
  14              		.file	"cal.c"
  15              		.text
  16              	.Ltext0:
  17              		.cfi_sections	.debug_frame
  18              		.section	.text.LeftTarget,"ax",%progbits
  19              		.align	2
  20              		.thumb
  21              		.thumb_func
  22              		.type	LeftTarget, %function
  23              	LeftTarget:
  24              	.LFB63:
  25              		.file 1 "..\\source\\cal.c"
   1:..\source/cal.c **** /* ========================================
   2:..\source/cal.c ****  *
   3:..\source/cal.c ****  * Copyright YOUR COMPANY, THE YEAR
   4:..\source/cal.c ****  * All Rights Reserved
   5:..\source/cal.c ****  * UNPUBLISHED, LICENSED SOFTWARE.
   6:..\source/cal.c ****  *
   7:..\source/cal.c ****  * CONFIDENTIAL AND PROPRIETARY INFORMATION
   8:..\source/cal.c ****  * WHICH IS THE PROPERTY OF your company.
   9:..\source/cal.c ****  *
  10:..\source/cal.c ****  * ========================================
  11:..\source/cal.c **** */
  12:..\source/cal.c **** #include <stdio.h>
  13:..\source/cal.c **** #include <stdlib.h>
  14:..\source/cal.c **** #include "cal.h"
  15:..\source/cal.c **** #include "motor.h"
  16:..\source/cal.c **** #include "i2c.h"
  17:..\source/cal.c **** #include "pwm.h"
  18:..\source/cal.c **** #include "encoder.h"
  19:..\source/cal.c **** #include "utils.h"
  20:..\source/cal.c **** #include "serial.h"
  21:..\source/cal.c **** #include "pid.h"
  22:..\source/cal.c **** #include "nvstore.h"
  23:..\source/cal.c **** #include "calmotor.h"
  24:..\source/cal.c **** #include "calpid.h"
  25:..\source/cal.c **** #include "callin.h"
  26:..\source/cal.c **** #include "calang.h"
  27:..\source/cal.c **** #include "debug.h"
  28:..\source/cal.c **** #include "control.h"
  29:..\source/cal.c **** 
  30:..\source/cal.c **** /* Calibration interface commands */
  31:..\source/cal.c **** #define NO_CMD              '0'
  32:..\source/cal.c **** #define CAL_REQUEST         'c'
ARM GAS  C:\Users\tslator\AppData\Local\Temp\ccc8OXeR.s 			page 2


  33:..\source/cal.c **** #define VAL_REQUEST         'v'
  34:..\source/cal.c **** #define SETTING_REQUEST     's'
  35:..\source/cal.c **** #define EXIT_CMD            'x'
  36:..\source/cal.c **** 
  37:..\source/cal.c **** #define MOTOR_CAL_CMD       '1'
  38:..\source/cal.c **** #define PID_LEFT_CAL_CMD    '2'
  39:..\source/cal.c **** #define PID_RIGHT_CAL_CMD   '3'
  40:..\source/cal.c **** 
  41:..\source/cal.c **** #define MOTOR_VAL_CMD           '1'
  42:..\source/cal.c **** #define PID_VAL_CMD             '2'
  43:..\source/cal.c **** #define PID_LEFT_FWD_VAL_CMD    '3'
  44:..\source/cal.c **** #define PID_LEFT_BWD_VAL_CMD    '4'
  45:..\source/cal.c **** #define PID_RIGHT_FWD_VAL_CMD   '5'
  46:..\source/cal.c **** #define PID_RIGHT_BWD_VAL_CMD   '6'
  47:..\source/cal.c **** #define LINEAR_FWD_VAL_CMD      '7'
  48:..\source/cal.c **** #define LINEAR_BWD_VAL_CMD      '8'
  49:..\source/cal.c **** 
  50:..\source/cal.c **** #define MOTOR_LEFT_DISP_CMD  '1'
  51:..\source/cal.c **** #define MOTOR_RIGHT_DISP_CMD '2'
  52:..\source/cal.c **** #define PID_DISP_CMD         '3'
  53:..\source/cal.c **** #define ALL_DISP_CMD         '4'
  54:..\source/cal.c **** 
  55:..\source/cal.c **** char* cal_stage_to_string[] = {"CALIBRATION", "VALIDATE"};
  56:..\source/cal.c **** char* cal_state_to_string[] = {"INIT STATE", "START STATE", "RUNNING STATE", "STOP STATE", "RESULTS
  57:..\source/cal.c **** 
  58:..\source/cal.c **** 
  59:..\source/cal.c **** typedef enum {UI_STATE_INIT, UI_STATE_CALIBRATION, UI_STATE_VALIDATION, UI_STATE_SETTINGS, UI_STATE
  60:..\source/cal.c **** 
  61:..\source/cal.c **** 
  62:..\source/cal.c **** static UI_STATE_ENUM ui_state;
  63:..\source/cal.c **** 
  64:..\source/cal.c **** static CALIBRATION_TYPE *active_cal;
  65:..\source/cal.c **** static CALIBRATION_TYPE *active_val;
  66:..\source/cal.c **** 
  67:..\source/cal.c **** static float left_cmd_velocity;
  68:..\source/cal.c **** static float right_cmd_velocity;
  69:..\source/cal.c **** 
  70:..\source/cal.c **** static float LeftTarget()
  71:..\source/cal.c **** {
  26              		.loc 1 71 0
  27              		.cfi_startproc
  28              		@ args = 0, pretend = 0, frame = 0
  29              		@ frame_needed = 0, uses_anonymous_args = 0
  30              		@ link register save eliminated.
  72:..\source/cal.c ****     return left_cmd_velocity;
  73:..\source/cal.c **** }
  31              		.loc 1 73 0
  32 0000 014B     		ldr	r3, .L2
  33 0002 1868     		ldr	r0, [r3]	@ float
  34 0004 7047     		bx	lr
  35              	.L3:
  36 0006 00BF     		.align	2
  37              	.L2:
  38 0008 00000000 		.word	.LANCHOR0
  39              		.cfi_endproc
  40              	.LFE63:
  41              		.size	LeftTarget, .-LeftTarget
ARM GAS  C:\Users\tslator\AppData\Local\Temp\ccc8OXeR.s 			page 3


  42              		.section	.text.RightTarget,"ax",%progbits
  43              		.align	2
  44              		.thumb
  45              		.thumb_func
  46              		.type	RightTarget, %function
  47              	RightTarget:
  48              	.LFB64:
  74:..\source/cal.c **** 
  75:..\source/cal.c **** static float RightTarget()
  76:..\source/cal.c **** {
  49              		.loc 1 76 0
  50              		.cfi_startproc
  51              		@ args = 0, pretend = 0, frame = 0
  52              		@ frame_needed = 0, uses_anonymous_args = 0
  53              		@ link register save eliminated.
  77:..\source/cal.c ****     return right_cmd_velocity;
  78:..\source/cal.c **** }
  54              		.loc 1 78 0
  55 0000 014B     		ldr	r3, .L5
  56 0002 5868     		ldr	r0, [r3, #4]	@ float
  57 0004 7047     		bx	lr
  58              	.L6:
  59 0006 00BF     		.align	2
  60              	.L5:
  61 0008 00000000 		.word	.LANCHOR0
  62              		.cfi_endproc
  63              	.LFE64:
  64              		.size	RightTarget, .-RightTarget
  65              		.section	.text.DisplayCalMenu,"ax",%progbits
  66              		.align	2
  67              		.thumb
  68              		.thumb_func
  69              		.type	DisplayCalMenu, %function
  70              	DisplayCalMenu:
  71              	.LFB69:
  79:..\source/cal.c **** 
  80:..\source/cal.c **** void ClearCalibrationStatusBit(uint16 bit)
  81:..\source/cal.c **** {
  82:..\source/cal.c ****     uint16 status = p_cal_eeprom->status &= ~bit;
  83:..\source/cal.c ****     Nvstore_WriteUint16(status, NVSTORE_CAL_EEPROM_ADDR_TO_OFFSET(&p_cal_eeprom->status));
  84:..\source/cal.c ****     I2c_ClearCalibrationStatusBit(bit);
  85:..\source/cal.c **** }
  86:..\source/cal.c **** 
  87:..\source/cal.c **** void SetCalibrationStatusBit(uint16 bit)
  88:..\source/cal.c **** {
  89:..\source/cal.c ****     uint16 status = p_cal_eeprom->status | bit;
  90:..\source/cal.c ****     Nvstore_WriteUint16(status, NVSTORE_CAL_EEPROM_ADDR_TO_OFFSET(&p_cal_eeprom->status));
  91:..\source/cal.c ****     I2c_SetCalibrationStatusBit(bit);   
  92:..\source/cal.c **** }
  93:..\source/cal.c **** 
  94:..\source/cal.c **** 
  95:..\source/cal.c **** /* Calibration Print Routines */
  96:..\source/cal.c **** void Cal_PrintSamples(char *label, int32 *cps_samples, uint16 *pwm_samples)
  97:..\source/cal.c **** {
  98:..\source/cal.c ****     uint8 ii;
  99:..\source/cal.c ****     char  buffer[100];
 100:..\source/cal.c ****     char label_str[20];
ARM GAS  C:\Users\tslator\AppData\Local\Temp\ccc8OXeR.s 			page 4


 101:..\source/cal.c ****     
 102:..\source/cal.c ****     sprintf(label_str, "%s\r\n", label);
 103:..\source/cal.c ****     Ser_PutString(label_str);
 104:..\source/cal.c ****     
 105:..\source/cal.c ****     for (ii = 0; ii < CAL_NUM_SAMPLES - 1; ++ii)
 106:..\source/cal.c ****     {
 107:..\source/cal.c ****         sprintf(buffer, "%ld:%d ", cps_samples[ii], pwm_samples[ii]);
 108:..\source/cal.c ****         Ser_PutString(buffer);
 109:..\source/cal.c ****     }
 110:..\source/cal.c ****     sprintf(buffer, "%ld:%d\r\n\r\n", cps_samples[ii], pwm_samples[ii]);
 111:..\source/cal.c ****     Ser_PutString(buffer);
 112:..\source/cal.c **** }
 113:..\source/cal.c **** 
 114:..\source/cal.c **** void Cal_PrintGains(char *label, float *gains)
 115:..\source/cal.c **** {
 116:..\source/cal.c ****     char output[64];
 117:..\source/cal.c ****     char pgain_str[10];
 118:..\source/cal.c ****     char igain_str[10];
 119:..\source/cal.c ****     char dgain_str[10];
 120:..\source/cal.c ****     
 121:..\source/cal.c ****     ftoa(gains[0], pgain_str, 3);
 122:..\source/cal.c ****     ftoa(gains[1], igain_str, 3);
 123:..\source/cal.c ****     ftoa(gains[2], dgain_str, 3);
 124:..\source/cal.c ****     
 125:..\source/cal.c ****     sprintf(output, "%s - P: %s, I: %s, D: %s\r\n", label, pgain_str, igain_str, dgain_str);
 126:..\source/cal.c ****     Ser_PutString(output);
 127:..\source/cal.c **** }
 128:..\source/cal.c **** 
 129:..\source/cal.c **** static void DisplayCalMenu()
 130:..\source/cal.c **** {
  72              		.loc 1 130 0
  73              		.cfi_startproc
  74              		@ args = 0, pretend = 0, frame = 0
  75              		@ frame_needed = 0, uses_anonymous_args = 0
  76 0000 10B5     		push	{r4, lr}
  77              		.cfi_def_cfa_offset 8
  78              		.cfi_offset 4, -8
  79              		.cfi_offset 14, -4
 131:..\source/cal.c ****     Ser_PutString("\r\nWelcome to the Arlobot calibration interface.\r\n");
  80              		.loc 1 131 0
  81 0002 0E48     		ldr	r0, .L9
  82 0004 FFF7FEFF 		bl	Ser_PutString
  83              	.LVL0:
 132:..\source/cal.c ****     Ser_PutString("The following calibration operations are allowed:\r\n");
  84              		.loc 1 132 0
  85 0008 0D48     		ldr	r0, .L9+4
  86 000a FFF7FEFF 		bl	Ser_PutString
  87              	.LVL1:
 133:..\source/cal.c ****     Ser_PutString("    1. Motor Calibration - creates mapping between count/sec and PWM.\r\n");
  88              		.loc 1 133 0
  89 000e 0D48     		ldr	r0, .L9+8
  90 0010 FFF7FEFF 		bl	Ser_PutString
  91              	.LVL2:
 134:..\source/cal.c ****     Ser_PutString("    2. PID Left Calibration - enter gains, execute step input, print velocity re
  92              		.loc 1 134 0
  93 0014 0C48     		ldr	r0, .L9+12
  94 0016 FFF7FEFF 		bl	Ser_PutString
ARM GAS  C:\Users\tslator\AppData\Local\Temp\ccc8OXeR.s 			page 5


  95              	.LVL3:
 135:..\source/cal.c ****     Ser_PutString("    3. PID Right Calibration - enter gains, execute step input, print velocity r
  96              		.loc 1 135 0
  97 001a 0C48     		ldr	r0, .L9+16
  98 001c FFF7FEFF 		bl	Ser_PutString
  99              	.LVL4:
 136:..\source/cal.c ****     Ser_PutString("\r\n");
 100              		.loc 1 136 0
 101 0020 0B4C     		ldr	r4, .L9+20
 102 0022 2046     		mov	r0, r4
 103 0024 FFF7FEFF 		bl	Ser_PutString
 104              	.LVL5:
 137:..\source/cal.c ****     Ser_PutString("\r\nEnter X to exit calibration\r\n");
 105              		.loc 1 137 0
 106 0028 0A48     		ldr	r0, .L9+24
 107 002a FFF7FEFF 		bl	Ser_PutString
 108              	.LVL6:
 138:..\source/cal.c ****     Ser_PutString("\r\n");
 109              		.loc 1 138 0
 110 002e 2046     		mov	r0, r4
 111 0030 FFF7FEFF 		bl	Ser_PutString
 112              	.LVL7:
 139:..\source/cal.c ****     Ser_PutString("Make an entry [1-5,X]: ");
 113              		.loc 1 139 0
 114 0034 0848     		ldr	r0, .L9+28
 115 0036 FFF7FEFF 		bl	Ser_PutString
 116              	.LVL8:
 117 003a 10BD     		pop	{r4, pc}
 118              	.L10:
 119              		.align	2
 120              	.L9:
 121 003c 00000000 		.word	.LC0
 122 0040 34000000 		.word	.LC1
 123 0044 68000000 		.word	.LC2
 124 0048 B0000000 		.word	.LC3
 125 004c 0C010000 		.word	.LC4
 126 0050 68010000 		.word	.LC5
 127 0054 6C010000 		.word	.LC6
 128 0058 8C010000 		.word	.LC7
 129              		.cfi_endproc
 130              	.LFE69:
 131              		.size	DisplayCalMenu, .-DisplayCalMenu
 132              		.section	.text.DisplayValMenu,"ax",%progbits
 133              		.align	2
 134              		.thumb
 135              		.thumb_func
 136              		.type	DisplayValMenu, %function
 137              	DisplayValMenu:
 138              	.LFB70:
 140:..\source/cal.c **** }
 141:..\source/cal.c **** 
 142:..\source/cal.c **** static void DisplayValMenu()
 143:..\source/cal.c **** {
 139              		.loc 1 143 0
 140              		.cfi_startproc
 141              		@ args = 0, pretend = 0, frame = 0
 142              		@ frame_needed = 0, uses_anonymous_args = 0
ARM GAS  C:\Users\tslator\AppData\Local\Temp\ccc8OXeR.s 			page 6


 143 0000 10B5     		push	{r4, lr}
 144              		.cfi_def_cfa_offset 8
 145              		.cfi_offset 4, -8
 146              		.cfi_offset 14, -4
 144:..\source/cal.c ****     Ser_PutString("\r\nWelcome to the Arlobot validation interface.\r\n");
 147              		.loc 1 144 0
 148 0002 1648     		ldr	r0, .L13
 149 0004 FFF7FEFF 		bl	Ser_PutString
 150              	.LVL9:
 145:..\source/cal.c ****     Ser_PutString("The following validation operations are allowed:\r\n");
 151              		.loc 1 145 0
 152 0008 1548     		ldr	r0, .L13+4
 153 000a FFF7FEFF 		bl	Ser_PutString
 154              	.LVL10:
 146:..\source/cal.c ****     Ser_PutString("    1. Motor Validation - operates the motors at varying velocities.\r\n");
 155              		.loc 1 146 0
 156 000e 1548     		ldr	r0, .L13+8
 157 0010 FFF7FEFF 		bl	Ser_PutString
 158              	.LVL11:
 147:..\source/cal.c ****     Ser_PutString("    2. PID Validation - operates the motors at varying velocities, moves in a st
 159              		.loc 1 147 0
 160 0014 1448     		ldr	r0, .L13+12
 161 0016 FFF7FEFF 		bl	Ser_PutString
 162              	.LVL12:
 148:..\source/cal.c ****     Ser_PutString("    3. Left PID (forward) Validation - operates the left motor in the forward di
 163              		.loc 1 148 0
 164 001a 1448     		ldr	r0, .L13+16
 165 001c FFF7FEFF 		bl	Ser_PutString
 166              	.LVL13:
 149:..\source/cal.c ****     Ser_PutString("    4. Left PID (backward) Validation - operates the left motor in the backward 
 167              		.loc 1 149 0
 168 0020 1348     		ldr	r0, .L13+20
 169 0022 FFF7FEFF 		bl	Ser_PutString
 170              	.LVL14:
 150:..\source/cal.c ****     Ser_PutString("    5. Right PID (forward) Validation - operates the right motor in the forward 
 171              		.loc 1 150 0
 172 0026 1348     		ldr	r0, .L13+24
 173 0028 FFF7FEFF 		bl	Ser_PutString
 174              	.LVL15:
 151:..\source/cal.c ****     Ser_PutString("    6. Right PID (backward) Validation - operates the right motor in the backwar
 175              		.loc 1 151 0
 176 002c 1248     		ldr	r0, .L13+28
 177 002e FFF7FEFF 		bl	Ser_PutString
 178              	.LVL16:
 152:..\source/cal.c ****     Ser_PutString("    7. Straight Line (forward) Validation - operates the robot in the forward di
 179              		.loc 1 152 0
 180 0032 1248     		ldr	r0, .L13+32
 181 0034 FFF7FEFF 		bl	Ser_PutString
 182              	.LVL17:
 153:..\source/cal.c ****     Ser_PutString("    8. Straight Line (backward) Validation - operates the robot in the backward 
 183              		.loc 1 153 0
 184 0038 1148     		ldr	r0, .L13+36
 185 003a FFF7FEFF 		bl	Ser_PutString
 186              	.LVL18:
 154:..\source/cal.c ****     Ser_PutString("\r\n");
 187              		.loc 1 154 0
 188 003e 114C     		ldr	r4, .L13+40
ARM GAS  C:\Users\tslator\AppData\Local\Temp\ccc8OXeR.s 			page 7


 189 0040 2046     		mov	r0, r4
 190 0042 FFF7FEFF 		bl	Ser_PutString
 191              	.LVL19:
 155:..\source/cal.c ****     Ser_PutString("\r\nEnter X to exit validation\r\n");
 192              		.loc 1 155 0
 193 0046 1048     		ldr	r0, .L13+44
 194 0048 FFF7FEFF 		bl	Ser_PutString
 195              	.LVL20:
 156:..\source/cal.c ****     Ser_PutString("\r\n");
 196              		.loc 1 156 0
 197 004c 2046     		mov	r0, r4
 198 004e FFF7FEFF 		bl	Ser_PutString
 199              	.LVL21:
 157:..\source/cal.c ****     Ser_PutString("Make an entry [1-8,X]: ");
 200              		.loc 1 157 0
 201 0052 0E48     		ldr	r0, .L13+48
 202 0054 FFF7FEFF 		bl	Ser_PutString
 203              	.LVL22:
 204 0058 10BD     		pop	{r4, pc}
 205              	.L14:
 206 005a 00BF     		.align	2
 207              	.L13:
 208 005c A4010000 		.word	.LC8
 209 0060 D8010000 		.word	.LC9
 210 0064 0C020000 		.word	.LC10
 211 0068 54020000 		.word	.LC11
 212 006c C8020000 		.word	.LC12
 213 0070 3C030000 		.word	.LC13
 214 0074 B0030000 		.word	.LC14
 215 0078 24040000 		.word	.LC15
 216 007c 9C040000 		.word	.LC16
 217 0080 18050000 		.word	.LC17
 218 0084 68010000 		.word	.LC5
 219 0088 94050000 		.word	.LC18
 220 008c B4050000 		.word	.LC19
 221              		.cfi_endproc
 222              	.LFE70:
 223              		.size	DisplayValMenu, .-DisplayValMenu
 224              		.section	.text.DisplayMenu,"ax",%progbits
 225              		.align	2
 226              		.thumb
 227              		.thumb_func
 228              		.type	DisplayMenu, %function
 229              	DisplayMenu:
 230              	.LFB71:
 158:..\source/cal.c **** }
 159:..\source/cal.c **** 
 160:..\source/cal.c **** static void DisplayMenu(CAL_STAGE_TYPE stage)
 161:..\source/cal.c **** {
 231              		.loc 1 161 0
 232              		.cfi_startproc
 233              		@ args = 0, pretend = 0, frame = 0
 234              		@ frame_needed = 0, uses_anonymous_args = 0
 235              	.LVL23:
 236 0000 08B5     		push	{r3, lr}
 237              		.cfi_def_cfa_offset 8
 238              		.cfi_offset 3, -8
ARM GAS  C:\Users\tslator\AppData\Local\Temp\ccc8OXeR.s 			page 8


 239              		.cfi_offset 14, -4
 162:..\source/cal.c ****     debug_control_enabled = 0;
 240              		.loc 1 162 0
 241 0002 0022     		movs	r2, #0
 242 0004 054B     		ldr	r3, .L19
 243 0006 1A80     		strh	r2, [r3]	@ movhi
 163:..\source/cal.c ****     
 164:..\source/cal.c ****     if (stage == CAL_CALIBRATE_STAGE)
 244              		.loc 1 164 0
 245 0008 10B9     		cbnz	r0, .L16
 165:..\source/cal.c ****     {
 166:..\source/cal.c ****         DisplayCalMenu();
 246              		.loc 1 166 0
 247 000a FFF7FEFF 		bl	DisplayCalMenu
 248              	.LVL24:
 249 000e 08BD     		pop	{r3, pc}
 250              	.LVL25:
 251              	.L16:
 167:..\source/cal.c ****     }
 168:..\source/cal.c ****     else if (stage == CAL_VALIDATE_STAGE)
 252              		.loc 1 168 0
 253 0010 0128     		cmp	r0, #1
 254 0012 01D1     		bne	.L15
 169:..\source/cal.c ****     {
 170:..\source/cal.c ****         DisplayValMenu();
 255              		.loc 1 170 0
 256 0014 FFF7FEFF 		bl	DisplayValMenu
 257              	.LVL26:
 258              	.L15:
 259 0018 08BD     		pop	{r3, pc}
 260              	.L20:
 261 001a 00BF     		.align	2
 262              	.L19:
 263 001c 00000000 		.word	debug_control_enabled
 264              		.cfi_endproc
 265              	.LFE71:
 266              		.size	DisplayMenu, .-DisplayMenu
 267              		.section	.text.DisplaySettingsMenu,"ax",%progbits
 268              		.align	2
 269              		.thumb
 270              		.thumb_func
 271              		.type	DisplaySettingsMenu, %function
 272              	DisplaySettingsMenu:
 273              	.LFB72:
 171:..\source/cal.c ****     }
 172:..\source/cal.c **** 
 173:..\source/cal.c **** }
 174:..\source/cal.c **** 
 175:..\source/cal.c **** static void DisplaySettingsMenu()
 176:..\source/cal.c **** {
 274              		.loc 1 176 0
 275              		.cfi_startproc
 276              		@ args = 0, pretend = 0, frame = 0
 277              		@ frame_needed = 0, uses_anonymous_args = 0
 278 0000 10B5     		push	{r4, lr}
 279              		.cfi_def_cfa_offset 8
 280              		.cfi_offset 4, -8
ARM GAS  C:\Users\tslator\AppData\Local\Temp\ccc8OXeR.s 			page 9


 281              		.cfi_offset 14, -4
 177:..\source/cal.c ****     Ser_PutString("\r\nWelcome to the Arlobot settings display\r\n");
 282              		.loc 1 177 0
 283 0002 1048     		ldr	r0, .L23
 284 0004 FFF7FEFF 		bl	Ser_PutString
 285              	.LVL27:
 178:..\source/cal.c ****     Ser_PutString("The following settings can be displayed\r\n");
 286              		.loc 1 178 0
 287 0008 0F48     		ldr	r0, .L23+4
 288 000a FFF7FEFF 		bl	Ser_PutString
 289              	.LVL28:
 179:..\source/cal.c ****     Ser_PutString("    1. Left Motor Calibration\r\n");
 290              		.loc 1 179 0
 291 000e 0F48     		ldr	r0, .L23+8
 292 0010 FFF7FEFF 		bl	Ser_PutString
 293              	.LVL29:
 180:..\source/cal.c ****     Ser_PutString("    2. Right Motor Calibration\r\n");
 294              		.loc 1 180 0
 295 0014 0E48     		ldr	r0, .L23+12
 296 0016 FFF7FEFF 		bl	Ser_PutString
 297              	.LVL30:
 181:..\source/cal.c ****     Ser_PutString("    3. PID Gains: left pid and right pid\r\n");
 298              		.loc 1 181 0
 299 001a 0E48     		ldr	r0, .L23+16
 300 001c FFF7FEFF 		bl	Ser_PutString
 301              	.LVL31:
 182:..\source/cal.c ****     Ser_PutString("    4. Display All\r\n");
 302              		.loc 1 182 0
 303 0020 0D48     		ldr	r0, .L23+20
 304 0022 FFF7FEFF 		bl	Ser_PutString
 305              	.LVL32:
 183:..\source/cal.c ****     Ser_PutString("\r\n");
 306              		.loc 1 183 0
 307 0026 0D4C     		ldr	r4, .L23+24
 308 0028 2046     		mov	r0, r4
 309 002a FFF7FEFF 		bl	Ser_PutString
 310              	.LVL33:
 184:..\source/cal.c ****     Ser_PutString("\r\nEnter X to exit validation\r\n");
 311              		.loc 1 184 0
 312 002e 0C48     		ldr	r0, .L23+28
 313 0030 FFF7FEFF 		bl	Ser_PutString
 314              	.LVL34:
 185:..\source/cal.c ****     Ser_PutString("\r\n");
 315              		.loc 1 185 0
 316 0034 2046     		mov	r0, r4
 317 0036 FFF7FEFF 		bl	Ser_PutString
 318              	.LVL35:
 186:..\source/cal.c ****     Ser_PutString("Make an entry [1-5,X]: ");
 319              		.loc 1 186 0
 320 003a 0A48     		ldr	r0, .L23+32
 321 003c FFF7FEFF 		bl	Ser_PutString
 322              	.LVL36:
 323 0040 10BD     		pop	{r4, pc}
 324              	.L24:
 325 0042 00BF     		.align	2
 326              	.L23:
 327 0044 CC050000 		.word	.LC20
ARM GAS  C:\Users\tslator\AppData\Local\Temp\ccc8OXeR.s 			page 10


 328 0048 F8050000 		.word	.LC21
 329 004c 24060000 		.word	.LC22
 330 0050 44060000 		.word	.LC23
 331 0054 68060000 		.word	.LC24
 332 0058 94060000 		.word	.LC25
 333 005c 68010000 		.word	.LC5
 334 0060 94050000 		.word	.LC18
 335 0064 8C010000 		.word	.LC7
 336              		.cfi_endproc
 337              	.LFE72:
 338              		.size	DisplaySettingsMenu, .-DisplaySettingsMenu
 339              		.section	.text.HandleError,"ax",%progbits
 340              		.align	2
 341              		.thumb
 342              		.thumb_func
 343              		.type	HandleError, %function
 344              	HandleError:
 345              	.LFB78:
 187:..\source/cal.c **** }
 188:..\source/cal.c **** 
 189:..\source/cal.c **** static void DisplayExit()
 190:..\source/cal.c **** {
 191:..\source/cal.c ****     Ser_PutString("\r\nExiting Arlobot calibration/validation interface.");
 192:..\source/cal.c ****     Ser_PutString("\r\nType 'C' to enter calibration, 'V' to enter validation, 'D' to display setti
 193:..\source/cal.c **** }
 194:..\source/cal.c **** 
 195:..\source/cal.c **** static void ProcessSettings(uint8 cmd)
 196:..\source/cal.c **** {
 197:..\source/cal.c ****     switch (cmd)
 198:..\source/cal.c ****     {
 199:..\source/cal.c ****         case MOTOR_LEFT_DISP_CMD:
 200:..\source/cal.c ****             Ser_WriteByte(cmd);
 201:..\source/cal.c ****             Ser_PutString("\r\nDisplaying left motor calibration: count/sec, pwm mapping");
 202:..\source/cal.c ****             Ser_PutString("\r\n");
 203:..\source/cal.c ****             Cal_PrintSamples("Left-Forward", (int32 *) p_cal_eeprom->left_motor_fwd.cps_data, (uint
 204:..\source/cal.c ****             Cal_PrintSamples("Left-Backward", (int32 *) p_cal_eeprom->left_motor_bwd.cps_data, (uin
 205:..\source/cal.c ****             Ser_PutString("\r\n");
 206:..\source/cal.c ****             
 207:..\source/cal.c ****             DisplaySettingsMenu();
 208:..\source/cal.c ****             break;
 209:..\source/cal.c ****             
 210:..\source/cal.c ****         case MOTOR_RIGHT_DISP_CMD:
 211:..\source/cal.c ****             Ser_WriteByte(cmd);
 212:..\source/cal.c ****             Ser_PutString("\r\nDisplaying right motor calibration: count/sec, pwm mapping");
 213:..\source/cal.c ****             Ser_PutString("\r\n");
 214:..\source/cal.c ****             Cal_PrintSamples("Right-Forward", (int32 *) p_cal_eeprom->right_motor_fwd.cps_data, (ui
 215:..\source/cal.c ****             Cal_PrintSamples("Right-Backward", (int32 *) p_cal_eeprom->right_motor_bwd.cps_data, (u
 216:..\source/cal.c ****             Ser_PutString("\r\n");
 217:..\source/cal.c ****             
 218:..\source/cal.c ****             DisplaySettingsMenu();
 219:..\source/cal.c ****             break;
 220:..\source/cal.c ****             
 221:..\source/cal.c ****         case PID_DISP_CMD:
 222:..\source/cal.c ****             Ser_WriteByte(cmd);
 223:..\source/cal.c ****             Ser_PutString("\r\nDisplaying all PID gains: left, right");
 224:..\source/cal.c ****             Ser_PutString("\r\n");
 225:..\source/cal.c ****             Cal_PrintGains("Left PID", (float *) &p_cal_eeprom->left_gains);
ARM GAS  C:\Users\tslator\AppData\Local\Temp\ccc8OXeR.s 			page 11


 226:..\source/cal.c ****             Cal_PrintGains("Right PID", (float *) &p_cal_eeprom->right_gains);
 227:..\source/cal.c **** 
 228:..\source/cal.c ****             DisplaySettingsMenu();
 229:..\source/cal.c ****             break;
 230:..\source/cal.c ****             
 231:..\source/cal.c ****         case ALL_DISP_CMD:
 232:..\source/cal.c ****             Ser_WriteByte(cmd);
 233:..\source/cal.c ****             Ser_PutString("\r\nDisplaying all calibration/settings");
 234:..\source/cal.c ****             Ser_PutString("\r\n");
 235:..\source/cal.c **** 
 236:..\source/cal.c ****             DisplaySettingsMenu();
 237:..\source/cal.c ****             break;        
 238:..\source/cal.c ****     }
 239:..\source/cal.c **** }
 240:..\source/cal.c **** 
 241:..\source/cal.c **** static uint8 GetCommand()
 242:..\source/cal.c **** {
 243:..\source/cal.c ****     char value = Ser_ReadByte();
 244:..\source/cal.c ****         
 245:..\source/cal.c ****     switch (value)
 246:..\source/cal.c ****     {
 247:..\source/cal.c ****         case 'c':
 248:..\source/cal.c ****         case 'C':
 249:..\source/cal.c ****             value = CAL_REQUEST;
 250:..\source/cal.c ****             break;
 251:..\source/cal.c ****             
 252:..\source/cal.c ****         case 'v':
 253:..\source/cal.c ****         case 'V':
 254:..\source/cal.c ****             value = VAL_REQUEST;
 255:..\source/cal.c ****             break;
 256:..\source/cal.c ****             
 257:..\source/cal.c ****         case 'd':
 258:..\source/cal.c ****         case 'D':
 259:..\source/cal.c ****             value = SETTING_REQUEST;
 260:..\source/cal.c ****             break;
 261:..\source/cal.c **** 
 262:..\source/cal.c ****         case 'x':
 263:..\source/cal.c ****         case 'X':            
 264:..\source/cal.c ****             value = EXIT_CMD;
 265:..\source/cal.c ****             break;
 266:..\source/cal.c ****     }
 267:..\source/cal.c ****     
 268:..\source/cal.c ****     return value;
 269:..\source/cal.c **** }
 270:..\source/cal.c **** 
 271:..\source/cal.c **** static CALIBRATION_TYPE* GetCalibration(uint8 cmd)
 272:..\source/cal.c **** {
 273:..\source/cal.c ****     CAL_PID_PARAMS *p_pid_params;
 274:..\source/cal.c ****     
 275:..\source/cal.c ****     switch (cmd)
 276:..\source/cal.c ****     {
 277:..\source/cal.c ****         case MOTOR_CAL_CMD:
 278:..\source/cal.c ****             Ser_WriteByte(cmd);
 279:..\source/cal.c ****             CalMotor_Calibration->state = CAL_INIT_STATE;
 280:..\source/cal.c ****             return CalMotor_Calibration;
 281:..\source/cal.c ****             
 282:..\source/cal.c ****         case PID_LEFT_CAL_CMD:
ARM GAS  C:\Users\tslator\AppData\Local\Temp\ccc8OXeR.s 			page 12


 283:..\source/cal.c ****             Ser_WriteByte(cmd);
 284:..\source/cal.c ****             CalPid_LeftCalibration->state = CAL_INIT_STATE;
 285:..\source/cal.c ****             return CalPid_LeftCalibration;
 286:..\source/cal.c ****             break;
 287:..\source/cal.c **** 
 288:..\source/cal.c ****         case PID_RIGHT_CAL_CMD:
 289:..\source/cal.c ****             Ser_WriteByte(cmd);
 290:..\source/cal.c ****             CalPid_RightCalibration->state = CAL_INIT_STATE;
 291:..\source/cal.c ****             return CalPid_RightCalibration;
 292:..\source/cal.c ****             break;
 293:..\source/cal.c **** 
 294:..\source/cal.c ****         default:
 295:..\source/cal.c ****             break;
 296:..\source/cal.c ****     }
 297:..\source/cal.c ****     
 298:..\source/cal.c ****     return (CALIBRATION_TYPE *) 0;
 299:..\source/cal.c **** }
 300:..\source/cal.c **** 
 301:..\source/cal.c **** static CALIBRATION_TYPE* GetValidation(uint8 cmd)
 302:..\source/cal.c **** {
 303:..\source/cal.c ****     switch (cmd)
 304:..\source/cal.c ****     {
 305:..\source/cal.c ****         case MOTOR_VAL_CMD:
 306:..\source/cal.c ****             Ser_WriteByte(cmd);
 307:..\source/cal.c ****             Ser_PutString("\r\nPerforming Motor Validation by operating the motors at varying veloc
 308:..\source/cal.c ****             CalMotor_Validation->stage = CAL_VALIDATE_STAGE;
 309:..\source/cal.c ****             CalMotor_Validation->state = CAL_INIT_STATE;
 310:..\source/cal.c ****             return (CALIBRATION_TYPE *) CalMotor_Validation;
 311:..\source/cal.c ****             break;
 312:..\source/cal.c ****             
 313:..\source/cal.c ****         case PID_VAL_CMD:
 314:..\source/cal.c ****             Ser_WriteByte(cmd);
 315:..\source/cal.c ****             Ser_PutString("\r\nPerforming Left/Right PID Validation by operating the motors at vary
 316:..\source/cal.c ****             CalPid_LeftValidation->stage = CAL_VALIDATE_STAGE;
 317:..\source/cal.c ****             CalPid_LeftValidation->state = CAL_INIT_STATE;
 318:..\source/cal.c ****             return (CALIBRATION_TYPE *) CalPid_LeftValidation;
 319:..\source/cal.c ****             break;
 320:..\source/cal.c ****                     
 321:..\source/cal.c ****         case PID_LEFT_FWD_VAL_CMD:
 322:..\source/cal.c ****             Ser_WriteByte(cmd);
 323:..\source/cal.c ****             Ser_PutString("\r\nPerforming Left PID validation in the forward direction.\r\n");
 324:..\source/cal.c ****             CalPid_LeftValidation->stage = CAL_VALIDATE_STAGE;
 325:..\source/cal.c ****             CalPid_LeftValidation->state = CAL_INIT_STATE;
 326:..\source/cal.c ****             ((CAL_PID_PARAMS *)(CalPid_LeftValidation->params))->direction = DIR_FORWARD;
 327:..\source/cal.c ****             return (CALIBRATION_TYPE *) CalPid_LeftValidation;
 328:..\source/cal.c ****             break;
 329:..\source/cal.c **** 
 330:..\source/cal.c ****         case PID_LEFT_BWD_VAL_CMD:
 331:..\source/cal.c ****             Ser_WriteByte(cmd);
 332:..\source/cal.c ****             Ser_PutString("\r\nPerforming Left PID validation in the backward direction.\r\n");
 333:..\source/cal.c ****             CalPid_LeftValidation->stage = CAL_VALIDATE_STAGE;
 334:..\source/cal.c ****             CalPid_LeftValidation->state = CAL_INIT_STATE;
 335:..\source/cal.c ****             ((CAL_PID_PARAMS *)(CalPid_LeftValidation->params))->direction = DIR_BACKWARD;
 336:..\source/cal.c ****             return (CALIBRATION_TYPE *) CalPid_LeftValidation;
 337:..\source/cal.c ****             break;
 338:..\source/cal.c **** 
 339:..\source/cal.c ****         case PID_RIGHT_FWD_VAL_CMD:
ARM GAS  C:\Users\tslator\AppData\Local\Temp\ccc8OXeR.s 			page 13


 340:..\source/cal.c ****             Ser_WriteByte(cmd);
 341:..\source/cal.c ****             Ser_PutString("\r\nPerforming Right PID validation in the forward direction.\r\n");
 342:..\source/cal.c ****             CalPid_RightValidation->stage = CAL_VALIDATE_STAGE;
 343:..\source/cal.c ****             CalPid_RightValidation->state = CAL_INIT_STATE;
 344:..\source/cal.c ****             ((CAL_PID_PARAMS *)(CalPid_RightValidation->params))->direction = DIR_FORWARD;
 345:..\source/cal.c ****             return (CALIBRATION_TYPE *) CalPid_RightValidation;
 346:..\source/cal.c ****             break;
 347:..\source/cal.c **** 
 348:..\source/cal.c ****         case PID_RIGHT_BWD_VAL_CMD:
 349:..\source/cal.c ****             Ser_WriteByte(cmd);
 350:..\source/cal.c ****             Ser_PutString("\r\nPerforming Right PID validation in the backward direction.\r\n");
 351:..\source/cal.c ****             CalPid_RightValidation->stage = CAL_VALIDATE_STAGE;
 352:..\source/cal.c ****             CalPid_RightValidation->state = CAL_INIT_STATE;
 353:..\source/cal.c ****             ((CAL_PID_PARAMS *)(CalPid_RightValidation->params))->direction = DIR_BACKWARD;
 354:..\source/cal.c ****             return (CALIBRATION_TYPE *) CalPid_RightValidation;
 355:..\source/cal.c ****             break;
 356:..\source/cal.c ****                        
 357:..\source/cal.c ****         case LINEAR_FWD_VAL_CMD:
 358:..\source/cal.c ****             Ser_WriteByte(cmd);
 359:..\source/cal.c ****             Ser_PutString("\r\nPerforming straight line validation in the forward direction.\r\n");
 360:..\source/cal.c ****             CalLin_Validation->stage = CAL_VALIDATE_STAGE;
 361:..\source/cal.c ****             CalLin_Validation->state = CAL_INIT_STATE;
 362:..\source/cal.c ****             ((CAL_LIN_PARAMS *)(CalLin_Validation->params))->direction = DIR_FORWARD;
 363:..\source/cal.c ****             return (CALIBRATION_TYPE *) CalLin_Validation;
 364:..\source/cal.c ****             break;
 365:..\source/cal.c ****                 
 366:..\source/cal.c ****         case LINEAR_BWD_VAL_CMD:
 367:..\source/cal.c ****             Ser_WriteByte(cmd);
 368:..\source/cal.c ****             Ser_PutString("\r\nPerforming straight line validation in the backward direction.\r\n")
 369:..\source/cal.c ****             CalLin_Validation->stage = CAL_VALIDATE_STAGE;
 370:..\source/cal.c ****             CalLin_Validation->state = CAL_INIT_STATE;
 371:..\source/cal.c ****             ((CAL_LIN_PARAMS *)(CalLin_Validation->params))->direction = DIR_BACKWARD;
 372:..\source/cal.c ****             return (CALIBRATION_TYPE *) CalLin_Validation;
 373:..\source/cal.c ****             break;
 374:..\source/cal.c **** 
 375:..\source/cal.c ****         default:            
 376:..\source/cal.c ****             break;
 377:..\source/cal.c **** 
 378:..\source/cal.c ****     }
 379:..\source/cal.c ****     
 380:..\source/cal.c ****     return (CALIBRATION_TYPE *) 0;
 381:..\source/cal.c **** }
 382:..\source/cal.c **** 
 383:..\source/cal.c **** static void HandleError(CALIBRATION_TYPE *cal)
 384:..\source/cal.c **** {
 346              		.loc 1 384 0
 347              		.cfi_startproc
 348              		@ args = 0, pretend = 0, frame = 64
 349              		@ frame_needed = 0, uses_anonymous_args = 0
 350              	.LVL37:
 351 0000 10B5     		push	{r4, lr}
 352              		.cfi_def_cfa_offset 8
 353              		.cfi_offset 4, -8
 354              		.cfi_offset 14, -4
 355 0002 90B0     		sub	sp, sp, #64
 356              		.cfi_def_cfa_offset 72
 385:..\source/cal.c ****     char outbuf[64];
ARM GAS  C:\Users\tslator\AppData\Local\Temp\ccc8OXeR.s 			page 14


 386:..\source/cal.c ****     
 387:..\source/cal.c ****     /* Maybe more can go here, but for now, just print an error */
 388:..\source/cal.c ****     
 389:..\source/cal.c ****     sprintf(outbuf, "Error processing stage %s, state %s\r\n", CAL_STAGE_TO_STRING(cal->stage), CAL
 357              		.loc 1 389 0
 358 0004 4478     		ldrb	r4, [r0, #1]	@ zero_extendqisi2
 359 0006 0378     		ldrb	r3, [r0]	@ zero_extendqisi2
 360 0008 074A     		ldr	r2, .L27
 361 000a 02EB8303 		add	r3, r2, r3, lsl #2
 362 000e 6846     		mov	r0, sp
 363              	.LVL38:
 364 0010 0649     		ldr	r1, .L27+4
 365 0012 52F82420 		ldr	r2, [r2, r4, lsl #2]
 366 0016 9B68     		ldr	r3, [r3, #8]
 367 0018 FFF7FEFF 		bl	sprintf
 368              	.LVL39:
 390:..\source/cal.c ****     Ser_PutString(outbuf);
 369              		.loc 1 390 0
 370 001c 6846     		mov	r0, sp
 371 001e FFF7FEFF 		bl	Ser_PutString
 372              	.LVL40:
 391:..\source/cal.c **** }
 373              		.loc 1 391 0
 374 0022 10B0     		add	sp, sp, #64
 375              		.cfi_def_cfa_offset 8
 376              		@ sp needed
 377 0024 10BD     		pop	{r4, pc}
 378              	.L28:
 379 0026 00BF     		.align	2
 380              	.L27:
 381 0028 00000000 		.word	.LANCHOR1
 382 002c AC060000 		.word	.LC26
 383              		.cfi_endproc
 384              	.LFE78:
 385              		.size	HandleError, .-HandleError
 386              		.section	.text.ProcessCalibration,"ax",%progbits
 387              		.align	2
 388              		.thumb
 389              		.thumb_func
 390              		.type	ProcessCalibration, %function
 391              	ProcessCalibration:
 392              	.LFB79:
 392:..\source/cal.c **** 
 393:..\source/cal.c **** static void ProcessCalibration(CALIBRATION_TYPE *cal)
 394:..\source/cal.c **** {
 393              		.loc 1 394 0
 394              		.cfi_startproc
 395              		@ args = 0, pretend = 0, frame = 0
 396              		@ frame_needed = 0, uses_anonymous_args = 0
 397              	.LVL41:
 398 0000 10B5     		push	{r4, lr}
 399              		.cfi_def_cfa_offset 8
 400              		.cfi_offset 4, -8
 401              		.cfi_offset 14, -4
 402 0002 0446     		mov	r4, r0
 395:..\source/cal.c ****     uint8 result;
 396:..\source/cal.c ****     
ARM GAS  C:\Users\tslator\AppData\Local\Temp\ccc8OXeR.s 			page 15


 397:..\source/cal.c ****     switch (cal->state)
 403              		.loc 1 397 0
 404 0004 0378     		ldrb	r3, [r0]	@ zero_extendqisi2
 405 0006 042B     		cmp	r3, #4
 406 0008 42D8     		bhi	.L30
 407 000a DFE803F0 		tbb	[pc, r3]
 408              	.L32:
 409 000e 03       		.byte	(.L31-.L32)/2
 410 000f 0F       		.byte	(.L33-.L32)/2
 411 0010 1B       		.byte	(.L34-.L32)/2
 412 0011 29       		.byte	(.L35-.L32)/2
 413 0012 35       		.byte	(.L36-.L32)/2
 414 0013 00       		.p2align 1
 415              	.L31:
 398:..\source/cal.c ****     {
 399:..\source/cal.c ****         case CAL_INIT_STATE:
 400:..\source/cal.c ****             result = cal->init(cal->stage, cal->params);
 416              		.loc 1 400 0
 417 0014 8368     		ldr	r3, [r0, #8]
 418 0016 4078     		ldrb	r0, [r0, #1]	@ zero_extendqisi2
 419              	.LVL42:
 420 0018 6168     		ldr	r1, [r4, #4]
 421 001a 9847     		blx	r3
 422              	.LVL43:
 401:..\source/cal.c ****             if (result == CAL_OK)
 423              		.loc 1 401 0
 424 001c 10B9     		cbnz	r0, .L37
 402:..\source/cal.c ****             {
 403:..\source/cal.c ****                 cal->state = CAL_START_STATE;
 425              		.loc 1 403 0
 426 001e 0123     		movs	r3, #1
 427 0020 2370     		strb	r3, [r4]
 428 0022 10BD     		pop	{r4, pc}
 429              	.LVL44:
 430              	.L37:
 404:..\source/cal.c ****             }
 405:..\source/cal.c ****             else
 406:..\source/cal.c ****             {
 407:..\source/cal.c ****                 HandleError(cal);
 431              		.loc 1 407 0
 432 0024 2046     		mov	r0, r4
 433              	.LVL45:
 434 0026 FFF7FEFF 		bl	HandleError
 435              	.LVL46:
 436 002a 10BD     		pop	{r4, pc}
 437              	.LVL47:
 438              	.L33:
 408:..\source/cal.c ****             }
 409:..\source/cal.c ****             break;
 410:..\source/cal.c ****             
 411:..\source/cal.c ****         case CAL_START_STATE:
 412:..\source/cal.c ****             result = cal->start(cal->stage, cal->params);
 439              		.loc 1 412 0
 440 002c C368     		ldr	r3, [r0, #12]
 441 002e 4078     		ldrb	r0, [r0, #1]	@ zero_extendqisi2
 442              	.LVL48:
 443 0030 6168     		ldr	r1, [r4, #4]
ARM GAS  C:\Users\tslator\AppData\Local\Temp\ccc8OXeR.s 			page 16


 444 0032 9847     		blx	r3
 445              	.LVL49:
 413:..\source/cal.c ****             if (result == CAL_OK)
 446              		.loc 1 413 0
 447 0034 10B9     		cbnz	r0, .L39
 414:..\source/cal.c ****             {
 415:..\source/cal.c ****                 cal->state = CAL_RUNNING_STATE;
 448              		.loc 1 415 0
 449 0036 0223     		movs	r3, #2
 450 0038 2370     		strb	r3, [r4]
 451 003a 10BD     		pop	{r4, pc}
 452              	.LVL50:
 453              	.L39:
 416:..\source/cal.c ****             }
 417:..\source/cal.c ****             else
 418:..\source/cal.c ****             {
 419:..\source/cal.c ****                 HandleError(cal);
 454              		.loc 1 419 0
 455 003c 2046     		mov	r0, r4
 456              	.LVL51:
 457 003e FFF7FEFF 		bl	HandleError
 458              	.LVL52:
 459 0042 10BD     		pop	{r4, pc}
 460              	.LVL53:
 461              	.L34:
 420:..\source/cal.c ****             }
 421:..\source/cal.c ****             break;
 422:..\source/cal.c ****             
 423:..\source/cal.c ****         case CAL_RUNNING_STATE:
 424:..\source/cal.c ****             result = cal->update(cal->stage, cal->params);
 462              		.loc 1 424 0
 463 0044 0369     		ldr	r3, [r0, #16]
 464 0046 4078     		ldrb	r0, [r0, #1]	@ zero_extendqisi2
 465              	.LVL54:
 466 0048 6168     		ldr	r1, [r4, #4]
 467 004a 9847     		blx	r3
 468              	.LVL55:
 425:..\source/cal.c ****             if (result == CAL_COMPLETE)
 469              		.loc 1 425 0
 470 004c 0128     		cmp	r0, #1
 471 004e 02D1     		bne	.L40
 426:..\source/cal.c ****             {
 427:..\source/cal.c ****                 cal->state = CAL_STOP_STATE;
 472              		.loc 1 427 0
 473 0050 0323     		movs	r3, #3
 474 0052 2370     		strb	r3, [r4]
 475 0054 10BD     		pop	{r4, pc}
 476              	.LVL56:
 477              	.L40:
 428:..\source/cal.c ****             }
 429:..\source/cal.c ****             else if (result == CAL_OK)
 478              		.loc 1 429 0
 479 0056 10B3     		cbz	r0, .L29
 430:..\source/cal.c ****             {
 431:..\source/cal.c ****                 /* Figure out how to output a progress indication ... that will work for all calibr
 432:..\source/cal.c ****             }
 433:..\source/cal.c ****             else
ARM GAS  C:\Users\tslator\AppData\Local\Temp\ccc8OXeR.s 			page 17


 434:..\source/cal.c ****             {
 435:..\source/cal.c ****                 HandleError(cal);
 480              		.loc 1 435 0
 481 0058 2046     		mov	r0, r4
 482              	.LVL57:
 483 005a FFF7FEFF 		bl	HandleError
 484              	.LVL58:
 485 005e 10BD     		pop	{r4, pc}
 486              	.LVL59:
 487              	.L35:
 436:..\source/cal.c ****             }
 437:..\source/cal.c ****             break;
 438:..\source/cal.c ****             
 439:..\source/cal.c ****         case CAL_STOP_STATE:
 440:..\source/cal.c ****             result = cal->stop(cal->stage, cal->params);
 488              		.loc 1 440 0
 489 0060 4369     		ldr	r3, [r0, #20]
 490 0062 4078     		ldrb	r0, [r0, #1]	@ zero_extendqisi2
 491              	.LVL60:
 492 0064 6168     		ldr	r1, [r4, #4]
 493 0066 9847     		blx	r3
 494              	.LVL61:
 441:..\source/cal.c ****             if (result == CAL_OK)
 495              		.loc 1 441 0
 496 0068 10B9     		cbnz	r0, .L41
 442:..\source/cal.c ****             {
 443:..\source/cal.c ****                 cal->state = CAL_RESULTS_STATE;
 497              		.loc 1 443 0
 498 006a 0423     		movs	r3, #4
 499 006c 2370     		strb	r3, [r4]
 500 006e 10BD     		pop	{r4, pc}
 501              	.LVL62:
 502              	.L41:
 444:..\source/cal.c ****             }
 445:..\source/cal.c ****             else
 446:..\source/cal.c ****             {
 447:..\source/cal.c ****                 HandleError(cal);
 503              		.loc 1 447 0
 504 0070 2046     		mov	r0, r4
 505              	.LVL63:
 506 0072 FFF7FEFF 		bl	HandleError
 507              	.LVL64:
 508 0076 10BD     		pop	{r4, pc}
 509              	.LVL65:
 510              	.L36:
 448:..\source/cal.c ****             }
 449:..\source/cal.c ****             break;
 450:..\source/cal.c ****             
 451:..\source/cal.c ****         case CAL_RESULTS_STATE:
 452:..\source/cal.c ****             result = cal->results(cal->stage, cal->params);
 511              		.loc 1 452 0
 512 0078 8369     		ldr	r3, [r0, #24]
 513 007a 4078     		ldrb	r0, [r0, #1]	@ zero_extendqisi2
 514              	.LVL66:
 515 007c 6168     		ldr	r1, [r4, #4]
 516 007e 9847     		blx	r3
 517              	.LVL67:
ARM GAS  C:\Users\tslator\AppData\Local\Temp\ccc8OXeR.s 			page 18


 453:..\source/cal.c ****             if (result == CAL_OK)
 518              		.loc 1 453 0
 519 0080 10B9     		cbnz	r0, .L42
 454:..\source/cal.c ****             {
 455:..\source/cal.c ****                 cal->state = CAL_DONE_STATE;                
 520              		.loc 1 455 0
 521 0082 0523     		movs	r3, #5
 522 0084 2370     		strb	r3, [r4]
 523 0086 10BD     		pop	{r4, pc}
 524              	.LVL68:
 525              	.L42:
 456:..\source/cal.c ****             }
 457:..\source/cal.c ****             else
 458:..\source/cal.c ****             {
 459:..\source/cal.c ****                 HandleError(cal);
 526              		.loc 1 459 0
 527 0088 2046     		mov	r0, r4
 528              	.LVL69:
 529 008a FFF7FEFF 		bl	HandleError
 530              	.LVL70:
 531 008e 10BD     		pop	{r4, pc}
 532              	.LVL71:
 533              	.L30:
 460:..\source/cal.c ****             }
 461:..\source/cal.c ****             break;
 462:..\source/cal.c ****             
 463:..\source/cal.c ****         case CAL_DONE_STATE:
 464:..\source/cal.c ****         default:
 465:..\source/cal.c ****             active_cal = (CALIBRATION_TYPE *) 0;
 534              		.loc 1 465 0
 535 0090 034B     		ldr	r3, .L44
 536 0092 0022     		movs	r2, #0
 537 0094 9A60     		str	r2, [r3, #8]
 466:..\source/cal.c ****             active_val = (CALIBRATION_TYPE *) 0;
 538              		.loc 1 466 0
 539 0096 DA60     		str	r2, [r3, #12]
 467:..\source/cal.c ****             DisplayMenu(cal->stage);
 540              		.loc 1 467 0
 541 0098 4078     		ldrb	r0, [r0, #1]	@ zero_extendqisi2
 542              	.LVL72:
 543 009a FFF7FEFF 		bl	DisplayMenu
 544              	.LVL73:
 545              	.L29:
 546 009e 10BD     		pop	{r4, pc}
 547              	.LVL74:
 548              	.L45:
 549              		.align	2
 550              	.L44:
 551 00a0 00000000 		.word	.LANCHOR0
 552              		.cfi_endproc
 553              	.LFE79:
 554              		.size	ProcessCalibration, .-ProcessCalibration
 555              		.section	.text.DisplayExit,"ax",%progbits
 556              		.align	2
 557              		.thumb
 558              		.thumb_func
 559              		.type	DisplayExit, %function
ARM GAS  C:\Users\tslator\AppData\Local\Temp\ccc8OXeR.s 			page 19


 560              	DisplayExit:
 561              	.LFB73:
 190:..\source/cal.c ****     Ser_PutString("\r\nExiting Arlobot calibration/validation interface.");
 562              		.loc 1 190 0
 563              		.cfi_startproc
 564              		@ args = 0, pretend = 0, frame = 0
 565              		@ frame_needed = 0, uses_anonymous_args = 0
 566 0000 08B5     		push	{r3, lr}
 567              		.cfi_def_cfa_offset 8
 568              		.cfi_offset 3, -8
 569              		.cfi_offset 14, -4
 191:..\source/cal.c ****     Ser_PutString("\r\nType 'C' to enter calibration, 'V' to enter validation, 'D' to display setti
 570              		.loc 1 191 0
 571 0002 0348     		ldr	r0, .L48
 572 0004 FFF7FEFF 		bl	Ser_PutString
 573              	.LVL75:
 192:..\source/cal.c **** }
 574              		.loc 1 192 0
 575 0008 0248     		ldr	r0, .L48+4
 576 000a FFF7FEFF 		bl	Ser_PutString
 577              	.LVL76:
 578 000e 08BD     		pop	{r3, pc}
 579              	.L49:
 580              		.align	2
 581              	.L48:
 582 0010 D4060000 		.word	.LC27
 583 0014 08070000 		.word	.LC28
 584              		.cfi_endproc
 585              	.LFE73:
 586              		.size	DisplayExit, .-DisplayExit
 587              		.section	.text.GetCommand,"ax",%progbits
 588              		.align	2
 589              		.thumb
 590              		.thumb_func
 591              		.type	GetCommand, %function
 592              	GetCommand:
 593              	.LFB75:
 242:..\source/cal.c ****     char value = Ser_ReadByte();
 594              		.loc 1 242 0
 595              		.cfi_startproc
 596              		@ args = 0, pretend = 0, frame = 0
 597              		@ frame_needed = 0, uses_anonymous_args = 0
 598 0000 08B5     		push	{r3, lr}
 599              		.cfi_def_cfa_offset 8
 600              		.cfi_offset 3, -8
 601              		.cfi_offset 14, -4
 243:..\source/cal.c ****         
 602              		.loc 1 243 0
 603 0002 FFF7FEFF 		bl	Ser_ReadByte
 604              	.LVL77:
 245:..\source/cal.c ****     {
 605              		.loc 1 245 0
 606 0006 A0F14303 		sub	r3, r0, #67
 607 000a 352B     		cmp	r3, #53
 608 000c 23D8     		bhi	.L52
 609 000e DFE803F0 		tbb	[pc, r3]
 610              	.L53:
ARM GAS  C:\Users\tslator\AppData\Local\Temp\ccc8OXeR.s 			page 20


 611 0012 21       		.byte	(.L57-.L53)/2
 612 0013 1D       		.byte	(.L54-.L53)/2
 613 0014 22       		.byte	(.L52-.L53)/2
 614 0015 22       		.byte	(.L52-.L53)/2
 615 0016 22       		.byte	(.L52-.L53)/2
 616 0017 22       		.byte	(.L52-.L53)/2
 617 0018 22       		.byte	(.L52-.L53)/2
 618 0019 22       		.byte	(.L52-.L53)/2
 619 001a 22       		.byte	(.L52-.L53)/2
 620 001b 22       		.byte	(.L52-.L53)/2
 621 001c 22       		.byte	(.L52-.L53)/2
 622 001d 22       		.byte	(.L52-.L53)/2
 623 001e 22       		.byte	(.L52-.L53)/2
 624 001f 22       		.byte	(.L52-.L53)/2
 625 0020 22       		.byte	(.L52-.L53)/2
 626 0021 22       		.byte	(.L52-.L53)/2
 627 0022 22       		.byte	(.L52-.L53)/2
 628 0023 22       		.byte	(.L52-.L53)/2
 629 0024 22       		.byte	(.L52-.L53)/2
 630 0025 1B       		.byte	(.L55-.L53)/2
 631 0026 22       		.byte	(.L52-.L53)/2
 632 0027 1F       		.byte	(.L56-.L53)/2
 633 0028 22       		.byte	(.L52-.L53)/2
 634 0029 22       		.byte	(.L52-.L53)/2
 635 002a 22       		.byte	(.L52-.L53)/2
 636 002b 22       		.byte	(.L52-.L53)/2
 637 002c 22       		.byte	(.L52-.L53)/2
 638 002d 22       		.byte	(.L52-.L53)/2
 639 002e 22       		.byte	(.L52-.L53)/2
 640 002f 22       		.byte	(.L52-.L53)/2
 641 0030 22       		.byte	(.L52-.L53)/2
 642 0031 22       		.byte	(.L52-.L53)/2
 643 0032 21       		.byte	(.L57-.L53)/2
 644 0033 1D       		.byte	(.L54-.L53)/2
 645 0034 22       		.byte	(.L52-.L53)/2
 646 0035 22       		.byte	(.L52-.L53)/2
 647 0036 22       		.byte	(.L52-.L53)/2
 648 0037 22       		.byte	(.L52-.L53)/2
 649 0038 22       		.byte	(.L52-.L53)/2
 650 0039 22       		.byte	(.L52-.L53)/2
 651 003a 22       		.byte	(.L52-.L53)/2
 652 003b 22       		.byte	(.L52-.L53)/2
 653 003c 22       		.byte	(.L52-.L53)/2
 654 003d 22       		.byte	(.L52-.L53)/2
 655 003e 22       		.byte	(.L52-.L53)/2
 656 003f 22       		.byte	(.L52-.L53)/2
 657 0040 22       		.byte	(.L52-.L53)/2
 658 0041 22       		.byte	(.L52-.L53)/2
 659 0042 22       		.byte	(.L52-.L53)/2
 660 0043 22       		.byte	(.L52-.L53)/2
 661 0044 22       		.byte	(.L52-.L53)/2
 662 0045 1B       		.byte	(.L55-.L53)/2
 663 0046 22       		.byte	(.L52-.L53)/2
 664 0047 1F       		.byte	(.L56-.L53)/2
 665              		.p2align 1
 666              	.L55:
 667              	.LVL78:
ARM GAS  C:\Users\tslator\AppData\Local\Temp\ccc8OXeR.s 			page 21


 254:..\source/cal.c ****             break;
 668              		.loc 1 254 0
 669 0048 7620     		movs	r0, #118
 255:..\source/cal.c ****             
 670              		.loc 1 255 0
 671 004a 08BD     		pop	{r3, pc}
 672              	.LVL79:
 673              	.L54:
 259:..\source/cal.c ****             break;
 674              		.loc 1 259 0
 675 004c 7320     		movs	r0, #115
 260:..\source/cal.c **** 
 676              		.loc 1 260 0
 677 004e 08BD     		pop	{r3, pc}
 678              	.LVL80:
 679              	.L56:
 264:..\source/cal.c ****             break;
 680              		.loc 1 264 0
 681 0050 7820     		movs	r0, #120
 265:..\source/cal.c ****     }
 682              		.loc 1 265 0
 683 0052 08BD     		pop	{r3, pc}
 684              	.LVL81:
 685              	.L57:
 249:..\source/cal.c ****             break;
 686              		.loc 1 249 0
 687 0054 6320     		movs	r0, #99
 688              	.LVL82:
 689              	.L52:
 269:..\source/cal.c **** 
 690              		.loc 1 269 0
 691 0056 08BD     		pop	{r3, pc}
 692              		.cfi_endproc
 693              	.LFE75:
 694              		.size	GetCommand, .-GetCommand
 695              		.section	.text.GetCalibration,"ax",%progbits
 696              		.align	2
 697              		.thumb
 698              		.thumb_func
 699              		.type	GetCalibration, %function
 700              	GetCalibration:
 701              	.LFB76:
 272:..\source/cal.c ****     CAL_PID_PARAMS *p_pid_params;
 702              		.loc 1 272 0
 703              		.cfi_startproc
 704              		@ args = 0, pretend = 0, frame = 0
 705              		@ frame_needed = 0, uses_anonymous_args = 0
 706              	.LVL83:
 707 0000 08B5     		push	{r3, lr}
 708              		.cfi_def_cfa_offset 8
 709              		.cfi_offset 3, -8
 710              		.cfi_offset 14, -4
 275:..\source/cal.c ****     {
 711              		.loc 1 275 0
 712 0002 3228     		cmp	r0, #50
 713 0004 0BD0     		beq	.L61
 714 0006 3328     		cmp	r0, #51
ARM GAS  C:\Users\tslator\AppData\Local\Temp\ccc8OXeR.s 			page 22


 715 0008 11D0     		beq	.L62
 716 000a 3128     		cmp	r0, #49
 717 000c 17D1     		bne	.L65
 278:..\source/cal.c ****             CalMotor_Calibration->state = CAL_INIT_STATE;
 718              		.loc 1 278 0
 719 000e FFF7FEFF 		bl	Ser_WriteByte
 720              	.LVL84:
 279:..\source/cal.c ****             return CalMotor_Calibration;
 721              		.loc 1 279 0
 722 0012 0C4B     		ldr	r3, .L67
 723 0014 1A68     		ldr	r2, [r3]
 724 0016 0021     		movs	r1, #0
 725 0018 1170     		strb	r1, [r2]
 280:..\source/cal.c ****             
 726              		.loc 1 280 0
 727 001a 1868     		ldr	r0, [r3]
 728 001c 08BD     		pop	{r3, pc}
 729              	.LVL85:
 730              	.L61:
 283:..\source/cal.c ****             CalPid_LeftCalibration->state = CAL_INIT_STATE;
 731              		.loc 1 283 0
 732 001e FFF7FEFF 		bl	Ser_WriteByte
 733              	.LVL86:
 284:..\source/cal.c ****             return CalPid_LeftCalibration;
 734              		.loc 1 284 0
 735 0022 094B     		ldr	r3, .L67+4
 736 0024 1A68     		ldr	r2, [r3]
 737 0026 0021     		movs	r1, #0
 738 0028 1170     		strb	r1, [r2]
 285:..\source/cal.c ****             break;
 739              		.loc 1 285 0
 740 002a 1868     		ldr	r0, [r3]
 741 002c 08BD     		pop	{r3, pc}
 742              	.LVL87:
 743              	.L62:
 289:..\source/cal.c ****             CalPid_RightCalibration->state = CAL_INIT_STATE;
 744              		.loc 1 289 0
 745 002e FFF7FEFF 		bl	Ser_WriteByte
 746              	.LVL88:
 290:..\source/cal.c ****             return CalPid_RightCalibration;
 747              		.loc 1 290 0
 748 0032 064B     		ldr	r3, .L67+8
 749 0034 1A68     		ldr	r2, [r3]
 750 0036 0021     		movs	r1, #0
 751 0038 1170     		strb	r1, [r2]
 291:..\source/cal.c ****             break;
 752              		.loc 1 291 0
 753 003a 1868     		ldr	r0, [r3]
 754 003c 08BD     		pop	{r3, pc}
 755              	.LVL89:
 756              	.L65:
 298:..\source/cal.c **** }
 757              		.loc 1 298 0
 758 003e 0020     		movs	r0, #0
 759              	.LVL90:
 299:..\source/cal.c **** 
 760              		.loc 1 299 0
ARM GAS  C:\Users\tslator\AppData\Local\Temp\ccc8OXeR.s 			page 23


 761 0040 08BD     		pop	{r3, pc}
 762              	.L68:
 763 0042 00BF     		.align	2
 764              	.L67:
 765 0044 00000000 		.word	CalMotor_Calibration
 766 0048 00000000 		.word	CalPid_LeftCalibration
 767 004c 00000000 		.word	CalPid_RightCalibration
 768              		.cfi_endproc
 769              	.LFE76:
 770              		.size	GetCalibration, .-GetCalibration
 771              		.section	.text.GetValidation,"ax",%progbits
 772              		.align	2
 773              		.thumb
 774              		.thumb_func
 775              		.type	GetValidation, %function
 776              	GetValidation:
 777              	.LFB77:
 302:..\source/cal.c ****     switch (cmd)
 778              		.loc 1 302 0
 779              		.cfi_startproc
 780              		@ args = 0, pretend = 0, frame = 0
 781              		@ frame_needed = 0, uses_anonymous_args = 0
 782              	.LVL91:
 783 0000 08B5     		push	{r3, lr}
 784              		.cfi_def_cfa_offset 8
 785              		.cfi_offset 3, -8
 786              		.cfi_offset 14, -4
 303:..\source/cal.c ****     {
 787              		.loc 1 303 0
 788 0002 A0F13103 		sub	r3, r0, #49
 789 0006 072B     		cmp	r3, #7
 790 0008 00F28480 		bhi	.L80
 791 000c DFE803F0 		tbb	[pc, r3]
 792              	.L72:
 793 0010 04       		.byte	(.L71-.L72)/2
 794 0011 12       		.byte	(.L73-.L72)/2
 795 0012 20       		.byte	(.L74-.L72)/2
 796 0013 30       		.byte	(.L75-.L72)/2
 797 0014 40       		.byte	(.L76-.L72)/2
 798 0015 50       		.byte	(.L77-.L72)/2
 799 0016 60       		.byte	(.L78-.L72)/2
 800 0017 71       		.byte	(.L79-.L72)/2
 801              		.p2align 1
 802              	.L71:
 306:..\source/cal.c ****             Ser_PutString("\r\nPerforming Motor Validation by operating the motors at varying veloc
 803              		.loc 1 306 0
 804 0018 FFF7FEFF 		bl	Ser_WriteByte
 805              	.LVL92:
 307:..\source/cal.c ****             CalMotor_Validation->stage = CAL_VALIDATE_STAGE;
 806              		.loc 1 307 0
 807 001c 3E48     		ldr	r0, .L82
 808 001e FFF7FEFF 		bl	Ser_PutString
 809              	.LVL93:
 308:..\source/cal.c ****             CalMotor_Validation->state = CAL_INIT_STATE;
 810              		.loc 1 308 0
 811 0022 3E4B     		ldr	r3, .L82+4
 812 0024 1A68     		ldr	r2, [r3]
ARM GAS  C:\Users\tslator\AppData\Local\Temp\ccc8OXeR.s 			page 24


 813 0026 0121     		movs	r1, #1
 814 0028 5170     		strb	r1, [r2, #1]
 309:..\source/cal.c ****             return (CALIBRATION_TYPE *) CalMotor_Validation;
 815              		.loc 1 309 0
 816 002a 1A68     		ldr	r2, [r3]
 817 002c 0021     		movs	r1, #0
 818 002e 1170     		strb	r1, [r2]
 310:..\source/cal.c ****             break;
 819              		.loc 1 310 0
 820 0030 1868     		ldr	r0, [r3]
 821 0032 08BD     		pop	{r3, pc}
 822              	.LVL94:
 823              	.L73:
 314:..\source/cal.c ****             Ser_PutString("\r\nPerforming Left/Right PID Validation by operating the motors at vary
 824              		.loc 1 314 0
 825 0034 FFF7FEFF 		bl	Ser_WriteByte
 826              	.LVL95:
 315:..\source/cal.c ****             CalPid_LeftValidation->stage = CAL_VALIDATE_STAGE;
 827              		.loc 1 315 0
 828 0038 3948     		ldr	r0, .L82+8
 829 003a FFF7FEFF 		bl	Ser_PutString
 830              	.LVL96:
 316:..\source/cal.c ****             CalPid_LeftValidation->state = CAL_INIT_STATE;
 831              		.loc 1 316 0
 832 003e 394B     		ldr	r3, .L82+12
 833 0040 1A68     		ldr	r2, [r3]
 834 0042 0121     		movs	r1, #1
 835 0044 5170     		strb	r1, [r2, #1]
 317:..\source/cal.c ****             return (CALIBRATION_TYPE *) CalPid_LeftValidation;
 836              		.loc 1 317 0
 837 0046 1A68     		ldr	r2, [r3]
 838 0048 0021     		movs	r1, #0
 839 004a 1170     		strb	r1, [r2]
 318:..\source/cal.c ****             break;
 840              		.loc 1 318 0
 841 004c 1868     		ldr	r0, [r3]
 842 004e 08BD     		pop	{r3, pc}
 843              	.LVL97:
 844              	.L74:
 322:..\source/cal.c ****             Ser_PutString("\r\nPerforming Left PID validation in the forward direction.\r\n");
 845              		.loc 1 322 0
 846 0050 FFF7FEFF 		bl	Ser_WriteByte
 847              	.LVL98:
 323:..\source/cal.c ****             CalPid_LeftValidation->stage = CAL_VALIDATE_STAGE;
 848              		.loc 1 323 0
 849 0054 3448     		ldr	r0, .L82+16
 850 0056 FFF7FEFF 		bl	Ser_PutString
 851              	.LVL99:
 324:..\source/cal.c ****             CalPid_LeftValidation->state = CAL_INIT_STATE;
 852              		.loc 1 324 0
 853 005a 324B     		ldr	r3, .L82+12
 854 005c 1A68     		ldr	r2, [r3]
 855 005e 0121     		movs	r1, #1
 856 0060 5170     		strb	r1, [r2, #1]
 325:..\source/cal.c ****             ((CAL_PID_PARAMS *)(CalPid_LeftValidation->params))->direction = DIR_FORWARD;
 857              		.loc 1 325 0
 858 0062 1968     		ldr	r1, [r3]
ARM GAS  C:\Users\tslator\AppData\Local\Temp\ccc8OXeR.s 			page 25


 859 0064 0022     		movs	r2, #0
 860 0066 0A70     		strb	r2, [r1]
 326:..\source/cal.c ****             return (CALIBRATION_TYPE *) CalPid_LeftValidation;
 861              		.loc 1 326 0
 862 0068 1868     		ldr	r0, [r3]
 863 006a 4368     		ldr	r3, [r0, #4]
 864 006c DA71     		strb	r2, [r3, #7]
 327:..\source/cal.c ****             break;
 865              		.loc 1 327 0
 866 006e 08BD     		pop	{r3, pc}
 867              	.LVL100:
 868              	.L75:
 331:..\source/cal.c ****             Ser_PutString("\r\nPerforming Left PID validation in the backward direction.\r\n");
 869              		.loc 1 331 0
 870 0070 FFF7FEFF 		bl	Ser_WriteByte
 871              	.LVL101:
 332:..\source/cal.c ****             CalPid_LeftValidation->stage = CAL_VALIDATE_STAGE;
 872              		.loc 1 332 0
 873 0074 2D48     		ldr	r0, .L82+20
 874 0076 FFF7FEFF 		bl	Ser_PutString
 875              	.LVL102:
 333:..\source/cal.c ****             CalPid_LeftValidation->state = CAL_INIT_STATE;
 876              		.loc 1 333 0
 877 007a 2A4B     		ldr	r3, .L82+12
 878 007c 1968     		ldr	r1, [r3]
 879 007e 0122     		movs	r2, #1
 880 0080 4A70     		strb	r2, [r1, #1]
 334:..\source/cal.c ****             ((CAL_PID_PARAMS *)(CalPid_LeftValidation->params))->direction = DIR_BACKWARD;
 881              		.loc 1 334 0
 882 0082 1968     		ldr	r1, [r3]
 883 0084 0020     		movs	r0, #0
 884 0086 0870     		strb	r0, [r1]
 335:..\source/cal.c ****             return (CALIBRATION_TYPE *) CalPid_LeftValidation;
 885              		.loc 1 335 0
 886 0088 1868     		ldr	r0, [r3]
 887 008a 4368     		ldr	r3, [r0, #4]
 888 008c DA71     		strb	r2, [r3, #7]
 336:..\source/cal.c ****             break;
 889              		.loc 1 336 0
 890 008e 08BD     		pop	{r3, pc}
 891              	.LVL103:
 892              	.L76:
 340:..\source/cal.c ****             Ser_PutString("\r\nPerforming Right PID validation in the forward direction.\r\n");
 893              		.loc 1 340 0
 894 0090 FFF7FEFF 		bl	Ser_WriteByte
 895              	.LVL104:
 341:..\source/cal.c ****             CalPid_RightValidation->stage = CAL_VALIDATE_STAGE;
 896              		.loc 1 341 0
 897 0094 2648     		ldr	r0, .L82+24
 898 0096 FFF7FEFF 		bl	Ser_PutString
 899              	.LVL105:
 342:..\source/cal.c ****             CalPid_RightValidation->state = CAL_INIT_STATE;
 900              		.loc 1 342 0
 901 009a 264B     		ldr	r3, .L82+28
 902 009c 1A68     		ldr	r2, [r3]
 903 009e 0121     		movs	r1, #1
 904 00a0 5170     		strb	r1, [r2, #1]
ARM GAS  C:\Users\tslator\AppData\Local\Temp\ccc8OXeR.s 			page 26


 343:..\source/cal.c ****             ((CAL_PID_PARAMS *)(CalPid_RightValidation->params))->direction = DIR_FORWARD;
 905              		.loc 1 343 0
 906 00a2 1968     		ldr	r1, [r3]
 907 00a4 0022     		movs	r2, #0
 908 00a6 0A70     		strb	r2, [r1]
 344:..\source/cal.c ****             return (CALIBRATION_TYPE *) CalPid_RightValidation;
 909              		.loc 1 344 0
 910 00a8 1868     		ldr	r0, [r3]
 911 00aa 4368     		ldr	r3, [r0, #4]
 912 00ac DA71     		strb	r2, [r3, #7]
 345:..\source/cal.c ****             break;
 913              		.loc 1 345 0
 914 00ae 08BD     		pop	{r3, pc}
 915              	.LVL106:
 916              	.L77:
 349:..\source/cal.c ****             Ser_PutString("\r\nPerforming Right PID validation in the backward direction.\r\n");
 917              		.loc 1 349 0
 918 00b0 FFF7FEFF 		bl	Ser_WriteByte
 919              	.LVL107:
 350:..\source/cal.c ****             CalPid_RightValidation->stage = CAL_VALIDATE_STAGE;
 920              		.loc 1 350 0
 921 00b4 2048     		ldr	r0, .L82+32
 922 00b6 FFF7FEFF 		bl	Ser_PutString
 923              	.LVL108:
 351:..\source/cal.c ****             CalPid_RightValidation->state = CAL_INIT_STATE;
 924              		.loc 1 351 0
 925 00ba 1E4B     		ldr	r3, .L82+28
 926 00bc 1968     		ldr	r1, [r3]
 927 00be 0122     		movs	r2, #1
 928 00c0 4A70     		strb	r2, [r1, #1]
 352:..\source/cal.c ****             ((CAL_PID_PARAMS *)(CalPid_RightValidation->params))->direction = DIR_BACKWARD;
 929              		.loc 1 352 0
 930 00c2 1968     		ldr	r1, [r3]
 931 00c4 0020     		movs	r0, #0
 932 00c6 0870     		strb	r0, [r1]
 353:..\source/cal.c ****             return (CALIBRATION_TYPE *) CalPid_RightValidation;
 933              		.loc 1 353 0
 934 00c8 1868     		ldr	r0, [r3]
 935 00ca 4368     		ldr	r3, [r0, #4]
 936 00cc DA71     		strb	r2, [r3, #7]
 354:..\source/cal.c ****             break;
 937              		.loc 1 354 0
 938 00ce 08BD     		pop	{r3, pc}
 939              	.LVL109:
 940              	.L78:
 358:..\source/cal.c ****             Ser_PutString("\r\nPerforming straight line validation in the forward direction.\r\n");
 941              		.loc 1 358 0
 942 00d0 FFF7FEFF 		bl	Ser_WriteByte
 943              	.LVL110:
 359:..\source/cal.c ****             CalLin_Validation->stage = CAL_VALIDATE_STAGE;
 944              		.loc 1 359 0
 945 00d4 1948     		ldr	r0, .L82+36
 946 00d6 FFF7FEFF 		bl	Ser_PutString
 947              	.LVL111:
 360:..\source/cal.c ****             CalLin_Validation->state = CAL_INIT_STATE;
 948              		.loc 1 360 0
 949 00da 194B     		ldr	r3, .L82+40
ARM GAS  C:\Users\tslator\AppData\Local\Temp\ccc8OXeR.s 			page 27


 950 00dc 1A68     		ldr	r2, [r3]
 951 00de 0121     		movs	r1, #1
 952 00e0 5170     		strb	r1, [r2, #1]
 361:..\source/cal.c ****             ((CAL_LIN_PARAMS *)(CalLin_Validation->params))->direction = DIR_FORWARD;
 953              		.loc 1 361 0
 954 00e2 1968     		ldr	r1, [r3]
 955 00e4 0022     		movs	r2, #0
 956 00e6 0A70     		strb	r2, [r1]
 362:..\source/cal.c ****             return (CALIBRATION_TYPE *) CalLin_Validation;
 957              		.loc 1 362 0
 958 00e8 1968     		ldr	r1, [r3]
 959 00ea 4968     		ldr	r1, [r1, #4]
 960 00ec 0A70     		strb	r2, [r1]
 363:..\source/cal.c ****             break;
 961              		.loc 1 363 0
 962 00ee 1868     		ldr	r0, [r3]
 963 00f0 08BD     		pop	{r3, pc}
 964              	.LVL112:
 965              	.L79:
 367:..\source/cal.c ****             Ser_PutString("\r\nPerforming straight line validation in the backward direction.\r\n")
 966              		.loc 1 367 0
 967 00f2 FFF7FEFF 		bl	Ser_WriteByte
 968              	.LVL113:
 368:..\source/cal.c ****             CalLin_Validation->stage = CAL_VALIDATE_STAGE;
 969              		.loc 1 368 0
 970 00f6 1348     		ldr	r0, .L82+44
 971 00f8 FFF7FEFF 		bl	Ser_PutString
 972              	.LVL114:
 369:..\source/cal.c ****             CalLin_Validation->state = CAL_INIT_STATE;
 973              		.loc 1 369 0
 974 00fc 104B     		ldr	r3, .L82+40
 975 00fe 1968     		ldr	r1, [r3]
 976 0100 0122     		movs	r2, #1
 977 0102 4A70     		strb	r2, [r1, #1]
 370:..\source/cal.c ****             ((CAL_LIN_PARAMS *)(CalLin_Validation->params))->direction = DIR_BACKWARD;
 978              		.loc 1 370 0
 979 0104 1968     		ldr	r1, [r3]
 980 0106 0020     		movs	r0, #0
 981 0108 0870     		strb	r0, [r1]
 371:..\source/cal.c ****             return (CALIBRATION_TYPE *) CalLin_Validation;
 982              		.loc 1 371 0
 983 010a 1968     		ldr	r1, [r3]
 984 010c 4968     		ldr	r1, [r1, #4]
 985 010e 0A70     		strb	r2, [r1]
 372:..\source/cal.c ****             break;
 986              		.loc 1 372 0
 987 0110 1868     		ldr	r0, [r3]
 988 0112 08BD     		pop	{r3, pc}
 989              	.LVL115:
 990              	.L80:
 380:..\source/cal.c **** }
 991              		.loc 1 380 0
 992 0114 0020     		movs	r0, #0
 993              	.LVL116:
 381:..\source/cal.c **** 
 994              		.loc 1 381 0
 995 0116 08BD     		pop	{r3, pc}
ARM GAS  C:\Users\tslator\AppData\Local\Temp\ccc8OXeR.s 			page 28


 996              	.L83:
 997              		.align	2
 998              	.L82:
 999 0118 5C070000 		.word	.LC29
 1000 011c 00000000 		.word	CalMotor_Validation
 1001 0120 AC070000 		.word	.LC30
 1002 0124 00000000 		.word	CalPid_LeftValidation
 1003 0128 04080000 		.word	.LC31
 1004 012c 44080000 		.word	.LC32
 1005 0130 84080000 		.word	.LC33
 1006 0134 00000000 		.word	CalPid_RightValidation
 1007 0138 C4080000 		.word	.LC34
 1008 013c 04090000 		.word	.LC35
 1009 0140 00000000 		.word	CalLin_Validation
 1010 0144 48090000 		.word	.LC36
 1011              		.cfi_endproc
 1012              	.LFE77:
 1013              		.size	GetValidation, .-GetValidation
 1014              		.section	.text.CalcPwm,"ax",%progbits
 1015              		.align	2
 1016              		.thumb
 1017              		.thumb_func
 1018              		.type	CalcPwm, %function
 1019              	CalcPwm:
 1020              	.LFB89:
 468:..\source/cal.c ****             break;
 469:..\source/cal.c ****     }
 470:..\source/cal.c **** }
 471:..\source/cal.c **** 
 472:..\source/cal.c **** /*-------------------------------------------------------------------------------------------------
 473:..\source/cal.c ****  * Module Interface Routines
 474:..\source/cal.c ****  *-------------------------------------------------------------------------------------------------
 475:..\source/cal.c **** void Cal_Init()
 476:..\source/cal.c **** {
 477:..\source/cal.c ****     p_cal_eeprom = NVSTORE_CAL_EEPROM_BASE;
 478:..\source/cal.c ****     Cal_LeftTarget = LeftTarget;
 479:..\source/cal.c ****     Cal_RightTarget = RightTarget;
 480:..\source/cal.c ****     
 481:..\source/cal.c ****     CalMotor_Init();
 482:..\source/cal.c ****     CalPid_Init();
 483:..\source/cal.c ****     CalLin_Init();
 484:..\source/cal.c **** }
 485:..\source/cal.c **** 
 486:..\source/cal.c **** void Cal_Start()
 487:..\source/cal.c **** {
 488:..\source/cal.c ****     //Nvstore_WriteBytes((uint8 *) &left_fwd_cal_data, sizeof(CAL_DATA_TYPE), NVSTORE_CAL_EEPROM_AD
 489:..\source/cal.c ****     //Nvstore_WriteBytes((uint8 *) &left_bwd_cal_data, sizeof(CAL_DATA_TYPE), NVSTORE_CAL_EEPROM_AD
 490:..\source/cal.c ****     //Nvstore_WriteBytes((uint8 *) &right_fwd_cal_data, sizeof(CAL_DATA_TYPE), NVSTORE_CAL_EEPROM_A
 491:..\source/cal.c ****     //Nvstore_WriteBytes((uint8 *) &right_bwd_cal_data, sizeof(CAL_DATA_TYPE), NVSTORE_CAL_EEPROM_A
 492:..\source/cal.c ****     //Nvstore_WriteUint16(0, 0x000f);
 493:..\source/cal.c ****     //Nvstore_WriteFloat(1.07, NVSTORE_CAL_EEPROM_ADDR_TO_OFFSET(&p_cal_eeprom->linear_bias));
 494:..\source/cal.c ****     //Nvstore_WriteFloat(1.0625, NVSTORE_CAL_EEPROM_ADDR_TO_OFFSET(&p_cal_eeprom->angular_bias));
 495:..\source/cal.c **** 
 496:..\source/cal.c ****     uint16 status = p_cal_eeprom->status;
 497:..\source/cal.c ****     I2c_SetCalibrationStatus(status);        
 498:..\source/cal.c **** }
 499:..\source/cal.c **** 
ARM GAS  C:\Users\tslator\AppData\Local\Temp\ccc8OXeR.s 			page 29


 500:..\source/cal.c **** void Cal_Update()
 501:..\source/cal.c **** /* 
 502:..\source/cal.c ****     The following options are available in this modules:
 503:..\source/cal.c ****         1. Calibration
 504:..\source/cal.c ****         2. Validation
 505:..\source/cal.c ****         3. Settings Display
 506:..\source/cal.c ****     Only one can be active at a time
 507:..\source/cal.c **** 
 508:..\source/cal.c ****     State Machine:
 509:..\source/cal.c ****         STATE_INIT - waiting for command to engage one of the above functionalities.  
 510:..\source/cal.c ****             If command is 'c'|'C', then enter STATE_CALIBRATION
 511:..\source/cal.c ****             If command is 'v'|'V', then enter STATE_VALIDATION
 512:..\source/cal.c ****             If command is 'd'|'D', then enter STATE_SETTINGS
 513:..\source/cal.c ****             If command is 'x'|'X', then return to STATE_INIT
 514:..\source/cal.c **** 
 515:..\source/cal.c ****         STATE_CALIBRATION - waiting for calibration commands (as shown in calibration menu)
 516:..\source/cal.c ****             ...
 517:..\source/cal.c ****             If command is 'x'|'X', then return to STATE_INIT
 518:..\source/cal.c **** 
 519:..\source/cal.c ****         STATE_VALIDATION - waiting for validation commands (as shown in validation menu)
 520:..\source/cal.c ****             ...
 521:..\source/cal.c ****             If command is 'x'|'X', then return to STATE_INIT
 522:..\source/cal.c ****         
 523:..\source/cal.c ****         STATE_SETTINGS - waiting for setting commands (as shown in the settings menu)
 524:..\source/cal.c ****             ...
 525:..\source/cal.c ****             If command is 'x'|'X', then return to STATE_INIT
 526:..\source/cal.c **** 
 527:..\source/cal.c ****         STATE_EXIT - display exit menu and transitions to STATE_INIT
 528:..\source/cal.c ****  */
 529:..\source/cal.c **** {
 530:..\source/cal.c ****     uint8 cmd = GetCommand();
 531:..\source/cal.c ****     
 532:..\source/cal.c ****     switch (ui_state)
 533:..\source/cal.c ****     {
 534:..\source/cal.c ****         case UI_STATE_INIT:
 535:..\source/cal.c ****             {        
 536:..\source/cal.c ****                 switch (cmd)
 537:..\source/cal.c ****                 {
 538:..\source/cal.c ****                     case CAL_REQUEST:
 539:..\source/cal.c ****                         DisplayCalMenu();
 540:..\source/cal.c ****                         ui_state = UI_STATE_CALIBRATION;
 541:..\source/cal.c ****                         break;
 542:..\source/cal.c ****                     
 543:..\source/cal.c ****                     case VAL_REQUEST:
 544:..\source/cal.c ****                         DisplayValMenu();
 545:..\source/cal.c ****                         ui_state = UI_STATE_VALIDATION;
 546:..\source/cal.c ****                         break;
 547:..\source/cal.c ****                     
 548:..\source/cal.c ****                     case SETTING_REQUEST:
 549:..\source/cal.c ****                         DisplaySettingsMenu();
 550:..\source/cal.c ****                         ui_state = UI_STATE_SETTINGS;
 551:..\source/cal.c ****                         break;
 552:..\source/cal.c ****                 }
 553:..\source/cal.c ****                 break;
 554:..\source/cal.c ****             }
 555:..\source/cal.c ****             break;
 556:..\source/cal.c ****         
ARM GAS  C:\Users\tslator\AppData\Local\Temp\ccc8OXeR.s 			page 30


 557:..\source/cal.c ****         case UI_STATE_CALIBRATION:
 558:..\source/cal.c ****             if (!active_cal)
 559:..\source/cal.c ****             {
 560:..\source/cal.c ****                 active_cal = GetCalibration(cmd);
 561:..\source/cal.c ****             }            
 562:..\source/cal.c ****                 
 563:..\source/cal.c ****             if (active_cal)
 564:..\source/cal.c ****             {
 565:..\source/cal.c ****                 Control_OverrideDebug(TRUE);
 566:..\source/cal.c ****                 ProcessCalibration(active_cal);
 567:..\source/cal.c ****             }                        
 568:..\source/cal.c ****             
 569:..\source/cal.c ****             if (cmd == EXIT_CMD)
 570:..\source/cal.c ****             {
 571:..\source/cal.c ****                 ui_state = UI_STATE_EXIT;
 572:..\source/cal.c ****             }
 573:..\source/cal.c ****             break;
 574:..\source/cal.c ****             
 575:..\source/cal.c ****         case UI_STATE_VALIDATION:
 576:..\source/cal.c ****             if (!active_val)
 577:..\source/cal.c ****             {
 578:..\source/cal.c ****                 active_val = GetValidation(cmd);
 579:..\source/cal.c ****             }
 580:..\source/cal.c ****             
 581:..\source/cal.c ****             if (active_val)
 582:..\source/cal.c ****             {
 583:..\source/cal.c ****                 Control_OverrideDebug(TRUE);
 584:..\source/cal.c ****                 ProcessCalibration(active_val);
 585:..\source/cal.c ****             }
 586:..\source/cal.c ****             
 587:..\source/cal.c ****             if (cmd == EXIT_CMD)
 588:..\source/cal.c ****             {
 589:..\source/cal.c ****                 ui_state = UI_STATE_EXIT;
 590:..\source/cal.c ****             }
 591:..\source/cal.c ****             break;
 592:..\source/cal.c ****             
 593:..\source/cal.c ****         case UI_STATE_SETTINGS:
 594:..\source/cal.c ****             ProcessSettings(cmd);
 595:..\source/cal.c ****             
 596:..\source/cal.c ****             if (cmd == EXIT_CMD)
 597:..\source/cal.c ****             {
 598:..\source/cal.c ****                 ui_state = UI_STATE_EXIT;
 599:..\source/cal.c ****             }
 600:..\source/cal.c ****             break;
 601:..\source/cal.c **** 
 602:..\source/cal.c ****         case UI_STATE_EXIT:
 603:..\source/cal.c ****             DisplayExit();
 604:..\source/cal.c ****             Control_OverrideDebug(FALSE);
 605:..\source/cal.c ****             ui_state = UI_STATE_INIT;
 606:..\source/cal.c ****             break;
 607:..\source/cal.c ****             
 608:..\source/cal.c ****         default:
 609:..\source/cal.c ****             ui_state = UI_STATE_INIT;                
 610:..\source/cal.c ****             break;
 611:..\source/cal.c ****     }
 612:..\source/cal.c ****     
 613:..\source/cal.c **** }
ARM GAS  C:\Users\tslator\AppData\Local\Temp\ccc8OXeR.s 			page 31


 614:..\source/cal.c **** 
 615:..\source/cal.c **** float Cal_ReadResponse()
 616:..\source/cal.c **** {
 617:..\source/cal.c ****     uint8 digits[6];
 618:..\source/cal.c ****     uint8 index = 0;
 619:..\source/cal.c ****     uint8 value;
 620:..\source/cal.c ****     do
 621:..\source/cal.c ****     {
 622:..\source/cal.c ****         Ser_Update();
 623:..\source/cal.c ****         
 624:..\source/cal.c ****         value = Ser_ReadByte();
 625:..\source/cal.c ****         Ser_WriteByte(value);
 626:..\source/cal.c ****         if ( (value >= '0' && value <= '9') || value == '.')
 627:..\source/cal.c ****         {
 628:..\source/cal.c ****             digits[index] = value;
 629:..\source/cal.c ****             index++;
 630:..\source/cal.c ****         }
 631:..\source/cal.c ****     } while (index < 5);
 632:..\source/cal.c ****     
 633:..\source/cal.c ****     digits[5] = '\0';
 634:..\source/cal.c ****     
 635:..\source/cal.c ****     float result = atof((char *) digits);
 636:..\source/cal.c ****     
 637:..\source/cal.c ****     return result;
 638:..\source/cal.c **** }
 639:..\source/cal.c **** 
 640:..\source/cal.c **** void Cal_LeftGetMotorCalData(CAL_DATA_TYPE **fwd_cal_data, CAL_DATA_TYPE **bwd_cal_data)
 641:..\source/cal.c **** {
 642:..\source/cal.c ****     *fwd_cal_data = (CAL_DATA_TYPE *) &(p_cal_eeprom->left_motor_fwd);
 643:..\source/cal.c ****     *bwd_cal_data = (CAL_DATA_TYPE *) &(p_cal_eeprom->left_motor_bwd);
 644:..\source/cal.c **** }
 645:..\source/cal.c **** 
 646:..\source/cal.c **** void Cal_RightGetMotorCalData(CAL_DATA_TYPE **fwd_cal_data, CAL_DATA_TYPE **bwd_cal_data)
 647:..\source/cal.c **** {
 648:..\source/cal.c ****     *fwd_cal_data = (CAL_DATA_TYPE *) &(p_cal_eeprom->right_motor_fwd);
 649:..\source/cal.c ****     *bwd_cal_data = (CAL_DATA_TYPE *) &(p_cal_eeprom->right_motor_bwd);
 650:..\source/cal.c **** }
 651:..\source/cal.c **** 
 652:..\source/cal.c **** CAL_PID_TYPE * Cal_LeftGetPidGains()
 653:..\source/cal.c **** {
 654:..\source/cal.c ****     return (CAL_PID_TYPE *) &p_cal_eeprom->left_gains;
 655:..\source/cal.c **** }
 656:..\source/cal.c **** 
 657:..\source/cal.c **** CAL_PID_TYPE * Cal_RightGetPidGains()
 658:..\source/cal.c **** {
 659:..\source/cal.c ****     return (CAL_PID_TYPE *) &p_cal_eeprom->right_gains;
 660:..\source/cal.c **** }
 661:..\source/cal.c **** 
 662:..\source/cal.c **** void Cal_SetLeftRightVelocity(float left, float right)
 663:..\source/cal.c **** {
 664:..\source/cal.c ****     left_cmd_velocity = left;
 665:..\source/cal.c ****     right_cmd_velocity = right;
 666:..\source/cal.c **** }
 667:..\source/cal.c **** 
 668:..\source/cal.c **** static uint16 CalcPwm(int32 cps, int32 *cps_data, uint16 *pwm_data, uint8 data_size)
 669:..\source/cal.c **** {   
 1021              		.loc 1 669 0
ARM GAS  C:\Users\tslator\AppData\Local\Temp\ccc8OXeR.s 			page 32


 1022              		.cfi_startproc
 1023              		@ args = 0, pretend = 0, frame = 8
 1024              		@ frame_needed = 0, uses_anonymous_args = 0
 1025              	.LVL117:
 1026 0000 70B5     		push	{r4, r5, r6, lr}
 1027              		.cfi_def_cfa_offset 16
 1028              		.cfi_offset 4, -16
 1029              		.cfi_offset 5, -12
 1030              		.cfi_offset 6, -8
 1031              		.cfi_offset 14, -4
 1032 0002 84B0     		sub	sp, sp, #16
 1033              		.cfi_def_cfa_offset 32
 1034 0004 0C46     		mov	r4, r1
 1035              	.LVL118:
 670:..\source/cal.c ****     uint16 pwm = PWM_STOP;
 671:..\source/cal.c ****     uint8 lower = 0;
 1036              		.loc 1 671 0
 1037 0006 0021     		movs	r1, #0
 1038              	.LVL119:
 1039 0008 8DF80F10 		strb	r1, [sp, #15]
 672:..\source/cal.c ****     uint8 upper = 0;
 1040              		.loc 1 672 0
 1041 000c 8DF80E10 		strb	r1, [sp, #14]
 673:..\source/cal.c **** 
 674:..\source/cal.c ****     if (cps > 0 || cps < 0)
 1042              		.loc 1 674 0
 1043 0010 58B3     		cbz	r0, .L87
 1044 0012 1646     		mov	r6, r2
 1045 0014 0546     		mov	r5, r0
 675:..\source/cal.c ****     {
 676:..\source/cal.c ****         BinaryRangeSearch(cps, cps_data, data_size, &lower, &upper);
 1046              		.loc 1 676 0
 1047 0016 0DF10E02 		add	r2, sp, #14
 1048              	.LVL120:
 1049 001a 0092     		str	r2, [sp]
 1050 001c 2146     		mov	r1, r4
 1051 001e 1A46     		mov	r2, r3
 1052 0020 0DF10F03 		add	r3, sp, #15
 1053              	.LVL121:
 1054 0024 FFF7FEFF 		bl	BinaryRangeSearch
 1055              	.LVL122:
 677:..\source/cal.c ****         
 678:..\source/cal.c ****         pwm = Interpolate(cps, cps_data[lower], cps_data[upper], pwm_data[lower], pwm_data[upper]);
 1056              		.loc 1 678 0
 1057 0028 9DF80F30 		ldrb	r3, [sp, #15]	@ zero_extendqisi2
 1058 002c 9DF80E00 		ldrb	r0, [sp, #14]	@ zero_extendqisi2
 1059 0030 34F92310 		ldrsh	r1, [r4, r3, lsl #2]
 1060 0034 34F92020 		ldrsh	r2, [r4, r0, lsl #2]
 1061 0038 36F81330 		ldrh	r3, [r6, r3, lsl #1]
 1062 003c 36F81000 		ldrh	r0, [r6, r0, lsl #1]
 1063 0040 0090     		str	r0, [sp]
 1064 0042 28B2     		sxth	r0, r5
 1065 0044 FFF7FEFF 		bl	Interpolate
 1066              	.LVL123:
 1067 0048 80B2     		uxth	r0, r0
 1068              	.LVL124:
 679:..\source/cal.c **** 
ARM GAS  C:\Users\tslator\AppData\Local\Temp\ccc8OXeR.s 			page 33


 680:..\source/cal.c ****         return constrain(pwm, MIN_PWM_VALUE, MAX_PWM_VALUE);
 1069              		.loc 1 680 0
 1070 004a A0F5FA63 		sub	r3, r0, #2000
 1071 004e 9BB2     		uxth	r3, r3
 1072 0050 4FF62F02 		movw	r2, #63535
 1073 0054 9342     		cmp	r3, r2
 1074 0056 05D9     		bls	.L88
 1075              		.loc 1 680 0 is_stmt 0 discriminator 1
 1076 0058 B0F57A7F 		cmp	r0, #1000
 1077 005c 38BF     		it	cc
 1078 005e 4FF47A70 		movcc	r0, #1000
 1079              	.LVL125:
 1080 0062 04E0     		b	.L85
 1081              	.LVL126:
 1082              	.L88:
 1083              		.loc 1 680 0
 1084 0064 4FF4FA60 		mov	r0, #2000
 1085              	.LVL127:
 1086 0068 01E0     		b	.L85
 1087              	.LVL128:
 1088              	.L87:
 681:..\source/cal.c ****     }
 682:..\source/cal.c **** 
 683:..\source/cal.c ****     return pwm;
 1089              		.loc 1 683 0 is_stmt 1
 1090 006a 40F2DC50 		movw	r0, #1500
 1091              	.LVL129:
 1092              	.L85:
 684:..\source/cal.c **** }
 1093              		.loc 1 684 0
 1094 006e 04B0     		add	sp, sp, #16
 1095              		.cfi_def_cfa_offset 16
 1096              		@ sp needed
 1097 0070 70BD     		pop	{r4, r5, r6, pc}
 1098              		.cfi_endproc
 1099              	.LFE89:
 1100              		.size	CalcPwm, .-CalcPwm
 1101 0072 00BF     		.section	.text.ClearCalibrationStatusBit,"ax",%progbits
 1102              		.align	2
 1103              		.global	ClearCalibrationStatusBit
 1104              		.thumb
 1105              		.thumb_func
 1106              		.type	ClearCalibrationStatusBit, %function
 1107              	ClearCalibrationStatusBit:
 1108              	.LFB65:
  81:..\source/cal.c ****     uint16 status = p_cal_eeprom->status &= ~bit;
 1109              		.loc 1 81 0
 1110              		.cfi_startproc
 1111              		@ args = 0, pretend = 0, frame = 0
 1112              		@ frame_needed = 0, uses_anonymous_args = 0
 1113              	.LVL130:
 1114 0000 10B5     		push	{r4, lr}
 1115              		.cfi_def_cfa_offset 8
 1116              		.cfi_offset 4, -8
 1117              		.cfi_offset 14, -4
 1118 0002 0446     		mov	r4, r0
  82:..\source/cal.c ****     Nvstore_WriteUint16(status, NVSTORE_CAL_EEPROM_ADDR_TO_OFFSET(&p_cal_eeprom->status));
ARM GAS  C:\Users\tslator\AppData\Local\Temp\ccc8OXeR.s 			page 34


 1119              		.loc 1 82 0
 1120 0004 084A     		ldr	r2, .L92
 1121 0006 1368     		ldr	r3, [r2]
 1122 0008 1888     		ldrh	r0, [r3]
 1123              	.LVL131:
 1124 000a 80B2     		uxth	r0, r0
 1125 000c 20EA0400 		bic	r0, r0, r4
 1126 0010 1988     		ldrh	r1, [r3]
 1127 0012 1880     		strh	r0, [r3]	@ movhi
 1128              	.LVL132:
  83:..\source/cal.c ****     I2c_ClearCalibrationStatusBit(bit);
 1129              		.loc 1 83 0
 1130 0014 1188     		ldrh	r1, [r2]
 1131 0016 81F40041 		eor	r1, r1, #32768
 1132 001a FFF7FEFF 		bl	Nvstore_WriteUint16
 1133              	.LVL133:
  84:..\source/cal.c **** }
 1134              		.loc 1 84 0
 1135 001e 2046     		mov	r0, r4
 1136 0020 FFF7FEFF 		bl	I2c_ClearCalibrationStatusBit
 1137              	.LVL134:
 1138 0024 10BD     		pop	{r4, pc}
 1139              	.L93:
 1140 0026 00BF     		.align	2
 1141              	.L92:
 1142 0028 00000000 		.word	p_cal_eeprom
 1143              		.cfi_endproc
 1144              	.LFE65:
 1145              		.size	ClearCalibrationStatusBit, .-ClearCalibrationStatusBit
 1146              		.section	.text.SetCalibrationStatusBit,"ax",%progbits
 1147              		.align	2
 1148              		.global	SetCalibrationStatusBit
 1149              		.thumb
 1150              		.thumb_func
 1151              		.type	SetCalibrationStatusBit, %function
 1152              	SetCalibrationStatusBit:
 1153              	.LFB66:
  88:..\source/cal.c ****     uint16 status = p_cal_eeprom->status | bit;
 1154              		.loc 1 88 0
 1155              		.cfi_startproc
 1156              		@ args = 0, pretend = 0, frame = 0
 1157              		@ frame_needed = 0, uses_anonymous_args = 0
 1158              	.LVL135:
 1159 0000 10B5     		push	{r4, lr}
 1160              		.cfi_def_cfa_offset 8
 1161              		.cfi_offset 4, -8
 1162              		.cfi_offset 14, -4
 1163 0002 0446     		mov	r4, r0
  89:..\source/cal.c ****     Nvstore_WriteUint16(status, NVSTORE_CAL_EEPROM_ADDR_TO_OFFSET(&p_cal_eeprom->status));
 1164              		.loc 1 89 0
 1165 0004 064B     		ldr	r3, .L96
 1166 0006 1968     		ldr	r1, [r3]
 1167 0008 0888     		ldrh	r0, [r1]
 1168              	.LVL136:
 1169 000a 80B2     		uxth	r0, r0
 1170              	.LVL137:
  90:..\source/cal.c ****     I2c_SetCalibrationStatusBit(bit);   
ARM GAS  C:\Users\tslator\AppData\Local\Temp\ccc8OXeR.s 			page 35


 1171              		.loc 1 90 0
 1172 000c A1F50041 		sub	r1, r1, #32768
 1173 0010 2043     		orrs	r0, r0, r4
 1174              	.LVL138:
 1175 0012 89B2     		uxth	r1, r1
 1176 0014 FFF7FEFF 		bl	Nvstore_WriteUint16
 1177              	.LVL139:
  91:..\source/cal.c **** }
 1178              		.loc 1 91 0
 1179 0018 2046     		mov	r0, r4
 1180 001a FFF7FEFF 		bl	I2c_SetCalibrationStatusBit
 1181              	.LVL140:
 1182 001e 10BD     		pop	{r4, pc}
 1183              	.L97:
 1184              		.align	2
 1185              	.L96:
 1186 0020 00000000 		.word	p_cal_eeprom
 1187              		.cfi_endproc
 1188              	.LFE66:
 1189              		.size	SetCalibrationStatusBit, .-SetCalibrationStatusBit
 1190              		.section	.text.Cal_PrintSamples,"ax",%progbits
 1191              		.align	2
 1192              		.global	Cal_PrintSamples
 1193              		.thumb
 1194              		.thumb_func
 1195              		.type	Cal_PrintSamples, %function
 1196              	Cal_PrintSamples:
 1197              	.LFB67:
  97:..\source/cal.c ****     uint8 ii;
 1198              		.loc 1 97 0
 1199              		.cfi_startproc
 1200              		@ args = 0, pretend = 0, frame = 120
 1201              		@ frame_needed = 0, uses_anonymous_args = 0
 1202              	.LVL141:
 1203 0000 70B5     		push	{r4, r5, r6, lr}
 1204              		.cfi_def_cfa_offset 16
 1205              		.cfi_offset 4, -16
 1206              		.cfi_offset 5, -12
 1207              		.cfi_offset 6, -8
 1208              		.cfi_offset 14, -4
 1209 0002 9EB0     		sub	sp, sp, #120
 1210              		.cfi_def_cfa_offset 136
 1211 0004 0346     		mov	r3, r0
 1212 0006 0E46     		mov	r6, r1
 1213 0008 1546     		mov	r5, r2
 102:..\source/cal.c ****     Ser_PutString(label_str);
 1214              		.loc 1 102 0
 1215 000a 6846     		mov	r0, sp
 1216              	.LVL142:
 1217 000c 1249     		ldr	r1, .L102
 1218              	.LVL143:
 1219 000e 1A46     		mov	r2, r3
 1220              	.LVL144:
 1221 0010 FFF7FEFF 		bl	sprintf
 1222              	.LVL145:
 103:..\source/cal.c ****     
 1223              		.loc 1 103 0
ARM GAS  C:\Users\tslator\AppData\Local\Temp\ccc8OXeR.s 			page 36


 1224 0014 6846     		mov	r0, sp
 1225 0016 FFF7FEFF 		bl	Ser_PutString
 1226              	.LVL146:
 105:..\source/cal.c ****     {
 1227              		.loc 1 105 0
 1228 001a 0024     		movs	r4, #0
 1229 001c 0CE0     		b	.L99
 1230              	.LVL147:
 1231              	.L100:
 107:..\source/cal.c ****         Ser_PutString(buffer);
 1232              		.loc 1 107 0 discriminator 3
 1233 001e 05A8     		add	r0, sp, #20
 1234 0020 0E49     		ldr	r1, .L102+4
 1235 0022 56F82420 		ldr	r2, [r6, r4, lsl #2]
 1236 0026 35F81430 		ldrh	r3, [r5, r4, lsl #1]
 1237 002a FFF7FEFF 		bl	sprintf
 1238              	.LVL148:
 108:..\source/cal.c ****     }
 1239              		.loc 1 108 0 discriminator 3
 1240 002e 05A8     		add	r0, sp, #20
 1241 0030 FFF7FEFF 		bl	Ser_PutString
 1242              	.LVL149:
 105:..\source/cal.c ****     {
 1243              		.loc 1 105 0 discriminator 3
 1244 0034 0134     		adds	r4, r4, #1
 1245              	.LVL150:
 1246 0036 E4B2     		uxtb	r4, r4
 1247              	.LVL151:
 1248              	.L99:
 105:..\source/cal.c ****     {
 1249              		.loc 1 105 0 is_stmt 0 discriminator 1
 1250 0038 312C     		cmp	r4, #49
 1251 003a F0D9     		bls	.L100
 110:..\source/cal.c ****     Ser_PutString(buffer);
 1252              		.loc 1 110 0 is_stmt 1
 1253 003c 05A8     		add	r0, sp, #20
 1254 003e 0849     		ldr	r1, .L102+8
 1255 0040 56F82420 		ldr	r2, [r6, r4, lsl #2]
 1256 0044 35F81430 		ldrh	r3, [r5, r4, lsl #1]
 1257 0048 FFF7FEFF 		bl	sprintf
 1258              	.LVL152:
 111:..\source/cal.c **** }
 1259              		.loc 1 111 0
 1260 004c 05A8     		add	r0, sp, #20
 1261 004e FFF7FEFF 		bl	Ser_PutString
 1262              	.LVL153:
 112:..\source/cal.c **** 
 1263              		.loc 1 112 0
 1264 0052 1EB0     		add	sp, sp, #120
 1265              		.cfi_def_cfa_offset 16
 1266              		@ sp needed
 1267 0054 70BD     		pop	{r4, r5, r6, pc}
 1268              	.LVL154:
 1269              	.L103:
 1270 0056 00BF     		.align	2
 1271              	.L102:
 1272 0058 8C090000 		.word	.LC37
ARM GAS  C:\Users\tslator\AppData\Local\Temp\ccc8OXeR.s 			page 37


 1273 005c 94090000 		.word	.LC38
 1274 0060 9C090000 		.word	.LC39
 1275              		.cfi_endproc
 1276              	.LFE67:
 1277              		.size	Cal_PrintSamples, .-Cal_PrintSamples
 1278              		.section	.text.Cal_PrintGains,"ax",%progbits
 1279              		.align	2
 1280              		.global	Cal_PrintGains
 1281              		.thumb
 1282              		.thumb_func
 1283              		.type	Cal_PrintGains, %function
 1284              	Cal_PrintGains:
 1285              	.LFB68:
 115:..\source/cal.c ****     char output[64];
 1286              		.loc 1 115 0
 1287              		.cfi_startproc
 1288              		@ args = 0, pretend = 0, frame = 104
 1289              		@ frame_needed = 0, uses_anonymous_args = 0
 1290              	.LVL155:
 1291 0000 F0B5     		push	{r4, r5, r6, r7, lr}
 1292              		.cfi_def_cfa_offset 20
 1293              		.cfi_offset 4, -20
 1294              		.cfi_offset 5, -16
 1295              		.cfi_offset 6, -12
 1296              		.cfi_offset 7, -8
 1297              		.cfi_offset 14, -4
 1298 0002 9DB0     		sub	sp, sp, #116
 1299              		.cfi_def_cfa_offset 136
 1300 0004 0746     		mov	r7, r0
 1301 0006 0C46     		mov	r4, r1
 121:..\source/cal.c ****     ftoa(gains[1], igain_str, 3);
 1302              		.loc 1 121 0
 1303 0008 0868     		ldr	r0, [r1]	@ float
 1304              	.LVL156:
 1305 000a 09A9     		add	r1, sp, #36
 1306              	.LVL157:
 1307 000c 0322     		movs	r2, #3
 1308 000e FFF7FEFF 		bl	ftoa
 1309              	.LVL158:
 122:..\source/cal.c ****     ftoa(gains[2], dgain_str, 3);
 1310              		.loc 1 122 0
 1311 0012 06AE     		add	r6, sp, #24
 1312 0014 6068     		ldr	r0, [r4, #4]	@ float
 1313 0016 3146     		mov	r1, r6
 1314 0018 0322     		movs	r2, #3
 1315 001a FFF7FEFF 		bl	ftoa
 1316              	.LVL159:
 123:..\source/cal.c ****     
 1317              		.loc 1 123 0
 1318 001e 03AD     		add	r5, sp, #12
 1319 0020 A068     		ldr	r0, [r4, #8]	@ float
 1320 0022 2946     		mov	r1, r5
 1321 0024 0322     		movs	r2, #3
 1322 0026 FFF7FEFF 		bl	ftoa
 1323              	.LVL160:
 125:..\source/cal.c ****     Ser_PutString(output);
 1324              		.loc 1 125 0
ARM GAS  C:\Users\tslator\AppData\Local\Temp\ccc8OXeR.s 			page 38


 1325 002a 0096     		str	r6, [sp]
 1326 002c 0195     		str	r5, [sp, #4]
 1327 002e 0CA8     		add	r0, sp, #48
 1328 0030 0449     		ldr	r1, .L106
 1329 0032 3A46     		mov	r2, r7
 1330 0034 09AB     		add	r3, sp, #36
 1331 0036 FFF7FEFF 		bl	sprintf
 1332              	.LVL161:
 126:..\source/cal.c **** }
 1333              		.loc 1 126 0
 1334 003a 0CA8     		add	r0, sp, #48
 1335 003c FFF7FEFF 		bl	Ser_PutString
 1336              	.LVL162:
 127:..\source/cal.c **** 
 1337              		.loc 1 127 0
 1338 0040 1DB0     		add	sp, sp, #116
 1339              		.cfi_def_cfa_offset 20
 1340              		@ sp needed
 1341 0042 F0BD     		pop	{r4, r5, r6, r7, pc}
 1342              	.LVL163:
 1343              	.L107:
 1344              		.align	2
 1345              	.L106:
 1346 0044 A8090000 		.word	.LC40
 1347              		.cfi_endproc
 1348              	.LFE68:
 1349              		.size	Cal_PrintGains, .-Cal_PrintGains
 1350              		.section	.text.ProcessSettings,"ax",%progbits
 1351              		.align	2
 1352              		.thumb
 1353              		.thumb_func
 1354              		.type	ProcessSettings, %function
 1355              	ProcessSettings:
 1356              	.LFB74:
 196:..\source/cal.c ****     switch (cmd)
 1357              		.loc 1 196 0
 1358              		.cfi_startproc
 1359              		@ args = 0, pretend = 0, frame = 0
 1360              		@ frame_needed = 0, uses_anonymous_args = 0
 1361              	.LVL164:
 1362 0000 38B5     		push	{r3, r4, r5, lr}
 1363              		.cfi_def_cfa_offset 16
 1364              		.cfi_offset 3, -16
 1365              		.cfi_offset 4, -12
 1366              		.cfi_offset 5, -8
 1367              		.cfi_offset 14, -4
 197:..\source/cal.c ****     {
 1368              		.loc 1 197 0
 1369 0002 A0F13103 		sub	r3, r0, #49
 1370 0006 032B     		cmp	r3, #3
 1371 0008 63D8     		bhi	.L108
 1372 000a DFE803F0 		tbb	[pc, r3]
 1373              	.L111:
 1374 000e 02       		.byte	(.L110-.L111)/2
 1375 000f 22       		.byte	(.L112-.L111)/2
 1376 0010 42       		.byte	(.L113-.L111)/2
 1377 0011 58       		.byte	(.L114-.L111)/2
ARM GAS  C:\Users\tslator\AppData\Local\Temp\ccc8OXeR.s 			page 39


 1378              		.p2align 1
 1379              	.L110:
 200:..\source/cal.c ****             Ser_PutString("\r\nDisplaying left motor calibration: count/sec, pwm mapping");
 1380              		.loc 1 200 0
 1381 0012 FFF7FEFF 		bl	Ser_WriteByte
 1382              	.LVL165:
 201:..\source/cal.c ****             Ser_PutString("\r\n");
 1383              		.loc 1 201 0
 1384 0016 2F48     		ldr	r0, .L116
 1385 0018 FFF7FEFF 		bl	Ser_PutString
 1386              	.LVL166:
 202:..\source/cal.c ****             Cal_PrintSamples("Left-Forward", (int32 *) p_cal_eeprom->left_motor_fwd.cps_data, (uint
 1387              		.loc 1 202 0
 1388 001c 2E4C     		ldr	r4, .L116+4
 1389 001e 2046     		mov	r0, r4
 1390 0020 FFF7FEFF 		bl	Ser_PutString
 1391              	.LVL167:
 203:..\source/cal.c ****             Cal_PrintSamples("Left-Backward", (int32 *) p_cal_eeprom->left_motor_bwd.cps_data, (uin
 1392              		.loc 1 203 0
 1393 0024 2D4D     		ldr	r5, .L116+8
 1394 0026 2A68     		ldr	r2, [r5]
 1395 0028 2D48     		ldr	r0, .L116+12
 1396 002a 02F15401 		add	r1, r2, #84
 1397 002e 02F59072 		add	r2, r2, #288
 1398 0032 FFF7FEFF 		bl	Cal_PrintSamples
 1399              	.LVL168:
 204:..\source/cal.c ****             Ser_PutString("\r\n");
 1400              		.loc 1 204 0
 1401 0036 2A68     		ldr	r2, [r5]
 1402 0038 2A48     		ldr	r0, .L116+16
 1403 003a 02F5CA71 		add	r1, r2, #404
 1404 003e 02F51872 		add	r2, r2, #608
 1405 0042 FFF7FEFF 		bl	Cal_PrintSamples
 1406              	.LVL169:
 205:..\source/cal.c ****             
 1407              		.loc 1 205 0
 1408 0046 2046     		mov	r0, r4
 1409 0048 FFF7FEFF 		bl	Ser_PutString
 1410              	.LVL170:
 207:..\source/cal.c ****             break;
 1411              		.loc 1 207 0
 1412 004c FFF7FEFF 		bl	DisplaySettingsMenu
 1413              	.LVL171:
 208:..\source/cal.c ****             
 1414              		.loc 1 208 0
 1415 0050 38BD     		pop	{r3, r4, r5, pc}
 1416              	.LVL172:
 1417              	.L112:
 211:..\source/cal.c ****             Ser_PutString("\r\nDisplaying right motor calibration: count/sec, pwm mapping");
 1418              		.loc 1 211 0
 1419 0052 FFF7FEFF 		bl	Ser_WriteByte
 1420              	.LVL173:
 212:..\source/cal.c ****             Ser_PutString("\r\n");
 1421              		.loc 1 212 0
 1422 0056 2448     		ldr	r0, .L116+20
 1423 0058 FFF7FEFF 		bl	Ser_PutString
 1424              	.LVL174:
ARM GAS  C:\Users\tslator\AppData\Local\Temp\ccc8OXeR.s 			page 40


 213:..\source/cal.c ****             Cal_PrintSamples("Right-Forward", (int32 *) p_cal_eeprom->right_motor_fwd.cps_data, (ui
 1425              		.loc 1 213 0
 1426 005c 1E4C     		ldr	r4, .L116+4
 1427 005e 2046     		mov	r0, r4
 1428 0060 FFF7FEFF 		bl	Ser_PutString
 1429              	.LVL175:
 214:..\source/cal.c ****             Cal_PrintSamples("Right-Backward", (int32 *) p_cal_eeprom->right_motor_bwd.cps_data, (u
 1430              		.loc 1 214 0
 1431 0064 1D4D     		ldr	r5, .L116+8
 1432 0066 2A68     		ldr	r2, [r5]
 1433 0068 2048     		ldr	r0, .L116+24
 1434 006a 02F53571 		add	r1, r2, #724
 1435 006e 02F56872 		add	r2, r2, #928
 1436 0072 FFF7FEFF 		bl	Cal_PrintSamples
 1437              	.LVL176:
 215:..\source/cal.c ****             Ser_PutString("\r\n");
 1438              		.loc 1 215 0
 1439 0076 2A68     		ldr	r2, [r5]
 1440 0078 1D48     		ldr	r0, .L116+28
 1441 007a 02F21441 		addw	r1, r2, #1044
 1442 007e 02F59C62 		add	r2, r2, #1248
 1443 0082 FFF7FEFF 		bl	Cal_PrintSamples
 1444              	.LVL177:
 216:..\source/cal.c ****             
 1445              		.loc 1 216 0
 1446 0086 2046     		mov	r0, r4
 1447 0088 FFF7FEFF 		bl	Ser_PutString
 1448              	.LVL178:
 218:..\source/cal.c ****             break;
 1449              		.loc 1 218 0
 1450 008c FFF7FEFF 		bl	DisplaySettingsMenu
 1451              	.LVL179:
 219:..\source/cal.c ****             
 1452              		.loc 1 219 0
 1453 0090 38BD     		pop	{r3, r4, r5, pc}
 1454              	.LVL180:
 1455              	.L113:
 222:..\source/cal.c ****             Ser_PutString("\r\nDisplaying all PID gains: left, right");
 1456              		.loc 1 222 0
 1457 0092 FFF7FEFF 		bl	Ser_WriteByte
 1458              	.LVL181:
 223:..\source/cal.c ****             Ser_PutString("\r\n");
 1459              		.loc 1 223 0
 1460 0096 1748     		ldr	r0, .L116+32
 1461 0098 FFF7FEFF 		bl	Ser_PutString
 1462              	.LVL182:
 224:..\source/cal.c ****             Cal_PrintGains("Left PID", (float *) &p_cal_eeprom->left_gains);
 1463              		.loc 1 224 0
 1464 009c 0E48     		ldr	r0, .L116+4
 1465 009e FFF7FEFF 		bl	Ser_PutString
 1466              	.LVL183:
 225:..\source/cal.c ****             Cal_PrintGains("Right PID", (float *) &p_cal_eeprom->right_gains);
 1467              		.loc 1 225 0
 1468 00a2 0E4C     		ldr	r4, .L116+8
 1469 00a4 2168     		ldr	r1, [r4]
 1470 00a6 1448     		ldr	r0, .L116+36
 1471 00a8 0831     		adds	r1, r1, #8
ARM GAS  C:\Users\tslator\AppData\Local\Temp\ccc8OXeR.s 			page 41


 1472 00aa FFF7FEFF 		bl	Cal_PrintGains
 1473              	.LVL184:
 226:..\source/cal.c **** 
 1474              		.loc 1 226 0
 1475 00ae 2168     		ldr	r1, [r4]
 1476 00b0 1248     		ldr	r0, .L116+40
 1477 00b2 1831     		adds	r1, r1, #24
 1478 00b4 FFF7FEFF 		bl	Cal_PrintGains
 1479              	.LVL185:
 228:..\source/cal.c ****             break;
 1480              		.loc 1 228 0
 1481 00b8 FFF7FEFF 		bl	DisplaySettingsMenu
 1482              	.LVL186:
 229:..\source/cal.c ****             
 1483              		.loc 1 229 0
 1484 00bc 38BD     		pop	{r3, r4, r5, pc}
 1485              	.LVL187:
 1486              	.L114:
 232:..\source/cal.c ****             Ser_PutString("\r\nDisplaying all calibration/settings");
 1487              		.loc 1 232 0
 1488 00be FFF7FEFF 		bl	Ser_WriteByte
 1489              	.LVL188:
 233:..\source/cal.c ****             Ser_PutString("\r\n");
 1490              		.loc 1 233 0
 1491 00c2 0F48     		ldr	r0, .L116+44
 1492 00c4 FFF7FEFF 		bl	Ser_PutString
 1493              	.LVL189:
 234:..\source/cal.c **** 
 1494              		.loc 1 234 0
 1495 00c8 0348     		ldr	r0, .L116+4
 1496 00ca FFF7FEFF 		bl	Ser_PutString
 1497              	.LVL190:
 236:..\source/cal.c ****             break;        
 1498              		.loc 1 236 0
 1499 00ce FFF7FEFF 		bl	DisplaySettingsMenu
 1500              	.LVL191:
 1501              	.L108:
 1502 00d2 38BD     		pop	{r3, r4, r5, pc}
 1503              	.L117:
 1504              		.align	2
 1505              	.L116:
 1506 00d4 C4090000 		.word	.LC41
 1507 00d8 68010000 		.word	.LC5
 1508 00dc 00000000 		.word	p_cal_eeprom
 1509 00e0 000A0000 		.word	.LC42
 1510 00e4 100A0000 		.word	.LC43
 1511 00e8 200A0000 		.word	.LC44
 1512 00ec 600A0000 		.word	.LC45
 1513 00f0 700A0000 		.word	.LC46
 1514 00f4 800A0000 		.word	.LC47
 1515 00f8 A80A0000 		.word	.LC48
 1516 00fc B40A0000 		.word	.LC49
 1517 0100 C00A0000 		.word	.LC50
 1518              		.cfi_endproc
 1519              	.LFE74:
 1520              		.size	ProcessSettings, .-ProcessSettings
 1521              		.section	.text.Cal_Init,"ax",%progbits
ARM GAS  C:\Users\tslator\AppData\Local\Temp\ccc8OXeR.s 			page 42


 1522              		.align	2
 1523              		.global	Cal_Init
 1524              		.thumb
 1525              		.thumb_func
 1526              		.type	Cal_Init, %function
 1527              	Cal_Init:
 1528              	.LFB80:
 476:..\source/cal.c ****     p_cal_eeprom = NVSTORE_CAL_EEPROM_BASE;
 1529              		.loc 1 476 0
 1530              		.cfi_startproc
 1531              		@ args = 0, pretend = 0, frame = 0
 1532              		@ frame_needed = 0, uses_anonymous_args = 0
 1533 0000 08B5     		push	{r3, lr}
 1534              		.cfi_def_cfa_offset 8
 1535              		.cfi_offset 3, -8
 1536              		.cfi_offset 14, -4
 477:..\source/cal.c ****     Cal_LeftTarget = LeftTarget;
 1537              		.loc 1 477 0
 1538 0002 084A     		ldr	r2, .L120
 1539 0004 084B     		ldr	r3, .L120+4
 1540 0006 1A60     		str	r2, [r3]
 478:..\source/cal.c ****     Cal_RightTarget = RightTarget;
 1541              		.loc 1 478 0
 1542 0008 084A     		ldr	r2, .L120+8
 1543 000a 094B     		ldr	r3, .L120+12
 1544 000c 1A60     		str	r2, [r3]
 479:..\source/cal.c ****     
 1545              		.loc 1 479 0
 1546 000e 094A     		ldr	r2, .L120+16
 1547 0010 094B     		ldr	r3, .L120+20
 1548 0012 1A60     		str	r2, [r3]
 481:..\source/cal.c ****     CalPid_Init();
 1549              		.loc 1 481 0
 1550 0014 FFF7FEFF 		bl	CalMotor_Init
 1551              	.LVL192:
 482:..\source/cal.c ****     CalLin_Init();
 1552              		.loc 1 482 0
 1553 0018 FFF7FEFF 		bl	CalPid_Init
 1554              	.LVL193:
 483:..\source/cal.c **** }
 1555              		.loc 1 483 0
 1556 001c FFF7FEFF 		bl	CalLin_Init
 1557              	.LVL194:
 1558 0020 08BD     		pop	{r3, pc}
 1559              	.L121:
 1560 0022 00BF     		.align	2
 1561              	.L120:
 1562 0024 00800040 		.word	1073774592
 1563 0028 00000000 		.word	p_cal_eeprom
 1564 002c 00000000 		.word	LeftTarget
 1565 0030 00000000 		.word	Cal_LeftTarget
 1566 0034 00000000 		.word	RightTarget
 1567 0038 00000000 		.word	Cal_RightTarget
 1568              		.cfi_endproc
 1569              	.LFE80:
 1570              		.size	Cal_Init, .-Cal_Init
 1571              		.section	.text.Cal_Start,"ax",%progbits
ARM GAS  C:\Users\tslator\AppData\Local\Temp\ccc8OXeR.s 			page 43


 1572              		.align	2
 1573              		.global	Cal_Start
 1574              		.thumb
 1575              		.thumb_func
 1576              		.type	Cal_Start, %function
 1577              	Cal_Start:
 1578              	.LFB81:
 487:..\source/cal.c ****     //Nvstore_WriteBytes((uint8 *) &left_fwd_cal_data, sizeof(CAL_DATA_TYPE), NVSTORE_CAL_EEPROM_AD
 1579              		.loc 1 487 0
 1580              		.cfi_startproc
 1581              		@ args = 0, pretend = 0, frame = 0
 1582              		@ frame_needed = 0, uses_anonymous_args = 0
 1583 0000 08B5     		push	{r3, lr}
 1584              		.cfi_def_cfa_offset 8
 1585              		.cfi_offset 3, -8
 1586              		.cfi_offset 14, -4
 496:..\source/cal.c ****     I2c_SetCalibrationStatus(status);        
 1587              		.loc 1 496 0
 1588 0002 034B     		ldr	r3, .L124
 1589 0004 1B68     		ldr	r3, [r3]
 1590 0006 1888     		ldrh	r0, [r3]
 1591              	.LVL195:
 497:..\source/cal.c **** }
 1592              		.loc 1 497 0
 1593 0008 80B2     		uxth	r0, r0
 1594 000a FFF7FEFF 		bl	I2c_SetCalibrationStatus
 1595              	.LVL196:
 1596 000e 08BD     		pop	{r3, pc}
 1597              	.L125:
 1598              		.align	2
 1599              	.L124:
 1600 0010 00000000 		.word	p_cal_eeprom
 1601              		.cfi_endproc
 1602              	.LFE81:
 1603              		.size	Cal_Start, .-Cal_Start
 1604              		.section	.text.Cal_Update,"ax",%progbits
 1605              		.align	2
 1606              		.global	Cal_Update
 1607              		.thumb
 1608              		.thumb_func
 1609              		.type	Cal_Update, %function
 1610              	Cal_Update:
 1611              	.LFB82:
 529:..\source/cal.c ****     uint8 cmd = GetCommand();
 1612              		.loc 1 529 0
 1613              		.cfi_startproc
 1614              		@ args = 0, pretend = 0, frame = 0
 1615              		@ frame_needed = 0, uses_anonymous_args = 0
 1616 0000 10B5     		push	{r4, lr}
 1617              		.cfi_def_cfa_offset 8
 1618              		.cfi_offset 4, -8
 1619              		.cfi_offset 14, -4
 530:..\source/cal.c ****     
 1620              		.loc 1 530 0
 1621 0002 FFF7FEFF 		bl	GetCommand
 1622              	.LVL197:
 1623 0006 0446     		mov	r4, r0
ARM GAS  C:\Users\tslator\AppData\Local\Temp\ccc8OXeR.s 			page 44


 1624              	.LVL198:
 532:..\source/cal.c ****     {
 1625              		.loc 1 532 0
 1626 0008 314B     		ldr	r3, .L143
 1627 000a 1B7C     		ldrb	r3, [r3, #16]	@ zero_extendqisi2
 1628 000c 042B     		cmp	r3, #4
 1629 000e 5BD8     		bhi	.L127
 1630 0010 DFE803F0 		tbb	[pc, r3]
 1631              	.L129:
 1632 0014 03       		.byte	(.L128-.L129)/2
 1633 0015 1B       		.byte	(.L130-.L129)/2
 1634 0016 32       		.byte	(.L131-.L129)/2
 1635 0017 49       		.byte	(.L132-.L129)/2
 1636 0018 51       		.byte	(.L133-.L129)/2
 1637 0019 00       		.p2align 1
 1638              	.L128:
 536:..\source/cal.c ****                 {
 1639              		.loc 1 536 0
 1640 001a 7328     		cmp	r0, #115
 1641 001c 0FD0     		beq	.L135
 1642 001e 7628     		cmp	r0, #118
 1643 0020 07D0     		beq	.L136
 1644 0022 6328     		cmp	r0, #99
 1645 0024 53D1     		bne	.L126
 539:..\source/cal.c ****                         ui_state = UI_STATE_CALIBRATION;
 1646              		.loc 1 539 0
 1647 0026 FFF7FEFF 		bl	DisplayCalMenu
 1648              	.LVL199:
 540:..\source/cal.c ****                         break;
 1649              		.loc 1 540 0
 1650 002a 0122     		movs	r2, #1
 1651 002c 284B     		ldr	r3, .L143
 1652 002e 1A74     		strb	r2, [r3, #16]
 541:..\source/cal.c ****                     
 1653              		.loc 1 541 0
 1654 0030 10BD     		pop	{r4, pc}
 1655              	.LVL200:
 1656              	.L136:
 544:..\source/cal.c ****                         ui_state = UI_STATE_VALIDATION;
 1657              		.loc 1 544 0
 1658 0032 FFF7FEFF 		bl	DisplayValMenu
 1659              	.LVL201:
 545:..\source/cal.c ****                         break;
 1660              		.loc 1 545 0
 1661 0036 0222     		movs	r2, #2
 1662 0038 254B     		ldr	r3, .L143
 1663 003a 1A74     		strb	r2, [r3, #16]
 546:..\source/cal.c ****                     
 1664              		.loc 1 546 0
 1665 003c 10BD     		pop	{r4, pc}
 1666              	.LVL202:
 1667              	.L135:
 549:..\source/cal.c ****                         ui_state = UI_STATE_SETTINGS;
 1668              		.loc 1 549 0
 1669 003e FFF7FEFF 		bl	DisplaySettingsMenu
 1670              	.LVL203:
 550:..\source/cal.c ****                         break;
ARM GAS  C:\Users\tslator\AppData\Local\Temp\ccc8OXeR.s 			page 45


 1671              		.loc 1 550 0
 1672 0042 0322     		movs	r2, #3
 1673 0044 224B     		ldr	r3, .L143
 1674 0046 1A74     		strb	r2, [r3, #16]
 551:..\source/cal.c ****                 }
 1675              		.loc 1 551 0
 1676 0048 10BD     		pop	{r4, pc}
 1677              	.LVL204:
 1678              	.L130:
 558:..\source/cal.c ****             {
 1679              		.loc 1 558 0
 1680 004a 214B     		ldr	r3, .L143
 1681 004c 9B68     		ldr	r3, [r3, #8]
 1682 004e 1BB9     		cbnz	r3, .L138
 560:..\source/cal.c ****             }            
 1683              		.loc 1 560 0
 1684 0050 FFF7FEFF 		bl	GetCalibration
 1685              	.LVL205:
 1686 0054 1E4B     		ldr	r3, .L143
 1687 0056 9860     		str	r0, [r3, #8]
 1688              	.L138:
 563:..\source/cal.c ****             {
 1689              		.loc 1 563 0
 1690 0058 1D4B     		ldr	r3, .L143
 1691 005a 9B68     		ldr	r3, [r3, #8]
 1692 005c 33B1     		cbz	r3, .L139
 565:..\source/cal.c ****                 ProcessCalibration(active_cal);
 1693              		.loc 1 565 0
 1694 005e 0120     		movs	r0, #1
 1695 0060 FFF7FEFF 		bl	Control_OverrideDebug
 1696              	.LVL206:
 566:..\source/cal.c ****             }                        
 1697              		.loc 1 566 0
 1698 0064 1A4B     		ldr	r3, .L143
 1699 0066 9868     		ldr	r0, [r3, #8]
 1700 0068 FFF7FEFF 		bl	ProcessCalibration
 1701              	.LVL207:
 1702              	.L139:
 569:..\source/cal.c ****             {
 1703              		.loc 1 569 0
 1704 006c 782C     		cmp	r4, #120
 1705 006e 2ED1     		bne	.L126
 571:..\source/cal.c ****             }
 1706              		.loc 1 571 0
 1707 0070 0422     		movs	r2, #4
 1708 0072 174B     		ldr	r3, .L143
 1709 0074 1A74     		strb	r2, [r3, #16]
 1710 0076 10BD     		pop	{r4, pc}
 1711              	.LVL208:
 1712              	.L131:
 576:..\source/cal.c ****             {
 1713              		.loc 1 576 0
 1714 0078 154B     		ldr	r3, .L143
 1715 007a DB68     		ldr	r3, [r3, #12]
 1716 007c 1BB9     		cbnz	r3, .L140
 578:..\source/cal.c ****             }
 1717              		.loc 1 578 0
ARM GAS  C:\Users\tslator\AppData\Local\Temp\ccc8OXeR.s 			page 46


 1718 007e FFF7FEFF 		bl	GetValidation
 1719              	.LVL209:
 1720 0082 134B     		ldr	r3, .L143
 1721 0084 D860     		str	r0, [r3, #12]
 1722              	.L140:
 581:..\source/cal.c ****             {
 1723              		.loc 1 581 0
 1724 0086 124B     		ldr	r3, .L143
 1725 0088 DB68     		ldr	r3, [r3, #12]
 1726 008a 33B1     		cbz	r3, .L141
 583:..\source/cal.c ****                 ProcessCalibration(active_val);
 1727              		.loc 1 583 0
 1728 008c 0120     		movs	r0, #1
 1729 008e FFF7FEFF 		bl	Control_OverrideDebug
 1730              	.LVL210:
 584:..\source/cal.c ****             }
 1731              		.loc 1 584 0
 1732 0092 0F4B     		ldr	r3, .L143
 1733 0094 D868     		ldr	r0, [r3, #12]
 1734 0096 FFF7FEFF 		bl	ProcessCalibration
 1735              	.LVL211:
 1736              	.L141:
 587:..\source/cal.c ****             {
 1737              		.loc 1 587 0
 1738 009a 782C     		cmp	r4, #120
 1739 009c 17D1     		bne	.L126
 589:..\source/cal.c ****             }
 1740              		.loc 1 589 0
 1741 009e 0422     		movs	r2, #4
 1742 00a0 0B4B     		ldr	r3, .L143
 1743 00a2 1A74     		strb	r2, [r3, #16]
 1744 00a4 10BD     		pop	{r4, pc}
 1745              	.LVL212:
 1746              	.L132:
 594:..\source/cal.c ****             
 1747              		.loc 1 594 0
 1748 00a6 FFF7FEFF 		bl	ProcessSettings
 1749              	.LVL213:
 596:..\source/cal.c ****             {
 1750              		.loc 1 596 0
 1751 00aa 782C     		cmp	r4, #120
 1752 00ac 0FD1     		bne	.L126
 598:..\source/cal.c ****             }
 1753              		.loc 1 598 0
 1754 00ae 0422     		movs	r2, #4
 1755 00b0 074B     		ldr	r3, .L143
 1756 00b2 1A74     		strb	r2, [r3, #16]
 1757 00b4 10BD     		pop	{r4, pc}
 1758              	.LVL214:
 1759              	.L133:
 603:..\source/cal.c ****             Control_OverrideDebug(FALSE);
 1760              		.loc 1 603 0
 1761 00b6 FFF7FEFF 		bl	DisplayExit
 1762              	.LVL215:
 604:..\source/cal.c ****             ui_state = UI_STATE_INIT;
 1763              		.loc 1 604 0
 1764 00ba 0020     		movs	r0, #0
ARM GAS  C:\Users\tslator\AppData\Local\Temp\ccc8OXeR.s 			page 47


 1765 00bc FFF7FEFF 		bl	Control_OverrideDebug
 1766              	.LVL216:
 605:..\source/cal.c ****             break;
 1767              		.loc 1 605 0
 1768 00c0 0022     		movs	r2, #0
 1769 00c2 034B     		ldr	r3, .L143
 1770 00c4 1A74     		strb	r2, [r3, #16]
 606:..\source/cal.c ****             
 1771              		.loc 1 606 0
 1772 00c6 10BD     		pop	{r4, pc}
 1773              	.LVL217:
 1774              	.L127:
 609:..\source/cal.c ****             break;
 1775              		.loc 1 609 0
 1776 00c8 0022     		movs	r2, #0
 1777 00ca 014B     		ldr	r3, .L143
 1778 00cc 1A74     		strb	r2, [r3, #16]
 1779              	.LVL218:
 1780              	.L126:
 1781 00ce 10BD     		pop	{r4, pc}
 1782              	.L144:
 1783              		.align	2
 1784              	.L143:
 1785 00d0 00000000 		.word	.LANCHOR0
 1786              		.cfi_endproc
 1787              	.LFE82:
 1788              		.size	Cal_Update, .-Cal_Update
 1789              		.global	__aeabi_d2f
 1790              		.section	.text.Cal_ReadResponse,"ax",%progbits
 1791              		.align	2
 1792              		.global	Cal_ReadResponse
 1793              		.thumb
 1794              		.thumb_func
 1795              		.type	Cal_ReadResponse, %function
 1796              	Cal_ReadResponse:
 1797              	.LFB83:
 616:..\source/cal.c ****     uint8 digits[6];
 1798              		.loc 1 616 0
 1799              		.cfi_startproc
 1800              		@ args = 0, pretend = 0, frame = 8
 1801              		@ frame_needed = 0, uses_anonymous_args = 0
 1802 0000 30B5     		push	{r4, r5, lr}
 1803              		.cfi_def_cfa_offset 12
 1804              		.cfi_offset 4, -12
 1805              		.cfi_offset 5, -8
 1806              		.cfi_offset 14, -4
 1807 0002 83B0     		sub	sp, sp, #12
 1808              		.cfi_def_cfa_offset 24
 1809              	.LVL219:
 618:..\source/cal.c ****     uint8 value;
 1810              		.loc 1 618 0
 1811 0004 0024     		movs	r4, #0
 1812              	.LVL220:
 1813              	.L148:
 622:..\source/cal.c ****         
 1814              		.loc 1 622 0
 1815 0006 FFF7FEFF 		bl	Ser_Update
ARM GAS  C:\Users\tslator\AppData\Local\Temp\ccc8OXeR.s 			page 48


 1816              	.LVL221:
 624:..\source/cal.c ****         Ser_WriteByte(value);
 1817              		.loc 1 624 0
 1818 000a FFF7FEFF 		bl	Ser_ReadByte
 1819              	.LVL222:
 1820 000e 0546     		mov	r5, r0
 1821              	.LVL223:
 625:..\source/cal.c ****         if ( (value >= '0' && value <= '9') || value == '.')
 1822              		.loc 1 625 0
 1823 0010 FFF7FEFF 		bl	Ser_WriteByte
 1824              	.LVL224:
 626:..\source/cal.c ****         {
 1825              		.loc 1 626 0
 1826 0014 A5F13003 		sub	r3, r5, #48
 1827 0018 DBB2     		uxtb	r3, r3
 1828 001a 092B     		cmp	r3, #9
 1829 001c 01D9     		bls	.L146
 626:..\source/cal.c ****         {
 1830              		.loc 1 626 0 is_stmt 0 discriminator 1
 1831 001e 2E2D     		cmp	r5, #46
 1832 0020 05D1     		bne	.L147
 1833              	.L146:
 628:..\source/cal.c ****             index++;
 1834              		.loc 1 628 0 is_stmt 1
 1835 0022 02AB     		add	r3, sp, #8
 1836 0024 2344     		add	r3, r3, r4
 1837 0026 03F8085C 		strb	r5, [r3, #-8]
 629:..\source/cal.c ****         }
 1838              		.loc 1 629 0
 1839 002a 0134     		adds	r4, r4, #1
 1840              	.LVL225:
 1841 002c E4B2     		uxtb	r4, r4
 1842              	.LVL226:
 1843              	.L147:
 631:..\source/cal.c ****     
 1844              		.loc 1 631 0
 1845 002e 042C     		cmp	r4, #4
 1846 0030 E9D9     		bls	.L148
 633:..\source/cal.c ****     
 1847              		.loc 1 633 0
 1848 0032 0023     		movs	r3, #0
 1849 0034 8DF80530 		strb	r3, [sp, #5]
 635:..\source/cal.c ****     
 1850              		.loc 1 635 0
 1851 0038 6846     		mov	r0, sp
 1852 003a FFF7FEFF 		bl	atof
 1853              	.LVL227:
 1854 003e FFF7FEFF 		bl	__aeabi_d2f
 1855              	.LVL228:
 638:..\source/cal.c **** 
 1856              		.loc 1 638 0
 1857 0042 03B0     		add	sp, sp, #12
 1858              		.cfi_def_cfa_offset 12
 1859              		@ sp needed
 1860 0044 30BD     		pop	{r4, r5, pc}
 1861              		.cfi_endproc
 1862              	.LFE83:
ARM GAS  C:\Users\tslator\AppData\Local\Temp\ccc8OXeR.s 			page 49


 1863              		.size	Cal_ReadResponse, .-Cal_ReadResponse
 1864 0046 00BF     		.section	.text.Cal_LeftGetMotorCalData,"ax",%progbits
 1865              		.align	2
 1866              		.global	Cal_LeftGetMotorCalData
 1867              		.thumb
 1868              		.thumb_func
 1869              		.type	Cal_LeftGetMotorCalData, %function
 1870              	Cal_LeftGetMotorCalData:
 1871              	.LFB84:
 641:..\source/cal.c ****     *fwd_cal_data = (CAL_DATA_TYPE *) &(p_cal_eeprom->left_motor_fwd);
 1872              		.loc 1 641 0
 1873              		.cfi_startproc
 1874              		@ args = 0, pretend = 0, frame = 0
 1875              		@ frame_needed = 0, uses_anonymous_args = 0
 1876              		@ link register save eliminated.
 1877              	.LVL229:
 642:..\source/cal.c ****     *bwd_cal_data = (CAL_DATA_TYPE *) &(p_cal_eeprom->left_motor_bwd);
 1878              		.loc 1 642 0
 1879 0000 044A     		ldr	r2, .L151
 1880 0002 1368     		ldr	r3, [r2]
 1881 0004 4833     		adds	r3, r3, #72
 1882 0006 0360     		str	r3, [r0]
 643:..\source/cal.c **** }
 1883              		.loc 1 643 0
 1884 0008 1368     		ldr	r3, [r2]
 1885 000a 03F5C473 		add	r3, r3, #392
 1886 000e 0B60     		str	r3, [r1]
 1887 0010 7047     		bx	lr
 1888              	.L152:
 1889 0012 00BF     		.align	2
 1890              	.L151:
 1891 0014 00000000 		.word	p_cal_eeprom
 1892              		.cfi_endproc
 1893              	.LFE84:
 1894              		.size	Cal_LeftGetMotorCalData, .-Cal_LeftGetMotorCalData
 1895              		.section	.text.Cal_RightGetMotorCalData,"ax",%progbits
 1896              		.align	2
 1897              		.global	Cal_RightGetMotorCalData
 1898              		.thumb
 1899              		.thumb_func
 1900              		.type	Cal_RightGetMotorCalData, %function
 1901              	Cal_RightGetMotorCalData:
 1902              	.LFB85:
 647:..\source/cal.c ****     *fwd_cal_data = (CAL_DATA_TYPE *) &(p_cal_eeprom->right_motor_fwd);
 1903              		.loc 1 647 0
 1904              		.cfi_startproc
 1905              		@ args = 0, pretend = 0, frame = 0
 1906              		@ frame_needed = 0, uses_anonymous_args = 0
 1907              		@ link register save eliminated.
 1908              	.LVL230:
 648:..\source/cal.c ****     *bwd_cal_data = (CAL_DATA_TYPE *) &(p_cal_eeprom->right_motor_bwd);
 1909              		.loc 1 648 0
 1910 0000 044A     		ldr	r2, .L154
 1911 0002 1368     		ldr	r3, [r2]
 1912 0004 03F53273 		add	r3, r3, #712
 1913 0008 0360     		str	r3, [r0]
 649:..\source/cal.c **** }
ARM GAS  C:\Users\tslator\AppData\Local\Temp\ccc8OXeR.s 			page 50


 1914              		.loc 1 649 0
 1915 000a 1368     		ldr	r3, [r2]
 1916 000c 03F58163 		add	r3, r3, #1032
 1917 0010 0B60     		str	r3, [r1]
 1918 0012 7047     		bx	lr
 1919              	.L155:
 1920              		.align	2
 1921              	.L154:
 1922 0014 00000000 		.word	p_cal_eeprom
 1923              		.cfi_endproc
 1924              	.LFE85:
 1925              		.size	Cal_RightGetMotorCalData, .-Cal_RightGetMotorCalData
 1926              		.section	.text.Cal_LeftGetPidGains,"ax",%progbits
 1927              		.align	2
 1928              		.global	Cal_LeftGetPidGains
 1929              		.thumb
 1930              		.thumb_func
 1931              		.type	Cal_LeftGetPidGains, %function
 1932              	Cal_LeftGetPidGains:
 1933              	.LFB86:
 653:..\source/cal.c ****     return (CAL_PID_TYPE *) &p_cal_eeprom->left_gains;
 1934              		.loc 1 653 0
 1935              		.cfi_startproc
 1936              		@ args = 0, pretend = 0, frame = 0
 1937              		@ frame_needed = 0, uses_anonymous_args = 0
 1938              		@ link register save eliminated.
 654:..\source/cal.c **** }
 1939              		.loc 1 654 0
 1940 0000 014B     		ldr	r3, .L157
 1941 0002 1868     		ldr	r0, [r3]
 655:..\source/cal.c **** 
 1942              		.loc 1 655 0
 1943 0004 0830     		adds	r0, r0, #8
 1944 0006 7047     		bx	lr
 1945              	.L158:
 1946              		.align	2
 1947              	.L157:
 1948 0008 00000000 		.word	p_cal_eeprom
 1949              		.cfi_endproc
 1950              	.LFE86:
 1951              		.size	Cal_LeftGetPidGains, .-Cal_LeftGetPidGains
 1952              		.section	.text.Cal_RightGetPidGains,"ax",%progbits
 1953              		.align	2
 1954              		.global	Cal_RightGetPidGains
 1955              		.thumb
 1956              		.thumb_func
 1957              		.type	Cal_RightGetPidGains, %function
 1958              	Cal_RightGetPidGains:
 1959              	.LFB87:
 658:..\source/cal.c ****     return (CAL_PID_TYPE *) &p_cal_eeprom->right_gains;
 1960              		.loc 1 658 0
 1961              		.cfi_startproc
 1962              		@ args = 0, pretend = 0, frame = 0
 1963              		@ frame_needed = 0, uses_anonymous_args = 0
 1964              		@ link register save eliminated.
 659:..\source/cal.c **** }
 1965              		.loc 1 659 0
ARM GAS  C:\Users\tslator\AppData\Local\Temp\ccc8OXeR.s 			page 51


 1966 0000 014B     		ldr	r3, .L160
 1967 0002 1868     		ldr	r0, [r3]
 660:..\source/cal.c **** 
 1968              		.loc 1 660 0
 1969 0004 1830     		adds	r0, r0, #24
 1970 0006 7047     		bx	lr
 1971              	.L161:
 1972              		.align	2
 1973              	.L160:
 1974 0008 00000000 		.word	p_cal_eeprom
 1975              		.cfi_endproc
 1976              	.LFE87:
 1977              		.size	Cal_RightGetPidGains, .-Cal_RightGetPidGains
 1978              		.section	.text.Cal_SetLeftRightVelocity,"ax",%progbits
 1979              		.align	2
 1980              		.global	Cal_SetLeftRightVelocity
 1981              		.thumb
 1982              		.thumb_func
 1983              		.type	Cal_SetLeftRightVelocity, %function
 1984              	Cal_SetLeftRightVelocity:
 1985              	.LFB88:
 663:..\source/cal.c ****     left_cmd_velocity = left;
 1986              		.loc 1 663 0
 1987              		.cfi_startproc
 1988              		@ args = 0, pretend = 0, frame = 0
 1989              		@ frame_needed = 0, uses_anonymous_args = 0
 1990              		@ link register save eliminated.
 1991              	.LVL231:
 664:..\source/cal.c ****     right_cmd_velocity = right;
 1992              		.loc 1 664 0
 1993 0000 014B     		ldr	r3, .L163
 1994 0002 1860     		str	r0, [r3]	@ float
 665:..\source/cal.c **** }
 1995              		.loc 1 665 0
 1996 0004 5960     		str	r1, [r3, #4]	@ float
 1997 0006 7047     		bx	lr
 1998              	.L164:
 1999              		.align	2
 2000              	.L163:
 2001 0008 00000000 		.word	.LANCHOR0
 2002              		.cfi_endproc
 2003              	.LFE88:
 2004              		.size	Cal_SetLeftRightVelocity, .-Cal_SetLeftRightVelocity
 2005              		.global	__aeabi_fcmpgt
 2006              		.global	__aeabi_i2f
 2007              		.global	__aeabi_fmul
 2008              		.global	__aeabi_f2iz
 2009              		.section	.text.Cal_CpsToPwm,"ax",%progbits
 2010              		.align	2
 2011              		.global	Cal_CpsToPwm
 2012              		.thumb
 2013              		.thumb_func
 2014              		.type	Cal_CpsToPwm, %function
 2015              	Cal_CpsToPwm:
 2016              	.LFB90:
 685:..\source/cal.c **** 
 686:..\source/cal.c **** uint16 Cal_CpsToPwm(WHEEL_TYPE wheel, float cps)
ARM GAS  C:\Users\tslator\AppData\Local\Temp\ccc8OXeR.s 			page 52


 687:..\source/cal.c **** {
 2017              		.loc 1 687 0
 2018              		.cfi_startproc
 2019              		@ args = 0, pretend = 0, frame = 0
 2020              		@ frame_needed = 0, uses_anonymous_args = 0
 2021              	.LVL232:
 2022 0000 F8B5     		push	{r3, r4, r5, r6, r7, lr}
 2023              		.cfi_def_cfa_offset 24
 2024              		.cfi_offset 3, -24
 2025              		.cfi_offset 4, -20
 2026              		.cfi_offset 5, -16
 2027              		.cfi_offset 6, -12
 2028              		.cfi_offset 7, -8
 2029              		.cfi_offset 14, -4
 2030              	.LVL233:
 688:..\source/cal.c ****     uint16 pwm;
 689:..\source/cal.c ****     
 690:..\source/cal.c ****     
 691:..\source/cal.c ****     pwm = PWM_STOP;
 692:..\source/cal.c ****     
 693:..\source/cal.c ****     /* The conversion from CPS to PWM is valid only when calibration has been performed */
 694:..\source/cal.c ****     
 695:..\source/cal.c ****     if (p_cal_eeprom->status & CAL_MOTOR_BIT)
 2031              		.loc 1 695 0
 2032 0002 1D4B     		ldr	r3, .L170
 2033 0004 1B68     		ldr	r3, [r3]
 2034 0006 1B88     		ldrh	r3, [r3]
 2035 0008 13F0010F 		tst	r3, #1
 2036 000c 2ED0     		beq	.L166
 2037 000e 0646     		mov	r6, r0
 2038 0010 0D46     		mov	r5, r1
 2039              	.LBB2:
 696:..\source/cal.c ****     {
 697:..\source/cal.c ****     
 698:..\source/cal.c ****         CAL_DATA_TYPE *p_cal_data = WHEEL_DIR_TO_CAL_DATA[wheel][cps > 0 ? 0 : 1];
 2040              		.loc 1 698 0
 2041 0012 4FF00104 		mov	r4, #1
 2042 0016 0846     		mov	r0, r1
 2043              	.LVL234:
 2044 0018 0021     		movs	r1, #0
 2045              	.LVL235:
 2046 001a FFF7FEFF 		bl	__aeabi_fcmpgt
 2047              	.LVL236:
 2048 001e 08B9     		cbnz	r0, .L167
 2049 0020 4FF00004 		mov	r4, #0
 2050              	.L167:
 2051 0024 E0B2     		uxtb	r0, r4
 2052 0026 80F00100 		eor	r0, r0, #1
 2053 002a 00EB4600 		add	r0, r0, r6, lsl #1
 2054 002e 134B     		ldr	r3, .L170+4
 2055 0030 53F82040 		ldr	r4, [r3, r0, lsl #2]
 2056              	.LVL237:
 699:..\source/cal.c ****         
 700:..\source/cal.c ****         cps = constrain((int32)(cps * p_cal_data->cps_scale), p_cal_data->cps_min, p_cal_data->cps_
 2057              		.loc 1 700 0
 2058 0034 6768     		ldr	r7, [r4, #4]	@ unaligned
 2059 0036 2668     		ldr	r6, [r4]	@ unaligned
ARM GAS  C:\Users\tslator\AppData\Local\Temp\ccc8OXeR.s 			page 53


 2060 0038 A068     		ldr	r0, [r4, #8]	@ unaligned
 2061 003a FFF7FEFF 		bl	__aeabi_i2f
 2062              	.LVL238:
 2063 003e 2946     		mov	r1, r5
 2064 0040 FFF7FEFF 		bl	__aeabi_fmul
 2065              	.LVL239:
 2066 0044 FFF7FEFF 		bl	__aeabi_f2iz
 2067              	.LVL240:
 2068 0048 B042     		cmp	r0, r6
 2069 004a B8BF     		it	lt
 2070 004c 3046     		movlt	r0, r6
 2071 004e B842     		cmp	r0, r7
 2072 0050 A8BF     		it	ge
 2073 0052 3846     		movge	r0, r7
 2074 0054 FFF7FEFF 		bl	__aeabi_i2f
 2075              	.LVL241:
 701:..\source/cal.c ****         pwm = CalcPwm(cps, &p_cal_data->cps_data[0], &p_cal_data->pwm_data[0], CAL_DATA_SIZE);
 2076              		.loc 1 701 0
 2077 0058 FFF7FEFF 		bl	__aeabi_f2iz
 2078              	.LVL242:
 2079 005c 04F10C01 		add	r1, r4, #12
 2080 0060 04F1D802 		add	r2, r4, #216
 2081 0064 3323     		movs	r3, #51
 2082 0066 FFF7FEFF 		bl	CalcPwm
 2083              	.LVL243:
 2084              	.LBE2:
 2085 006a F8BD     		pop	{r3, r4, r5, r6, r7, pc}
 2086              	.LVL244:
 2087              	.L166:
 702:..\source/cal.c ****     }
 703:..\source/cal.c ****     else
 704:..\source/cal.c ****     {
 705:..\source/cal.c ****         Ser_PutString("Motor calibration status not set\r\n");
 2088              		.loc 1 705 0
 2089 006c 0448     		ldr	r0, .L170+8
 2090              	.LVL245:
 2091 006e FFF7FEFF 		bl	Ser_PutString
 2092              	.LVL246:
 691:..\source/cal.c ****     
 2093              		.loc 1 691 0
 2094 0072 40F2DC50 		movw	r0, #1500
 2095              	.LVL247:
 706:..\source/cal.c ****     }
 707:..\source/cal.c **** 
 708:..\source/cal.c ****     return pwm;
 709:..\source/cal.c **** }
 2096              		.loc 1 709 0
 2097 0076 F8BD     		pop	{r3, r4, r5, r6, r7, pc}
 2098              	.L171:
 2099              		.align	2
 2100              	.L170:
 2101 0078 00000000 		.word	p_cal_eeprom
 2102 007c 00000000 		.word	WHEEL_DIR_TO_CAL_DATA
 2103 0080 E80A0000 		.word	.LC51
 2104              		.cfi_endproc
 2105              	.LFE90:
 2106              		.size	Cal_CpsToPwm, .-Cal_CpsToPwm
ARM GAS  C:\Users\tslator\AppData\Local\Temp\ccc8OXeR.s 			page 54


 2107              		.section	.text.Cal_Clear,"ax",%progbits
 2108              		.align	2
 2109              		.global	Cal_Clear
 2110              		.thumb
 2111              		.thumb_func
 2112              		.type	Cal_Clear, %function
 2113              	Cal_Clear:
 2114              	.LFB91:
 710:..\source/cal.c **** 
 711:..\source/cal.c **** void Cal_Clear()
 712:..\source/cal.c **** {
 2115              		.loc 1 712 0
 2116              		.cfi_startproc
 2117              		@ args = 0, pretend = 0, frame = 0
 2118              		@ frame_needed = 0, uses_anonymous_args = 0
 2119 0000 08B5     		push	{r3, lr}
 2120              		.cfi_def_cfa_offset 8
 2121              		.cfi_offset 3, -8
 2122              		.cfi_offset 14, -4
 713:..\source/cal.c ****     ClearCalibrationStatusBit(CAL_MOTOR_BIT); // Clear Count to PWM calibration
 2123              		.loc 1 713 0
 2124 0002 0120     		movs	r0, #1
 2125 0004 FFF7FEFF 		bl	ClearCalibrationStatusBit
 2126              	.LVL248:
 714:..\source/cal.c ****     ClearCalibrationStatusBit(CAL_PID_BIT); // Clear PID calibration
 2127              		.loc 1 714 0
 2128 0008 0220     		movs	r0, #2
 2129 000a FFF7FEFF 		bl	ClearCalibrationStatusBit
 2130              	.LVL249:
 2131 000e 08BD     		pop	{r3, pc}
 2132              		.cfi_endproc
 2133              	.LFE91:
 2134              		.size	Cal_Clear, .-Cal_Clear
 2135              		.global	cal_state_to_string
 2136              		.global	cal_stage_to_string
 2137              		.comm	debug_control_enabled,2,2
 2138              		.comm	formatted_string,256,4
 2139              		.comm	CalAng_Calibration,4,4
 2140              		.comm	CalLin_Validation,4,4
 2141              		.comm	CalPid_RightValidation,4,4
 2142              		.comm	CalPid_LeftValidation,4,4
 2143              		.comm	CalPid_RightCalibration,4,4
 2144              		.comm	CalPid_LeftCalibration,4,4
 2145              		.comm	CalMotor_Validation,4,4
 2146              		.comm	CalMotor_Calibration,4,4
 2147              		.comm	WHEEL_DIR_TO_CAL_DATA,16,4
 2148              		.comm	Cal_RightTarget,4,4
 2149              		.comm	Cal_LeftTarget,4,4
 2150              		.comm	p_cal_eeprom,4,4
 2151              		.data
 2152              		.align	2
 2153              		.set	.LANCHOR1,. + 0
 2154              		.type	cal_stage_to_string, %object
 2155              		.size	cal_stage_to_string, 8
 2156              	cal_stage_to_string:
 2157 0000 5C0B0000 		.word	.LC58
 2158 0004 680B0000 		.word	.LC59
ARM GAS  C:\Users\tslator\AppData\Local\Temp\ccc8OXeR.s 			page 55


 2159              		.type	cal_state_to_string, %object
 2160              		.size	cal_state_to_string, 24
 2161              	cal_state_to_string:
 2162 0008 0C0B0000 		.word	.LC52
 2163 000c 180B0000 		.word	.LC53
 2164 0010 240B0000 		.word	.LC54
 2165 0014 340B0000 		.word	.LC55
 2166 0018 400B0000 		.word	.LC56
 2167 001c 500B0000 		.word	.LC57
 2168              		.section	.rodata.str1.4,"aMS",%progbits,1
 2169              		.align	2
 2170              	.LC0:
 2171 0000 0D0A5765 		.ascii	"\015\012Welcome to the Arlobot calibration interfac"
 2171      6C636F6D 
 2171      6520746F 
 2171      20746865 
 2171      2041726C 
 2172 002d 652E0D0A 		.ascii	"e.\015\012\000"
 2172      00
 2173 0032 0000     		.space	2
 2174              	.LC1:
 2175 0034 54686520 		.ascii	"The following calibration operations are allowed:\015"
 2175      666F6C6C 
 2175      6F77696E 
 2175      67206361 
 2175      6C696272 
 2176 0066 0A00     		.ascii	"\012\000"
 2177              	.LC2:
 2178 0068 20202020 		.ascii	"    1. Motor Calibration - creates mapping between "
 2178      312E204D 
 2178      6F746F72 
 2178      2043616C 
 2178      69627261 
 2179 009b 636F756E 		.ascii	"count/sec and PWM.\015\012\000"
 2179      742F7365 
 2179      6320616E 
 2179      64205057 
 2179      4D2E0D0A 
 2180              	.LC3:
 2181 00b0 20202020 		.ascii	"    2. PID Left Calibration - enter gains, execute "
 2181      322E2050 
 2181      4944204C 
 2181      65667420 
 2181      43616C69 
 2182 00e3 73746570 		.ascii	"step input, print velocity response.\015\012\000"
 2182      20696E70 
 2182      75742C20 
 2182      7072696E 
 2182      74207665 
 2183 010a 0000     		.space	2
 2184              	.LC4:
 2185 010c 20202020 		.ascii	"    3. PID Right Calibration - enter gains, execute"
 2185      332E2050 
 2185      49442052 
 2185      69676874 
 2185      2043616C 
 2186 013f 20737465 		.ascii	" step input, print velocity response.\015\012\000"
ARM GAS  C:\Users\tslator\AppData\Local\Temp\ccc8OXeR.s 			page 56


 2186      7020696E 
 2186      7075742C 
 2186      20707269 
 2186      6E742076 
 2187 0167 00       		.space	1
 2188              	.LC5:
 2189 0168 0D0A00   		.ascii	"\015\012\000"
 2190 016b 00       		.space	1
 2191              	.LC6:
 2192 016c 0D0A456E 		.ascii	"\015\012Enter X to exit calibration\015\012\000"
 2192      74657220 
 2192      5820746F 
 2192      20657869 
 2192      74206361 
 2193              	.LC7:
 2194 018c 4D616B65 		.ascii	"Make an entry [1-5,X]: \000"
 2194      20616E20 
 2194      656E7472 
 2194      79205B31 
 2194      2D352C58 
 2195              	.LC8:
 2196 01a4 0D0A5765 		.ascii	"\015\012Welcome to the Arlobot validation interface"
 2196      6C636F6D 
 2196      6520746F 
 2196      20746865 
 2196      2041726C 
 2197 01d1 2E0D0A00 		.ascii	".\015\012\000"
 2198 01d5 000000   		.space	3
 2199              	.LC9:
 2200 01d8 54686520 		.ascii	"The following validation operations are allowed:\015"
 2200      666F6C6C 
 2200      6F77696E 
 2200      67207661 
 2200      6C696461 
 2201 0209 0A00     		.ascii	"\012\000"
 2202 020b 00       		.space	1
 2203              	.LC10:
 2204 020c 20202020 		.ascii	"    1. Motor Validation - operates the motors at va"
 2204      312E204D 
 2204      6F746F72 
 2204      2056616C 
 2204      69646174 
 2205 023f 7279696E 		.ascii	"rying velocities.\015\012\000"
 2205      67207665 
 2205      6C6F6369 
 2205      74696573 
 2205      2E0D0A00 
 2206 0253 00       		.space	1
 2207              	.LC11:
 2208 0254 20202020 		.ascii	"    2. PID Validation - operates the motors at vary"
 2208      322E2050 
 2208      49442056 
 2208      616C6964 
 2208      6174696F 
 2209 0287 696E6720 		.ascii	"ing velocities, moves in a straight line and rotate"
 2209      76656C6F 
 2209      63697469 
ARM GAS  C:\Users\tslator\AppData\Local\Temp\ccc8OXeR.s 			page 57


 2209      65732C20 
 2209      6D6F7665 
 2210 02ba 7320696E 		.ascii	"s in place.\015\012\000"
 2210      20706C61 
 2210      63652E0D 
 2210      0A00
 2211              	.LC12:
 2212 02c8 20202020 		.ascii	"    3. Left PID (forward) Validation - operates the"
 2212      332E204C 
 2212      65667420 
 2212      50494420 
 2212      28666F72 
 2213 02fb 206C6566 		.ascii	" left motor in the forward direction at various vel"
 2213      74206D6F 
 2213      746F7220 
 2213      696E2074 
 2213      68652066 
 2214 032e 6F636974 		.ascii	"ocities.\015\012\000"
 2214      6965732E 
 2214      0D0A00
 2215 0339 000000   		.space	3
 2216              	.LC13:
 2217 033c 20202020 		.ascii	"    4. Left PID (backward) Validation - operates th"
 2217      342E204C 
 2217      65667420 
 2217      50494420 
 2217      28626163 
 2218 036f 65206C65 		.ascii	"e left motor in the backward direction at various v"
 2218      6674206D 
 2218      6F746F72 
 2218      20696E20 
 2218      74686520 
 2219 03a2 656C6F63 		.ascii	"elocities.\015\012\000"
 2219      69746965 
 2219      732E0D0A 
 2219      00
 2220 03af 00       		.space	1
 2221              	.LC14:
 2222 03b0 20202020 		.ascii	"    5. Right PID (forward) Validation - operates th"
 2222      352E2052 
 2222      69676874 
 2222      20504944 
 2222      2028666F 
 2223 03e3 65207269 		.ascii	"e right motor in the forward direction at various v"
 2223      67687420 
 2223      6D6F746F 
 2223      7220696E 
 2223      20746865 
 2224 0416 656C6F63 		.ascii	"elocities.\015\012\000"
 2224      69746965 
 2224      732E0D0A 
 2224      00
 2225 0423 00       		.space	1
 2226              	.LC15:
 2227 0424 20202020 		.ascii	"    6. Right PID (backward) Validation - operates t"
 2227      362E2052 
 2227      69676874 
ARM GAS  C:\Users\tslator\AppData\Local\Temp\ccc8OXeR.s 			page 58


 2227      20504944 
 2227      20286261 
 2228 0457 68652072 		.ascii	"he right motor in the backward direction at various"
 2228      69676874 
 2228      206D6F74 
 2228      6F722069 
 2228      6E207468 
 2229 048a 2076656C 		.ascii	" velocities.\015\012\000"
 2229      6F636974 
 2229      6965732E 
 2229      0D0A00
 2230 0499 000000   		.space	3
 2231              	.LC16:
 2232 049c 20202020 		.ascii	"    7. Straight Line (forward) Validation - operate"
 2232      372E2053 
 2232      74726169 
 2232      67687420 
 2232      4C696E65 
 2233 04cf 73207468 		.ascii	"s the robot in the forward direction at a constant "
 2233      6520726F 
 2233      626F7420 
 2233      696E2074 
 2233      68652066 
 2234 0502 28736C6F 		.ascii	"(slow) velocity.\015\012\000"
 2234      77292076 
 2234      656C6F63 
 2234      6974792E 
 2234      0D0A00
 2235 0515 000000   		.space	3
 2236              	.LC17:
 2237 0518 20202020 		.ascii	"    8. Straight Line (backward) Validation - operat"
 2237      382E2053 
 2237      74726169 
 2237      67687420 
 2237      4C696E65 
 2238 054b 65732074 		.ascii	"es the robot in the backward direction at a constan"
 2238      68652072 
 2238      6F626F74 
 2238      20696E20 
 2238      74686520 
 2239 057e 74202873 		.ascii	"t (slow) velocity.\015\012\000"
 2239      6C6F7729 
 2239      2076656C 
 2239      6F636974 
 2239      792E0D0A 
 2240 0593 00       		.space	1
 2241              	.LC18:
 2242 0594 0D0A456E 		.ascii	"\015\012Enter X to exit validation\015\012\000"
 2242      74657220 
 2242      5820746F 
 2242      20657869 
 2242      74207661 
 2243 05b3 00       		.space	1
 2244              	.LC19:
 2245 05b4 4D616B65 		.ascii	"Make an entry [1-8,X]: \000"
 2245      20616E20 
 2245      656E7472 
ARM GAS  C:\Users\tslator\AppData\Local\Temp\ccc8OXeR.s 			page 59


 2245      79205B31 
 2245      2D382C58 
 2246              	.LC20:
 2247 05cc 0D0A5765 		.ascii	"\015\012Welcome to the Arlobot settings display\015"
 2247      6C636F6D 
 2247      6520746F 
 2247      20746865 
 2247      2041726C 
 2248 05f6 0A00     		.ascii	"\012\000"
 2249              	.LC21:
 2250 05f8 54686520 		.ascii	"The following settings can be displayed\015\012\000"
 2250      666F6C6C 
 2250      6F77696E 
 2250      67207365 
 2250      7474696E 
 2251 0622 0000     		.space	2
 2252              	.LC22:
 2253 0624 20202020 		.ascii	"    1. Left Motor Calibration\015\012\000"
 2253      312E204C 
 2253      65667420 
 2253      4D6F746F 
 2253      72204361 
 2254              	.LC23:
 2255 0644 20202020 		.ascii	"    2. Right Motor Calibration\015\012\000"
 2255      322E2052 
 2255      69676874 
 2255      204D6F74 
 2255      6F722043 
 2256 0665 000000   		.space	3
 2257              	.LC24:
 2258 0668 20202020 		.ascii	"    3. PID Gains: left pid and right pid\015\012\000"
 2258      332E2050 
 2258      49442047 
 2258      61696E73 
 2258      3A206C65 
 2259 0693 00       		.space	1
 2260              	.LC25:
 2261 0694 20202020 		.ascii	"    4. Display All\015\012\000"
 2261      342E2044 
 2261      6973706C 
 2261      61792041 
 2261      6C6C0D0A 
 2262 06a9 000000   		.space	3
 2263              	.LC26:
 2264 06ac 4572726F 		.ascii	"Error processing stage %s, state %s\015\012\000"
 2264      72207072 
 2264      6F636573 
 2264      73696E67 
 2264      20737461 
 2265 06d2 0000     		.space	2
 2266              	.LC27:
 2267 06d4 0D0A4578 		.ascii	"\015\012Exiting Arlobot calibration/validation inte"
 2267      6974696E 
 2267      67204172 
 2267      6C6F626F 
 2267      74206361 
 2268 0701 72666163 		.ascii	"rface.\000"
ARM GAS  C:\Users\tslator\AppData\Local\Temp\ccc8OXeR.s 			page 60


 2268      652E00
 2269              	.LC28:
 2270 0708 0D0A5479 		.ascii	"\015\012Type 'C' to enter calibration, 'V' to enter"
 2270      70652027 
 2270      43272074 
 2270      6F20656E 
 2270      74657220 
 2271 0735 2076616C 		.ascii	" validation, 'D' to display settings\015\012\000"
 2271      69646174 
 2271      696F6E2C 
 2271      20274427 
 2271      20746F20 
 2272              	.LC29:
 2273 075c 0D0A5065 		.ascii	"\015\012Performing Motor Validation by operating th"
 2273      72666F72 
 2273      6D696E67 
 2273      204D6F74 
 2273      6F722056 
 2274 0789 65206D6F 		.ascii	"e motors at varying velocities.\015\012\000"
 2274      746F7273 
 2274      20617420 
 2274      76617279 
 2274      696E6720 
 2275 07ab 00       		.space	1
 2276              	.LC30:
 2277 07ac 0D0A5065 		.ascii	"\015\012Performing Left/Right PID Validation by ope"
 2277      72666F72 
 2277      6D696E67 
 2277      204C6566 
 2277      742F5269 
 2278 07d9 72617469 		.ascii	"rating the motors at varying velocities.\015\012\000"
 2278      6E672074 
 2278      6865206D 
 2278      6F746F72 
 2278      73206174 
 2279              	.LC31:
 2280 0804 0D0A5065 		.ascii	"\015\012Performing Left PID validation in the forwa"
 2280      72666F72 
 2280      6D696E67 
 2280      204C6566 
 2280      74205049 
 2281 0831 72642064 		.ascii	"rd direction.\015\012\000"
 2281      69726563 
 2281      74696F6E 
 2281      2E0D0A00 
 2282 0841 000000   		.space	3
 2283              	.LC32:
 2284 0844 0D0A5065 		.ascii	"\015\012Performing Left PID validation in the backw"
 2284      72666F72 
 2284      6D696E67 
 2284      204C6566 
 2284      74205049 
 2285 0871 61726420 		.ascii	"ard direction.\015\012\000"
 2285      64697265 
 2285      6374696F 
 2285      6E2E0D0A 
 2285      00
ARM GAS  C:\Users\tslator\AppData\Local\Temp\ccc8OXeR.s 			page 61


 2286 0882 0000     		.space	2
 2287              	.LC33:
 2288 0884 0D0A5065 		.ascii	"\015\012Performing Right PID validation in the forw"
 2288      72666F72 
 2288      6D696E67 
 2288      20526967 
 2288      68742050 
 2289 08b1 61726420 		.ascii	"ard direction.\015\012\000"
 2289      64697265 
 2289      6374696F 
 2289      6E2E0D0A 
 2289      00
 2290 08c2 0000     		.space	2
 2291              	.LC34:
 2292 08c4 0D0A5065 		.ascii	"\015\012Performing Right PID validation in the back"
 2292      72666F72 
 2292      6D696E67 
 2292      20526967 
 2292      68742050 
 2293 08f1 77617264 		.ascii	"ward direction.\015\012\000"
 2293      20646972 
 2293      65637469 
 2293      6F6E2E0D 
 2293      0A00
 2294 0903 00       		.space	1
 2295              	.LC35:
 2296 0904 0D0A5065 		.ascii	"\015\012Performing straight line validation in the "
 2296      72666F72 
 2296      6D696E67 
 2296      20737472 
 2296      61696768 
 2297 0931 666F7277 		.ascii	"forward direction.\015\012\000"
 2297      61726420 
 2297      64697265 
 2297      6374696F 
 2297      6E2E0D0A 
 2298 0946 0000     		.space	2
 2299              	.LC36:
 2300 0948 0D0A5065 		.ascii	"\015\012Performing straight line validation in the "
 2300      72666F72 
 2300      6D696E67 
 2300      20737472 
 2300      61696768 
 2301 0975 6261636B 		.ascii	"backward direction.\015\012\000"
 2301      77617264 
 2301      20646972 
 2301      65637469 
 2301      6F6E2E0D 
 2302 098b 00       		.space	1
 2303              	.LC37:
 2304 098c 25730D0A 		.ascii	"%s\015\012\000"
 2304      00
 2305 0991 000000   		.space	3
 2306              	.LC38:
 2307 0994 256C643A 		.ascii	"%ld:%d \000"
 2307      25642000 
 2308              	.LC39:
ARM GAS  C:\Users\tslator\AppData\Local\Temp\ccc8OXeR.s 			page 62


 2309 099c 256C643A 		.ascii	"%ld:%d\015\012\015\012\000"
 2309      25640D0A 
 2309      0D0A00
 2310 09a7 00       		.space	1
 2311              	.LC40:
 2312 09a8 2573202D 		.ascii	"%s - P: %s, I: %s, D: %s\015\012\000"
 2312      20503A20 
 2312      25732C20 
 2312      493A2025 
 2312      732C2044 
 2313 09c3 00       		.space	1
 2314              	.LC41:
 2315 09c4 0D0A4469 		.ascii	"\015\012Displaying left motor calibration: count/se"
 2315      73706C61 
 2315      79696E67 
 2315      206C6566 
 2315      74206D6F 
 2316 09f1 632C2070 		.ascii	"c, pwm mapping\000"
 2316      776D206D 
 2316      61707069 
 2316      6E6700
 2317              	.LC42:
 2318 0a00 4C656674 		.ascii	"Left-Forward\000"
 2318      2D466F72 
 2318      77617264 
 2318      00
 2319 0a0d 000000   		.space	3
 2320              	.LC43:
 2321 0a10 4C656674 		.ascii	"Left-Backward\000"
 2321      2D426163 
 2321      6B776172 
 2321      6400
 2322 0a1e 0000     		.space	2
 2323              	.LC44:
 2324 0a20 0D0A4469 		.ascii	"\015\012Displaying right motor calibration: count/s"
 2324      73706C61 
 2324      79696E67 
 2324      20726967 
 2324      6874206D 
 2325 0a4d 65632C20 		.ascii	"ec, pwm mapping\000"
 2325      70776D20 
 2325      6D617070 
 2325      696E6700 
 2326 0a5d 000000   		.space	3
 2327              	.LC45:
 2328 0a60 52696768 		.ascii	"Right-Forward\000"
 2328      742D466F 
 2328      72776172 
 2328      6400
 2329 0a6e 0000     		.space	2
 2330              	.LC46:
 2331 0a70 52696768 		.ascii	"Right-Backward\000"
 2331      742D4261 
 2331      636B7761 
 2331      726400
 2332 0a7f 00       		.space	1
 2333              	.LC47:
ARM GAS  C:\Users\tslator\AppData\Local\Temp\ccc8OXeR.s 			page 63


 2334 0a80 0D0A4469 		.ascii	"\015\012Displaying all PID gains: left, right\000"
 2334      73706C61 
 2334      79696E67 
 2334      20616C6C 
 2334      20504944 
 2335              	.LC48:
 2336 0aa8 4C656674 		.ascii	"Left PID\000"
 2336      20504944 
 2336      00
 2337 0ab1 000000   		.space	3
 2338              	.LC49:
 2339 0ab4 52696768 		.ascii	"Right PID\000"
 2339      74205049 
 2339      4400
 2340 0abe 0000     		.space	2
 2341              	.LC50:
 2342 0ac0 0D0A4469 		.ascii	"\015\012Displaying all calibration/settings\000"
 2342      73706C61 
 2342      79696E67 
 2342      20616C6C 
 2342      2063616C 
 2343 0ae6 0000     		.space	2
 2344              	.LC51:
 2345 0ae8 4D6F746F 		.ascii	"Motor calibration status not set\015\012\000"
 2345      72206361 
 2345      6C696272 
 2345      6174696F 
 2345      6E207374 
 2346 0b0b 00       		.space	1
 2347              	.LC52:
 2348 0b0c 494E4954 		.ascii	"INIT STATE\000"
 2348      20535441 
 2348      544500
 2349 0b17 00       		.space	1
 2350              	.LC53:
 2351 0b18 53544152 		.ascii	"START STATE\000"
 2351      54205354 
 2351      41544500 
 2352              	.LC54:
 2353 0b24 52554E4E 		.ascii	"RUNNING STATE\000"
 2353      494E4720 
 2353      53544154 
 2353      4500
 2354 0b32 0000     		.space	2
 2355              	.LC55:
 2356 0b34 53544F50 		.ascii	"STOP STATE\000"
 2356      20535441 
 2356      544500
 2357 0b3f 00       		.space	1
 2358              	.LC56:
 2359 0b40 52455355 		.ascii	"RESULTS STATE\000"
 2359      4C545320 
 2359      53544154 
 2359      4500
 2360 0b4e 0000     		.space	2
 2361              	.LC57:
 2362 0b50 444F4E45 		.ascii	"DONE STATE\000"
ARM GAS  C:\Users\tslator\AppData\Local\Temp\ccc8OXeR.s 			page 64


 2362      20535441 
 2362      544500
 2363 0b5b 00       		.space	1
 2364              	.LC58:
 2365 0b5c 43414C49 		.ascii	"CALIBRATION\000"
 2365      42524154 
 2365      494F4E00 
 2366              	.LC59:
 2367 0b68 56414C49 		.ascii	"VALIDATE\000"
 2367      44415445 
 2367      00
 2368 0b71 000000   		.bss
 2369              		.align	2
 2370              		.set	.LANCHOR0,. + 0
 2371              		.type	left_cmd_velocity, %object
 2372              		.size	left_cmd_velocity, 4
 2373              	left_cmd_velocity:
 2374 0000 00000000 		.space	4
 2375              		.type	right_cmd_velocity, %object
 2376              		.size	right_cmd_velocity, 4
 2377              	right_cmd_velocity:
 2378 0004 00000000 		.space	4
 2379              		.type	active_cal, %object
 2380              		.size	active_cal, 4
 2381              	active_cal:
 2382 0008 00000000 		.space	4
 2383              		.type	active_val, %object
 2384              		.size	active_val, 4
 2385              	active_val:
 2386 000c 00000000 		.space	4
 2387              		.type	ui_state, %object
 2388              		.size	ui_state, 1
 2389              	ui_state:
 2390 0010 00       		.space	1
 2391 0011 000000   		.text
 2392              	.Letext0:
 2393              		.file 2 "c:\\program files (x86)\\cypress\\psoc creator\\3.3\\psoc creator\\import\\gnu\\arm\\4.9.
 2394              		.file 3 "c:\\program files (x86)\\cypress\\psoc creator\\3.3\\psoc creator\\import\\gnu\\arm\\4.9.
 2395              		.file 4 "Generated_Source\\PSoC5/cytypes.h"
 2396              		.file 5 "..\\source\\config.h"
 2397              		.file 6 "..\\source\\calstore.h"
 2398              		.file 7 "..\\source\\cal.h"
 2399              		.file 8 "..\\source\\calpid.h"
 2400              		.file 9 "..\\source\\callin.h"
 2401              		.file 10 "Generated_Source\\PSoC5/core_cm3.h"
 2402              		.file 11 "..\\source\\calmotor.h"
 2403              		.file 12 "..\\source\\calang.h"
 2404              		.file 13 "..\\source\\debug.h"
 2405              		.file 14 "..\\source\\serial.h"
 2406              		.file 15 "..\\source\\utils.h"
 2407              		.file 16 "c:\\program files (x86)\\cypress\\psoc creator\\3.3\\psoc creator\\import\\gnu\\arm\\4.9
 2408              		.file 17 "..\\source\\nvstore.h"
 2409              		.file 18 "..\\source\\i2c.h"
 2410              		.file 19 "..\\source\\control.h"
 2411              		.file 20 "c:\\program files (x86)\\cypress\\psoc creator\\3.3\\psoc creator\\import\\gnu\\arm\\4.9
 2412              		.section	.debug_info,"",%progbits
 2413              	.Ldebug_info0:
ARM GAS  C:\Users\tslator\AppData\Local\Temp\ccc8OXeR.s 			page 65


 2414 0000 60170000 		.4byte	0x1760
 2415 0004 0400     		.2byte	0x4
 2416 0006 00000000 		.4byte	.Ldebug_abbrev0
 2417 000a 04       		.byte	0x4
 2418 000b 01       		.uleb128 0x1
 2419 000c 7B080000 		.4byte	.LASF185
 2420 0010 01       		.byte	0x1
 2421 0011 57060000 		.4byte	.LASF186
 2422 0015 8C050000 		.4byte	.LASF187
 2423 0019 00000000 		.4byte	.Ldebug_ranges0+0
 2424 001d 00000000 		.4byte	0
 2425 0021 00000000 		.4byte	.Ldebug_line0
 2426 0025 02       		.uleb128 0x2
 2427 0026 04       		.byte	0x4
 2428 0027 04       		.byte	0x4
 2429 0028 78020000 		.4byte	.LASF0
 2430 002c 02       		.uleb128 0x2
 2431 002d 01       		.byte	0x1
 2432 002e 06       		.byte	0x6
 2433 002f 67090000 		.4byte	.LASF1
 2434 0033 02       		.uleb128 0x2
 2435 0034 01       		.byte	0x1
 2436 0035 08       		.byte	0x8
 2437 0036 47080000 		.4byte	.LASF2
 2438 003a 02       		.uleb128 0x2
 2439 003b 02       		.byte	0x2
 2440 003c 05       		.byte	0x5
 2441 003d 1F070000 		.4byte	.LASF3
 2442 0041 02       		.uleb128 0x2
 2443 0042 02       		.byte	0x2
 2444 0043 07       		.byte	0x7
 2445 0044 73090000 		.4byte	.LASF4
 2446 0048 03       		.uleb128 0x3
 2447 0049 4F010000 		.4byte	.LASF12
 2448 004d 02       		.byte	0x2
 2449 004e 3F       		.byte	0x3f
 2450 004f 53000000 		.4byte	0x53
 2451 0053 02       		.uleb128 0x2
 2452 0054 04       		.byte	0x4
 2453 0055 05       		.byte	0x5
 2454 0056 38070000 		.4byte	.LASF5
 2455 005a 02       		.uleb128 0x2
 2456 005b 04       		.byte	0x4
 2457 005c 07       		.byte	0x7
 2458 005d 0D080000 		.4byte	.LASF6
 2459 0061 02       		.uleb128 0x2
 2460 0062 08       		.byte	0x8
 2461 0063 05       		.byte	0x5
 2462 0064 22050000 		.4byte	.LASF7
 2463 0068 02       		.uleb128 0x2
 2464 0069 08       		.byte	0x8
 2465 006a 07       		.byte	0x7
 2466 006b CA020000 		.4byte	.LASF8
 2467 006f 04       		.uleb128 0x4
 2468 0070 04       		.byte	0x4
 2469 0071 05       		.byte	0x5
 2470 0072 696E7400 		.ascii	"int\000"
ARM GAS  C:\Users\tslator\AppData\Local\Temp\ccc8OXeR.s 			page 66


 2471 0076 02       		.uleb128 0x2
 2472 0077 04       		.byte	0x4
 2473 0078 07       		.byte	0x7
 2474 0079 E0000000 		.4byte	.LASF9
 2475 007d 05       		.uleb128 0x5
 2476 007e 04       		.byte	0x4
 2477 007f 02       		.uleb128 0x2
 2478 0080 04       		.byte	0x4
 2479 0081 07       		.byte	0x7
 2480 0082 04080000 		.4byte	.LASF10
 2481 0086 06       		.uleb128 0x6
 2482 0087 04       		.byte	0x4
 2483 0088 8C000000 		.4byte	0x8c
 2484 008c 02       		.uleb128 0x2
 2485 008d 01       		.byte	0x1
 2486 008e 08       		.byte	0x8
 2487 008f 49040000 		.4byte	.LASF11
 2488 0093 06       		.uleb128 0x6
 2489 0094 04       		.byte	0x4
 2490 0095 99000000 		.4byte	0x99
 2491 0099 07       		.uleb128 0x7
 2492 009a 8C000000 		.4byte	0x8c
 2493 009e 03       		.uleb128 0x3
 2494 009f 2B080000 		.4byte	.LASF13
 2495 00a3 03       		.byte	0x3
 2496 00a4 2C       		.byte	0x2c
 2497 00a5 48000000 		.4byte	0x48
 2498 00a9 08       		.uleb128 0x8
 2499 00aa C5090000 		.4byte	.LASF14
 2500 00ae 04       		.byte	0x4
 2501 00af 3801     		.2byte	0x138
 2502 00b1 33000000 		.4byte	0x33
 2503 00b5 08       		.uleb128 0x8
 2504 00b6 8F040000 		.4byte	.LASF15
 2505 00ba 04       		.byte	0x4
 2506 00bb 3901     		.2byte	0x139
 2507 00bd 41000000 		.4byte	0x41
 2508 00c1 08       		.uleb128 0x8
 2509 00c2 67060000 		.4byte	.LASF16
 2510 00c6 04       		.byte	0x4
 2511 00c7 3A01     		.2byte	0x13a
 2512 00c9 5A000000 		.4byte	0x5a
 2513 00cd 08       		.uleb128 0x8
 2514 00ce 59010000 		.4byte	.LASF17
 2515 00d2 04       		.byte	0x4
 2516 00d3 3C01     		.2byte	0x13c
 2517 00d5 3A000000 		.4byte	0x3a
 2518 00d9 08       		.uleb128 0x8
 2519 00da 87020000 		.4byte	.LASF18
 2520 00de 04       		.byte	0x4
 2521 00df 3D01     		.2byte	0x13d
 2522 00e1 53000000 		.4byte	0x53
 2523 00e5 02       		.uleb128 0x2
 2524 00e6 08       		.byte	0x8
 2525 00e7 04       		.byte	0x4
 2526 00e8 CB090000 		.4byte	.LASF19
 2527 00ec 09       		.uleb128 0x9
ARM GAS  C:\Users\tslator\AppData\Local\Temp\ccc8OXeR.s 			page 67


 2528 00ed A9000000 		.4byte	0xa9
 2529 00f1 FC000000 		.4byte	0xfc
 2530 00f5 0A       		.uleb128 0xa
 2531 00f6 7F000000 		.4byte	0x7f
 2532 00fa 03       		.byte	0x3
 2533 00fb 00       		.byte	0
 2534 00fc 03       		.uleb128 0x3
 2535 00fd 4E050000 		.4byte	.LASF20
 2536 0101 05       		.byte	0x5
 2537 0102 18       		.byte	0x18
 2538 0103 07010000 		.4byte	0x107
 2539 0107 06       		.uleb128 0x6
 2540 0108 04       		.byte	0x4
 2541 0109 0D010000 		.4byte	0x10d
 2542 010d 0B       		.uleb128 0xb
 2543 010e 25000000 		.4byte	0x25
 2544 0112 18010000 		.4byte	0x118
 2545 0116 0C       		.uleb128 0xc
 2546 0117 00       		.byte	0
 2547 0118 0D       		.uleb128 0xd
 2548 0119 01       		.byte	0x1
 2549 011a 05       		.byte	0x5
 2550 011b 1A       		.byte	0x1a
 2551 011c 33010000 		.4byte	0x133
 2552 0120 0E       		.uleb128 0xe
 2553 0121 5C090000 		.4byte	.LASF21
 2554 0125 00       		.sleb128 0
 2555 0126 0E       		.uleb128 0xe
 2556 0127 75010000 		.4byte	.LASF22
 2557 012b 01       		.sleb128 1
 2558 012c 0E       		.uleb128 0xe
 2559 012d 37000000 		.4byte	.LASF23
 2560 0131 02       		.sleb128 2
 2561 0132 00       		.byte	0
 2562 0133 03       		.uleb128 0x3
 2563 0134 44010000 		.4byte	.LASF24
 2564 0138 05       		.byte	0x5
 2565 0139 1A       		.byte	0x1a
 2566 013a 18010000 		.4byte	0x118
 2567 013e 0D       		.uleb128 0xd
 2568 013f 01       		.byte	0x1
 2569 0140 05       		.byte	0x5
 2570 0141 1B       		.byte	0x1b
 2571 0142 53010000 		.4byte	0x153
 2572 0146 0E       		.uleb128 0xe
 2573 0147 31020000 		.4byte	.LASF25
 2574 014b 00       		.sleb128 0
 2575 014c 0E       		.uleb128 0xe
 2576 014d 66020000 		.4byte	.LASF26
 2577 0151 01       		.sleb128 1
 2578 0152 00       		.byte	0
 2579 0153 03       		.uleb128 0x3
 2580 0154 13050000 		.4byte	.LASF27
 2581 0158 05       		.byte	0x5
 2582 0159 1B       		.byte	0x1b
 2583 015a 3E010000 		.4byte	0x13e
 2584 015e 0F       		.uleb128 0xf
ARM GAS  C:\Users\tslator\AppData\Local\Temp\ccc8OXeR.s 			page 68


 2585 015f 88030000 		.4byte	.LASF35
 2586 0163 4001     		.2byte	0x140
 2587 0165 06       		.byte	0x6
 2588 0166 09       		.byte	0x9
 2589 0167 B5010000 		.4byte	0x1b5
 2590 016b 10       		.uleb128 0x10
 2591 016c E6050000 		.4byte	.LASF28
 2592 0170 06       		.byte	0x6
 2593 0171 0B       		.byte	0xb
 2594 0172 D9000000 		.4byte	0xd9
 2595 0176 00       		.byte	0
 2596 0177 10       		.uleb128 0x10
 2597 0178 F5090000 		.4byte	.LASF29
 2598 017c 06       		.byte	0x6
 2599 017d 0C       		.byte	0xc
 2600 017e D9000000 		.4byte	0xd9
 2601 0182 04       		.byte	0x4
 2602 0183 10       		.uleb128 0x10
 2603 0184 5D040000 		.4byte	.LASF30
 2604 0188 06       		.byte	0x6
 2605 0189 0D       		.byte	0xd
 2606 018a 6F000000 		.4byte	0x6f
 2607 018e 08       		.byte	0x8
 2608 018f 10       		.uleb128 0x10
 2609 0190 1C030000 		.4byte	.LASF31
 2610 0194 06       		.byte	0x6
 2611 0195 0E       		.byte	0xe
 2612 0196 B5010000 		.4byte	0x1b5
 2613 019a 0C       		.byte	0xc
 2614 019b 10       		.uleb128 0x10
 2615 019c 13030000 		.4byte	.LASF32
 2616 01a0 06       		.byte	0x6
 2617 01a1 0F       		.byte	0xf
 2618 01a2 C5010000 		.4byte	0x1c5
 2619 01a6 D8       		.byte	0xd8
 2620 01a7 11       		.uleb128 0x11
 2621 01a8 AA090000 		.4byte	.LASF33
 2622 01ac 06       		.byte	0x6
 2623 01ad 11       		.byte	0x11
 2624 01ae B5000000 		.4byte	0xb5
 2625 01b2 3E01     		.2byte	0x13e
 2626 01b4 00       		.byte	0
 2627 01b5 09       		.uleb128 0x9
 2628 01b6 D9000000 		.4byte	0xd9
 2629 01ba C5010000 		.4byte	0x1c5
 2630 01be 0A       		.uleb128 0xa
 2631 01bf 7F000000 		.4byte	0x7f
 2632 01c3 32       		.byte	0x32
 2633 01c4 00       		.byte	0
 2634 01c5 09       		.uleb128 0x9
 2635 01c6 B5000000 		.4byte	0xb5
 2636 01ca D5010000 		.4byte	0x1d5
 2637 01ce 0A       		.uleb128 0xa
 2638 01cf 7F000000 		.4byte	0x7f
 2639 01d3 32       		.byte	0x32
 2640 01d4 00       		.byte	0
 2641 01d5 03       		.uleb128 0x3
ARM GAS  C:\Users\tslator\AppData\Local\Temp\ccc8OXeR.s 			page 69


 2642 01d6 D2000000 		.4byte	.LASF34
 2643 01da 06       		.byte	0x6
 2644 01db 13       		.byte	0x13
 2645 01dc 5E010000 		.4byte	0x15e
 2646 01e0 12       		.uleb128 0x12
 2647 01e1 DF030000 		.4byte	.LASF36
 2648 01e5 10       		.byte	0x10
 2649 01e6 06       		.byte	0x6
 2650 01e7 15       		.byte	0x15
 2651 01e8 1A020000 		.4byte	0x21a
 2652 01ec 13       		.uleb128 0x13
 2653 01ed 6B7000   		.ascii	"kp\000"
 2654 01f0 06       		.byte	0x6
 2655 01f1 17       		.byte	0x17
 2656 01f2 25000000 		.4byte	0x25
 2657 01f6 00       		.byte	0
 2658 01f7 13       		.uleb128 0x13
 2659 01f8 6B6900   		.ascii	"ki\000"
 2660 01fb 06       		.byte	0x6
 2661 01fc 18       		.byte	0x18
 2662 01fd 25000000 		.4byte	0x25
 2663 0201 04       		.byte	0x4
 2664 0202 13       		.uleb128 0x13
 2665 0203 6B6400   		.ascii	"kd\000"
 2666 0206 06       		.byte	0x6
 2667 0207 19       		.byte	0x19
 2668 0208 25000000 		.4byte	0x25
 2669 020c 08       		.byte	0x8
 2670 020d 10       		.uleb128 0x10
 2671 020e 37060000 		.4byte	.LASF37
 2672 0212 06       		.byte	0x6
 2673 0213 1B       		.byte	0x1b
 2674 0214 EC000000 		.4byte	0xec
 2675 0218 0C       		.byte	0xc
 2676 0219 00       		.byte	0
 2677 021a 03       		.uleb128 0x3
 2678 021b C8060000 		.4byte	.LASF38
 2679 021f 06       		.byte	0x6
 2680 0220 1D       		.byte	0x1d
 2681 0221 E0010000 		.4byte	0x1e0
 2682 0225 0F       		.uleb128 0xf
 2683 0226 9C000000 		.4byte	.LASF39
 2684 022a 4805     		.2byte	0x548
 2685 022c 06       		.byte	0x6
 2686 022d 1F       		.byte	0x1f
 2687 022e AE020000 		.4byte	0x2ae
 2688 0232 10       		.uleb128 0x10
 2689 0233 C0040000 		.4byte	.LASF40
 2690 0237 06       		.byte	0x6
 2691 0238 22       		.byte	0x22
 2692 0239 B5000000 		.4byte	0xb5
 2693 023d 00       		.byte	0
 2694 023e 10       		.uleb128 0x10
 2695 023f 7E020000 		.4byte	.LASF41
 2696 0243 06       		.byte	0x6
 2697 0244 25       		.byte	0x25
 2698 0245 B5000000 		.4byte	0xb5
ARM GAS  C:\Users\tslator\AppData\Local\Temp\ccc8OXeR.s 			page 70


 2699 0249 02       		.byte	0x2
 2700 024a 10       		.uleb128 0x10
 2701 024b AA040000 		.4byte	.LASF42
 2702 024f 06       		.byte	0x6
 2703 0250 26       		.byte	0x26
 2704 0251 EC000000 		.4byte	0xec
 2705 0255 04       		.byte	0x4
 2706 0256 10       		.uleb128 0x10
 2707 0257 A1010000 		.4byte	.LASF43
 2708 025b 06       		.byte	0x6
 2709 025c 27       		.byte	0x27
 2710 025d 1A020000 		.4byte	0x21a
 2711 0261 08       		.byte	0x8
 2712 0262 10       		.uleb128 0x10
 2713 0263 73050000 		.4byte	.LASF44
 2714 0267 06       		.byte	0x6
 2715 0268 28       		.byte	0x28
 2716 0269 1A020000 		.4byte	0x21a
 2717 026d 18       		.byte	0x18
 2718 026e 10       		.uleb128 0x10
 2719 026f 66030000 		.4byte	.LASF45
 2720 0273 06       		.byte	0x6
 2721 0274 29       		.byte	0x29
 2722 0275 AE020000 		.4byte	0x2ae
 2723 0279 28       		.byte	0x28
 2724 027a 10       		.uleb128 0x10
 2725 027b 30050000 		.4byte	.LASF46
 2726 027f 06       		.byte	0x6
 2727 0280 2A       		.byte	0x2a
 2728 0281 D5010000 		.4byte	0x1d5
 2729 0285 48       		.byte	0x48
 2730 0286 11       		.uleb128 0x11
 2731 0287 01040000 		.4byte	.LASF47
 2732 028b 06       		.byte	0x6
 2733 028c 2B       		.byte	0x2b
 2734 028d D5010000 		.4byte	0x1d5
 2735 0291 8801     		.2byte	0x188
 2736 0293 11       		.uleb128 0x11
 2737 0294 5F010000 		.4byte	.LASF48
 2738 0298 06       		.byte	0x6
 2739 0299 2C       		.byte	0x2c
 2740 029a D5010000 		.4byte	0x1d5
 2741 029e C802     		.2byte	0x2c8
 2742 02a0 11       		.uleb128 0x11
 2743 02a1 63050000 		.4byte	.LASF49
 2744 02a5 06       		.byte	0x6
 2745 02a6 2D       		.byte	0x2d
 2746 02a7 D5010000 		.4byte	0x1d5
 2747 02ab 0804     		.2byte	0x408
 2748 02ad 00       		.byte	0
 2749 02ae 09       		.uleb128 0x9
 2750 02af A9000000 		.4byte	0xa9
 2751 02b3 BE020000 		.4byte	0x2be
 2752 02b7 0A       		.uleb128 0xa
 2753 02b8 7F000000 		.4byte	0x7f
 2754 02bc 1F       		.byte	0x1f
 2755 02bd 00       		.byte	0
ARM GAS  C:\Users\tslator\AppData\Local\Temp\ccc8OXeR.s 			page 71


 2756 02be 03       		.uleb128 0x3
 2757 02bf C7040000 		.4byte	.LASF50
 2758 02c3 06       		.byte	0x6
 2759 02c4 2E       		.byte	0x2e
 2760 02c5 25020000 		.4byte	0x225
 2761 02c9 0D       		.uleb128 0xd
 2762 02ca 01       		.byte	0x1
 2763 02cb 07       		.byte	0x7
 2764 02cc 41       		.byte	0x41
 2765 02cd F6020000 		.4byte	0x2f6
 2766 02d1 0E       		.uleb128 0xe
 2767 02d2 1E0A0000 		.4byte	.LASF51
 2768 02d6 00       		.sleb128 0
 2769 02d7 0E       		.uleb128 0xe
 2770 02d8 31090000 		.4byte	.LASF52
 2771 02dc 01       		.sleb128 1
 2772 02dd 0E       		.uleb128 0xe
 2773 02de 8F010000 		.4byte	.LASF53
 2774 02e2 02       		.sleb128 2
 2775 02e3 0E       		.uleb128 0xe
 2776 02e4 C3000000 		.4byte	.LASF54
 2777 02e8 03       		.sleb128 3
 2778 02e9 0E       		.uleb128 0xe
 2779 02ea 49020000 		.4byte	.LASF55
 2780 02ee 04       		.sleb128 4
 2781 02ef 0E       		.uleb128 0xe
 2782 02f0 EE050000 		.4byte	.LASF56
 2783 02f4 05       		.sleb128 5
 2784 02f5 00       		.byte	0
 2785 02f6 03       		.uleb128 0x3
 2786 02f7 3F050000 		.4byte	.LASF57
 2787 02fb 07       		.byte	0x7
 2788 02fc 41       		.byte	0x41
 2789 02fd C9020000 		.4byte	0x2c9
 2790 0301 0D       		.uleb128 0xd
 2791 0302 01       		.byte	0x1
 2792 0303 07       		.byte	0x7
 2793 0304 42       		.byte	0x42
 2794 0305 16030000 		.4byte	0x316
 2795 0309 0E       		.uleb128 0xe
 2796 030a 0B060000 		.4byte	.LASF58
 2797 030e 00       		.sleb128 0
 2798 030f 0E       		.uleb128 0xe
 2799 0310 21040000 		.4byte	.LASF59
 2800 0314 01       		.sleb128 1
 2801 0315 00       		.byte	0
 2802 0316 03       		.uleb128 0x3
 2803 0317 F2020000 		.4byte	.LASF60
 2804 031b 07       		.byte	0x7
 2805 031c 42       		.byte	0x42
 2806 031d 01030000 		.4byte	0x301
 2807 0321 03       		.uleb128 0x3
 2808 0322 22020000 		.4byte	.LASF61
 2809 0326 07       		.byte	0x7
 2810 0327 4A       		.byte	0x4a
 2811 0328 2C030000 		.4byte	0x32c
 2812 032c 06       		.uleb128 0x6
ARM GAS  C:\Users\tslator\AppData\Local\Temp\ccc8OXeR.s 			page 72


 2813 032d 04       		.byte	0x4
 2814 032e 32030000 		.4byte	0x332
 2815 0332 14       		.uleb128 0x14
 2816 0333 A9000000 		.4byte	0xa9
 2817 0337 46030000 		.4byte	0x346
 2818 033b 15       		.uleb128 0x15
 2819 033c 16030000 		.4byte	0x316
 2820 0340 15       		.uleb128 0x15
 2821 0341 7D000000 		.4byte	0x7d
 2822 0345 00       		.byte	0
 2823 0346 03       		.uleb128 0x3
 2824 0347 5F000000 		.4byte	.LASF62
 2825 034b 07       		.byte	0x7
 2826 034c 4B       		.byte	0x4b
 2827 034d 2C030000 		.4byte	0x32c
 2828 0351 03       		.uleb128 0x3
 2829 0352 10040000 		.4byte	.LASF63
 2830 0356 07       		.byte	0x7
 2831 0357 4C       		.byte	0x4c
 2832 0358 2C030000 		.4byte	0x32c
 2833 035c 03       		.uleb128 0x3
 2834 035d 8B070000 		.4byte	.LASF64
 2835 0361 07       		.byte	0x7
 2836 0362 4D       		.byte	0x4d
 2837 0363 2C030000 		.4byte	0x32c
 2838 0367 03       		.uleb128 0x3
 2839 0368 A7020000 		.4byte	.LASF65
 2840 036c 07       		.byte	0x7
 2841 036d 4E       		.byte	0x4e
 2842 036e 2C030000 		.4byte	0x32c
 2843 0372 12       		.uleb128 0x12
 2844 0373 530A0000 		.4byte	.LASF66
 2845 0377 1C       		.byte	0x1c
 2846 0378 07       		.byte	0x7
 2847 0379 50       		.byte	0x50
 2848 037a DF030000 		.4byte	0x3df
 2849 037e 10       		.uleb128 0x10
 2850 037f 25090000 		.4byte	.LASF67
 2851 0383 07       		.byte	0x7
 2852 0384 52       		.byte	0x52
 2853 0385 F6020000 		.4byte	0x2f6
 2854 0389 00       		.byte	0
 2855 038a 10       		.uleb128 0x10
 2856 038b 6F010000 		.4byte	.LASF68
 2857 038f 07       		.byte	0x7
 2858 0390 53       		.byte	0x53
 2859 0391 16030000 		.4byte	0x316
 2860 0395 01       		.byte	0x1
 2861 0396 10       		.uleb128 0x10
 2862 0397 58000000 		.4byte	.LASF69
 2863 039b 07       		.byte	0x7
 2864 039c 54       		.byte	0x54
 2865 039d 7D000000 		.4byte	0x7d
 2866 03a1 04       		.byte	0x4
 2867 03a2 10       		.uleb128 0x10
 2868 03a3 E9070000 		.4byte	.LASF70
 2869 03a7 07       		.byte	0x7
ARM GAS  C:\Users\tslator\AppData\Local\Temp\ccc8OXeR.s 			page 73


 2870 03a8 55       		.byte	0x55
 2871 03a9 21030000 		.4byte	0x321
 2872 03ad 08       		.byte	0x8
 2873 03ae 10       		.uleb128 0x10
 2874 03af A4070000 		.4byte	.LASF71
 2875 03b3 07       		.byte	0x7
 2876 03b4 56       		.byte	0x56
 2877 03b5 46030000 		.4byte	0x346
 2878 03b9 0C       		.byte	0xc
 2879 03ba 10       		.uleb128 0x10
 2880 03bb E3010000 		.4byte	.LASF72
 2881 03bf 07       		.byte	0x7
 2882 03c0 57       		.byte	0x57
 2883 03c1 51030000 		.4byte	0x351
 2884 03c5 10       		.byte	0x10
 2885 03c6 10       		.uleb128 0x10
 2886 03c7 73020000 		.4byte	.LASF73
 2887 03cb 07       		.byte	0x7
 2888 03cc 58       		.byte	0x58
 2889 03cd 5C030000 		.4byte	0x35c
 2890 03d1 14       		.byte	0x14
 2891 03d2 10       		.uleb128 0x10
 2892 03d3 EA010000 		.4byte	.LASF74
 2893 03d7 07       		.byte	0x7
 2894 03d8 59       		.byte	0x59
 2895 03d9 67030000 		.4byte	0x367
 2896 03dd 18       		.byte	0x18
 2897 03de 00       		.byte	0
 2898 03df 03       		.uleb128 0x3
 2899 03e0 8B090000 		.4byte	.LASF75
 2900 03e4 07       		.byte	0x7
 2901 03e5 5A       		.byte	0x5a
 2902 03e6 72030000 		.4byte	0x372
 2903 03ea 0D       		.uleb128 0xd
 2904 03eb 01       		.byte	0x1
 2905 03ec 08       		.byte	0x8
 2906 03ed 08       		.byte	0x8
 2907 03ee FF030000 		.4byte	0x3ff
 2908 03f2 0E       		.uleb128 0xe
 2909 03f3 4E090000 		.4byte	.LASF76
 2910 03f7 00       		.sleb128 0
 2911 03f8 0E       		.uleb128 0xe
 2912 03f9 80040000 		.4byte	.LASF77
 2913 03fd 01       		.sleb128 1
 2914 03fe 00       		.byte	0
 2915 03ff 03       		.uleb128 0x3
 2916 0400 D6030000 		.4byte	.LASF78
 2917 0404 08       		.byte	0x8
 2918 0405 08       		.byte	0x8
 2919 0406 EA030000 		.4byte	0x3ea
 2920 040a 12       		.uleb128 0x12
 2921 040b 00050000 		.4byte	.LASF79
 2922 040f 0C       		.byte	0xc
 2923 0410 08       		.byte	0x8
 2924 0411 0A       		.byte	0xa
 2925 0412 47040000 		.4byte	0x447
 2926 0416 10       		.uleb128 0x10
ARM GAS  C:\Users\tslator\AppData\Local\Temp\ccc8OXeR.s 			page 74


 2927 0417 9F070000 		.4byte	.LASF80
 2928 041b 08       		.byte	0x8
 2929 041c 0C       		.byte	0xc
 2930 041d 47040000 		.4byte	0x447
 2931 0421 00       		.byte	0
 2932 0422 10       		.uleb128 0x10
 2933 0423 A1040000 		.4byte	.LASF81
 2934 0427 08       		.byte	0x8
 2935 0428 0D       		.byte	0xd
 2936 0429 FF030000 		.4byte	0x3ff
 2937 042d 06       		.byte	0x6
 2938 042e 10       		.uleb128 0x10
 2939 042f 16000000 		.4byte	.LASF82
 2940 0433 08       		.byte	0x8
 2941 0434 0E       		.byte	0xe
 2942 0435 53010000 		.4byte	0x153
 2943 0439 07       		.byte	0x7
 2944 043a 10       		.uleb128 0x10
 2945 043b F8030000 		.4byte	.LASF83
 2946 043f 08       		.byte	0x8
 2947 0440 0F       		.byte	0xf
 2948 0441 C1000000 		.4byte	0xc1
 2949 0445 08       		.byte	0x8
 2950 0446 00       		.byte	0
 2951 0447 09       		.uleb128 0x9
 2952 0448 8C000000 		.4byte	0x8c
 2953 044c 57040000 		.4byte	0x457
 2954 0450 0A       		.uleb128 0xa
 2955 0451 7F000000 		.4byte	0x7f
 2956 0455 05       		.byte	0x5
 2957 0456 00       		.byte	0
 2958 0457 03       		.uleb128 0x3
 2959 0458 35010000 		.4byte	.LASF84
 2960 045c 08       		.byte	0x8
 2961 045d 10       		.byte	0x10
 2962 045e 0A040000 		.4byte	0x40a
 2963 0462 12       		.uleb128 0x12
 2964 0463 4E040000 		.4byte	.LASF85
 2965 0467 10       		.byte	0x10
 2966 0468 09       		.byte	0x9
 2967 0469 07       		.byte	0x7
 2968 046a 9F040000 		.4byte	0x49f
 2969 046e 10       		.uleb128 0x10
 2970 046f 16000000 		.4byte	.LASF82
 2971 0473 09       		.byte	0x9
 2972 0474 09       		.byte	0x9
 2973 0475 53010000 		.4byte	0x153
 2974 0479 00       		.byte	0
 2975 047a 10       		.uleb128 0x10
 2976 047b F8030000 		.4byte	.LASF83
 2977 047f 09       		.byte	0x9
 2978 0480 0A       		.byte	0xa
 2979 0481 C1000000 		.4byte	0xc1
 2980 0485 04       		.byte	0x4
 2981 0486 10       		.uleb128 0x10
 2982 0487 4E070000 		.4byte	.LASF86
 2983 048b 09       		.byte	0x9
ARM GAS  C:\Users\tslator\AppData\Local\Temp\ccc8OXeR.s 			page 75


 2984 048c 0B       		.byte	0xb
 2985 048d 25000000 		.4byte	0x25
 2986 0491 08       		.byte	0x8
 2987 0492 13       		.uleb128 0x13
 2988 0493 6D707300 		.ascii	"mps\000"
 2989 0497 09       		.byte	0x9
 2990 0498 0C       		.byte	0xc
 2991 0499 25000000 		.4byte	0x25
 2992 049d 0C       		.byte	0xc
 2993 049e 00       		.byte	0
 2994 049f 03       		.uleb128 0x3
 2995 04a0 38080000 		.4byte	.LASF87
 2996 04a4 09       		.byte	0x9
 2997 04a5 0D       		.byte	0xd
 2998 04a6 62040000 		.4byte	0x462
 2999 04aa 06       		.uleb128 0x6
 3000 04ab 04       		.byte	0x4
 3001 04ac 25000000 		.4byte	0x25
 3002 04b0 0D       		.uleb128 0xd
 3003 04b1 01       		.byte	0x1
 3004 04b2 01       		.byte	0x1
 3005 04b3 3B       		.byte	0x3b
 3006 04b4 D7040000 		.4byte	0x4d7
 3007 04b8 0E       		.uleb128 0xe
 3008 04b9 AA070000 		.4byte	.LASF88
 3009 04bd 00       		.sleb128 0
 3010 04be 0E       		.uleb128 0xe
 3011 04bf 88060000 		.4byte	.LASF89
 3012 04c3 01       		.sleb128 1
 3013 04c4 0E       		.uleb128 0xe
 3014 04c5 65070000 		.4byte	.LASF90
 3015 04c9 02       		.sleb128 2
 3016 04ca 0E       		.uleb128 0xe
 3017 04cb D5060000 		.4byte	.LASF91
 3018 04cf 03       		.sleb128 3
 3019 04d0 0E       		.uleb128 0xe
 3020 04d1 81010000 		.4byte	.LASF92
 3021 04d5 04       		.sleb128 4
 3022 04d6 00       		.byte	0
 3023 04d7 03       		.uleb128 0x3
 3024 04d8 9C090000 		.4byte	.LASF93
 3025 04dc 01       		.byte	0x1
 3026 04dd 3B       		.byte	0x3b
 3027 04de B0040000 		.4byte	0x4b0
 3028 04e2 16       		.uleb128 0x16
 3029 04e3 B5040000 		.4byte	.LASF94
 3030 04e7 01       		.byte	0x1
 3031 04e8 46       		.byte	0x46
 3032 04e9 25000000 		.4byte	0x25
 3033 04ed 00000000 		.4byte	.LFB63
 3034 04f1 0C000000 		.4byte	.LFE63-.LFB63
 3035 04f5 01       		.uleb128 0x1
 3036 04f6 9C       		.byte	0x9c
 3037 04f7 16       		.uleb128 0x16
 3038 04f8 0A000000 		.4byte	.LASF95
 3039 04fc 01       		.byte	0x1
 3040 04fd 4B       		.byte	0x4b
ARM GAS  C:\Users\tslator\AppData\Local\Temp\ccc8OXeR.s 			page 76


 3041 04fe 25000000 		.4byte	0x25
 3042 0502 00000000 		.4byte	.LFB64
 3043 0506 0C000000 		.4byte	.LFE64-.LFB64
 3044 050a 01       		.uleb128 0x1
 3045 050b 9C       		.byte	0x9c
 3046 050c 17       		.uleb128 0x17
 3047 050d DE040000 		.4byte	.LASF96
 3048 0511 01       		.byte	0x1
 3049 0512 81       		.byte	0x81
 3050 0513 00000000 		.4byte	.LFB69
 3051 0517 5C000000 		.4byte	.LFE69-.LFB69
 3052 051b 01       		.uleb128 0x1
 3053 051c 9C       		.byte	0x9c
 3054 051d E7050000 		.4byte	0x5e7
 3055 0521 18       		.uleb128 0x18
 3056 0522 08000000 		.4byte	.LVL0
 3057 0526 07160000 		.4byte	0x1607
 3058 052a 38050000 		.4byte	0x538
 3059 052e 19       		.uleb128 0x19
 3060 052f 01       		.uleb128 0x1
 3061 0530 50       		.byte	0x50
 3062 0531 05       		.uleb128 0x5
 3063 0532 03       		.byte	0x3
 3064 0533 00000000 		.4byte	.LC0
 3065 0537 00       		.byte	0
 3066 0538 18       		.uleb128 0x18
 3067 0539 0E000000 		.4byte	.LVL1
 3068 053d 07160000 		.4byte	0x1607
 3069 0541 4F050000 		.4byte	0x54f
 3070 0545 19       		.uleb128 0x19
 3071 0546 01       		.uleb128 0x1
 3072 0547 50       		.byte	0x50
 3073 0548 05       		.uleb128 0x5
 3074 0549 03       		.byte	0x3
 3075 054a 34000000 		.4byte	.LC1
 3076 054e 00       		.byte	0
 3077 054f 18       		.uleb128 0x18
 3078 0550 14000000 		.4byte	.LVL2
 3079 0554 07160000 		.4byte	0x1607
 3080 0558 66050000 		.4byte	0x566
 3081 055c 19       		.uleb128 0x19
 3082 055d 01       		.uleb128 0x1
 3083 055e 50       		.byte	0x50
 3084 055f 05       		.uleb128 0x5
 3085 0560 03       		.byte	0x3
 3086 0561 68000000 		.4byte	.LC2
 3087 0565 00       		.byte	0
 3088 0566 18       		.uleb128 0x18
 3089 0567 1A000000 		.4byte	.LVL3
 3090 056b 07160000 		.4byte	0x1607
 3091 056f 7D050000 		.4byte	0x57d
 3092 0573 19       		.uleb128 0x19
 3093 0574 01       		.uleb128 0x1
 3094 0575 50       		.byte	0x50
 3095 0576 05       		.uleb128 0x5
 3096 0577 03       		.byte	0x3
 3097 0578 B0000000 		.4byte	.LC3
ARM GAS  C:\Users\tslator\AppData\Local\Temp\ccc8OXeR.s 			page 77


 3098 057c 00       		.byte	0
 3099 057d 18       		.uleb128 0x18
 3100 057e 20000000 		.4byte	.LVL4
 3101 0582 07160000 		.4byte	0x1607
 3102 0586 94050000 		.4byte	0x594
 3103 058a 19       		.uleb128 0x19
 3104 058b 01       		.uleb128 0x1
 3105 058c 50       		.byte	0x50
 3106 058d 05       		.uleb128 0x5
 3107 058e 03       		.byte	0x3
 3108 058f 0C010000 		.4byte	.LC4
 3109 0593 00       		.byte	0
 3110 0594 18       		.uleb128 0x18
 3111 0595 28000000 		.4byte	.LVL5
 3112 0599 07160000 		.4byte	0x1607
 3113 059d A8050000 		.4byte	0x5a8
 3114 05a1 19       		.uleb128 0x19
 3115 05a2 01       		.uleb128 0x1
 3116 05a3 50       		.byte	0x50
 3117 05a4 02       		.uleb128 0x2
 3118 05a5 74       		.byte	0x74
 3119 05a6 00       		.sleb128 0
 3120 05a7 00       		.byte	0
 3121 05a8 18       		.uleb128 0x18
 3122 05a9 2E000000 		.4byte	.LVL6
 3123 05ad 07160000 		.4byte	0x1607
 3124 05b1 BF050000 		.4byte	0x5bf
 3125 05b5 19       		.uleb128 0x19
 3126 05b6 01       		.uleb128 0x1
 3127 05b7 50       		.byte	0x50
 3128 05b8 05       		.uleb128 0x5
 3129 05b9 03       		.byte	0x3
 3130 05ba 6C010000 		.4byte	.LC6
 3131 05be 00       		.byte	0
 3132 05bf 18       		.uleb128 0x18
 3133 05c0 34000000 		.4byte	.LVL7
 3134 05c4 07160000 		.4byte	0x1607
 3135 05c8 D3050000 		.4byte	0x5d3
 3136 05cc 19       		.uleb128 0x19
 3137 05cd 01       		.uleb128 0x1
 3138 05ce 50       		.byte	0x50
 3139 05cf 02       		.uleb128 0x2
 3140 05d0 74       		.byte	0x74
 3141 05d1 00       		.sleb128 0
 3142 05d2 00       		.byte	0
 3143 05d3 1A       		.uleb128 0x1a
 3144 05d4 3A000000 		.4byte	.LVL8
 3145 05d8 07160000 		.4byte	0x1607
 3146 05dc 19       		.uleb128 0x19
 3147 05dd 01       		.uleb128 0x1
 3148 05de 50       		.byte	0x50
 3149 05df 05       		.uleb128 0x5
 3150 05e0 03       		.byte	0x3
 3151 05e1 8C010000 		.4byte	.LC7
 3152 05e5 00       		.byte	0
 3153 05e6 00       		.byte	0
 3154 05e7 17       		.uleb128 0x17
ARM GAS  C:\Users\tslator\AppData\Local\Temp\ccc8OXeR.s 			page 78


 3155 05e8 FC000000 		.4byte	.LASF97
 3156 05ec 01       		.byte	0x1
 3157 05ed 8E       		.byte	0x8e
 3158 05ee 00000000 		.4byte	.LFB70
 3159 05f2 90000000 		.4byte	.LFE70-.LFB70
 3160 05f6 01       		.uleb128 0x1
 3161 05f7 9C       		.byte	0x9c
 3162 05f8 35070000 		.4byte	0x735
 3163 05fc 18       		.uleb128 0x18
 3164 05fd 08000000 		.4byte	.LVL9
 3165 0601 07160000 		.4byte	0x1607
 3166 0605 13060000 		.4byte	0x613
 3167 0609 19       		.uleb128 0x19
 3168 060a 01       		.uleb128 0x1
 3169 060b 50       		.byte	0x50
 3170 060c 05       		.uleb128 0x5
 3171 060d 03       		.byte	0x3
 3172 060e A4010000 		.4byte	.LC8
 3173 0612 00       		.byte	0
 3174 0613 18       		.uleb128 0x18
 3175 0614 0E000000 		.4byte	.LVL10
 3176 0618 07160000 		.4byte	0x1607
 3177 061c 2A060000 		.4byte	0x62a
 3178 0620 19       		.uleb128 0x19
 3179 0621 01       		.uleb128 0x1
 3180 0622 50       		.byte	0x50
 3181 0623 05       		.uleb128 0x5
 3182 0624 03       		.byte	0x3
 3183 0625 D8010000 		.4byte	.LC9
 3184 0629 00       		.byte	0
 3185 062a 18       		.uleb128 0x18
 3186 062b 14000000 		.4byte	.LVL11
 3187 062f 07160000 		.4byte	0x1607
 3188 0633 41060000 		.4byte	0x641
 3189 0637 19       		.uleb128 0x19
 3190 0638 01       		.uleb128 0x1
 3191 0639 50       		.byte	0x50
 3192 063a 05       		.uleb128 0x5
 3193 063b 03       		.byte	0x3
 3194 063c 0C020000 		.4byte	.LC10
 3195 0640 00       		.byte	0
 3196 0641 18       		.uleb128 0x18
 3197 0642 1A000000 		.4byte	.LVL12
 3198 0646 07160000 		.4byte	0x1607
 3199 064a 58060000 		.4byte	0x658
 3200 064e 19       		.uleb128 0x19
 3201 064f 01       		.uleb128 0x1
 3202 0650 50       		.byte	0x50
 3203 0651 05       		.uleb128 0x5
 3204 0652 03       		.byte	0x3
 3205 0653 54020000 		.4byte	.LC11
 3206 0657 00       		.byte	0
 3207 0658 18       		.uleb128 0x18
 3208 0659 20000000 		.4byte	.LVL13
 3209 065d 07160000 		.4byte	0x1607
 3210 0661 6F060000 		.4byte	0x66f
 3211 0665 19       		.uleb128 0x19
ARM GAS  C:\Users\tslator\AppData\Local\Temp\ccc8OXeR.s 			page 79


 3212 0666 01       		.uleb128 0x1
 3213 0667 50       		.byte	0x50
 3214 0668 05       		.uleb128 0x5
 3215 0669 03       		.byte	0x3
 3216 066a C8020000 		.4byte	.LC12
 3217 066e 00       		.byte	0
 3218 066f 18       		.uleb128 0x18
 3219 0670 26000000 		.4byte	.LVL14
 3220 0674 07160000 		.4byte	0x1607
 3221 0678 86060000 		.4byte	0x686
 3222 067c 19       		.uleb128 0x19
 3223 067d 01       		.uleb128 0x1
 3224 067e 50       		.byte	0x50
 3225 067f 05       		.uleb128 0x5
 3226 0680 03       		.byte	0x3
 3227 0681 3C030000 		.4byte	.LC13
 3228 0685 00       		.byte	0
 3229 0686 18       		.uleb128 0x18
 3230 0687 2C000000 		.4byte	.LVL15
 3231 068b 07160000 		.4byte	0x1607
 3232 068f 9D060000 		.4byte	0x69d
 3233 0693 19       		.uleb128 0x19
 3234 0694 01       		.uleb128 0x1
 3235 0695 50       		.byte	0x50
 3236 0696 05       		.uleb128 0x5
 3237 0697 03       		.byte	0x3
 3238 0698 B0030000 		.4byte	.LC14
 3239 069c 00       		.byte	0
 3240 069d 18       		.uleb128 0x18
 3241 069e 32000000 		.4byte	.LVL16
 3242 06a2 07160000 		.4byte	0x1607
 3243 06a6 B4060000 		.4byte	0x6b4
 3244 06aa 19       		.uleb128 0x19
 3245 06ab 01       		.uleb128 0x1
 3246 06ac 50       		.byte	0x50
 3247 06ad 05       		.uleb128 0x5
 3248 06ae 03       		.byte	0x3
 3249 06af 24040000 		.4byte	.LC15
 3250 06b3 00       		.byte	0
 3251 06b4 18       		.uleb128 0x18
 3252 06b5 38000000 		.4byte	.LVL17
 3253 06b9 07160000 		.4byte	0x1607
 3254 06bd CB060000 		.4byte	0x6cb
 3255 06c1 19       		.uleb128 0x19
 3256 06c2 01       		.uleb128 0x1
 3257 06c3 50       		.byte	0x50
 3258 06c4 05       		.uleb128 0x5
 3259 06c5 03       		.byte	0x3
 3260 06c6 9C040000 		.4byte	.LC16
 3261 06ca 00       		.byte	0
 3262 06cb 18       		.uleb128 0x18
 3263 06cc 3E000000 		.4byte	.LVL18
 3264 06d0 07160000 		.4byte	0x1607
 3265 06d4 E2060000 		.4byte	0x6e2
 3266 06d8 19       		.uleb128 0x19
 3267 06d9 01       		.uleb128 0x1
 3268 06da 50       		.byte	0x50
ARM GAS  C:\Users\tslator\AppData\Local\Temp\ccc8OXeR.s 			page 80


 3269 06db 05       		.uleb128 0x5
 3270 06dc 03       		.byte	0x3
 3271 06dd 18050000 		.4byte	.LC17
 3272 06e1 00       		.byte	0
 3273 06e2 18       		.uleb128 0x18
 3274 06e3 46000000 		.4byte	.LVL19
 3275 06e7 07160000 		.4byte	0x1607
 3276 06eb F6060000 		.4byte	0x6f6
 3277 06ef 19       		.uleb128 0x19
 3278 06f0 01       		.uleb128 0x1
 3279 06f1 50       		.byte	0x50
 3280 06f2 02       		.uleb128 0x2
 3281 06f3 74       		.byte	0x74
 3282 06f4 00       		.sleb128 0
 3283 06f5 00       		.byte	0
 3284 06f6 18       		.uleb128 0x18
 3285 06f7 4C000000 		.4byte	.LVL20
 3286 06fb 07160000 		.4byte	0x1607
 3287 06ff 0D070000 		.4byte	0x70d
 3288 0703 19       		.uleb128 0x19
 3289 0704 01       		.uleb128 0x1
 3290 0705 50       		.byte	0x50
 3291 0706 05       		.uleb128 0x5
 3292 0707 03       		.byte	0x3
 3293 0708 94050000 		.4byte	.LC18
 3294 070c 00       		.byte	0
 3295 070d 18       		.uleb128 0x18
 3296 070e 52000000 		.4byte	.LVL21
 3297 0712 07160000 		.4byte	0x1607
 3298 0716 21070000 		.4byte	0x721
 3299 071a 19       		.uleb128 0x19
 3300 071b 01       		.uleb128 0x1
 3301 071c 50       		.byte	0x50
 3302 071d 02       		.uleb128 0x2
 3303 071e 74       		.byte	0x74
 3304 071f 00       		.sleb128 0
 3305 0720 00       		.byte	0
 3306 0721 1A       		.uleb128 0x1a
 3307 0722 58000000 		.4byte	.LVL22
 3308 0726 07160000 		.4byte	0x1607
 3309 072a 19       		.uleb128 0x19
 3310 072b 01       		.uleb128 0x1
 3311 072c 50       		.byte	0x50
 3312 072d 05       		.uleb128 0x5
 3313 072e 03       		.byte	0x3
 3314 072f B4050000 		.4byte	.LC19
 3315 0733 00       		.byte	0
 3316 0734 00       		.byte	0
 3317 0735 1B       		.uleb128 0x1b
 3318 0736 3D020000 		.4byte	.LASF99
 3319 073a 01       		.byte	0x1
 3320 073b A0       		.byte	0xa0
 3321 073c 00000000 		.4byte	.LFB71
 3322 0740 20000000 		.4byte	.LFE71-.LFB71
 3323 0744 01       		.uleb128 0x1
 3324 0745 9C       		.byte	0x9c
 3325 0746 6C070000 		.4byte	0x76c
ARM GAS  C:\Users\tslator\AppData\Local\Temp\ccc8OXeR.s 			page 81


 3326 074a 1C       		.uleb128 0x1c
 3327 074b 6F010000 		.4byte	.LASF68
 3328 074f 01       		.byte	0x1
 3329 0750 A0       		.byte	0xa0
 3330 0751 16030000 		.4byte	0x316
 3331 0755 00000000 		.4byte	.LLST0
 3332 0759 1D       		.uleb128 0x1d
 3333 075a 0E000000 		.4byte	.LVL24
 3334 075e 0C050000 		.4byte	0x50c
 3335 0762 1D       		.uleb128 0x1d
 3336 0763 18000000 		.4byte	.LVL26
 3337 0767 E7050000 		.4byte	0x5e7
 3338 076b 00       		.byte	0
 3339 076c 17       		.uleb128 0x17
 3340 076d E1090000 		.4byte	.LASF98
 3341 0771 01       		.byte	0x1
 3342 0772 AF       		.byte	0xaf
 3343 0773 00000000 		.4byte	.LFB72
 3344 0777 68000000 		.4byte	.LFE72-.LFB72
 3345 077b 01       		.uleb128 0x1
 3346 077c 9C       		.byte	0x9c
 3347 077d 5E080000 		.4byte	0x85e
 3348 0781 18       		.uleb128 0x18
 3349 0782 08000000 		.4byte	.LVL27
 3350 0786 07160000 		.4byte	0x1607
 3351 078a 98070000 		.4byte	0x798
 3352 078e 19       		.uleb128 0x19
 3353 078f 01       		.uleb128 0x1
 3354 0790 50       		.byte	0x50
 3355 0791 05       		.uleb128 0x5
 3356 0792 03       		.byte	0x3
 3357 0793 CC050000 		.4byte	.LC20
 3358 0797 00       		.byte	0
 3359 0798 18       		.uleb128 0x18
 3360 0799 0E000000 		.4byte	.LVL28
 3361 079d 07160000 		.4byte	0x1607
 3362 07a1 AF070000 		.4byte	0x7af
 3363 07a5 19       		.uleb128 0x19
 3364 07a6 01       		.uleb128 0x1
 3365 07a7 50       		.byte	0x50
 3366 07a8 05       		.uleb128 0x5
 3367 07a9 03       		.byte	0x3
 3368 07aa F8050000 		.4byte	.LC21
 3369 07ae 00       		.byte	0
 3370 07af 18       		.uleb128 0x18
 3371 07b0 14000000 		.4byte	.LVL29
 3372 07b4 07160000 		.4byte	0x1607
 3373 07b8 C6070000 		.4byte	0x7c6
 3374 07bc 19       		.uleb128 0x19
 3375 07bd 01       		.uleb128 0x1
 3376 07be 50       		.byte	0x50
 3377 07bf 05       		.uleb128 0x5
 3378 07c0 03       		.byte	0x3
 3379 07c1 24060000 		.4byte	.LC22
 3380 07c5 00       		.byte	0
 3381 07c6 18       		.uleb128 0x18
 3382 07c7 1A000000 		.4byte	.LVL30
ARM GAS  C:\Users\tslator\AppData\Local\Temp\ccc8OXeR.s 			page 82


 3383 07cb 07160000 		.4byte	0x1607
 3384 07cf DD070000 		.4byte	0x7dd
 3385 07d3 19       		.uleb128 0x19
 3386 07d4 01       		.uleb128 0x1
 3387 07d5 50       		.byte	0x50
 3388 07d6 05       		.uleb128 0x5
 3389 07d7 03       		.byte	0x3
 3390 07d8 44060000 		.4byte	.LC23
 3391 07dc 00       		.byte	0
 3392 07dd 18       		.uleb128 0x18
 3393 07de 20000000 		.4byte	.LVL31
 3394 07e2 07160000 		.4byte	0x1607
 3395 07e6 F4070000 		.4byte	0x7f4
 3396 07ea 19       		.uleb128 0x19
 3397 07eb 01       		.uleb128 0x1
 3398 07ec 50       		.byte	0x50
 3399 07ed 05       		.uleb128 0x5
 3400 07ee 03       		.byte	0x3
 3401 07ef 68060000 		.4byte	.LC24
 3402 07f3 00       		.byte	0
 3403 07f4 18       		.uleb128 0x18
 3404 07f5 26000000 		.4byte	.LVL32
 3405 07f9 07160000 		.4byte	0x1607
 3406 07fd 0B080000 		.4byte	0x80b
 3407 0801 19       		.uleb128 0x19
 3408 0802 01       		.uleb128 0x1
 3409 0803 50       		.byte	0x50
 3410 0804 05       		.uleb128 0x5
 3411 0805 03       		.byte	0x3
 3412 0806 94060000 		.4byte	.LC25
 3413 080a 00       		.byte	0
 3414 080b 18       		.uleb128 0x18
 3415 080c 2E000000 		.4byte	.LVL33
 3416 0810 07160000 		.4byte	0x1607
 3417 0814 1F080000 		.4byte	0x81f
 3418 0818 19       		.uleb128 0x19
 3419 0819 01       		.uleb128 0x1
 3420 081a 50       		.byte	0x50
 3421 081b 02       		.uleb128 0x2
 3422 081c 74       		.byte	0x74
 3423 081d 00       		.sleb128 0
 3424 081e 00       		.byte	0
 3425 081f 18       		.uleb128 0x18
 3426 0820 34000000 		.4byte	.LVL34
 3427 0824 07160000 		.4byte	0x1607
 3428 0828 36080000 		.4byte	0x836
 3429 082c 19       		.uleb128 0x19
 3430 082d 01       		.uleb128 0x1
 3431 082e 50       		.byte	0x50
 3432 082f 05       		.uleb128 0x5
 3433 0830 03       		.byte	0x3
 3434 0831 94050000 		.4byte	.LC18
 3435 0835 00       		.byte	0
 3436 0836 18       		.uleb128 0x18
 3437 0837 3A000000 		.4byte	.LVL35
 3438 083b 07160000 		.4byte	0x1607
 3439 083f 4A080000 		.4byte	0x84a
ARM GAS  C:\Users\tslator\AppData\Local\Temp\ccc8OXeR.s 			page 83


 3440 0843 19       		.uleb128 0x19
 3441 0844 01       		.uleb128 0x1
 3442 0845 50       		.byte	0x50
 3443 0846 02       		.uleb128 0x2
 3444 0847 74       		.byte	0x74
 3445 0848 00       		.sleb128 0
 3446 0849 00       		.byte	0
 3447 084a 1A       		.uleb128 0x1a
 3448 084b 40000000 		.4byte	.LVL36
 3449 084f 07160000 		.4byte	0x1607
 3450 0853 19       		.uleb128 0x19
 3451 0854 01       		.uleb128 0x1
 3452 0855 50       		.byte	0x50
 3453 0856 05       		.uleb128 0x5
 3454 0857 03       		.byte	0x3
 3455 0858 8C010000 		.4byte	.LC7
 3456 085c 00       		.byte	0
 3457 085d 00       		.byte	0
 3458 085e 1E       		.uleb128 0x1e
 3459 085f 4C000000 		.4byte	.LASF100
 3460 0863 01       		.byte	0x1
 3461 0864 7F01     		.2byte	0x17f
 3462 0866 00000000 		.4byte	.LFB78
 3463 086a 30000000 		.4byte	.LFE78-.LFB78
 3464 086e 01       		.uleb128 0x1
 3465 086f 9C       		.byte	0x9c
 3466 0870 C2080000 		.4byte	0x8c2
 3467 0874 1F       		.uleb128 0x1f
 3468 0875 63616C00 		.ascii	"cal\000"
 3469 0879 01       		.byte	0x1
 3470 087a 7F01     		.2byte	0x17f
 3471 087c C2080000 		.4byte	0x8c2
 3472 0880 3A000000 		.4byte	.LLST1
 3473 0884 20       		.uleb128 0x20
 3474 0885 D7040000 		.4byte	.LASF102
 3475 0889 01       		.byte	0x1
 3476 088a 8101     		.2byte	0x181
 3477 088c C8080000 		.4byte	0x8c8
 3478 0890 03       		.uleb128 0x3
 3479 0891 91       		.byte	0x91
 3480 0892 B87F     		.sleb128 -72
 3481 0894 18       		.uleb128 0x18
 3482 0895 1C000000 		.4byte	.LVL39
 3483 0899 18160000 		.4byte	0x1618
 3484 089d B1080000 		.4byte	0x8b1
 3485 08a1 19       		.uleb128 0x19
 3486 08a2 01       		.uleb128 0x1
 3487 08a3 51       		.byte	0x51
 3488 08a4 05       		.uleb128 0x5
 3489 08a5 03       		.byte	0x3
 3490 08a6 AC060000 		.4byte	.LC26
 3491 08aa 19       		.uleb128 0x19
 3492 08ab 01       		.uleb128 0x1
 3493 08ac 50       		.byte	0x50
 3494 08ad 02       		.uleb128 0x2
 3495 08ae 7D       		.byte	0x7d
 3496 08af 00       		.sleb128 0
ARM GAS  C:\Users\tslator\AppData\Local\Temp\ccc8OXeR.s 			page 84


 3497 08b0 00       		.byte	0
 3498 08b1 1A       		.uleb128 0x1a
 3499 08b2 22000000 		.4byte	.LVL40
 3500 08b6 07160000 		.4byte	0x1607
 3501 08ba 19       		.uleb128 0x19
 3502 08bb 01       		.uleb128 0x1
 3503 08bc 50       		.byte	0x50
 3504 08bd 02       		.uleb128 0x2
 3505 08be 7D       		.byte	0x7d
 3506 08bf 00       		.sleb128 0
 3507 08c0 00       		.byte	0
 3508 08c1 00       		.byte	0
 3509 08c2 06       		.uleb128 0x6
 3510 08c3 04       		.byte	0x4
 3511 08c4 DF030000 		.4byte	0x3df
 3512 08c8 09       		.uleb128 0x9
 3513 08c9 8C000000 		.4byte	0x8c
 3514 08cd D8080000 		.4byte	0x8d8
 3515 08d1 0A       		.uleb128 0xa
 3516 08d2 7F000000 		.4byte	0x7f
 3517 08d6 3F       		.byte	0x3f
 3518 08d7 00       		.byte	0
 3519 08d8 21       		.uleb128 0x21
 3520 08d9 D0010000 		.4byte	.LASF101
 3521 08dd 01       		.byte	0x1
 3522 08de 8901     		.2byte	0x189
 3523 08e0 00000000 		.4byte	.LFB79
 3524 08e4 A4000000 		.4byte	.LFE79-.LFB79
 3525 08e8 01       		.uleb128 0x1
 3526 08e9 9C       		.byte	0x9c
 3527 08ea 7C090000 		.4byte	0x97c
 3528 08ee 1F       		.uleb128 0x1f
 3529 08ef 63616C00 		.ascii	"cal\000"
 3530 08f3 01       		.byte	0x1
 3531 08f4 8901     		.2byte	0x189
 3532 08f6 C2080000 		.4byte	0x8c2
 3533 08fa 5B000000 		.4byte	.LLST2
 3534 08fe 22       		.uleb128 0x22
 3535 08ff B9020000 		.4byte	.LASF103
 3536 0903 01       		.byte	0x1
 3537 0904 8B01     		.2byte	0x18b
 3538 0906 A9000000 		.4byte	0xa9
 3539 090a F5000000 		.4byte	.LLST3
 3540 090e 18       		.uleb128 0x18
 3541 090f 2A000000 		.4byte	.LVL46
 3542 0913 5E080000 		.4byte	0x85e
 3543 0917 22090000 		.4byte	0x922
 3544 091b 19       		.uleb128 0x19
 3545 091c 01       		.uleb128 0x1
 3546 091d 50       		.byte	0x50
 3547 091e 02       		.uleb128 0x2
 3548 091f 74       		.byte	0x74
 3549 0920 00       		.sleb128 0
 3550 0921 00       		.byte	0
 3551 0922 18       		.uleb128 0x18
 3552 0923 42000000 		.4byte	.LVL52
 3553 0927 5E080000 		.4byte	0x85e
ARM GAS  C:\Users\tslator\AppData\Local\Temp\ccc8OXeR.s 			page 85


 3554 092b 36090000 		.4byte	0x936
 3555 092f 19       		.uleb128 0x19
 3556 0930 01       		.uleb128 0x1
 3557 0931 50       		.byte	0x50
 3558 0932 02       		.uleb128 0x2
 3559 0933 74       		.byte	0x74
 3560 0934 00       		.sleb128 0
 3561 0935 00       		.byte	0
 3562 0936 18       		.uleb128 0x18
 3563 0937 5E000000 		.4byte	.LVL58
 3564 093b 5E080000 		.4byte	0x85e
 3565 093f 4A090000 		.4byte	0x94a
 3566 0943 19       		.uleb128 0x19
 3567 0944 01       		.uleb128 0x1
 3568 0945 50       		.byte	0x50
 3569 0946 02       		.uleb128 0x2
 3570 0947 74       		.byte	0x74
 3571 0948 00       		.sleb128 0
 3572 0949 00       		.byte	0
 3573 094a 18       		.uleb128 0x18
 3574 094b 76000000 		.4byte	.LVL64
 3575 094f 5E080000 		.4byte	0x85e
 3576 0953 5E090000 		.4byte	0x95e
 3577 0957 19       		.uleb128 0x19
 3578 0958 01       		.uleb128 0x1
 3579 0959 50       		.byte	0x50
 3580 095a 02       		.uleb128 0x2
 3581 095b 74       		.byte	0x74
 3582 095c 00       		.sleb128 0
 3583 095d 00       		.byte	0
 3584 095e 18       		.uleb128 0x18
 3585 095f 8E000000 		.4byte	.LVL70
 3586 0963 5E080000 		.4byte	0x85e
 3587 0967 72090000 		.4byte	0x972
 3588 096b 19       		.uleb128 0x19
 3589 096c 01       		.uleb128 0x1
 3590 096d 50       		.byte	0x50
 3591 096e 02       		.uleb128 0x2
 3592 096f 74       		.byte	0x74
 3593 0970 00       		.sleb128 0
 3594 0971 00       		.byte	0
 3595 0972 1D       		.uleb128 0x1d
 3596 0973 9E000000 		.4byte	.LVL73
 3597 0977 35070000 		.4byte	0x735
 3598 097b 00       		.byte	0
 3599 097c 17       		.uleb128 0x17
 3600 097d F8070000 		.4byte	.LASF104
 3601 0981 01       		.byte	0x1
 3602 0982 BD       		.byte	0xbd
 3603 0983 00000000 		.4byte	.LFB73
 3604 0987 18000000 		.4byte	.LFE73-.LFB73
 3605 098b 01       		.uleb128 0x1
 3606 098c 9C       		.byte	0x9c
 3607 098d BC090000 		.4byte	0x9bc
 3608 0991 18       		.uleb128 0x18
 3609 0992 08000000 		.4byte	.LVL75
 3610 0996 07160000 		.4byte	0x1607
ARM GAS  C:\Users\tslator\AppData\Local\Temp\ccc8OXeR.s 			page 86


 3611 099a A8090000 		.4byte	0x9a8
 3612 099e 19       		.uleb128 0x19
 3613 099f 01       		.uleb128 0x1
 3614 09a0 50       		.byte	0x50
 3615 09a1 05       		.uleb128 0x5
 3616 09a2 03       		.byte	0x3
 3617 09a3 D4060000 		.4byte	.LC27
 3618 09a7 00       		.byte	0
 3619 09a8 1A       		.uleb128 0x1a
 3620 09a9 0E000000 		.4byte	.LVL76
 3621 09ad 07160000 		.4byte	0x1607
 3622 09b1 19       		.uleb128 0x19
 3623 09b2 01       		.uleb128 0x1
 3624 09b3 50       		.byte	0x50
 3625 09b4 05       		.uleb128 0x5
 3626 09b5 03       		.byte	0x3
 3627 09b6 08070000 		.4byte	.LC28
 3628 09ba 00       		.byte	0
 3629 09bb 00       		.byte	0
 3630 09bc 23       		.uleb128 0x23
 3631 09bd 96040000 		.4byte	.LASF105
 3632 09c1 01       		.byte	0x1
 3633 09c2 F1       		.byte	0xf1
 3634 09c3 A9000000 		.4byte	0xa9
 3635 09c7 00000000 		.4byte	.LFB75
 3636 09cb 58000000 		.4byte	.LFE75-.LFB75
 3637 09cf 01       		.uleb128 0x1
 3638 09d0 9C       		.byte	0x9c
 3639 09d1 EE090000 		.4byte	0x9ee
 3640 09d5 24       		.uleb128 0x24
 3641 09d6 2B030000 		.4byte	.LASF106
 3642 09da 01       		.byte	0x1
 3643 09db F3       		.byte	0xf3
 3644 09dc 8C000000 		.4byte	0x8c
 3645 09e0 34010000 		.4byte	.LLST4
 3646 09e4 1D       		.uleb128 0x1d
 3647 09e5 06000000 		.4byte	.LVL77
 3648 09e9 33160000 		.4byte	0x1633
 3649 09ed 00       		.byte	0
 3650 09ee 25       		.uleb128 0x25
 3651 09ef D2090000 		.4byte	.LASF107
 3652 09f3 01       		.byte	0x1
 3653 09f4 0F01     		.2byte	0x10f
 3654 09f6 C2080000 		.4byte	0x8c2
 3655 09fa 00000000 		.4byte	.LFB76
 3656 09fe 50000000 		.4byte	.LFE76-.LFB76
 3657 0a02 01       		.uleb128 0x1
 3658 0a03 9C       		.byte	0x9c
 3659 0a04 400A0000 		.4byte	0xa40
 3660 0a08 1F       		.uleb128 0x1f
 3661 0a09 636D6400 		.ascii	"cmd\000"
 3662 0a0d 01       		.byte	0x1
 3663 0a0e 0F01     		.2byte	0x10f
 3664 0a10 A9000000 		.4byte	0xa9
 3665 0a14 79010000 		.4byte	.LLST5
 3666 0a18 26       		.uleb128 0x26
 3667 0a19 7F050000 		.4byte	.LASF188
ARM GAS  C:\Users\tslator\AppData\Local\Temp\ccc8OXeR.s 			page 87


 3668 0a1d 01       		.byte	0x1
 3669 0a1e 1101     		.2byte	0x111
 3670 0a20 400A0000 		.4byte	0xa40
 3671 0a24 1D       		.uleb128 0x1d
 3672 0a25 12000000 		.4byte	.LVL84
 3673 0a29 44160000 		.4byte	0x1644
 3674 0a2d 1D       		.uleb128 0x1d
 3675 0a2e 22000000 		.4byte	.LVL86
 3676 0a32 44160000 		.4byte	0x1644
 3677 0a36 1D       		.uleb128 0x1d
 3678 0a37 32000000 		.4byte	.LVL88
 3679 0a3b 44160000 		.4byte	0x1644
 3680 0a3f 00       		.byte	0
 3681 0a40 06       		.uleb128 0x6
 3682 0a41 04       		.byte	0x4
 3683 0a42 57040000 		.4byte	0x457
 3684 0a46 25       		.uleb128 0x25
 3685 0a47 FD050000 		.4byte	.LASF108
 3686 0a4b 01       		.byte	0x1
 3687 0a4c 2D01     		.2byte	0x12d
 3688 0a4e C2080000 		.4byte	0x8c2
 3689 0a52 00000000 		.4byte	.LFB77
 3690 0a56 48010000 		.4byte	.LFE77-.LFB77
 3691 0a5a 01       		.uleb128 0x1
 3692 0a5b 9C       		.byte	0x9c
 3693 0a5c 6D0B0000 		.4byte	0xb6d
 3694 0a60 1F       		.uleb128 0x1f
 3695 0a61 636D6400 		.ascii	"cmd\000"
 3696 0a65 01       		.byte	0x1
 3697 0a66 2D01     		.2byte	0x12d
 3698 0a68 A9000000 		.4byte	0xa9
 3699 0a6c E5010000 		.4byte	.LLST6
 3700 0a70 1D       		.uleb128 0x1d
 3701 0a71 1C000000 		.4byte	.LVL92
 3702 0a75 44160000 		.4byte	0x1644
 3703 0a79 18       		.uleb128 0x18
 3704 0a7a 22000000 		.4byte	.LVL93
 3705 0a7e 07160000 		.4byte	0x1607
 3706 0a82 900A0000 		.4byte	0xa90
 3707 0a86 19       		.uleb128 0x19
 3708 0a87 01       		.uleb128 0x1
 3709 0a88 50       		.byte	0x50
 3710 0a89 05       		.uleb128 0x5
 3711 0a8a 03       		.byte	0x3
 3712 0a8b 5C070000 		.4byte	.LC29
 3713 0a8f 00       		.byte	0
 3714 0a90 1D       		.uleb128 0x1d
 3715 0a91 38000000 		.4byte	.LVL95
 3716 0a95 44160000 		.4byte	0x1644
 3717 0a99 18       		.uleb128 0x18
 3718 0a9a 3E000000 		.4byte	.LVL96
 3719 0a9e 07160000 		.4byte	0x1607
 3720 0aa2 B00A0000 		.4byte	0xab0
 3721 0aa6 19       		.uleb128 0x19
 3722 0aa7 01       		.uleb128 0x1
 3723 0aa8 50       		.byte	0x50
 3724 0aa9 05       		.uleb128 0x5
ARM GAS  C:\Users\tslator\AppData\Local\Temp\ccc8OXeR.s 			page 88


 3725 0aaa 03       		.byte	0x3
 3726 0aab AC070000 		.4byte	.LC30
 3727 0aaf 00       		.byte	0
 3728 0ab0 1D       		.uleb128 0x1d
 3729 0ab1 54000000 		.4byte	.LVL98
 3730 0ab5 44160000 		.4byte	0x1644
 3731 0ab9 18       		.uleb128 0x18
 3732 0aba 5A000000 		.4byte	.LVL99
 3733 0abe 07160000 		.4byte	0x1607
 3734 0ac2 D00A0000 		.4byte	0xad0
 3735 0ac6 19       		.uleb128 0x19
 3736 0ac7 01       		.uleb128 0x1
 3737 0ac8 50       		.byte	0x50
 3738 0ac9 05       		.uleb128 0x5
 3739 0aca 03       		.byte	0x3
 3740 0acb 04080000 		.4byte	.LC31
 3741 0acf 00       		.byte	0
 3742 0ad0 1D       		.uleb128 0x1d
 3743 0ad1 74000000 		.4byte	.LVL101
 3744 0ad5 44160000 		.4byte	0x1644
 3745 0ad9 18       		.uleb128 0x18
 3746 0ada 7A000000 		.4byte	.LVL102
 3747 0ade 07160000 		.4byte	0x1607
 3748 0ae2 F00A0000 		.4byte	0xaf0
 3749 0ae6 19       		.uleb128 0x19
 3750 0ae7 01       		.uleb128 0x1
 3751 0ae8 50       		.byte	0x50
 3752 0ae9 05       		.uleb128 0x5
 3753 0aea 03       		.byte	0x3
 3754 0aeb 44080000 		.4byte	.LC32
 3755 0aef 00       		.byte	0
 3756 0af0 1D       		.uleb128 0x1d
 3757 0af1 94000000 		.4byte	.LVL104
 3758 0af5 44160000 		.4byte	0x1644
 3759 0af9 18       		.uleb128 0x18
 3760 0afa 9A000000 		.4byte	.LVL105
 3761 0afe 07160000 		.4byte	0x1607
 3762 0b02 100B0000 		.4byte	0xb10
 3763 0b06 19       		.uleb128 0x19
 3764 0b07 01       		.uleb128 0x1
 3765 0b08 50       		.byte	0x50
 3766 0b09 05       		.uleb128 0x5
 3767 0b0a 03       		.byte	0x3
 3768 0b0b 84080000 		.4byte	.LC33
 3769 0b0f 00       		.byte	0
 3770 0b10 1D       		.uleb128 0x1d
 3771 0b11 B4000000 		.4byte	.LVL107
 3772 0b15 44160000 		.4byte	0x1644
 3773 0b19 18       		.uleb128 0x18
 3774 0b1a BA000000 		.4byte	.LVL108
 3775 0b1e 07160000 		.4byte	0x1607
 3776 0b22 300B0000 		.4byte	0xb30
 3777 0b26 19       		.uleb128 0x19
 3778 0b27 01       		.uleb128 0x1
 3779 0b28 50       		.byte	0x50
 3780 0b29 05       		.uleb128 0x5
 3781 0b2a 03       		.byte	0x3
ARM GAS  C:\Users\tslator\AppData\Local\Temp\ccc8OXeR.s 			page 89


 3782 0b2b C4080000 		.4byte	.LC34
 3783 0b2f 00       		.byte	0
 3784 0b30 1D       		.uleb128 0x1d
 3785 0b31 D4000000 		.4byte	.LVL110
 3786 0b35 44160000 		.4byte	0x1644
 3787 0b39 18       		.uleb128 0x18
 3788 0b3a DA000000 		.4byte	.LVL111
 3789 0b3e 07160000 		.4byte	0x1607
 3790 0b42 500B0000 		.4byte	0xb50
 3791 0b46 19       		.uleb128 0x19
 3792 0b47 01       		.uleb128 0x1
 3793 0b48 50       		.byte	0x50
 3794 0b49 05       		.uleb128 0x5
 3795 0b4a 03       		.byte	0x3
 3796 0b4b 04090000 		.4byte	.LC35
 3797 0b4f 00       		.byte	0
 3798 0b50 1D       		.uleb128 0x1d
 3799 0b51 F6000000 		.4byte	.LVL113
 3800 0b55 44160000 		.4byte	0x1644
 3801 0b59 1A       		.uleb128 0x1a
 3802 0b5a FC000000 		.4byte	.LVL114
 3803 0b5e 07160000 		.4byte	0x1607
 3804 0b62 19       		.uleb128 0x19
 3805 0b63 01       		.uleb128 0x1
 3806 0b64 50       		.byte	0x50
 3807 0b65 05       		.uleb128 0x5
 3808 0b66 03       		.byte	0x3
 3809 0b67 48090000 		.4byte	.LC36
 3810 0b6b 00       		.byte	0
 3811 0b6c 00       		.byte	0
 3812 0b6d 25       		.uleb128 0x25
 3813 0b6e F4060000 		.4byte	.LASF109
 3814 0b72 01       		.byte	0x1
 3815 0b73 9C02     		.2byte	0x29c
 3816 0b75 B5000000 		.4byte	0xb5
 3817 0b79 00000000 		.4byte	.LFB89
 3818 0b7d 72000000 		.4byte	.LFE89-.LFB89
 3819 0b81 01       		.uleb128 0x1
 3820 0b82 9C       		.byte	0x9c
 3821 0b83 2D0C0000 		.4byte	0xc2d
 3822 0b87 1F       		.uleb128 0x1f
 3823 0b88 63707300 		.ascii	"cps\000"
 3824 0b8c 01       		.byte	0x1
 3825 0b8d 9C02     		.2byte	0x29c
 3826 0b8f D9000000 		.4byte	0xd9
 3827 0b93 CE020000 		.4byte	.LLST7
 3828 0b97 27       		.uleb128 0x27
 3829 0b98 1C030000 		.4byte	.LASF31
 3830 0b9c 01       		.byte	0x1
 3831 0b9d 9C02     		.2byte	0x29c
 3832 0b9f 2D0C0000 		.4byte	0xc2d
 3833 0ba3 05030000 		.4byte	.LLST8
 3834 0ba7 27       		.uleb128 0x27
 3835 0ba8 13030000 		.4byte	.LASF32
 3836 0bac 01       		.byte	0x1
 3837 0bad 9C02     		.2byte	0x29c
 3838 0baf 330C0000 		.4byte	0xc33
ARM GAS  C:\Users\tslator\AppData\Local\Temp\ccc8OXeR.s 			page 90


 3839 0bb3 23030000 		.4byte	.LLST9
 3840 0bb7 27       		.uleb128 0x27
 3841 0bb8 7E030000 		.4byte	.LASF110
 3842 0bbc 01       		.byte	0x1
 3843 0bbd 9C02     		.2byte	0x29c
 3844 0bbf A9000000 		.4byte	0xa9
 3845 0bc3 5A030000 		.4byte	.LLST10
 3846 0bc7 28       		.uleb128 0x28
 3847 0bc8 70776D00 		.ascii	"pwm\000"
 3848 0bcc 01       		.byte	0x1
 3849 0bcd 9E02     		.2byte	0x29e
 3850 0bcf B5000000 		.4byte	0xb5
 3851 0bd3 94030000 		.4byte	.LLST11
 3852 0bd7 20       		.uleb128 0x20
 3853 0bd8 25030000 		.4byte	.LASF111
 3854 0bdc 01       		.byte	0x1
 3855 0bdd 9F02     		.2byte	0x29f
 3856 0bdf A9000000 		.4byte	0xa9
 3857 0be3 02       		.uleb128 0x2
 3858 0be4 91       		.byte	0x91
 3859 0be5 6F       		.sleb128 -17
 3860 0be6 20       		.uleb128 0x20
 3861 0be7 09090000 		.4byte	.LASF112
 3862 0beb 01       		.byte	0x1
 3863 0bec A002     		.2byte	0x2a0
 3864 0bee A9000000 		.4byte	0xa9
 3865 0bf2 02       		.uleb128 0x2
 3866 0bf3 91       		.byte	0x91
 3867 0bf4 6E       		.sleb128 -18
 3868 0bf5 18       		.uleb128 0x18
 3869 0bf6 28000000 		.4byte	.LVL122
 3870 0bfa 55160000 		.4byte	0x1655
 3871 0bfe 1C0C0000 		.4byte	0xc1c
 3872 0c02 19       		.uleb128 0x19
 3873 0c03 01       		.uleb128 0x1
 3874 0c04 53       		.byte	0x53
 3875 0c05 02       		.uleb128 0x2
 3876 0c06 91       		.byte	0x91
 3877 0c07 6F       		.sleb128 -17
 3878 0c08 19       		.uleb128 0x19
 3879 0c09 01       		.uleb128 0x1
 3880 0c0a 51       		.byte	0x51
 3881 0c0b 02       		.uleb128 0x2
 3882 0c0c 74       		.byte	0x74
 3883 0c0d 00       		.sleb128 0
 3884 0c0e 19       		.uleb128 0x19
 3885 0c0f 01       		.uleb128 0x1
 3886 0c10 50       		.byte	0x50
 3887 0c11 02       		.uleb128 0x2
 3888 0c12 75       		.byte	0x75
 3889 0c13 00       		.sleb128 0
 3890 0c14 19       		.uleb128 0x19
 3891 0c15 02       		.uleb128 0x2
 3892 0c16 7D       		.byte	0x7d
 3893 0c17 00       		.sleb128 0
 3894 0c18 02       		.uleb128 0x2
 3895 0c19 91       		.byte	0x91
ARM GAS  C:\Users\tslator\AppData\Local\Temp\ccc8OXeR.s 			page 91


 3896 0c1a 6E       		.sleb128 -18
 3897 0c1b 00       		.byte	0
 3898 0c1c 1A       		.uleb128 0x1a
 3899 0c1d 48000000 		.4byte	.LVL123
 3900 0c21 80160000 		.4byte	0x1680
 3901 0c25 19       		.uleb128 0x19
 3902 0c26 01       		.uleb128 0x1
 3903 0c27 50       		.byte	0x50
 3904 0c28 02       		.uleb128 0x2
 3905 0c29 75       		.byte	0x75
 3906 0c2a 00       		.sleb128 0
 3907 0c2b 00       		.byte	0
 3908 0c2c 00       		.byte	0
 3909 0c2d 06       		.uleb128 0x6
 3910 0c2e 04       		.byte	0x4
 3911 0c2f D9000000 		.4byte	0xd9
 3912 0c33 06       		.uleb128 0x6
 3913 0c34 04       		.byte	0x4
 3914 0c35 B5000000 		.4byte	0xb5
 3915 0c39 29       		.uleb128 0x29
 3916 0c3a 76000000 		.4byte	.LASF113
 3917 0c3e 01       		.byte	0x1
 3918 0c3f 50       		.byte	0x50
 3919 0c40 00000000 		.4byte	.LFB65
 3920 0c44 2C000000 		.4byte	.LFE65-.LFB65
 3921 0c48 01       		.uleb128 0x1
 3922 0c49 9C       		.byte	0x9c
 3923 0c4a 860C0000 		.4byte	0xc86
 3924 0c4e 2A       		.uleb128 0x2a
 3925 0c4f 62697400 		.ascii	"bit\000"
 3926 0c53 01       		.byte	0x1
 3927 0c54 50       		.byte	0x50
 3928 0c55 B5000000 		.4byte	0xb5
 3929 0c59 CE030000 		.4byte	.LLST12
 3930 0c5d 24       		.uleb128 0x24
 3931 0c5e C0040000 		.4byte	.LASF40
 3932 0c62 01       		.byte	0x1
 3933 0c63 52       		.byte	0x52
 3934 0c64 B5000000 		.4byte	0xb5
 3935 0c68 EF030000 		.4byte	.LLST13
 3936 0c6c 1D       		.uleb128 0x1d
 3937 0c6d 1E000000 		.4byte	.LVL133
 3938 0c71 A9160000 		.4byte	0x16a9
 3939 0c75 1A       		.uleb128 0x1a
 3940 0c76 24000000 		.4byte	.LVL134
 3941 0c7a BF160000 		.4byte	0x16bf
 3942 0c7e 19       		.uleb128 0x19
 3943 0c7f 01       		.uleb128 0x1
 3944 0c80 50       		.byte	0x50
 3945 0c81 02       		.uleb128 0x2
 3946 0c82 74       		.byte	0x74
 3947 0c83 00       		.sleb128 0
 3948 0c84 00       		.byte	0
 3949 0c85 00       		.byte	0
 3950 0c86 29       		.uleb128 0x29
 3951 0c87 A5030000 		.4byte	.LASF114
 3952 0c8b 01       		.byte	0x1
ARM GAS  C:\Users\tslator\AppData\Local\Temp\ccc8OXeR.s 			page 92


 3953 0c8c 57       		.byte	0x57
 3954 0c8d 00000000 		.4byte	.LFB66
 3955 0c91 24000000 		.4byte	.LFE66-.LFB66
 3956 0c95 01       		.uleb128 0x1
 3957 0c96 9C       		.byte	0x9c
 3958 0c97 D30C0000 		.4byte	0xcd3
 3959 0c9b 2A       		.uleb128 0x2a
 3960 0c9c 62697400 		.ascii	"bit\000"
 3961 0ca0 01       		.byte	0x1
 3962 0ca1 57       		.byte	0x57
 3963 0ca2 B5000000 		.4byte	0xb5
 3964 0ca6 02040000 		.4byte	.LLST14
 3965 0caa 24       		.uleb128 0x24
 3966 0cab C0040000 		.4byte	.LASF40
 3967 0caf 01       		.byte	0x1
 3968 0cb0 59       		.byte	0x59
 3969 0cb1 B5000000 		.4byte	0xb5
 3970 0cb5 23040000 		.4byte	.LLST15
 3971 0cb9 1D       		.uleb128 0x1d
 3972 0cba 18000000 		.4byte	.LVL139
 3973 0cbe A9160000 		.4byte	0x16a9
 3974 0cc2 1A       		.uleb128 0x1a
 3975 0cc3 1E000000 		.4byte	.LVL140
 3976 0cc7 D0160000 		.4byte	0x16d0
 3977 0ccb 19       		.uleb128 0x19
 3978 0ccc 01       		.uleb128 0x1
 3979 0ccd 50       		.byte	0x50
 3980 0cce 02       		.uleb128 0x2
 3981 0ccf 74       		.byte	0x74
 3982 0cd0 00       		.sleb128 0
 3983 0cd1 00       		.byte	0
 3984 0cd2 00       		.byte	0
 3985 0cd3 29       		.uleb128 0x29
 3986 0cd4 680A0000 		.4byte	.LASF115
 3987 0cd8 01       		.byte	0x1
 3988 0cd9 60       		.byte	0x60
 3989 0cda 00000000 		.4byte	.LFB67
 3990 0cde 64000000 		.4byte	.LFE67-.LFB67
 3991 0ce2 01       		.uleb128 0x1
 3992 0ce3 9C       		.byte	0x9c
 3993 0ce4 DC0D0000 		.4byte	0xddc
 3994 0ce8 1C       		.uleb128 0x1c
 3995 0ce9 2B090000 		.4byte	.LASF116
 3996 0ced 01       		.byte	0x1
 3997 0cee 60       		.byte	0x60
 3998 0cef 86000000 		.4byte	0x86
 3999 0cf3 3B040000 		.4byte	.LLST16
 4000 0cf7 1C       		.uleb128 0x1c
 4001 0cf8 1F080000 		.4byte	.LASF117
 4002 0cfc 01       		.byte	0x1
 4003 0cfd 60       		.byte	0x60
 4004 0cfe 2D0C0000 		.4byte	0xc2d
 4005 0d02 67040000 		.4byte	.LLST17
 4006 0d06 1C       		.uleb128 0x1c
 4007 0d07 72030000 		.4byte	.LASF118
 4008 0d0b 01       		.byte	0x1
 4009 0d0c 60       		.byte	0x60
ARM GAS  C:\Users\tslator\AppData\Local\Temp\ccc8OXeR.s 			page 93


 4010 0d0d 330C0000 		.4byte	0xc33
 4011 0d11 93040000 		.4byte	.LLST18
 4012 0d15 2B       		.uleb128 0x2b
 4013 0d16 696900   		.ascii	"ii\000"
 4014 0d19 01       		.byte	0x1
 4015 0d1a 62       		.byte	0x62
 4016 0d1b A9000000 		.4byte	0xa9
 4017 0d1f BF040000 		.4byte	.LLST19
 4018 0d23 2C       		.uleb128 0x2c
 4019 0d24 A8000000 		.4byte	.LASF119
 4020 0d28 01       		.byte	0x1
 4021 0d29 63       		.byte	0x63
 4022 0d2a DC0D0000 		.4byte	0xddc
 4023 0d2e 03       		.uleb128 0x3
 4024 0d2f 91       		.byte	0x91
 4025 0d30 8C7F     		.sleb128 -116
 4026 0d32 2C       		.uleb128 0x2c
 4027 0d33 BE050000 		.4byte	.LASF120
 4028 0d37 01       		.byte	0x1
 4029 0d38 64       		.byte	0x64
 4030 0d39 EC0D0000 		.4byte	0xdec
 4031 0d3d 03       		.uleb128 0x3
 4032 0d3e 91       		.byte	0x91
 4033 0d3f F87E     		.sleb128 -136
 4034 0d41 18       		.uleb128 0x18
 4035 0d42 14000000 		.4byte	.LVL145
 4036 0d46 18160000 		.4byte	0x1618
 4037 0d4a 650D0000 		.4byte	0xd65
 4038 0d4e 19       		.uleb128 0x19
 4039 0d4f 01       		.uleb128 0x1
 4040 0d50 52       		.byte	0x52
 4041 0d51 03       		.uleb128 0x3
 4042 0d52 F3       		.byte	0xf3
 4043 0d53 01       		.uleb128 0x1
 4044 0d54 50       		.byte	0x50
 4045 0d55 19       		.uleb128 0x19
 4046 0d56 01       		.uleb128 0x1
 4047 0d57 51       		.byte	0x51
 4048 0d58 05       		.uleb128 0x5
 4049 0d59 03       		.byte	0x3
 4050 0d5a 8C090000 		.4byte	.LC37
 4051 0d5e 19       		.uleb128 0x19
 4052 0d5f 01       		.uleb128 0x1
 4053 0d60 50       		.byte	0x50
 4054 0d61 02       		.uleb128 0x2
 4055 0d62 7D       		.byte	0x7d
 4056 0d63 00       		.sleb128 0
 4057 0d64 00       		.byte	0
 4058 0d65 18       		.uleb128 0x18
 4059 0d66 1A000000 		.4byte	.LVL146
 4060 0d6a 07160000 		.4byte	0x1607
 4061 0d6e 790D0000 		.4byte	0xd79
 4062 0d72 19       		.uleb128 0x19
 4063 0d73 01       		.uleb128 0x1
 4064 0d74 50       		.byte	0x50
 4065 0d75 02       		.uleb128 0x2
 4066 0d76 7D       		.byte	0x7d
ARM GAS  C:\Users\tslator\AppData\Local\Temp\ccc8OXeR.s 			page 94


 4067 0d77 00       		.sleb128 0
 4068 0d78 00       		.byte	0
 4069 0d79 18       		.uleb128 0x18
 4070 0d7a 2E000000 		.4byte	.LVL148
 4071 0d7e 18160000 		.4byte	0x1618
 4072 0d82 970D0000 		.4byte	0xd97
 4073 0d86 19       		.uleb128 0x19
 4074 0d87 01       		.uleb128 0x1
 4075 0d88 51       		.byte	0x51
 4076 0d89 05       		.uleb128 0x5
 4077 0d8a 03       		.byte	0x3
 4078 0d8b 94090000 		.4byte	.LC38
 4079 0d8f 19       		.uleb128 0x19
 4080 0d90 01       		.uleb128 0x1
 4081 0d91 50       		.byte	0x50
 4082 0d92 03       		.uleb128 0x3
 4083 0d93 91       		.byte	0x91
 4084 0d94 8C7F     		.sleb128 -116
 4085 0d96 00       		.byte	0
 4086 0d97 18       		.uleb128 0x18
 4087 0d98 34000000 		.4byte	.LVL149
 4088 0d9c 07160000 		.4byte	0x1607
 4089 0da0 AC0D0000 		.4byte	0xdac
 4090 0da4 19       		.uleb128 0x19
 4091 0da5 01       		.uleb128 0x1
 4092 0da6 50       		.byte	0x50
 4093 0da7 03       		.uleb128 0x3
 4094 0da8 91       		.byte	0x91
 4095 0da9 8C7F     		.sleb128 -116
 4096 0dab 00       		.byte	0
 4097 0dac 18       		.uleb128 0x18
 4098 0dad 4C000000 		.4byte	.LVL152
 4099 0db1 18160000 		.4byte	0x1618
 4100 0db5 CA0D0000 		.4byte	0xdca
 4101 0db9 19       		.uleb128 0x19
 4102 0dba 01       		.uleb128 0x1
 4103 0dbb 51       		.byte	0x51
 4104 0dbc 05       		.uleb128 0x5
 4105 0dbd 03       		.byte	0x3
 4106 0dbe 9C090000 		.4byte	.LC39
 4107 0dc2 19       		.uleb128 0x19
 4108 0dc3 01       		.uleb128 0x1
 4109 0dc4 50       		.byte	0x50
 4110 0dc5 03       		.uleb128 0x3
 4111 0dc6 91       		.byte	0x91
 4112 0dc7 8C7F     		.sleb128 -116
 4113 0dc9 00       		.byte	0
 4114 0dca 1A       		.uleb128 0x1a
 4115 0dcb 52000000 		.4byte	.LVL153
 4116 0dcf 07160000 		.4byte	0x1607
 4117 0dd3 19       		.uleb128 0x19
 4118 0dd4 01       		.uleb128 0x1
 4119 0dd5 50       		.byte	0x50
 4120 0dd6 03       		.uleb128 0x3
 4121 0dd7 91       		.byte	0x91
 4122 0dd8 8C7F     		.sleb128 -116
 4123 0dda 00       		.byte	0
ARM GAS  C:\Users\tslator\AppData\Local\Temp\ccc8OXeR.s 			page 95


 4124 0ddb 00       		.byte	0
 4125 0ddc 09       		.uleb128 0x9
 4126 0ddd 8C000000 		.4byte	0x8c
 4127 0de1 EC0D0000 		.4byte	0xdec
 4128 0de5 0A       		.uleb128 0xa
 4129 0de6 7F000000 		.4byte	0x7f
 4130 0dea 63       		.byte	0x63
 4131 0deb 00       		.byte	0
 4132 0dec 09       		.uleb128 0x9
 4133 0ded 8C000000 		.4byte	0x8c
 4134 0df1 FC0D0000 		.4byte	0xdfc
 4135 0df5 0A       		.uleb128 0xa
 4136 0df6 7F000000 		.4byte	0x7f
 4137 0dfa 13       		.byte	0x13
 4138 0dfb 00       		.byte	0
 4139 0dfc 29       		.uleb128 0x29
 4140 0dfd ED000000 		.4byte	.LASF121
 4141 0e01 01       		.byte	0x1
 4142 0e02 72       		.byte	0x72
 4143 0e03 00000000 		.4byte	.LFB68
 4144 0e07 48000000 		.4byte	.LFE68-.LFB68
 4145 0e0b 01       		.uleb128 0x1
 4146 0e0c 9C       		.byte	0x9c
 4147 0e0d 020F0000 		.4byte	0xf02
 4148 0e11 1C       		.uleb128 0x1c
 4149 0e12 2B090000 		.4byte	.LASF116
 4150 0e16 01       		.byte	0x1
 4151 0e17 72       		.byte	0x72
 4152 0e18 86000000 		.4byte	0x86
 4153 0e1c E9040000 		.4byte	.LLST20
 4154 0e20 1C       		.uleb128 0x1c
 4155 0e21 790A0000 		.4byte	.LASF122
 4156 0e25 01       		.byte	0x1
 4157 0e26 72       		.byte	0x72
 4158 0e27 AA040000 		.4byte	0x4aa
 4159 0e2b 15050000 		.4byte	.LLST21
 4160 0e2f 2C       		.uleb128 0x2c
 4161 0e30 6F000000 		.4byte	.LASF123
 4162 0e34 01       		.byte	0x1
 4163 0e35 74       		.byte	0x74
 4164 0e36 C8080000 		.4byte	0x8c8
 4165 0e3a 03       		.uleb128 0x3
 4166 0e3b 91       		.byte	0x91
 4167 0e3c A87F     		.sleb128 -88
 4168 0e3e 2C       		.uleb128 0x2c
 4169 0e3f 42000000 		.4byte	.LASF124
 4170 0e43 01       		.byte	0x1
 4171 0e44 75       		.byte	0x75
 4172 0e45 020F0000 		.4byte	0xf02
 4173 0e49 03       		.uleb128 0x3
 4174 0e4a 91       		.byte	0x91
 4175 0e4b 9C7F     		.sleb128 -100
 4176 0e4d 2C       		.uleb128 0x2c
 4177 0e4e 00000000 		.4byte	.LASF125
 4178 0e52 01       		.byte	0x1
 4179 0e53 76       		.byte	0x76
 4180 0e54 020F0000 		.4byte	0xf02
ARM GAS  C:\Users\tslator\AppData\Local\Temp\ccc8OXeR.s 			page 96


 4181 0e58 03       		.uleb128 0x3
 4182 0e59 91       		.byte	0x91
 4183 0e5a 907F     		.sleb128 -112
 4184 0e5c 2C       		.uleb128 0x2c
 4185 0e5d 4D060000 		.4byte	.LASF126
 4186 0e61 01       		.byte	0x1
 4187 0e62 77       		.byte	0x77
 4188 0e63 020F0000 		.4byte	0xf02
 4189 0e67 03       		.uleb128 0x3
 4190 0e68 91       		.byte	0x91
 4191 0e69 847F     		.sleb128 -124
 4192 0e6b 18       		.uleb128 0x18
 4193 0e6c 12000000 		.4byte	.LVL158
 4194 0e70 E1160000 		.4byte	0x16e1
 4195 0e74 850E0000 		.4byte	0xe85
 4196 0e78 19       		.uleb128 0x19
 4197 0e79 01       		.uleb128 0x1
 4198 0e7a 52       		.byte	0x52
 4199 0e7b 01       		.uleb128 0x1
 4200 0e7c 33       		.byte	0x33
 4201 0e7d 19       		.uleb128 0x19
 4202 0e7e 01       		.uleb128 0x1
 4203 0e7f 51       		.byte	0x51
 4204 0e80 03       		.uleb128 0x3
 4205 0e81 91       		.byte	0x91
 4206 0e82 9C7F     		.sleb128 -100
 4207 0e84 00       		.byte	0
 4208 0e85 18       		.uleb128 0x18
 4209 0e86 1E000000 		.4byte	.LVL159
 4210 0e8a E1160000 		.4byte	0x16e1
 4211 0e8e 9E0E0000 		.4byte	0xe9e
 4212 0e92 19       		.uleb128 0x19
 4213 0e93 01       		.uleb128 0x1
 4214 0e94 52       		.byte	0x52
 4215 0e95 01       		.uleb128 0x1
 4216 0e96 33       		.byte	0x33
 4217 0e97 19       		.uleb128 0x19
 4218 0e98 01       		.uleb128 0x1
 4219 0e99 51       		.byte	0x51
 4220 0e9a 02       		.uleb128 0x2
 4221 0e9b 76       		.byte	0x76
 4222 0e9c 00       		.sleb128 0
 4223 0e9d 00       		.byte	0
 4224 0e9e 18       		.uleb128 0x18
 4225 0e9f 2A000000 		.4byte	.LVL160
 4226 0ea3 E1160000 		.4byte	0x16e1
 4227 0ea7 B70E0000 		.4byte	0xeb7
 4228 0eab 19       		.uleb128 0x19
 4229 0eac 01       		.uleb128 0x1
 4230 0ead 52       		.byte	0x52
 4231 0eae 01       		.uleb128 0x1
 4232 0eaf 33       		.byte	0x33
 4233 0eb0 19       		.uleb128 0x19
 4234 0eb1 01       		.uleb128 0x1
 4235 0eb2 51       		.byte	0x51
 4236 0eb3 02       		.uleb128 0x2
 4237 0eb4 75       		.byte	0x75
ARM GAS  C:\Users\tslator\AppData\Local\Temp\ccc8OXeR.s 			page 97


 4238 0eb5 00       		.sleb128 0
 4239 0eb6 00       		.byte	0
 4240 0eb7 18       		.uleb128 0x18
 4241 0eb8 3A000000 		.4byte	.LVL161
 4242 0ebc 18160000 		.4byte	0x1618
 4243 0ec0 F00E0000 		.4byte	0xef0
 4244 0ec4 19       		.uleb128 0x19
 4245 0ec5 01       		.uleb128 0x1
 4246 0ec6 53       		.byte	0x53
 4247 0ec7 03       		.uleb128 0x3
 4248 0ec8 91       		.byte	0x91
 4249 0ec9 9C7F     		.sleb128 -100
 4250 0ecb 19       		.uleb128 0x19
 4251 0ecc 01       		.uleb128 0x1
 4252 0ecd 52       		.byte	0x52
 4253 0ece 02       		.uleb128 0x2
 4254 0ecf 77       		.byte	0x77
 4255 0ed0 00       		.sleb128 0
 4256 0ed1 19       		.uleb128 0x19
 4257 0ed2 01       		.uleb128 0x1
 4258 0ed3 51       		.byte	0x51
 4259 0ed4 05       		.uleb128 0x5
 4260 0ed5 03       		.byte	0x3
 4261 0ed6 A8090000 		.4byte	.LC40
 4262 0eda 19       		.uleb128 0x19
 4263 0edb 01       		.uleb128 0x1
 4264 0edc 50       		.byte	0x50
 4265 0edd 03       		.uleb128 0x3
 4266 0ede 91       		.byte	0x91
 4267 0edf A87F     		.sleb128 -88
 4268 0ee1 19       		.uleb128 0x19
 4269 0ee2 02       		.uleb128 0x2
 4270 0ee3 7D       		.byte	0x7d
 4271 0ee4 04       		.sleb128 4
 4272 0ee5 02       		.uleb128 0x2
 4273 0ee6 75       		.byte	0x75
 4274 0ee7 00       		.sleb128 0
 4275 0ee8 19       		.uleb128 0x19
 4276 0ee9 02       		.uleb128 0x2
 4277 0eea 7D       		.byte	0x7d
 4278 0eeb 00       		.sleb128 0
 4279 0eec 02       		.uleb128 0x2
 4280 0eed 76       		.byte	0x76
 4281 0eee 00       		.sleb128 0
 4282 0eef 00       		.byte	0
 4283 0ef0 1A       		.uleb128 0x1a
 4284 0ef1 40000000 		.4byte	.LVL162
 4285 0ef5 07160000 		.4byte	0x1607
 4286 0ef9 19       		.uleb128 0x19
 4287 0efa 01       		.uleb128 0x1
 4288 0efb 50       		.byte	0x50
 4289 0efc 03       		.uleb128 0x3
 4290 0efd 91       		.byte	0x91
 4291 0efe A87F     		.sleb128 -88
 4292 0f00 00       		.byte	0
 4293 0f01 00       		.byte	0
 4294 0f02 09       		.uleb128 0x9
ARM GAS  C:\Users\tslator\AppData\Local\Temp\ccc8OXeR.s 			page 98


 4295 0f03 8C000000 		.4byte	0x8c
 4296 0f07 120F0000 		.4byte	0xf12
 4297 0f0b 0A       		.uleb128 0xa
 4298 0f0c 7F000000 		.4byte	0x7f
 4299 0f10 09       		.byte	0x9
 4300 0f11 00       		.byte	0
 4301 0f12 1B       		.uleb128 0x1b
 4302 0f13 6B080000 		.4byte	.LASF127
 4303 0f17 01       		.byte	0x1
 4304 0f18 C3       		.byte	0xc3
 4305 0f19 00000000 		.4byte	.LFB74
 4306 0f1d 04010000 		.4byte	.LFE74-.LFB74
 4307 0f21 01       		.uleb128 0x1
 4308 0f22 9C       		.byte	0x9c
 4309 0f23 E3100000 		.4byte	0x10e3
 4310 0f27 2A       		.uleb128 0x2a
 4311 0f28 636D6400 		.ascii	"cmd\000"
 4312 0f2c 01       		.byte	0x1
 4313 0f2d C3       		.byte	0xc3
 4314 0f2e A9000000 		.4byte	0xa9
 4315 0f32 41050000 		.4byte	.LLST22
 4316 0f36 1D       		.uleb128 0x1d
 4317 0f37 16000000 		.4byte	.LVL165
 4318 0f3b 44160000 		.4byte	0x1644
 4319 0f3f 18       		.uleb128 0x18
 4320 0f40 1C000000 		.4byte	.LVL166
 4321 0f44 07160000 		.4byte	0x1607
 4322 0f48 560F0000 		.4byte	0xf56
 4323 0f4c 19       		.uleb128 0x19
 4324 0f4d 01       		.uleb128 0x1
 4325 0f4e 50       		.byte	0x50
 4326 0f4f 05       		.uleb128 0x5
 4327 0f50 03       		.byte	0x3
 4328 0f51 C4090000 		.4byte	.LC41
 4329 0f55 00       		.byte	0
 4330 0f56 18       		.uleb128 0x18
 4331 0f57 24000000 		.4byte	.LVL167
 4332 0f5b 07160000 		.4byte	0x1607
 4333 0f5f 6A0F0000 		.4byte	0xf6a
 4334 0f63 19       		.uleb128 0x19
 4335 0f64 01       		.uleb128 0x1
 4336 0f65 50       		.byte	0x50
 4337 0f66 02       		.uleb128 0x2
 4338 0f67 74       		.byte	0x74
 4339 0f68 00       		.sleb128 0
 4340 0f69 00       		.byte	0
 4341 0f6a 18       		.uleb128 0x18
 4342 0f6b 36000000 		.4byte	.LVL168
 4343 0f6f D30C0000 		.4byte	0xcd3
 4344 0f73 810F0000 		.4byte	0xf81
 4345 0f77 19       		.uleb128 0x19
 4346 0f78 01       		.uleb128 0x1
 4347 0f79 50       		.byte	0x50
 4348 0f7a 05       		.uleb128 0x5
 4349 0f7b 03       		.byte	0x3
 4350 0f7c 000A0000 		.4byte	.LC42
 4351 0f80 00       		.byte	0
ARM GAS  C:\Users\tslator\AppData\Local\Temp\ccc8OXeR.s 			page 99


 4352 0f81 18       		.uleb128 0x18
 4353 0f82 46000000 		.4byte	.LVL169
 4354 0f86 D30C0000 		.4byte	0xcd3
 4355 0f8a 980F0000 		.4byte	0xf98
 4356 0f8e 19       		.uleb128 0x19
 4357 0f8f 01       		.uleb128 0x1
 4358 0f90 50       		.byte	0x50
 4359 0f91 05       		.uleb128 0x5
 4360 0f92 03       		.byte	0x3
 4361 0f93 100A0000 		.4byte	.LC43
 4362 0f97 00       		.byte	0
 4363 0f98 18       		.uleb128 0x18
 4364 0f99 4C000000 		.4byte	.LVL170
 4365 0f9d 07160000 		.4byte	0x1607
 4366 0fa1 AC0F0000 		.4byte	0xfac
 4367 0fa5 19       		.uleb128 0x19
 4368 0fa6 01       		.uleb128 0x1
 4369 0fa7 50       		.byte	0x50
 4370 0fa8 02       		.uleb128 0x2
 4371 0fa9 74       		.byte	0x74
 4372 0faa 00       		.sleb128 0
 4373 0fab 00       		.byte	0
 4374 0fac 1D       		.uleb128 0x1d
 4375 0fad 50000000 		.4byte	.LVL171
 4376 0fb1 6C070000 		.4byte	0x76c
 4377 0fb5 1D       		.uleb128 0x1d
 4378 0fb6 56000000 		.4byte	.LVL173
 4379 0fba 44160000 		.4byte	0x1644
 4380 0fbe 18       		.uleb128 0x18
 4381 0fbf 5C000000 		.4byte	.LVL174
 4382 0fc3 07160000 		.4byte	0x1607
 4383 0fc7 D50F0000 		.4byte	0xfd5
 4384 0fcb 19       		.uleb128 0x19
 4385 0fcc 01       		.uleb128 0x1
 4386 0fcd 50       		.byte	0x50
 4387 0fce 05       		.uleb128 0x5
 4388 0fcf 03       		.byte	0x3
 4389 0fd0 200A0000 		.4byte	.LC44
 4390 0fd4 00       		.byte	0
 4391 0fd5 18       		.uleb128 0x18
 4392 0fd6 64000000 		.4byte	.LVL175
 4393 0fda 07160000 		.4byte	0x1607
 4394 0fde E90F0000 		.4byte	0xfe9
 4395 0fe2 19       		.uleb128 0x19
 4396 0fe3 01       		.uleb128 0x1
 4397 0fe4 50       		.byte	0x50
 4398 0fe5 02       		.uleb128 0x2
 4399 0fe6 74       		.byte	0x74
 4400 0fe7 00       		.sleb128 0
 4401 0fe8 00       		.byte	0
 4402 0fe9 18       		.uleb128 0x18
 4403 0fea 76000000 		.4byte	.LVL176
 4404 0fee D30C0000 		.4byte	0xcd3
 4405 0ff2 00100000 		.4byte	0x1000
 4406 0ff6 19       		.uleb128 0x19
 4407 0ff7 01       		.uleb128 0x1
 4408 0ff8 50       		.byte	0x50
ARM GAS  C:\Users\tslator\AppData\Local\Temp\ccc8OXeR.s 			page 100


 4409 0ff9 05       		.uleb128 0x5
 4410 0ffa 03       		.byte	0x3
 4411 0ffb 600A0000 		.4byte	.LC45
 4412 0fff 00       		.byte	0
 4413 1000 18       		.uleb128 0x18
 4414 1001 86000000 		.4byte	.LVL177
 4415 1005 D30C0000 		.4byte	0xcd3
 4416 1009 17100000 		.4byte	0x1017
 4417 100d 19       		.uleb128 0x19
 4418 100e 01       		.uleb128 0x1
 4419 100f 50       		.byte	0x50
 4420 1010 05       		.uleb128 0x5
 4421 1011 03       		.byte	0x3
 4422 1012 700A0000 		.4byte	.LC46
 4423 1016 00       		.byte	0
 4424 1017 18       		.uleb128 0x18
 4425 1018 8C000000 		.4byte	.LVL178
 4426 101c 07160000 		.4byte	0x1607
 4427 1020 2B100000 		.4byte	0x102b
 4428 1024 19       		.uleb128 0x19
 4429 1025 01       		.uleb128 0x1
 4430 1026 50       		.byte	0x50
 4431 1027 02       		.uleb128 0x2
 4432 1028 74       		.byte	0x74
 4433 1029 00       		.sleb128 0
 4434 102a 00       		.byte	0
 4435 102b 1D       		.uleb128 0x1d
 4436 102c 90000000 		.4byte	.LVL179
 4437 1030 6C070000 		.4byte	0x76c
 4438 1034 1D       		.uleb128 0x1d
 4439 1035 96000000 		.4byte	.LVL181
 4440 1039 44160000 		.4byte	0x1644
 4441 103d 18       		.uleb128 0x18
 4442 103e 9C000000 		.4byte	.LVL182
 4443 1042 07160000 		.4byte	0x1607
 4444 1046 54100000 		.4byte	0x1054
 4445 104a 19       		.uleb128 0x19
 4446 104b 01       		.uleb128 0x1
 4447 104c 50       		.byte	0x50
 4448 104d 05       		.uleb128 0x5
 4449 104e 03       		.byte	0x3
 4450 104f 800A0000 		.4byte	.LC47
 4451 1053 00       		.byte	0
 4452 1054 18       		.uleb128 0x18
 4453 1055 A2000000 		.4byte	.LVL183
 4454 1059 07160000 		.4byte	0x1607
 4455 105d 6B100000 		.4byte	0x106b
 4456 1061 19       		.uleb128 0x19
 4457 1062 01       		.uleb128 0x1
 4458 1063 50       		.byte	0x50
 4459 1064 05       		.uleb128 0x5
 4460 1065 03       		.byte	0x3
 4461 1066 68010000 		.4byte	.LC5
 4462 106a 00       		.byte	0
 4463 106b 18       		.uleb128 0x18
 4464 106c AE000000 		.4byte	.LVL184
 4465 1070 FC0D0000 		.4byte	0xdfc
ARM GAS  C:\Users\tslator\AppData\Local\Temp\ccc8OXeR.s 			page 101


 4466 1074 82100000 		.4byte	0x1082
 4467 1078 19       		.uleb128 0x19
 4468 1079 01       		.uleb128 0x1
 4469 107a 50       		.byte	0x50
 4470 107b 05       		.uleb128 0x5
 4471 107c 03       		.byte	0x3
 4472 107d A80A0000 		.4byte	.LC48
 4473 1081 00       		.byte	0
 4474 1082 18       		.uleb128 0x18
 4475 1083 B8000000 		.4byte	.LVL185
 4476 1087 FC0D0000 		.4byte	0xdfc
 4477 108b 99100000 		.4byte	0x1099
 4478 108f 19       		.uleb128 0x19
 4479 1090 01       		.uleb128 0x1
 4480 1091 50       		.byte	0x50
 4481 1092 05       		.uleb128 0x5
 4482 1093 03       		.byte	0x3
 4483 1094 B40A0000 		.4byte	.LC49
 4484 1098 00       		.byte	0
 4485 1099 1D       		.uleb128 0x1d
 4486 109a BC000000 		.4byte	.LVL186
 4487 109e 6C070000 		.4byte	0x76c
 4488 10a2 1D       		.uleb128 0x1d
 4489 10a3 C2000000 		.4byte	.LVL188
 4490 10a7 44160000 		.4byte	0x1644
 4491 10ab 18       		.uleb128 0x18
 4492 10ac C8000000 		.4byte	.LVL189
 4493 10b0 07160000 		.4byte	0x1607
 4494 10b4 C2100000 		.4byte	0x10c2
 4495 10b8 19       		.uleb128 0x19
 4496 10b9 01       		.uleb128 0x1
 4497 10ba 50       		.byte	0x50
 4498 10bb 05       		.uleb128 0x5
 4499 10bc 03       		.byte	0x3
 4500 10bd C00A0000 		.4byte	.LC50
 4501 10c1 00       		.byte	0
 4502 10c2 18       		.uleb128 0x18
 4503 10c3 CE000000 		.4byte	.LVL190
 4504 10c7 07160000 		.4byte	0x1607
 4505 10cb D9100000 		.4byte	0x10d9
 4506 10cf 19       		.uleb128 0x19
 4507 10d0 01       		.uleb128 0x1
 4508 10d1 50       		.byte	0x50
 4509 10d2 05       		.uleb128 0x5
 4510 10d3 03       		.byte	0x3
 4511 10d4 68010000 		.4byte	.LC5
 4512 10d8 00       		.byte	0
 4513 10d9 1D       		.uleb128 0x1d
 4514 10da D2000000 		.4byte	.LVL191
 4515 10de 6C070000 		.4byte	0x76c
 4516 10e2 00       		.byte	0
 4517 10e3 2D       		.uleb128 0x2d
 4518 10e4 FD090000 		.4byte	.LASF128
 4519 10e8 01       		.byte	0x1
 4520 10e9 DB01     		.2byte	0x1db
 4521 10eb 00000000 		.4byte	.LFB80
 4522 10ef 3C000000 		.4byte	.LFE80-.LFB80
ARM GAS  C:\Users\tslator\AppData\Local\Temp\ccc8OXeR.s 			page 102


 4523 10f3 01       		.uleb128 0x1
 4524 10f4 9C       		.byte	0x9c
 4525 10f5 15110000 		.4byte	0x1115
 4526 10f9 1D       		.uleb128 0x1d
 4527 10fa 18000000 		.4byte	.LVL192
 4528 10fe FC160000 		.4byte	0x16fc
 4529 1102 1D       		.uleb128 0x1d
 4530 1103 1C000000 		.4byte	.LVL193
 4531 1107 09170000 		.4byte	0x1709
 4532 110b 1D       		.uleb128 0x1d
 4533 110c 20000000 		.4byte	.LVL194
 4534 1110 16170000 		.4byte	0x1716
 4535 1114 00       		.byte	0
 4536 1115 2D       		.uleb128 0x2d
 4537 1116 C0020000 		.4byte	.LASF129
 4538 111a 01       		.byte	0x1
 4539 111b E601     		.2byte	0x1e6
 4540 111d 00000000 		.4byte	.LFB81
 4541 1121 14000000 		.4byte	.LFE81-.LFB81
 4542 1125 01       		.uleb128 0x1
 4543 1126 9C       		.byte	0x9c
 4544 1127 45110000 		.4byte	0x1145
 4545 112b 22       		.uleb128 0x22
 4546 112c C0040000 		.4byte	.LASF40
 4547 1130 01       		.byte	0x1
 4548 1131 F001     		.2byte	0x1f0
 4549 1133 B5000000 		.4byte	0xb5
 4550 1137 AD050000 		.4byte	.LLST23
 4551 113b 1D       		.uleb128 0x1d
 4552 113c 0E000000 		.4byte	.LVL196
 4553 1140 23170000 		.4byte	0x1723
 4554 1144 00       		.byte	0
 4555 1145 2D       		.uleb128 0x2d
 4556 1146 FC060000 		.4byte	.LASF130
 4557 114a 01       		.byte	0x1
 4558 114b F401     		.2byte	0x1f4
 4559 114d 00000000 		.4byte	.LFB82
 4560 1151 D4000000 		.4byte	.LFE82-.LFB82
 4561 1155 01       		.uleb128 0x1
 4562 1156 9C       		.byte	0x9c
 4563 1157 FB110000 		.4byte	0x11fb
 4564 115b 28       		.uleb128 0x28
 4565 115c 636D6400 		.ascii	"cmd\000"
 4566 1160 01       		.byte	0x1
 4567 1161 1202     		.2byte	0x212
 4568 1163 A9000000 		.4byte	0xa9
 4569 1167 C0050000 		.4byte	.LLST24
 4570 116b 1D       		.uleb128 0x1d
 4571 116c 06000000 		.4byte	.LVL197
 4572 1170 BC090000 		.4byte	0x9bc
 4573 1174 1D       		.uleb128 0x1d
 4574 1175 2A000000 		.4byte	.LVL199
 4575 1179 0C050000 		.4byte	0x50c
 4576 117d 1D       		.uleb128 0x1d
 4577 117e 36000000 		.4byte	.LVL201
 4578 1182 E7050000 		.4byte	0x5e7
 4579 1186 1D       		.uleb128 0x1d
ARM GAS  C:\Users\tslator\AppData\Local\Temp\ccc8OXeR.s 			page 103


 4580 1187 42000000 		.4byte	.LVL203
 4581 118b 6C070000 		.4byte	0x76c
 4582 118f 1D       		.uleb128 0x1d
 4583 1190 54000000 		.4byte	.LVL205
 4584 1194 EE090000 		.4byte	0x9ee
 4585 1198 18       		.uleb128 0x18
 4586 1199 64000000 		.4byte	.LVL206
 4587 119d 34170000 		.4byte	0x1734
 4588 11a1 AB110000 		.4byte	0x11ab
 4589 11a5 19       		.uleb128 0x19
 4590 11a6 01       		.uleb128 0x1
 4591 11a7 50       		.byte	0x50
 4592 11a8 01       		.uleb128 0x1
 4593 11a9 31       		.byte	0x31
 4594 11aa 00       		.byte	0
 4595 11ab 1D       		.uleb128 0x1d
 4596 11ac 6C000000 		.4byte	.LVL207
 4597 11b0 D8080000 		.4byte	0x8d8
 4598 11b4 1D       		.uleb128 0x1d
 4599 11b5 82000000 		.4byte	.LVL209
 4600 11b9 460A0000 		.4byte	0xa46
 4601 11bd 18       		.uleb128 0x18
 4602 11be 92000000 		.4byte	.LVL210
 4603 11c2 34170000 		.4byte	0x1734
 4604 11c6 D0110000 		.4byte	0x11d0
 4605 11ca 19       		.uleb128 0x19
 4606 11cb 01       		.uleb128 0x1
 4607 11cc 50       		.byte	0x50
 4608 11cd 01       		.uleb128 0x1
 4609 11ce 31       		.byte	0x31
 4610 11cf 00       		.byte	0
 4611 11d0 1D       		.uleb128 0x1d
 4612 11d1 9A000000 		.4byte	.LVL211
 4613 11d5 D8080000 		.4byte	0x8d8
 4614 11d9 1D       		.uleb128 0x1d
 4615 11da AA000000 		.4byte	.LVL213
 4616 11de 120F0000 		.4byte	0xf12
 4617 11e2 1D       		.uleb128 0x1d
 4618 11e3 BA000000 		.4byte	.LVL215
 4619 11e7 7C090000 		.4byte	0x97c
 4620 11eb 1A       		.uleb128 0x1a
 4621 11ec C0000000 		.4byte	.LVL216
 4622 11f0 34170000 		.4byte	0x1734
 4623 11f4 19       		.uleb128 0x19
 4624 11f5 01       		.uleb128 0x1
 4625 11f6 50       		.byte	0x50
 4626 11f7 01       		.uleb128 0x1
 4627 11f8 30       		.byte	0x30
 4628 11f9 00       		.byte	0
 4629 11fa 00       		.byte	0
 4630 11fb 2E       		.uleb128 0x2e
 4631 11fc 24010000 		.4byte	.LASF131
 4632 1200 01       		.byte	0x1
 4633 1201 6702     		.2byte	0x267
 4634 1203 25000000 		.4byte	0x25
 4635 1207 00000000 		.4byte	.LFB83
 4636 120b 46000000 		.4byte	.LFE83-.LFB83
ARM GAS  C:\Users\tslator\AppData\Local\Temp\ccc8OXeR.s 			page 104


 4637 120f 01       		.uleb128 0x1
 4638 1210 9C       		.byte	0x9c
 4639 1211 87120000 		.4byte	0x1287
 4640 1215 20       		.uleb128 0x20
 4641 1216 01030000 		.4byte	.LASF132
 4642 121a 01       		.byte	0x1
 4643 121b 6902     		.2byte	0x269
 4644 121d 87120000 		.4byte	0x1287
 4645 1221 02       		.uleb128 0x2
 4646 1222 91       		.byte	0x91
 4647 1223 68       		.sleb128 -24
 4648 1224 22       		.uleb128 0x22
 4649 1225 A1020000 		.4byte	.LASF133
 4650 1229 01       		.byte	0x1
 4651 122a 6A02     		.2byte	0x26a
 4652 122c A9000000 		.4byte	0xa9
 4653 1230 20060000 		.4byte	.LLST25
 4654 1234 20       		.uleb128 0x20
 4655 1235 2B030000 		.4byte	.LASF106
 4656 1239 01       		.byte	0x1
 4657 123a 6B02     		.2byte	0x26b
 4658 123c A9000000 		.4byte	0xa9
 4659 1240 01       		.uleb128 0x1
 4660 1241 55       		.byte	0x55
 4661 1242 20       		.uleb128 0x20
 4662 1243 B9020000 		.4byte	.LASF103
 4663 1247 01       		.byte	0x1
 4664 1248 7B02     		.2byte	0x27b
 4665 124a 25000000 		.4byte	0x25
 4666 124e 01       		.uleb128 0x1
 4667 124f 50       		.byte	0x50
 4668 1250 1D       		.uleb128 0x1d
 4669 1251 0A000000 		.4byte	.LVL221
 4670 1255 45170000 		.4byte	0x1745
 4671 1259 1D       		.uleb128 0x1d
 4672 125a 0E000000 		.4byte	.LVL222
 4673 125e 33160000 		.4byte	0x1633
 4674 1262 18       		.uleb128 0x18
 4675 1263 14000000 		.4byte	.LVL224
 4676 1267 44160000 		.4byte	0x1644
 4677 126b 76120000 		.4byte	0x1276
 4678 126f 19       		.uleb128 0x19
 4679 1270 01       		.uleb128 0x1
 4680 1271 50       		.byte	0x50
 4681 1272 02       		.uleb128 0x2
 4682 1273 75       		.byte	0x75
 4683 1274 00       		.sleb128 0
 4684 1275 00       		.byte	0
 4685 1276 1A       		.uleb128 0x1a
 4686 1277 3E000000 		.4byte	.LVL227
 4687 127b 52170000 		.4byte	0x1752
 4688 127f 19       		.uleb128 0x19
 4689 1280 01       		.uleb128 0x1
 4690 1281 50       		.byte	0x50
 4691 1282 02       		.uleb128 0x2
 4692 1283 7D       		.byte	0x7d
 4693 1284 00       		.sleb128 0
ARM GAS  C:\Users\tslator\AppData\Local\Temp\ccc8OXeR.s 			page 105


 4694 1285 00       		.byte	0
 4695 1286 00       		.byte	0
 4696 1287 09       		.uleb128 0x9
 4697 1288 A9000000 		.4byte	0xa9
 4698 128c 97120000 		.4byte	0x1297
 4699 1290 0A       		.uleb128 0xa
 4700 1291 7F000000 		.4byte	0x7f
 4701 1295 05       		.byte	0x5
 4702 1296 00       		.byte	0
 4703 1297 2F       		.uleb128 0x2f
 4704 1298 060A0000 		.4byte	.LASF134
 4705 129c 01       		.byte	0x1
 4706 129d 8002     		.2byte	0x280
 4707 129f 00000000 		.4byte	.LFB84
 4708 12a3 18000000 		.4byte	.LFE84-.LFB84
 4709 12a7 01       		.uleb128 0x1
 4710 12a8 9C       		.byte	0x9c
 4711 12a9 CA120000 		.4byte	0x12ca
 4712 12ad 30       		.uleb128 0x30
 4713 12ae 40060000 		.4byte	.LASF135
 4714 12b2 01       		.byte	0x1
 4715 12b3 8002     		.2byte	0x280
 4716 12b5 CA120000 		.4byte	0x12ca
 4717 12b9 01       		.uleb128 0x1
 4718 12ba 50       		.byte	0x50
 4719 12bb 30       		.uleb128 0x30
 4720 12bc C3010000 		.4byte	.LASF136
 4721 12c0 01       		.byte	0x1
 4722 12c1 8002     		.2byte	0x280
 4723 12c3 CA120000 		.4byte	0x12ca
 4724 12c7 01       		.uleb128 0x1
 4725 12c8 51       		.byte	0x51
 4726 12c9 00       		.byte	0
 4727 12ca 06       		.uleb128 0x6
 4728 12cb 04       		.byte	0x4
 4729 12cc D0120000 		.4byte	0x12d0
 4730 12d0 06       		.uleb128 0x6
 4731 12d1 04       		.byte	0x4
 4732 12d2 D5010000 		.4byte	0x1d5
 4733 12d6 2F       		.uleb128 0x2f
 4734 12d7 0B010000 		.4byte	.LASF137
 4735 12db 01       		.byte	0x1
 4736 12dc 8602     		.2byte	0x286
 4737 12de 00000000 		.4byte	.LFB85
 4738 12e2 18000000 		.4byte	.LFE85-.LFB85
 4739 12e6 01       		.uleb128 0x1
 4740 12e7 9C       		.byte	0x9c
 4741 12e8 09130000 		.4byte	0x1309
 4742 12ec 30       		.uleb128 0x30
 4743 12ed 40060000 		.4byte	.LASF135
 4744 12f1 01       		.byte	0x1
 4745 12f2 8602     		.2byte	0x286
 4746 12f4 CA120000 		.4byte	0x12ca
 4747 12f8 01       		.uleb128 0x1
 4748 12f9 50       		.byte	0x50
 4749 12fa 30       		.uleb128 0x30
 4750 12fb C3010000 		.4byte	.LASF136
ARM GAS  C:\Users\tslator\AppData\Local\Temp\ccc8OXeR.s 			page 106


 4751 12ff 01       		.byte	0x1
 4752 1300 8602     		.2byte	0x286
 4753 1302 CA120000 		.4byte	0x12ca
 4754 1306 01       		.uleb128 0x1
 4755 1307 51       		.byte	0x51
 4756 1308 00       		.byte	0
 4757 1309 31       		.uleb128 0x31
 4758 130a 8D020000 		.4byte	.LASF138
 4759 130e 01       		.byte	0x1
 4760 130f 8C02     		.2byte	0x28c
 4761 1311 1F130000 		.4byte	0x131f
 4762 1315 00000000 		.4byte	.LFB86
 4763 1319 0C000000 		.4byte	.LFE86-.LFB86
 4764 131d 01       		.uleb128 0x1
 4765 131e 9C       		.byte	0x9c
 4766 131f 06       		.uleb128 0x6
 4767 1320 04       		.byte	0x4
 4768 1321 1A020000 		.4byte	0x21a
 4769 1325 31       		.uleb128 0x31
 4770 1326 34040000 		.4byte	.LASF139
 4771 132a 01       		.byte	0x1
 4772 132b 9102     		.2byte	0x291
 4773 132d 1F130000 		.4byte	0x131f
 4774 1331 00000000 		.4byte	.LFB87
 4775 1335 0C000000 		.4byte	.LFE87-.LFB87
 4776 1339 01       		.uleb128 0x1
 4777 133a 9C       		.byte	0x9c
 4778 133b 2F       		.uleb128 0x2f
 4779 133c BD030000 		.4byte	.LASF140
 4780 1340 01       		.byte	0x1
 4781 1341 9602     		.2byte	0x296
 4782 1343 00000000 		.4byte	.LFB88
 4783 1347 0C000000 		.4byte	.LFE88-.LFB88
 4784 134b 01       		.uleb128 0x1
 4785 134c 9C       		.byte	0x9c
 4786 134d 6E130000 		.4byte	0x136e
 4787 1351 30       		.uleb128 0x30
 4788 1352 9A070000 		.4byte	.LASF141
 4789 1356 01       		.byte	0x1
 4790 1357 9602     		.2byte	0x296
 4791 1359 25000000 		.4byte	0x25
 4792 135d 01       		.uleb128 0x1
 4793 135e 50       		.byte	0x50
 4794 135f 30       		.uleb128 0x30
 4795 1360 1C050000 		.4byte	.LASF142
 4796 1364 01       		.byte	0x1
 4797 1365 9602     		.2byte	0x296
 4798 1367 25000000 		.4byte	0x25
 4799 136b 01       		.uleb128 0x1
 4800 136c 51       		.byte	0x51
 4801 136d 00       		.byte	0
 4802 136e 32       		.uleb128 0x32
 4803 136f E7060000 		.4byte	.LASF189
 4804 1373 01       		.byte	0x1
 4805 1374 AE02     		.2byte	0x2ae
 4806 1376 B5000000 		.4byte	0xb5
 4807 137a 00000000 		.4byte	.LFB90
ARM GAS  C:\Users\tslator\AppData\Local\Temp\ccc8OXeR.s 			page 107


 4808 137e 84000000 		.4byte	.LFE90-.LFB90
 4809 1382 01       		.uleb128 0x1
 4810 1383 9C       		.byte	0x9c
 4811 1384 07140000 		.4byte	0x1407
 4812 1388 27       		.uleb128 0x27
 4813 1389 06020000 		.4byte	.LASF143
 4814 138d 01       		.byte	0x1
 4815 138e AE02     		.2byte	0x2ae
 4816 1390 33010000 		.4byte	0x133
 4817 1394 4A060000 		.4byte	.LLST26
 4818 1398 1F       		.uleb128 0x1f
 4819 1399 63707300 		.ascii	"cps\000"
 4820 139d 01       		.byte	0x1
 4821 139e AE02     		.2byte	0x2ae
 4822 13a0 25000000 		.4byte	0x25
 4823 13a4 84060000 		.4byte	.LLST27
 4824 13a8 28       		.uleb128 0x28
 4825 13a9 70776D00 		.ascii	"pwm\000"
 4826 13ad 01       		.byte	0x1
 4827 13ae B002     		.2byte	0x2b0
 4828 13b0 B5000000 		.4byte	0xb5
 4829 13b4 D3060000 		.4byte	.LLST28
 4830 13b8 33       		.uleb128 0x33
 4831 13b9 12000000 		.4byte	.LBB2
 4832 13bd 58000000 		.4byte	.LBE2-.LBB2
 4833 13c1 F3130000 		.4byte	0x13f3
 4834 13c5 22       		.uleb128 0x22
 4835 13c6 08030000 		.4byte	.LASF144
 4836 13ca 01       		.byte	0x1
 4837 13cb BA02     		.2byte	0x2ba
 4838 13cd D0120000 		.4byte	0x12d0
 4839 13d1 0D070000 		.4byte	.LLST29
 4840 13d5 1A       		.uleb128 0x1a
 4841 13d6 6A000000 		.4byte	.LVL243
 4842 13da 6D0B0000 		.4byte	0xb6d
 4843 13de 19       		.uleb128 0x19
 4844 13df 01       		.uleb128 0x1
 4845 13e0 53       		.byte	0x53
 4846 13e1 02       		.uleb128 0x2
 4847 13e2 08       		.byte	0x8
 4848 13e3 33       		.byte	0x33
 4849 13e4 19       		.uleb128 0x19
 4850 13e5 01       		.uleb128 0x1
 4851 13e6 52       		.byte	0x52
 4852 13e7 03       		.uleb128 0x3
 4853 13e8 74       		.byte	0x74
 4854 13e9 D801     		.sleb128 216
 4855 13eb 19       		.uleb128 0x19
 4856 13ec 01       		.uleb128 0x1
 4857 13ed 51       		.byte	0x51
 4858 13ee 02       		.uleb128 0x2
 4859 13ef 74       		.byte	0x74
 4860 13f0 0C       		.sleb128 12
 4861 13f1 00       		.byte	0
 4862 13f2 00       		.byte	0
 4863 13f3 1A       		.uleb128 0x1a
 4864 13f4 72000000 		.4byte	.LVL246
ARM GAS  C:\Users\tslator\AppData\Local\Temp\ccc8OXeR.s 			page 108


 4865 13f8 07160000 		.4byte	0x1607
 4866 13fc 19       		.uleb128 0x19
 4867 13fd 01       		.uleb128 0x1
 4868 13fe 50       		.byte	0x50
 4869 13ff 05       		.uleb128 0x5
 4870 1400 03       		.byte	0x3
 4871 1401 E80A0000 		.4byte	.LC51
 4872 1405 00       		.byte	0
 4873 1406 00       		.byte	0
 4874 1407 2D       		.uleb128 0x2d
 4875 1408 EE070000 		.4byte	.LASF145
 4876 140c 01       		.byte	0x1
 4877 140d C702     		.2byte	0x2c7
 4878 140f 00000000 		.4byte	.LFB91
 4879 1413 10000000 		.4byte	.LFE91-.LFB91
 4880 1417 01       		.uleb128 0x1
 4881 1418 9C       		.byte	0x9c
 4882 1419 40140000 		.4byte	0x1440
 4883 141d 18       		.uleb128 0x18
 4884 141e 08000000 		.4byte	.LVL248
 4885 1422 390C0000 		.4byte	0xc39
 4886 1426 30140000 		.4byte	0x1430
 4887 142a 19       		.uleb128 0x19
 4888 142b 01       		.uleb128 0x1
 4889 142c 50       		.byte	0x50
 4890 142d 01       		.uleb128 0x1
 4891 142e 31       		.byte	0x31
 4892 142f 00       		.byte	0
 4893 1430 1A       		.uleb128 0x1a
 4894 1431 0E000000 		.4byte	.LVL249
 4895 1435 390C0000 		.4byte	0xc39
 4896 1439 19       		.uleb128 0x19
 4897 143a 01       		.uleb128 0x1
 4898 143b 50       		.byte	0x50
 4899 143c 01       		.uleb128 0x1
 4900 143d 32       		.byte	0x32
 4901 143e 00       		.byte	0
 4902 143f 00       		.byte	0
 4903 1440 2C       		.uleb128 0x2c
 4904 1441 7F0A0000 		.4byte	.LASF146
 4905 1445 01       		.byte	0x1
 4906 1446 3E       		.byte	0x3e
 4907 1447 D7040000 		.4byte	0x4d7
 4908 144b 05       		.uleb128 0x5
 4909 144c 03       		.byte	0x3
 4910 144d 10000000 		.4byte	ui_state
 4911 1451 2C       		.uleb128 0x2c
 4912 1452 5B020000 		.4byte	.LASF147
 4913 1456 01       		.byte	0x1
 4914 1457 40       		.byte	0x40
 4915 1458 C2080000 		.4byte	0x8c2
 4916 145c 05       		.uleb128 0x5
 4917 145d 03       		.byte	0x3
 4918 145e 08000000 		.4byte	active_cal
 4919 1462 2C       		.uleb128 0x2c
 4920 1463 07070000 		.4byte	.LASF148
 4921 1467 01       		.byte	0x1
ARM GAS  C:\Users\tslator\AppData\Local\Temp\ccc8OXeR.s 			page 109


 4922 1468 41       		.byte	0x41
 4923 1469 C2080000 		.4byte	0x8c2
 4924 146d 05       		.uleb128 0x5
 4925 146e 03       		.byte	0x3
 4926 146f 0C000000 		.4byte	active_val
 4927 1473 2C       		.uleb128 0x2c
 4928 1474 B3090000 		.4byte	.LASF149
 4929 1478 01       		.byte	0x1
 4930 1479 43       		.byte	0x43
 4931 147a 25000000 		.4byte	0x25
 4932 147e 05       		.uleb128 0x5
 4933 147f 03       		.byte	0x3
 4934 1480 00000000 		.4byte	left_cmd_velocity
 4935 1484 2C       		.uleb128 0x2c
 4936 1485 31030000 		.4byte	.LASF150
 4937 1489 01       		.byte	0x1
 4938 148a 44       		.byte	0x44
 4939 148b 25000000 		.4byte	0x25
 4940 148f 05       		.uleb128 0x5
 4941 1490 03       		.byte	0x3
 4942 1491 04000000 		.4byte	right_cmd_velocity
 4943 1495 34       		.uleb128 0x34
 4944 1496 41070000 		.4byte	.LASF151
 4945 149a 0A       		.byte	0xa
 4946 149b 5506     		.2byte	0x655
 4947 149d A1140000 		.4byte	0x14a1
 4948 14a1 35       		.uleb128 0x35
 4949 14a2 9E000000 		.4byte	0x9e
 4950 14a6 09       		.uleb128 0x9
 4951 14a7 86000000 		.4byte	0x86
 4952 14ab B6140000 		.4byte	0x14b6
 4953 14af 0A       		.uleb128 0xa
 4954 14b0 7F000000 		.4byte	0x7f
 4955 14b4 01       		.byte	0x1
 4956 14b5 00       		.byte	0
 4957 14b6 36       		.uleb128 0x36
 4958 14b7 AF000000 		.4byte	.LASF152
 4959 14bb 01       		.byte	0x1
 4960 14bc 37       		.byte	0x37
 4961 14bd A6140000 		.4byte	0x14a6
 4962 14c1 05       		.uleb128 0x5
 4963 14c2 03       		.byte	0x3
 4964 14c3 00000000 		.4byte	cal_stage_to_string
 4965 14c7 09       		.uleb128 0x9
 4966 14c8 86000000 		.4byte	0x86
 4967 14cc D7140000 		.4byte	0x14d7
 4968 14d0 0A       		.uleb128 0xa
 4969 14d1 7F000000 		.4byte	0x7f
 4970 14d5 05       		.byte	0x5
 4971 14d6 00       		.byte	0
 4972 14d7 36       		.uleb128 0x36
 4973 14d8 B4060000 		.4byte	.LASF153
 4974 14dc 01       		.byte	0x1
 4975 14dd 38       		.byte	0x38
 4976 14de C7140000 		.4byte	0x14c7
 4977 14e2 05       		.uleb128 0x5
 4978 14e3 03       		.byte	0x3
ARM GAS  C:\Users\tslator\AppData\Local\Temp\ccc8OXeR.s 			page 110


 4979 14e4 00000000 		.4byte	cal_state_to_string
 4980 14e8 36       		.uleb128 0x36
 4981 14e9 12070000 		.4byte	.LASF154
 4982 14ed 07       		.byte	0x7
 4983 14ee 5C       		.byte	0x5c
 4984 14ef F9140000 		.4byte	0x14f9
 4985 14f3 05       		.uleb128 0x5
 4986 14f4 03       		.byte	0x3
 4987 14f5 00000000 		.4byte	p_cal_eeprom
 4988 14f9 06       		.uleb128 0x6
 4989 14fa 04       		.byte	0x4
 4990 14fb FF140000 		.4byte	0x14ff
 4991 14ff 35       		.uleb128 0x35
 4992 1500 BE020000 		.4byte	0x2be
 4993 1504 36       		.uleb128 0x36
 4994 1505 29070000 		.4byte	.LASF155
 4995 1509 07       		.byte	0x7
 4996 150a 5E       		.byte	0x5e
 4997 150b FC000000 		.4byte	0xfc
 4998 150f 05       		.uleb128 0x5
 4999 1510 03       		.byte	0x3
 5000 1511 00000000 		.4byte	Cal_LeftTarget
 5001 1515 36       		.uleb128 0x36
 5002 1516 430A0000 		.4byte	.LASF156
 5003 151a 07       		.byte	0x7
 5004 151b 5F       		.byte	0x5f
 5005 151c FC000000 		.4byte	0xfc
 5006 1520 05       		.uleb128 0x5
 5007 1521 03       		.byte	0x3
 5008 1522 00000000 		.4byte	Cal_RightTarget
 5009 1526 09       		.uleb128 0x9
 5010 1527 D0120000 		.4byte	0x12d0
 5011 152b 3C150000 		.4byte	0x153c
 5012 152f 0A       		.uleb128 0xa
 5013 1530 7F000000 		.4byte	0x7f
 5014 1534 01       		.byte	0x1
 5015 1535 0A       		.uleb128 0xa
 5016 1536 7F000000 		.4byte	0x7f
 5017 153a 01       		.byte	0x1
 5018 153b 00       		.byte	0
 5019 153c 36       		.uleb128 0x36
 5020 153d 0C020000 		.4byte	.LASF157
 5021 1541 0B       		.byte	0xb
 5022 1542 07       		.byte	0x7
 5023 1543 26150000 		.4byte	0x1526
 5024 1547 05       		.uleb128 0x5
 5025 1548 03       		.byte	0x3
 5026 1549 00000000 		.4byte	WHEEL_DIR_TO_CAL_DATA
 5027 154d 36       		.uleb128 0x36
 5028 154e B8070000 		.4byte	.LASF158
 5029 1552 0B       		.byte	0xb
 5030 1553 09       		.byte	0x9
 5031 1554 C2080000 		.4byte	0x8c2
 5032 1558 05       		.uleb128 0x5
 5033 1559 03       		.byte	0x3
 5034 155a 00000000 		.4byte	CalMotor_Calibration
 5035 155e 36       		.uleb128 0x36
ARM GAS  C:\Users\tslator\AppData\Local\Temp\ccc8OXeR.s 			page 111


 5036 155f 44030000 		.4byte	.LASF159
 5037 1563 0B       		.byte	0xb
 5038 1564 0A       		.byte	0xa
 5039 1565 C2080000 		.4byte	0x8c2
 5040 1569 05       		.uleb128 0x5
 5041 156a 03       		.byte	0x3
 5042 156b 00000000 		.4byte	CalMotor_Validation
 5043 156f 36       		.uleb128 0x36
 5044 1570 20000000 		.4byte	.LASF160
 5045 1574 08       		.byte	0x8
 5046 1575 12       		.byte	0x12
 5047 1576 C2080000 		.4byte	0x8c2
 5048 157a 05       		.uleb128 0x5
 5049 157b 03       		.byte	0x3
 5050 157c 00000000 		.4byte	CalPid_LeftCalibration
 5051 1580 36       		.uleb128 0x36
 5052 1581 1F060000 		.4byte	.LASF161
 5053 1585 08       		.byte	0x8
 5054 1586 13       		.byte	0x13
 5055 1587 C2080000 		.4byte	0x8c2
 5056 158b 05       		.uleb128 0x5
 5057 158c 03       		.byte	0x3
 5058 158d 00000000 		.4byte	CalPid_RightCalibration
 5059 1591 36       		.uleb128 0x36
 5060 1592 55080000 		.4byte	.LASF162
 5061 1596 08       		.byte	0x8
 5062 1597 14       		.byte	0x14
 5063 1598 C2080000 		.4byte	0x8c2
 5064 159c 05       		.uleb128 0x5
 5065 159d 03       		.byte	0x3
 5066 159e 00000000 		.4byte	CalPid_LeftValidation
 5067 15a2 36       		.uleb128 0x36
 5068 15a3 AC010000 		.4byte	.LASF163
 5069 15a7 08       		.byte	0x8
 5070 15a8 15       		.byte	0x15
 5071 15a9 C2080000 		.4byte	0x8c2
 5072 15ad 05       		.uleb128 0x5
 5073 15ae 03       		.byte	0x3
 5074 15af 00000000 		.4byte	CalPid_RightValidation
 5075 15b3 36       		.uleb128 0x36
 5076 15b4 6E060000 		.4byte	.LASF164
 5077 15b8 09       		.byte	0x9
 5078 15b9 10       		.byte	0x10
 5079 15ba C2080000 		.4byte	0x8c2
 5080 15be 05       		.uleb128 0x5
 5081 15bf 03       		.byte	0x3
 5082 15c0 00000000 		.4byte	CalLin_Validation
 5083 15c4 36       		.uleb128 0x36
 5084 15c5 ED040000 		.4byte	.LASF165
 5085 15c9 0C       		.byte	0xc
 5086 15ca 07       		.byte	0x7
 5087 15cb C2080000 		.4byte	0x8c2
 5088 15cf 05       		.uleb128 0x5
 5089 15d0 03       		.byte	0x3
 5090 15d1 00000000 		.4byte	CalAng_Calibration
 5091 15d5 09       		.uleb128 0x9
 5092 15d6 8C000000 		.4byte	0x8c
ARM GAS  C:\Users\tslator\AppData\Local\Temp\ccc8OXeR.s 			page 112


 5093 15da E5150000 		.4byte	0x15e5
 5094 15de 0A       		.uleb128 0xa
 5095 15df 7F000000 		.4byte	0x7f
 5096 15e3 FF       		.byte	0xff
 5097 15e4 00       		.byte	0
 5098 15e5 36       		.uleb128 0x36
 5099 15e6 E1020000 		.4byte	.LASF166
 5100 15ea 0D       		.byte	0xd
 5101 15eb 37       		.byte	0x37
 5102 15ec D5150000 		.4byte	0x15d5
 5103 15f0 05       		.uleb128 0x5
 5104 15f1 03       		.byte	0x3
 5105 15f2 00000000 		.4byte	formatted_string
 5106 15f6 36       		.uleb128 0x36
 5107 15f7 0F090000 		.4byte	.LASF167
 5108 15fb 0D       		.byte	0xd
 5109 15fc 88       		.byte	0x88
 5110 15fd B5000000 		.4byte	0xb5
 5111 1601 05       		.uleb128 0x5
 5112 1602 03       		.byte	0x3
 5113 1603 00000000 		.4byte	debug_control_enabled
 5114 1607 37       		.uleb128 0x37
 5115 1608 97030000 		.4byte	.LASF168
 5116 160c 0E       		.byte	0xe
 5117 160d 16       		.byte	0x16
 5118 160e 18160000 		.4byte	0x1618
 5119 1612 15       		.uleb128 0x15
 5120 1613 86000000 		.4byte	0x86
 5121 1617 00       		.byte	0
 5122 1618 38       		.uleb128 0x38
 5123 1619 80060000 		.4byte	.LASF172
 5124 161d 10       		.byte	0x10
 5125 161e DE       		.byte	0xde
 5126 161f 6F000000 		.4byte	0x6f
 5127 1623 33160000 		.4byte	0x1633
 5128 1627 15       		.uleb128 0x15
 5129 1628 86000000 		.4byte	0x86
 5130 162c 15       		.uleb128 0x15
 5131 162d 93000000 		.4byte	0x93
 5132 1631 0C       		.uleb128 0xc
 5133 1632 00       		.byte	0
 5134 1633 39       		.uleb128 0x39
 5135 1634 41090000 		.4byte	.LASF169
 5136 1638 0E       		.byte	0xe
 5137 1639 17       		.byte	0x17
 5138 163a A9000000 		.4byte	0xa9
 5139 163e 44160000 		.4byte	0x1644
 5140 1642 0C       		.uleb128 0xc
 5141 1643 00       		.byte	0
 5142 1644 37       		.uleb128 0x37
 5143 1645 58030000 		.4byte	.LASF170
 5144 1649 0E       		.byte	0xe
 5145 164a 18       		.byte	0x18
 5146 164b 55160000 		.4byte	0x1655
 5147 164f 15       		.uleb128 0x15
 5148 1650 A9000000 		.4byte	0xa9
 5149 1654 00       		.byte	0
ARM GAS  C:\Users\tslator\AppData\Local\Temp\ccc8OXeR.s 			page 113


 5150 1655 37       		.uleb128 0x37
 5151 1656 79070000 		.4byte	.LASF171
 5152 165a 0F       		.byte	0xf
 5153 165b 61       		.byte	0x61
 5154 165c 7A160000 		.4byte	0x167a
 5155 1660 15       		.uleb128 0x15
 5156 1661 D9000000 		.4byte	0xd9
 5157 1665 15       		.uleb128 0x15
 5158 1666 2D0C0000 		.4byte	0xc2d
 5159 166a 15       		.uleb128 0x15
 5160 166b A9000000 		.4byte	0xa9
 5161 166f 15       		.uleb128 0x15
 5162 1670 7A160000 		.4byte	0x167a
 5163 1674 15       		.uleb128 0x15
 5164 1675 7A160000 		.4byte	0x167a
 5165 1679 00       		.byte	0
 5166 167a 06       		.uleb128 0x6
 5167 167b 04       		.byte	0x4
 5168 167c A9000000 		.4byte	0xa9
 5169 1680 38       		.uleb128 0x38
 5170 1681 EC030000 		.4byte	.LASF173
 5171 1685 0F       		.byte	0xf
 5172 1686 66       		.byte	0x66
 5173 1687 CD000000 		.4byte	0xcd
 5174 168b A9160000 		.4byte	0x16a9
 5175 168f 15       		.uleb128 0x15
 5176 1690 CD000000 		.4byte	0xcd
 5177 1694 15       		.uleb128 0x15
 5178 1695 CD000000 		.4byte	0xcd
 5179 1699 15       		.uleb128 0x15
 5180 169a CD000000 		.4byte	0xcd
 5181 169e 15       		.uleb128 0x15
 5182 169f B5000000 		.4byte	0xb5
 5183 16a3 15       		.uleb128 0x15
 5184 16a4 B5000000 		.4byte	0xb5
 5185 16a8 00       		.byte	0
 5186 16a9 37       		.uleb128 0x37
 5187 16aa F2010000 		.4byte	.LASF174
 5188 16ae 11       		.byte	0x11
 5189 16af 34       		.byte	0x34
 5190 16b0 BF160000 		.4byte	0x16bf
 5191 16b4 15       		.uleb128 0x15
 5192 16b5 B5000000 		.4byte	0xb5
 5193 16b9 15       		.uleb128 0x15
 5194 16ba B5000000 		.4byte	0xb5
 5195 16be 00       		.byte	0
 5196 16bf 37       		.uleb128 0x37
 5197 16c0 C8050000 		.4byte	.LASF175
 5198 16c4 12       		.byte	0x12
 5199 16c5 28       		.byte	0x28
 5200 16c6 D0160000 		.4byte	0x16d0
 5201 16ca 15       		.uleb128 0x15
 5202 16cb B5000000 		.4byte	0xb5
 5203 16cf 00       		.byte	0
 5204 16d0 37       		.uleb128 0x37
 5205 16d1 CD070000 		.4byte	.LASF176
 5206 16d5 12       		.byte	0x12
ARM GAS  C:\Users\tslator\AppData\Local\Temp\ccc8OXeR.s 			page 114


 5207 16d6 27       		.byte	0x27
 5208 16d7 E1160000 		.4byte	0x16e1
 5209 16db 15       		.uleb128 0x15
 5210 16dc B5000000 		.4byte	0xb5
 5211 16e0 00       		.byte	0
 5212 16e1 37       		.uleb128 0x37
 5213 16e2 33080000 		.4byte	.LASF177
 5214 16e6 0F       		.byte	0xf
 5215 16e7 5E       		.byte	0x5e
 5216 16e8 FC160000 		.4byte	0x16fc
 5217 16ec 15       		.uleb128 0x15
 5218 16ed 25000000 		.4byte	0x25
 5219 16f1 15       		.uleb128 0x15
 5220 16f2 86000000 		.4byte	0x86
 5221 16f6 15       		.uleb128 0x15
 5222 16f7 6F000000 		.4byte	0x6f
 5223 16fb 00       		.byte	0
 5224 16fc 3A       		.uleb128 0x3a
 5225 16fd 57070000 		.4byte	.LASF178
 5226 1701 0B       		.byte	0xb
 5227 1702 0C       		.byte	0xc
 5228 1703 09170000 		.4byte	0x1709
 5229 1707 0C       		.uleb128 0xc
 5230 1708 00       		.byte	0
 5231 1709 3A       		.uleb128 0x3a
 5232 170a 90000000 		.4byte	.LASF179
 5233 170e 08       		.byte	0x8
 5234 170f 17       		.byte	0x17
 5235 1710 16170000 		.4byte	0x1716
 5236 1714 0C       		.uleb128 0xc
 5237 1715 00       		.byte	0
 5238 1716 3A       		.uleb128 0x3a
 5239 1717 9D060000 		.4byte	.LASF180
 5240 171b 09       		.byte	0x9
 5241 171c 12       		.byte	0x12
 5242 171d 23170000 		.4byte	0x1723
 5243 1721 0C       		.uleb128 0xc
 5244 1722 00       		.byte	0
 5245 1723 37       		.uleb128 0x37
 5246 1724 67040000 		.4byte	.LASF181
 5247 1728 12       		.byte	0x12
 5248 1729 29       		.byte	0x29
 5249 172a 34170000 		.4byte	0x1734
 5250 172e 15       		.uleb128 0x15
 5251 172f B5000000 		.4byte	0xb5
 5252 1733 00       		.byte	0
 5253 1734 37       		.uleb128 0x37
 5254 1735 2D0A0000 		.4byte	.LASF182
 5255 1739 13       		.byte	0x13
 5256 173a 2B       		.byte	0x2b
 5257 173b 45170000 		.4byte	0x1745
 5258 173f 15       		.uleb128 0x15
 5259 1740 A9000000 		.4byte	0xa9
 5260 1744 00       		.byte	0
 5261 1745 3A       		.uleb128 0x3a
 5262 1746 A9060000 		.4byte	.LASF183
 5263 174a 0E       		.byte	0xe
ARM GAS  C:\Users\tslator\AppData\Local\Temp\ccc8OXeR.s 			page 115


 5264 174b 14       		.byte	0x14
 5265 174c 52170000 		.4byte	0x1752
 5266 1750 0C       		.uleb128 0xc
 5267 1751 00       		.byte	0
 5268 1752 3B       		.uleb128 0x3b
 5269 1753 86090000 		.4byte	.LASF184
 5270 1757 14       		.byte	0x14
 5271 1758 46       		.byte	0x46
 5272 1759 E5000000 		.4byte	0xe5
 5273 175d 15       		.uleb128 0x15
 5274 175e 93000000 		.4byte	0x93
 5275 1762 00       		.byte	0
 5276 1763 00       		.byte	0
 5277              		.section	.debug_abbrev,"",%progbits
 5278              	.Ldebug_abbrev0:
 5279 0000 01       		.uleb128 0x1
 5280 0001 11       		.uleb128 0x11
 5281 0002 01       		.byte	0x1
 5282 0003 25       		.uleb128 0x25
 5283 0004 0E       		.uleb128 0xe
 5284 0005 13       		.uleb128 0x13
 5285 0006 0B       		.uleb128 0xb
 5286 0007 03       		.uleb128 0x3
 5287 0008 0E       		.uleb128 0xe
 5288 0009 1B       		.uleb128 0x1b
 5289 000a 0E       		.uleb128 0xe
 5290 000b 55       		.uleb128 0x55
 5291 000c 17       		.uleb128 0x17
 5292 000d 11       		.uleb128 0x11
 5293 000e 01       		.uleb128 0x1
 5294 000f 10       		.uleb128 0x10
 5295 0010 17       		.uleb128 0x17
 5296 0011 00       		.byte	0
 5297 0012 00       		.byte	0
 5298 0013 02       		.uleb128 0x2
 5299 0014 24       		.uleb128 0x24
 5300 0015 00       		.byte	0
 5301 0016 0B       		.uleb128 0xb
 5302 0017 0B       		.uleb128 0xb
 5303 0018 3E       		.uleb128 0x3e
 5304 0019 0B       		.uleb128 0xb
 5305 001a 03       		.uleb128 0x3
 5306 001b 0E       		.uleb128 0xe
 5307 001c 00       		.byte	0
 5308 001d 00       		.byte	0
 5309 001e 03       		.uleb128 0x3
 5310 001f 16       		.uleb128 0x16
 5311 0020 00       		.byte	0
 5312 0021 03       		.uleb128 0x3
 5313 0022 0E       		.uleb128 0xe
 5314 0023 3A       		.uleb128 0x3a
 5315 0024 0B       		.uleb128 0xb
 5316 0025 3B       		.uleb128 0x3b
 5317 0026 0B       		.uleb128 0xb
 5318 0027 49       		.uleb128 0x49
 5319 0028 13       		.uleb128 0x13
 5320 0029 00       		.byte	0
ARM GAS  C:\Users\tslator\AppData\Local\Temp\ccc8OXeR.s 			page 116


 5321 002a 00       		.byte	0
 5322 002b 04       		.uleb128 0x4
 5323 002c 24       		.uleb128 0x24
 5324 002d 00       		.byte	0
 5325 002e 0B       		.uleb128 0xb
 5326 002f 0B       		.uleb128 0xb
 5327 0030 3E       		.uleb128 0x3e
 5328 0031 0B       		.uleb128 0xb
 5329 0032 03       		.uleb128 0x3
 5330 0033 08       		.uleb128 0x8
 5331 0034 00       		.byte	0
 5332 0035 00       		.byte	0
 5333 0036 05       		.uleb128 0x5
 5334 0037 0F       		.uleb128 0xf
 5335 0038 00       		.byte	0
 5336 0039 0B       		.uleb128 0xb
 5337 003a 0B       		.uleb128 0xb
 5338 003b 00       		.byte	0
 5339 003c 00       		.byte	0
 5340 003d 06       		.uleb128 0x6
 5341 003e 0F       		.uleb128 0xf
 5342 003f 00       		.byte	0
 5343 0040 0B       		.uleb128 0xb
 5344 0041 0B       		.uleb128 0xb
 5345 0042 49       		.uleb128 0x49
 5346 0043 13       		.uleb128 0x13
 5347 0044 00       		.byte	0
 5348 0045 00       		.byte	0
 5349 0046 07       		.uleb128 0x7
 5350 0047 26       		.uleb128 0x26
 5351 0048 00       		.byte	0
 5352 0049 49       		.uleb128 0x49
 5353 004a 13       		.uleb128 0x13
 5354 004b 00       		.byte	0
 5355 004c 00       		.byte	0
 5356 004d 08       		.uleb128 0x8
 5357 004e 16       		.uleb128 0x16
 5358 004f 00       		.byte	0
 5359 0050 03       		.uleb128 0x3
 5360 0051 0E       		.uleb128 0xe
 5361 0052 3A       		.uleb128 0x3a
 5362 0053 0B       		.uleb128 0xb
 5363 0054 3B       		.uleb128 0x3b
 5364 0055 05       		.uleb128 0x5
 5365 0056 49       		.uleb128 0x49
 5366 0057 13       		.uleb128 0x13
 5367 0058 00       		.byte	0
 5368 0059 00       		.byte	0
 5369 005a 09       		.uleb128 0x9
 5370 005b 01       		.uleb128 0x1
 5371 005c 01       		.byte	0x1
 5372 005d 49       		.uleb128 0x49
 5373 005e 13       		.uleb128 0x13
 5374 005f 01       		.uleb128 0x1
 5375 0060 13       		.uleb128 0x13
 5376 0061 00       		.byte	0
 5377 0062 00       		.byte	0
ARM GAS  C:\Users\tslator\AppData\Local\Temp\ccc8OXeR.s 			page 117


 5378 0063 0A       		.uleb128 0xa
 5379 0064 21       		.uleb128 0x21
 5380 0065 00       		.byte	0
 5381 0066 49       		.uleb128 0x49
 5382 0067 13       		.uleb128 0x13
 5383 0068 2F       		.uleb128 0x2f
 5384 0069 0B       		.uleb128 0xb
 5385 006a 00       		.byte	0
 5386 006b 00       		.byte	0
 5387 006c 0B       		.uleb128 0xb
 5388 006d 15       		.uleb128 0x15
 5389 006e 01       		.byte	0x1
 5390 006f 49       		.uleb128 0x49
 5391 0070 13       		.uleb128 0x13
 5392 0071 01       		.uleb128 0x1
 5393 0072 13       		.uleb128 0x13
 5394 0073 00       		.byte	0
 5395 0074 00       		.byte	0
 5396 0075 0C       		.uleb128 0xc
 5397 0076 18       		.uleb128 0x18
 5398 0077 00       		.byte	0
 5399 0078 00       		.byte	0
 5400 0079 00       		.byte	0
 5401 007a 0D       		.uleb128 0xd
 5402 007b 04       		.uleb128 0x4
 5403 007c 01       		.byte	0x1
 5404 007d 0B       		.uleb128 0xb
 5405 007e 0B       		.uleb128 0xb
 5406 007f 3A       		.uleb128 0x3a
 5407 0080 0B       		.uleb128 0xb
 5408 0081 3B       		.uleb128 0x3b
 5409 0082 0B       		.uleb128 0xb
 5410 0083 01       		.uleb128 0x1
 5411 0084 13       		.uleb128 0x13
 5412 0085 00       		.byte	0
 5413 0086 00       		.byte	0
 5414 0087 0E       		.uleb128 0xe
 5415 0088 28       		.uleb128 0x28
 5416 0089 00       		.byte	0
 5417 008a 03       		.uleb128 0x3
 5418 008b 0E       		.uleb128 0xe
 5419 008c 1C       		.uleb128 0x1c
 5420 008d 0D       		.uleb128 0xd
 5421 008e 00       		.byte	0
 5422 008f 00       		.byte	0
 5423 0090 0F       		.uleb128 0xf
 5424 0091 13       		.uleb128 0x13
 5425 0092 01       		.byte	0x1
 5426 0093 03       		.uleb128 0x3
 5427 0094 0E       		.uleb128 0xe
 5428 0095 0B       		.uleb128 0xb
 5429 0096 05       		.uleb128 0x5
 5430 0097 3A       		.uleb128 0x3a
 5431 0098 0B       		.uleb128 0xb
 5432 0099 3B       		.uleb128 0x3b
 5433 009a 0B       		.uleb128 0xb
 5434 009b 01       		.uleb128 0x1
ARM GAS  C:\Users\tslator\AppData\Local\Temp\ccc8OXeR.s 			page 118


 5435 009c 13       		.uleb128 0x13
 5436 009d 00       		.byte	0
 5437 009e 00       		.byte	0
 5438 009f 10       		.uleb128 0x10
 5439 00a0 0D       		.uleb128 0xd
 5440 00a1 00       		.byte	0
 5441 00a2 03       		.uleb128 0x3
 5442 00a3 0E       		.uleb128 0xe
 5443 00a4 3A       		.uleb128 0x3a
 5444 00a5 0B       		.uleb128 0xb
 5445 00a6 3B       		.uleb128 0x3b
 5446 00a7 0B       		.uleb128 0xb
 5447 00a8 49       		.uleb128 0x49
 5448 00a9 13       		.uleb128 0x13
 5449 00aa 38       		.uleb128 0x38
 5450 00ab 0B       		.uleb128 0xb
 5451 00ac 00       		.byte	0
 5452 00ad 00       		.byte	0
 5453 00ae 11       		.uleb128 0x11
 5454 00af 0D       		.uleb128 0xd
 5455 00b0 00       		.byte	0
 5456 00b1 03       		.uleb128 0x3
 5457 00b2 0E       		.uleb128 0xe
 5458 00b3 3A       		.uleb128 0x3a
 5459 00b4 0B       		.uleb128 0xb
 5460 00b5 3B       		.uleb128 0x3b
 5461 00b6 0B       		.uleb128 0xb
 5462 00b7 49       		.uleb128 0x49
 5463 00b8 13       		.uleb128 0x13
 5464 00b9 38       		.uleb128 0x38
 5465 00ba 05       		.uleb128 0x5
 5466 00bb 00       		.byte	0
 5467 00bc 00       		.byte	0
 5468 00bd 12       		.uleb128 0x12
 5469 00be 13       		.uleb128 0x13
 5470 00bf 01       		.byte	0x1
 5471 00c0 03       		.uleb128 0x3
 5472 00c1 0E       		.uleb128 0xe
 5473 00c2 0B       		.uleb128 0xb
 5474 00c3 0B       		.uleb128 0xb
 5475 00c4 3A       		.uleb128 0x3a
 5476 00c5 0B       		.uleb128 0xb
 5477 00c6 3B       		.uleb128 0x3b
 5478 00c7 0B       		.uleb128 0xb
 5479 00c8 01       		.uleb128 0x1
 5480 00c9 13       		.uleb128 0x13
 5481 00ca 00       		.byte	0
 5482 00cb 00       		.byte	0
 5483 00cc 13       		.uleb128 0x13
 5484 00cd 0D       		.uleb128 0xd
 5485 00ce 00       		.byte	0
 5486 00cf 03       		.uleb128 0x3
 5487 00d0 08       		.uleb128 0x8
 5488 00d1 3A       		.uleb128 0x3a
 5489 00d2 0B       		.uleb128 0xb
 5490 00d3 3B       		.uleb128 0x3b
 5491 00d4 0B       		.uleb128 0xb
ARM GAS  C:\Users\tslator\AppData\Local\Temp\ccc8OXeR.s 			page 119


 5492 00d5 49       		.uleb128 0x49
 5493 00d6 13       		.uleb128 0x13
 5494 00d7 38       		.uleb128 0x38
 5495 00d8 0B       		.uleb128 0xb
 5496 00d9 00       		.byte	0
 5497 00da 00       		.byte	0
 5498 00db 14       		.uleb128 0x14
 5499 00dc 15       		.uleb128 0x15
 5500 00dd 01       		.byte	0x1
 5501 00de 27       		.uleb128 0x27
 5502 00df 19       		.uleb128 0x19
 5503 00e0 49       		.uleb128 0x49
 5504 00e1 13       		.uleb128 0x13
 5505 00e2 01       		.uleb128 0x1
 5506 00e3 13       		.uleb128 0x13
 5507 00e4 00       		.byte	0
 5508 00e5 00       		.byte	0
 5509 00e6 15       		.uleb128 0x15
 5510 00e7 05       		.uleb128 0x5
 5511 00e8 00       		.byte	0
 5512 00e9 49       		.uleb128 0x49
 5513 00ea 13       		.uleb128 0x13
 5514 00eb 00       		.byte	0
 5515 00ec 00       		.byte	0
 5516 00ed 16       		.uleb128 0x16
 5517 00ee 2E       		.uleb128 0x2e
 5518 00ef 00       		.byte	0
 5519 00f0 03       		.uleb128 0x3
 5520 00f1 0E       		.uleb128 0xe
 5521 00f2 3A       		.uleb128 0x3a
 5522 00f3 0B       		.uleb128 0xb
 5523 00f4 3B       		.uleb128 0x3b
 5524 00f5 0B       		.uleb128 0xb
 5525 00f6 49       		.uleb128 0x49
 5526 00f7 13       		.uleb128 0x13
 5527 00f8 11       		.uleb128 0x11
 5528 00f9 01       		.uleb128 0x1
 5529 00fa 12       		.uleb128 0x12
 5530 00fb 06       		.uleb128 0x6
 5531 00fc 40       		.uleb128 0x40
 5532 00fd 18       		.uleb128 0x18
 5533 00fe 9742     		.uleb128 0x2117
 5534 0100 19       		.uleb128 0x19
 5535 0101 00       		.byte	0
 5536 0102 00       		.byte	0
 5537 0103 17       		.uleb128 0x17
 5538 0104 2E       		.uleb128 0x2e
 5539 0105 01       		.byte	0x1
 5540 0106 03       		.uleb128 0x3
 5541 0107 0E       		.uleb128 0xe
 5542 0108 3A       		.uleb128 0x3a
 5543 0109 0B       		.uleb128 0xb
 5544 010a 3B       		.uleb128 0x3b
 5545 010b 0B       		.uleb128 0xb
 5546 010c 11       		.uleb128 0x11
 5547 010d 01       		.uleb128 0x1
 5548 010e 12       		.uleb128 0x12
ARM GAS  C:\Users\tslator\AppData\Local\Temp\ccc8OXeR.s 			page 120


 5549 010f 06       		.uleb128 0x6
 5550 0110 40       		.uleb128 0x40
 5551 0111 18       		.uleb128 0x18
 5552 0112 9742     		.uleb128 0x2117
 5553 0114 19       		.uleb128 0x19
 5554 0115 01       		.uleb128 0x1
 5555 0116 13       		.uleb128 0x13
 5556 0117 00       		.byte	0
 5557 0118 00       		.byte	0
 5558 0119 18       		.uleb128 0x18
 5559 011a 898201   		.uleb128 0x4109
 5560 011d 01       		.byte	0x1
 5561 011e 11       		.uleb128 0x11
 5562 011f 01       		.uleb128 0x1
 5563 0120 31       		.uleb128 0x31
 5564 0121 13       		.uleb128 0x13
 5565 0122 01       		.uleb128 0x1
 5566 0123 13       		.uleb128 0x13
 5567 0124 00       		.byte	0
 5568 0125 00       		.byte	0
 5569 0126 19       		.uleb128 0x19
 5570 0127 8A8201   		.uleb128 0x410a
 5571 012a 00       		.byte	0
 5572 012b 02       		.uleb128 0x2
 5573 012c 18       		.uleb128 0x18
 5574 012d 9142     		.uleb128 0x2111
 5575 012f 18       		.uleb128 0x18
 5576 0130 00       		.byte	0
 5577 0131 00       		.byte	0
 5578 0132 1A       		.uleb128 0x1a
 5579 0133 898201   		.uleb128 0x4109
 5580 0136 01       		.byte	0x1
 5581 0137 11       		.uleb128 0x11
 5582 0138 01       		.uleb128 0x1
 5583 0139 31       		.uleb128 0x31
 5584 013a 13       		.uleb128 0x13
 5585 013b 00       		.byte	0
 5586 013c 00       		.byte	0
 5587 013d 1B       		.uleb128 0x1b
 5588 013e 2E       		.uleb128 0x2e
 5589 013f 01       		.byte	0x1
 5590 0140 03       		.uleb128 0x3
 5591 0141 0E       		.uleb128 0xe
 5592 0142 3A       		.uleb128 0x3a
 5593 0143 0B       		.uleb128 0xb
 5594 0144 3B       		.uleb128 0x3b
 5595 0145 0B       		.uleb128 0xb
 5596 0146 27       		.uleb128 0x27
 5597 0147 19       		.uleb128 0x19
 5598 0148 11       		.uleb128 0x11
 5599 0149 01       		.uleb128 0x1
 5600 014a 12       		.uleb128 0x12
 5601 014b 06       		.uleb128 0x6
 5602 014c 40       		.uleb128 0x40
 5603 014d 18       		.uleb128 0x18
 5604 014e 9742     		.uleb128 0x2117
 5605 0150 19       		.uleb128 0x19
ARM GAS  C:\Users\tslator\AppData\Local\Temp\ccc8OXeR.s 			page 121


 5606 0151 01       		.uleb128 0x1
 5607 0152 13       		.uleb128 0x13
 5608 0153 00       		.byte	0
 5609 0154 00       		.byte	0
 5610 0155 1C       		.uleb128 0x1c
 5611 0156 05       		.uleb128 0x5
 5612 0157 00       		.byte	0
 5613 0158 03       		.uleb128 0x3
 5614 0159 0E       		.uleb128 0xe
 5615 015a 3A       		.uleb128 0x3a
 5616 015b 0B       		.uleb128 0xb
 5617 015c 3B       		.uleb128 0x3b
 5618 015d 0B       		.uleb128 0xb
 5619 015e 49       		.uleb128 0x49
 5620 015f 13       		.uleb128 0x13
 5621 0160 02       		.uleb128 0x2
 5622 0161 17       		.uleb128 0x17
 5623 0162 00       		.byte	0
 5624 0163 00       		.byte	0
 5625 0164 1D       		.uleb128 0x1d
 5626 0165 898201   		.uleb128 0x4109
 5627 0168 00       		.byte	0
 5628 0169 11       		.uleb128 0x11
 5629 016a 01       		.uleb128 0x1
 5630 016b 31       		.uleb128 0x31
 5631 016c 13       		.uleb128 0x13
 5632 016d 00       		.byte	0
 5633 016e 00       		.byte	0
 5634 016f 1E       		.uleb128 0x1e
 5635 0170 2E       		.uleb128 0x2e
 5636 0171 01       		.byte	0x1
 5637 0172 03       		.uleb128 0x3
 5638 0173 0E       		.uleb128 0xe
 5639 0174 3A       		.uleb128 0x3a
 5640 0175 0B       		.uleb128 0xb
 5641 0176 3B       		.uleb128 0x3b
 5642 0177 05       		.uleb128 0x5
 5643 0178 27       		.uleb128 0x27
 5644 0179 19       		.uleb128 0x19
 5645 017a 11       		.uleb128 0x11
 5646 017b 01       		.uleb128 0x1
 5647 017c 12       		.uleb128 0x12
 5648 017d 06       		.uleb128 0x6
 5649 017e 40       		.uleb128 0x40
 5650 017f 18       		.uleb128 0x18
 5651 0180 9742     		.uleb128 0x2117
 5652 0182 19       		.uleb128 0x19
 5653 0183 01       		.uleb128 0x1
 5654 0184 13       		.uleb128 0x13
 5655 0185 00       		.byte	0
 5656 0186 00       		.byte	0
 5657 0187 1F       		.uleb128 0x1f
 5658 0188 05       		.uleb128 0x5
 5659 0189 00       		.byte	0
 5660 018a 03       		.uleb128 0x3
 5661 018b 08       		.uleb128 0x8
 5662 018c 3A       		.uleb128 0x3a
ARM GAS  C:\Users\tslator\AppData\Local\Temp\ccc8OXeR.s 			page 122


 5663 018d 0B       		.uleb128 0xb
 5664 018e 3B       		.uleb128 0x3b
 5665 018f 05       		.uleb128 0x5
 5666 0190 49       		.uleb128 0x49
 5667 0191 13       		.uleb128 0x13
 5668 0192 02       		.uleb128 0x2
 5669 0193 17       		.uleb128 0x17
 5670 0194 00       		.byte	0
 5671 0195 00       		.byte	0
 5672 0196 20       		.uleb128 0x20
 5673 0197 34       		.uleb128 0x34
 5674 0198 00       		.byte	0
 5675 0199 03       		.uleb128 0x3
 5676 019a 0E       		.uleb128 0xe
 5677 019b 3A       		.uleb128 0x3a
 5678 019c 0B       		.uleb128 0xb
 5679 019d 3B       		.uleb128 0x3b
 5680 019e 05       		.uleb128 0x5
 5681 019f 49       		.uleb128 0x49
 5682 01a0 13       		.uleb128 0x13
 5683 01a1 02       		.uleb128 0x2
 5684 01a2 18       		.uleb128 0x18
 5685 01a3 00       		.byte	0
 5686 01a4 00       		.byte	0
 5687 01a5 21       		.uleb128 0x21
 5688 01a6 2E       		.uleb128 0x2e
 5689 01a7 01       		.byte	0x1
 5690 01a8 03       		.uleb128 0x3
 5691 01a9 0E       		.uleb128 0xe
 5692 01aa 3A       		.uleb128 0x3a
 5693 01ab 0B       		.uleb128 0xb
 5694 01ac 3B       		.uleb128 0x3b
 5695 01ad 05       		.uleb128 0x5
 5696 01ae 27       		.uleb128 0x27
 5697 01af 19       		.uleb128 0x19
 5698 01b0 11       		.uleb128 0x11
 5699 01b1 01       		.uleb128 0x1
 5700 01b2 12       		.uleb128 0x12
 5701 01b3 06       		.uleb128 0x6
 5702 01b4 40       		.uleb128 0x40
 5703 01b5 18       		.uleb128 0x18
 5704 01b6 9642     		.uleb128 0x2116
 5705 01b8 19       		.uleb128 0x19
 5706 01b9 01       		.uleb128 0x1
 5707 01ba 13       		.uleb128 0x13
 5708 01bb 00       		.byte	0
 5709 01bc 00       		.byte	0
 5710 01bd 22       		.uleb128 0x22
 5711 01be 34       		.uleb128 0x34
 5712 01bf 00       		.byte	0
 5713 01c0 03       		.uleb128 0x3
 5714 01c1 0E       		.uleb128 0xe
 5715 01c2 3A       		.uleb128 0x3a
 5716 01c3 0B       		.uleb128 0xb
 5717 01c4 3B       		.uleb128 0x3b
 5718 01c5 05       		.uleb128 0x5
 5719 01c6 49       		.uleb128 0x49
ARM GAS  C:\Users\tslator\AppData\Local\Temp\ccc8OXeR.s 			page 123


 5720 01c7 13       		.uleb128 0x13
 5721 01c8 02       		.uleb128 0x2
 5722 01c9 17       		.uleb128 0x17
 5723 01ca 00       		.byte	0
 5724 01cb 00       		.byte	0
 5725 01cc 23       		.uleb128 0x23
 5726 01cd 2E       		.uleb128 0x2e
 5727 01ce 01       		.byte	0x1
 5728 01cf 03       		.uleb128 0x3
 5729 01d0 0E       		.uleb128 0xe
 5730 01d1 3A       		.uleb128 0x3a
 5731 01d2 0B       		.uleb128 0xb
 5732 01d3 3B       		.uleb128 0x3b
 5733 01d4 0B       		.uleb128 0xb
 5734 01d5 49       		.uleb128 0x49
 5735 01d6 13       		.uleb128 0x13
 5736 01d7 11       		.uleb128 0x11
 5737 01d8 01       		.uleb128 0x1
 5738 01d9 12       		.uleb128 0x12
 5739 01da 06       		.uleb128 0x6
 5740 01db 40       		.uleb128 0x40
 5741 01dc 18       		.uleb128 0x18
 5742 01dd 9742     		.uleb128 0x2117
 5743 01df 19       		.uleb128 0x19
 5744 01e0 01       		.uleb128 0x1
 5745 01e1 13       		.uleb128 0x13
 5746 01e2 00       		.byte	0
 5747 01e3 00       		.byte	0
 5748 01e4 24       		.uleb128 0x24
 5749 01e5 34       		.uleb128 0x34
 5750 01e6 00       		.byte	0
 5751 01e7 03       		.uleb128 0x3
 5752 01e8 0E       		.uleb128 0xe
 5753 01e9 3A       		.uleb128 0x3a
 5754 01ea 0B       		.uleb128 0xb
 5755 01eb 3B       		.uleb128 0x3b
 5756 01ec 0B       		.uleb128 0xb
 5757 01ed 49       		.uleb128 0x49
 5758 01ee 13       		.uleb128 0x13
 5759 01ef 02       		.uleb128 0x2
 5760 01f0 17       		.uleb128 0x17
 5761 01f1 00       		.byte	0
 5762 01f2 00       		.byte	0
 5763 01f3 25       		.uleb128 0x25
 5764 01f4 2E       		.uleb128 0x2e
 5765 01f5 01       		.byte	0x1
 5766 01f6 03       		.uleb128 0x3
 5767 01f7 0E       		.uleb128 0xe
 5768 01f8 3A       		.uleb128 0x3a
 5769 01f9 0B       		.uleb128 0xb
 5770 01fa 3B       		.uleb128 0x3b
 5771 01fb 05       		.uleb128 0x5
 5772 01fc 27       		.uleb128 0x27
 5773 01fd 19       		.uleb128 0x19
 5774 01fe 49       		.uleb128 0x49
 5775 01ff 13       		.uleb128 0x13
 5776 0200 11       		.uleb128 0x11
ARM GAS  C:\Users\tslator\AppData\Local\Temp\ccc8OXeR.s 			page 124


 5777 0201 01       		.uleb128 0x1
 5778 0202 12       		.uleb128 0x12
 5779 0203 06       		.uleb128 0x6
 5780 0204 40       		.uleb128 0x40
 5781 0205 18       		.uleb128 0x18
 5782 0206 9742     		.uleb128 0x2117
 5783 0208 19       		.uleb128 0x19
 5784 0209 01       		.uleb128 0x1
 5785 020a 13       		.uleb128 0x13
 5786 020b 00       		.byte	0
 5787 020c 00       		.byte	0
 5788 020d 26       		.uleb128 0x26
 5789 020e 34       		.uleb128 0x34
 5790 020f 00       		.byte	0
 5791 0210 03       		.uleb128 0x3
 5792 0211 0E       		.uleb128 0xe
 5793 0212 3A       		.uleb128 0x3a
 5794 0213 0B       		.uleb128 0xb
 5795 0214 3B       		.uleb128 0x3b
 5796 0215 05       		.uleb128 0x5
 5797 0216 49       		.uleb128 0x49
 5798 0217 13       		.uleb128 0x13
 5799 0218 00       		.byte	0
 5800 0219 00       		.byte	0
 5801 021a 27       		.uleb128 0x27
 5802 021b 05       		.uleb128 0x5
 5803 021c 00       		.byte	0
 5804 021d 03       		.uleb128 0x3
 5805 021e 0E       		.uleb128 0xe
 5806 021f 3A       		.uleb128 0x3a
 5807 0220 0B       		.uleb128 0xb
 5808 0221 3B       		.uleb128 0x3b
 5809 0222 05       		.uleb128 0x5
 5810 0223 49       		.uleb128 0x49
 5811 0224 13       		.uleb128 0x13
 5812 0225 02       		.uleb128 0x2
 5813 0226 17       		.uleb128 0x17
 5814 0227 00       		.byte	0
 5815 0228 00       		.byte	0
 5816 0229 28       		.uleb128 0x28
 5817 022a 34       		.uleb128 0x34
 5818 022b 00       		.byte	0
 5819 022c 03       		.uleb128 0x3
 5820 022d 08       		.uleb128 0x8
 5821 022e 3A       		.uleb128 0x3a
 5822 022f 0B       		.uleb128 0xb
 5823 0230 3B       		.uleb128 0x3b
 5824 0231 05       		.uleb128 0x5
 5825 0232 49       		.uleb128 0x49
 5826 0233 13       		.uleb128 0x13
 5827 0234 02       		.uleb128 0x2
 5828 0235 17       		.uleb128 0x17
 5829 0236 00       		.byte	0
 5830 0237 00       		.byte	0
 5831 0238 29       		.uleb128 0x29
 5832 0239 2E       		.uleb128 0x2e
 5833 023a 01       		.byte	0x1
ARM GAS  C:\Users\tslator\AppData\Local\Temp\ccc8OXeR.s 			page 125


 5834 023b 3F       		.uleb128 0x3f
 5835 023c 19       		.uleb128 0x19
 5836 023d 03       		.uleb128 0x3
 5837 023e 0E       		.uleb128 0xe
 5838 023f 3A       		.uleb128 0x3a
 5839 0240 0B       		.uleb128 0xb
 5840 0241 3B       		.uleb128 0x3b
 5841 0242 0B       		.uleb128 0xb
 5842 0243 27       		.uleb128 0x27
 5843 0244 19       		.uleb128 0x19
 5844 0245 11       		.uleb128 0x11
 5845 0246 01       		.uleb128 0x1
 5846 0247 12       		.uleb128 0x12
 5847 0248 06       		.uleb128 0x6
 5848 0249 40       		.uleb128 0x40
 5849 024a 18       		.uleb128 0x18
 5850 024b 9742     		.uleb128 0x2117
 5851 024d 19       		.uleb128 0x19
 5852 024e 01       		.uleb128 0x1
 5853 024f 13       		.uleb128 0x13
 5854 0250 00       		.byte	0
 5855 0251 00       		.byte	0
 5856 0252 2A       		.uleb128 0x2a
 5857 0253 05       		.uleb128 0x5
 5858 0254 00       		.byte	0
 5859 0255 03       		.uleb128 0x3
 5860 0256 08       		.uleb128 0x8
 5861 0257 3A       		.uleb128 0x3a
 5862 0258 0B       		.uleb128 0xb
 5863 0259 3B       		.uleb128 0x3b
 5864 025a 0B       		.uleb128 0xb
 5865 025b 49       		.uleb128 0x49
 5866 025c 13       		.uleb128 0x13
 5867 025d 02       		.uleb128 0x2
 5868 025e 17       		.uleb128 0x17
 5869 025f 00       		.byte	0
 5870 0260 00       		.byte	0
 5871 0261 2B       		.uleb128 0x2b
 5872 0262 34       		.uleb128 0x34
 5873 0263 00       		.byte	0
 5874 0264 03       		.uleb128 0x3
 5875 0265 08       		.uleb128 0x8
 5876 0266 3A       		.uleb128 0x3a
 5877 0267 0B       		.uleb128 0xb
 5878 0268 3B       		.uleb128 0x3b
 5879 0269 0B       		.uleb128 0xb
 5880 026a 49       		.uleb128 0x49
 5881 026b 13       		.uleb128 0x13
 5882 026c 02       		.uleb128 0x2
 5883 026d 17       		.uleb128 0x17
 5884 026e 00       		.byte	0
 5885 026f 00       		.byte	0
 5886 0270 2C       		.uleb128 0x2c
 5887 0271 34       		.uleb128 0x34
 5888 0272 00       		.byte	0
 5889 0273 03       		.uleb128 0x3
 5890 0274 0E       		.uleb128 0xe
ARM GAS  C:\Users\tslator\AppData\Local\Temp\ccc8OXeR.s 			page 126


 5891 0275 3A       		.uleb128 0x3a
 5892 0276 0B       		.uleb128 0xb
 5893 0277 3B       		.uleb128 0x3b
 5894 0278 0B       		.uleb128 0xb
 5895 0279 49       		.uleb128 0x49
 5896 027a 13       		.uleb128 0x13
 5897 027b 02       		.uleb128 0x2
 5898 027c 18       		.uleb128 0x18
 5899 027d 00       		.byte	0
 5900 027e 00       		.byte	0
 5901 027f 2D       		.uleb128 0x2d
 5902 0280 2E       		.uleb128 0x2e
 5903 0281 01       		.byte	0x1
 5904 0282 3F       		.uleb128 0x3f
 5905 0283 19       		.uleb128 0x19
 5906 0284 03       		.uleb128 0x3
 5907 0285 0E       		.uleb128 0xe
 5908 0286 3A       		.uleb128 0x3a
 5909 0287 0B       		.uleb128 0xb
 5910 0288 3B       		.uleb128 0x3b
 5911 0289 05       		.uleb128 0x5
 5912 028a 11       		.uleb128 0x11
 5913 028b 01       		.uleb128 0x1
 5914 028c 12       		.uleb128 0x12
 5915 028d 06       		.uleb128 0x6
 5916 028e 40       		.uleb128 0x40
 5917 028f 18       		.uleb128 0x18
 5918 0290 9742     		.uleb128 0x2117
 5919 0292 19       		.uleb128 0x19
 5920 0293 01       		.uleb128 0x1
 5921 0294 13       		.uleb128 0x13
 5922 0295 00       		.byte	0
 5923 0296 00       		.byte	0
 5924 0297 2E       		.uleb128 0x2e
 5925 0298 2E       		.uleb128 0x2e
 5926 0299 01       		.byte	0x1
 5927 029a 3F       		.uleb128 0x3f
 5928 029b 19       		.uleb128 0x19
 5929 029c 03       		.uleb128 0x3
 5930 029d 0E       		.uleb128 0xe
 5931 029e 3A       		.uleb128 0x3a
 5932 029f 0B       		.uleb128 0xb
 5933 02a0 3B       		.uleb128 0x3b
 5934 02a1 05       		.uleb128 0x5
 5935 02a2 49       		.uleb128 0x49
 5936 02a3 13       		.uleb128 0x13
 5937 02a4 11       		.uleb128 0x11
 5938 02a5 01       		.uleb128 0x1
 5939 02a6 12       		.uleb128 0x12
 5940 02a7 06       		.uleb128 0x6
 5941 02a8 40       		.uleb128 0x40
 5942 02a9 18       		.uleb128 0x18
 5943 02aa 9642     		.uleb128 0x2116
 5944 02ac 19       		.uleb128 0x19
 5945 02ad 01       		.uleb128 0x1
 5946 02ae 13       		.uleb128 0x13
 5947 02af 00       		.byte	0
ARM GAS  C:\Users\tslator\AppData\Local\Temp\ccc8OXeR.s 			page 127


 5948 02b0 00       		.byte	0
 5949 02b1 2F       		.uleb128 0x2f
 5950 02b2 2E       		.uleb128 0x2e
 5951 02b3 01       		.byte	0x1
 5952 02b4 3F       		.uleb128 0x3f
 5953 02b5 19       		.uleb128 0x19
 5954 02b6 03       		.uleb128 0x3
 5955 02b7 0E       		.uleb128 0xe
 5956 02b8 3A       		.uleb128 0x3a
 5957 02b9 0B       		.uleb128 0xb
 5958 02ba 3B       		.uleb128 0x3b
 5959 02bb 05       		.uleb128 0x5
 5960 02bc 27       		.uleb128 0x27
 5961 02bd 19       		.uleb128 0x19
 5962 02be 11       		.uleb128 0x11
 5963 02bf 01       		.uleb128 0x1
 5964 02c0 12       		.uleb128 0x12
 5965 02c1 06       		.uleb128 0x6
 5966 02c2 40       		.uleb128 0x40
 5967 02c3 18       		.uleb128 0x18
 5968 02c4 9742     		.uleb128 0x2117
 5969 02c6 19       		.uleb128 0x19
 5970 02c7 01       		.uleb128 0x1
 5971 02c8 13       		.uleb128 0x13
 5972 02c9 00       		.byte	0
 5973 02ca 00       		.byte	0
 5974 02cb 30       		.uleb128 0x30
 5975 02cc 05       		.uleb128 0x5
 5976 02cd 00       		.byte	0
 5977 02ce 03       		.uleb128 0x3
 5978 02cf 0E       		.uleb128 0xe
 5979 02d0 3A       		.uleb128 0x3a
 5980 02d1 0B       		.uleb128 0xb
 5981 02d2 3B       		.uleb128 0x3b
 5982 02d3 05       		.uleb128 0x5
 5983 02d4 49       		.uleb128 0x49
 5984 02d5 13       		.uleb128 0x13
 5985 02d6 02       		.uleb128 0x2
 5986 02d7 18       		.uleb128 0x18
 5987 02d8 00       		.byte	0
 5988 02d9 00       		.byte	0
 5989 02da 31       		.uleb128 0x31
 5990 02db 2E       		.uleb128 0x2e
 5991 02dc 00       		.byte	0
 5992 02dd 3F       		.uleb128 0x3f
 5993 02de 19       		.uleb128 0x19
 5994 02df 03       		.uleb128 0x3
 5995 02e0 0E       		.uleb128 0xe
 5996 02e1 3A       		.uleb128 0x3a
 5997 02e2 0B       		.uleb128 0xb
 5998 02e3 3B       		.uleb128 0x3b
 5999 02e4 05       		.uleb128 0x5
 6000 02e5 49       		.uleb128 0x49
 6001 02e6 13       		.uleb128 0x13
 6002 02e7 11       		.uleb128 0x11
 6003 02e8 01       		.uleb128 0x1
 6004 02e9 12       		.uleb128 0x12
ARM GAS  C:\Users\tslator\AppData\Local\Temp\ccc8OXeR.s 			page 128


 6005 02ea 06       		.uleb128 0x6
 6006 02eb 40       		.uleb128 0x40
 6007 02ec 18       		.uleb128 0x18
 6008 02ed 9742     		.uleb128 0x2117
 6009 02ef 19       		.uleb128 0x19
 6010 02f0 00       		.byte	0
 6011 02f1 00       		.byte	0
 6012 02f2 32       		.uleb128 0x32
 6013 02f3 2E       		.uleb128 0x2e
 6014 02f4 01       		.byte	0x1
 6015 02f5 3F       		.uleb128 0x3f
 6016 02f6 19       		.uleb128 0x19
 6017 02f7 03       		.uleb128 0x3
 6018 02f8 0E       		.uleb128 0xe
 6019 02f9 3A       		.uleb128 0x3a
 6020 02fa 0B       		.uleb128 0xb
 6021 02fb 3B       		.uleb128 0x3b
 6022 02fc 05       		.uleb128 0x5
 6023 02fd 27       		.uleb128 0x27
 6024 02fe 19       		.uleb128 0x19
 6025 02ff 49       		.uleb128 0x49
 6026 0300 13       		.uleb128 0x13
 6027 0301 11       		.uleb128 0x11
 6028 0302 01       		.uleb128 0x1
 6029 0303 12       		.uleb128 0x12
 6030 0304 06       		.uleb128 0x6
 6031 0305 40       		.uleb128 0x40
 6032 0306 18       		.uleb128 0x18
 6033 0307 9642     		.uleb128 0x2116
 6034 0309 19       		.uleb128 0x19
 6035 030a 01       		.uleb128 0x1
 6036 030b 13       		.uleb128 0x13
 6037 030c 00       		.byte	0
 6038 030d 00       		.byte	0
 6039 030e 33       		.uleb128 0x33
 6040 030f 0B       		.uleb128 0xb
 6041 0310 01       		.byte	0x1
 6042 0311 11       		.uleb128 0x11
 6043 0312 01       		.uleb128 0x1
 6044 0313 12       		.uleb128 0x12
 6045 0314 06       		.uleb128 0x6
 6046 0315 01       		.uleb128 0x1
 6047 0316 13       		.uleb128 0x13
 6048 0317 00       		.byte	0
 6049 0318 00       		.byte	0
 6050 0319 34       		.uleb128 0x34
 6051 031a 34       		.uleb128 0x34
 6052 031b 00       		.byte	0
 6053 031c 03       		.uleb128 0x3
 6054 031d 0E       		.uleb128 0xe
 6055 031e 3A       		.uleb128 0x3a
 6056 031f 0B       		.uleb128 0xb
 6057 0320 3B       		.uleb128 0x3b
 6058 0321 05       		.uleb128 0x5
 6059 0322 49       		.uleb128 0x49
 6060 0323 13       		.uleb128 0x13
 6061 0324 3F       		.uleb128 0x3f
ARM GAS  C:\Users\tslator\AppData\Local\Temp\ccc8OXeR.s 			page 129


 6062 0325 19       		.uleb128 0x19
 6063 0326 3C       		.uleb128 0x3c
 6064 0327 19       		.uleb128 0x19
 6065 0328 00       		.byte	0
 6066 0329 00       		.byte	0
 6067 032a 35       		.uleb128 0x35
 6068 032b 35       		.uleb128 0x35
 6069 032c 00       		.byte	0
 6070 032d 49       		.uleb128 0x49
 6071 032e 13       		.uleb128 0x13
 6072 032f 00       		.byte	0
 6073 0330 00       		.byte	0
 6074 0331 36       		.uleb128 0x36
 6075 0332 34       		.uleb128 0x34
 6076 0333 00       		.byte	0
 6077 0334 03       		.uleb128 0x3
 6078 0335 0E       		.uleb128 0xe
 6079 0336 3A       		.uleb128 0x3a
 6080 0337 0B       		.uleb128 0xb
 6081 0338 3B       		.uleb128 0x3b
 6082 0339 0B       		.uleb128 0xb
 6083 033a 49       		.uleb128 0x49
 6084 033b 13       		.uleb128 0x13
 6085 033c 3F       		.uleb128 0x3f
 6086 033d 19       		.uleb128 0x19
 6087 033e 02       		.uleb128 0x2
 6088 033f 18       		.uleb128 0x18
 6089 0340 00       		.byte	0
 6090 0341 00       		.byte	0
 6091 0342 37       		.uleb128 0x37
 6092 0343 2E       		.uleb128 0x2e
 6093 0344 01       		.byte	0x1
 6094 0345 3F       		.uleb128 0x3f
 6095 0346 19       		.uleb128 0x19
 6096 0347 03       		.uleb128 0x3
 6097 0348 0E       		.uleb128 0xe
 6098 0349 3A       		.uleb128 0x3a
 6099 034a 0B       		.uleb128 0xb
 6100 034b 3B       		.uleb128 0x3b
 6101 034c 0B       		.uleb128 0xb
 6102 034d 27       		.uleb128 0x27
 6103 034e 19       		.uleb128 0x19
 6104 034f 3C       		.uleb128 0x3c
 6105 0350 19       		.uleb128 0x19
 6106 0351 01       		.uleb128 0x1
 6107 0352 13       		.uleb128 0x13
 6108 0353 00       		.byte	0
 6109 0354 00       		.byte	0
 6110 0355 38       		.uleb128 0x38
 6111 0356 2E       		.uleb128 0x2e
 6112 0357 01       		.byte	0x1
 6113 0358 3F       		.uleb128 0x3f
 6114 0359 19       		.uleb128 0x19
 6115 035a 03       		.uleb128 0x3
 6116 035b 0E       		.uleb128 0xe
 6117 035c 3A       		.uleb128 0x3a
 6118 035d 0B       		.uleb128 0xb
ARM GAS  C:\Users\tslator\AppData\Local\Temp\ccc8OXeR.s 			page 130


 6119 035e 3B       		.uleb128 0x3b
 6120 035f 0B       		.uleb128 0xb
 6121 0360 27       		.uleb128 0x27
 6122 0361 19       		.uleb128 0x19
 6123 0362 49       		.uleb128 0x49
 6124 0363 13       		.uleb128 0x13
 6125 0364 3C       		.uleb128 0x3c
 6126 0365 19       		.uleb128 0x19
 6127 0366 01       		.uleb128 0x1
 6128 0367 13       		.uleb128 0x13
 6129 0368 00       		.byte	0
 6130 0369 00       		.byte	0
 6131 036a 39       		.uleb128 0x39
 6132 036b 2E       		.uleb128 0x2e
 6133 036c 01       		.byte	0x1
 6134 036d 3F       		.uleb128 0x3f
 6135 036e 19       		.uleb128 0x19
 6136 036f 03       		.uleb128 0x3
 6137 0370 0E       		.uleb128 0xe
 6138 0371 3A       		.uleb128 0x3a
 6139 0372 0B       		.uleb128 0xb
 6140 0373 3B       		.uleb128 0x3b
 6141 0374 0B       		.uleb128 0xb
 6142 0375 49       		.uleb128 0x49
 6143 0376 13       		.uleb128 0x13
 6144 0377 3C       		.uleb128 0x3c
 6145 0378 19       		.uleb128 0x19
 6146 0379 01       		.uleb128 0x1
 6147 037a 13       		.uleb128 0x13
 6148 037b 00       		.byte	0
 6149 037c 00       		.byte	0
 6150 037d 3A       		.uleb128 0x3a
 6151 037e 2E       		.uleb128 0x2e
 6152 037f 01       		.byte	0x1
 6153 0380 3F       		.uleb128 0x3f
 6154 0381 19       		.uleb128 0x19
 6155 0382 03       		.uleb128 0x3
 6156 0383 0E       		.uleb128 0xe
 6157 0384 3A       		.uleb128 0x3a
 6158 0385 0B       		.uleb128 0xb
 6159 0386 3B       		.uleb128 0x3b
 6160 0387 0B       		.uleb128 0xb
 6161 0388 3C       		.uleb128 0x3c
 6162 0389 19       		.uleb128 0x19
 6163 038a 01       		.uleb128 0x1
 6164 038b 13       		.uleb128 0x13
 6165 038c 00       		.byte	0
 6166 038d 00       		.byte	0
 6167 038e 3B       		.uleb128 0x3b
 6168 038f 2E       		.uleb128 0x2e
 6169 0390 01       		.byte	0x1
 6170 0391 3F       		.uleb128 0x3f
 6171 0392 19       		.uleb128 0x19
 6172 0393 03       		.uleb128 0x3
 6173 0394 0E       		.uleb128 0xe
 6174 0395 3A       		.uleb128 0x3a
 6175 0396 0B       		.uleb128 0xb
ARM GAS  C:\Users\tslator\AppData\Local\Temp\ccc8OXeR.s 			page 131


 6176 0397 3B       		.uleb128 0x3b
 6177 0398 0B       		.uleb128 0xb
 6178 0399 27       		.uleb128 0x27
 6179 039a 19       		.uleb128 0x19
 6180 039b 49       		.uleb128 0x49
 6181 039c 13       		.uleb128 0x13
 6182 039d 3C       		.uleb128 0x3c
 6183 039e 19       		.uleb128 0x19
 6184 039f 00       		.byte	0
 6185 03a0 00       		.byte	0
 6186 03a1 00       		.byte	0
 6187              		.section	.debug_loc,"",%progbits
 6188              	.Ldebug_loc0:
 6189              	.LLST0:
 6190 0000 00000000 		.4byte	.LVL23
 6191 0004 0D000000 		.4byte	.LVL24-1
 6192 0008 0100     		.2byte	0x1
 6193 000a 50       		.byte	0x50
 6194 000b 0D000000 		.4byte	.LVL24-1
 6195 000f 10000000 		.4byte	.LVL25
 6196 0013 0400     		.2byte	0x4
 6197 0015 F3       		.byte	0xf3
 6198 0016 01       		.uleb128 0x1
 6199 0017 50       		.byte	0x50
 6200 0018 9F       		.byte	0x9f
 6201 0019 10000000 		.4byte	.LVL25
 6202 001d 17000000 		.4byte	.LVL26-1
 6203 0021 0100     		.2byte	0x1
 6204 0023 50       		.byte	0x50
 6205 0024 17000000 		.4byte	.LVL26-1
 6206 0028 20000000 		.4byte	.LFE71
 6207 002c 0400     		.2byte	0x4
 6208 002e F3       		.byte	0xf3
 6209 002f 01       		.uleb128 0x1
 6210 0030 50       		.byte	0x50
 6211 0031 9F       		.byte	0x9f
 6212 0032 00000000 		.4byte	0
 6213 0036 00000000 		.4byte	0
 6214              	.LLST1:
 6215 003a 00000000 		.4byte	.LVL37
 6216 003e 10000000 		.4byte	.LVL38
 6217 0042 0100     		.2byte	0x1
 6218 0044 50       		.byte	0x50
 6219 0045 10000000 		.4byte	.LVL38
 6220 0049 30000000 		.4byte	.LFE78
 6221 004d 0400     		.2byte	0x4
 6222 004f F3       		.byte	0xf3
 6223 0050 01       		.uleb128 0x1
 6224 0051 50       		.byte	0x50
 6225 0052 9F       		.byte	0x9f
 6226 0053 00000000 		.4byte	0
 6227 0057 00000000 		.4byte	0
 6228              	.LLST2:
 6229 005b 00000000 		.4byte	.LVL41
 6230 005f 18000000 		.4byte	.LVL42
 6231 0063 0100     		.2byte	0x1
 6232 0065 50       		.byte	0x50
ARM GAS  C:\Users\tslator\AppData\Local\Temp\ccc8OXeR.s 			page 132


 6233 0066 18000000 		.4byte	.LVL42
 6234 006a 2C000000 		.4byte	.LVL47
 6235 006e 0100     		.2byte	0x1
 6236 0070 54       		.byte	0x54
 6237 0071 2C000000 		.4byte	.LVL47
 6238 0075 30000000 		.4byte	.LVL48
 6239 0079 0100     		.2byte	0x1
 6240 007b 50       		.byte	0x50
 6241 007c 30000000 		.4byte	.LVL48
 6242 0080 44000000 		.4byte	.LVL53
 6243 0084 0100     		.2byte	0x1
 6244 0086 54       		.byte	0x54
 6245 0087 44000000 		.4byte	.LVL53
 6246 008b 48000000 		.4byte	.LVL54
 6247 008f 0100     		.2byte	0x1
 6248 0091 50       		.byte	0x50
 6249 0092 48000000 		.4byte	.LVL54
 6250 0096 60000000 		.4byte	.LVL59
 6251 009a 0100     		.2byte	0x1
 6252 009c 54       		.byte	0x54
 6253 009d 60000000 		.4byte	.LVL59
 6254 00a1 64000000 		.4byte	.LVL60
 6255 00a5 0100     		.2byte	0x1
 6256 00a7 50       		.byte	0x50
 6257 00a8 64000000 		.4byte	.LVL60
 6258 00ac 78000000 		.4byte	.LVL65
 6259 00b0 0100     		.2byte	0x1
 6260 00b2 54       		.byte	0x54
 6261 00b3 78000000 		.4byte	.LVL65
 6262 00b7 7C000000 		.4byte	.LVL66
 6263 00bb 0100     		.2byte	0x1
 6264 00bd 50       		.byte	0x50
 6265 00be 7C000000 		.4byte	.LVL66
 6266 00c2 90000000 		.4byte	.LVL71
 6267 00c6 0100     		.2byte	0x1
 6268 00c8 54       		.byte	0x54
 6269 00c9 90000000 		.4byte	.LVL71
 6270 00cd 9A000000 		.4byte	.LVL72
 6271 00d1 0100     		.2byte	0x1
 6272 00d3 50       		.byte	0x50
 6273 00d4 9A000000 		.4byte	.LVL72
 6274 00d8 A0000000 		.4byte	.LVL74
 6275 00dc 0100     		.2byte	0x1
 6276 00de 54       		.byte	0x54
 6277 00df A0000000 		.4byte	.LVL74
 6278 00e3 A4000000 		.4byte	.LFE79
 6279 00e7 0400     		.2byte	0x4
 6280 00e9 F3       		.byte	0xf3
 6281 00ea 01       		.uleb128 0x1
 6282 00eb 50       		.byte	0x50
 6283 00ec 9F       		.byte	0x9f
 6284 00ed 00000000 		.4byte	0
 6285 00f1 00000000 		.4byte	0
 6286              	.LLST3:
 6287 00f5 1C000000 		.4byte	.LVL43
 6288 00f9 26000000 		.4byte	.LVL45
 6289 00fd 0100     		.2byte	0x1
ARM GAS  C:\Users\tslator\AppData\Local\Temp\ccc8OXeR.s 			page 133


 6290 00ff 50       		.byte	0x50
 6291 0100 34000000 		.4byte	.LVL49
 6292 0104 3E000000 		.4byte	.LVL51
 6293 0108 0100     		.2byte	0x1
 6294 010a 50       		.byte	0x50
 6295 010b 4C000000 		.4byte	.LVL55
 6296 010f 5A000000 		.4byte	.LVL57
 6297 0113 0100     		.2byte	0x1
 6298 0115 50       		.byte	0x50
 6299 0116 68000000 		.4byte	.LVL61
 6300 011a 72000000 		.4byte	.LVL63
 6301 011e 0100     		.2byte	0x1
 6302 0120 50       		.byte	0x50
 6303 0121 80000000 		.4byte	.LVL67
 6304 0125 8A000000 		.4byte	.LVL69
 6305 0129 0100     		.2byte	0x1
 6306 012b 50       		.byte	0x50
 6307 012c 00000000 		.4byte	0
 6308 0130 00000000 		.4byte	0
 6309              	.LLST4:
 6310 0134 06000000 		.4byte	.LVL77
 6311 0138 48000000 		.4byte	.LVL78
 6312 013c 0100     		.2byte	0x1
 6313 013e 50       		.byte	0x50
 6314 013f 48000000 		.4byte	.LVL78
 6315 0143 4C000000 		.4byte	.LVL79
 6316 0147 0300     		.2byte	0x3
 6317 0149 08       		.byte	0x8
 6318 014a 76       		.byte	0x76
 6319 014b 9F       		.byte	0x9f
 6320 014c 4C000000 		.4byte	.LVL79
 6321 0150 50000000 		.4byte	.LVL80
 6322 0154 0300     		.2byte	0x3
 6323 0156 08       		.byte	0x8
 6324 0157 73       		.byte	0x73
 6325 0158 9F       		.byte	0x9f
 6326 0159 50000000 		.4byte	.LVL80
 6327 015d 54000000 		.4byte	.LVL81
 6328 0161 0300     		.2byte	0x3
 6329 0163 08       		.byte	0x8
 6330 0164 78       		.byte	0x78
 6331 0165 9F       		.byte	0x9f
 6332 0166 54000000 		.4byte	.LVL81
 6333 016a 58000000 		.4byte	.LFE75
 6334 016e 0100     		.2byte	0x1
 6335 0170 50       		.byte	0x50
 6336 0171 00000000 		.4byte	0
 6337 0175 00000000 		.4byte	0
 6338              	.LLST5:
 6339 0179 00000000 		.4byte	.LVL83
 6340 017d 11000000 		.4byte	.LVL84-1
 6341 0181 0100     		.2byte	0x1
 6342 0183 50       		.byte	0x50
 6343 0184 11000000 		.4byte	.LVL84-1
 6344 0188 1E000000 		.4byte	.LVL85
 6345 018c 0400     		.2byte	0x4
 6346 018e F3       		.byte	0xf3
ARM GAS  C:\Users\tslator\AppData\Local\Temp\ccc8OXeR.s 			page 134


 6347 018f 01       		.uleb128 0x1
 6348 0190 50       		.byte	0x50
 6349 0191 9F       		.byte	0x9f
 6350 0192 1E000000 		.4byte	.LVL85
 6351 0196 21000000 		.4byte	.LVL86-1
 6352 019a 0100     		.2byte	0x1
 6353 019c 50       		.byte	0x50
 6354 019d 21000000 		.4byte	.LVL86-1
 6355 01a1 2E000000 		.4byte	.LVL87
 6356 01a5 0400     		.2byte	0x4
 6357 01a7 F3       		.byte	0xf3
 6358 01a8 01       		.uleb128 0x1
 6359 01a9 50       		.byte	0x50
 6360 01aa 9F       		.byte	0x9f
 6361 01ab 2E000000 		.4byte	.LVL87
 6362 01af 31000000 		.4byte	.LVL88-1
 6363 01b3 0100     		.2byte	0x1
 6364 01b5 50       		.byte	0x50
 6365 01b6 31000000 		.4byte	.LVL88-1
 6366 01ba 3E000000 		.4byte	.LVL89
 6367 01be 0400     		.2byte	0x4
 6368 01c0 F3       		.byte	0xf3
 6369 01c1 01       		.uleb128 0x1
 6370 01c2 50       		.byte	0x50
 6371 01c3 9F       		.byte	0x9f
 6372 01c4 3E000000 		.4byte	.LVL89
 6373 01c8 40000000 		.4byte	.LVL90
 6374 01cc 0100     		.2byte	0x1
 6375 01ce 50       		.byte	0x50
 6376 01cf 40000000 		.4byte	.LVL90
 6377 01d3 50000000 		.4byte	.LFE76
 6378 01d7 0400     		.2byte	0x4
 6379 01d9 F3       		.byte	0xf3
 6380 01da 01       		.uleb128 0x1
 6381 01db 50       		.byte	0x50
 6382 01dc 9F       		.byte	0x9f
 6383 01dd 00000000 		.4byte	0
 6384 01e1 00000000 		.4byte	0
 6385              	.LLST6:
 6386 01e5 00000000 		.4byte	.LVL91
 6387 01e9 1B000000 		.4byte	.LVL92-1
 6388 01ed 0100     		.2byte	0x1
 6389 01ef 50       		.byte	0x50
 6390 01f0 1B000000 		.4byte	.LVL92-1
 6391 01f4 34000000 		.4byte	.LVL94
 6392 01f8 0400     		.2byte	0x4
 6393 01fa F3       		.byte	0xf3
 6394 01fb 01       		.uleb128 0x1
 6395 01fc 50       		.byte	0x50
 6396 01fd 9F       		.byte	0x9f
 6397 01fe 34000000 		.4byte	.LVL94
 6398 0202 37000000 		.4byte	.LVL95-1
 6399 0206 0100     		.2byte	0x1
 6400 0208 50       		.byte	0x50
 6401 0209 37000000 		.4byte	.LVL95-1
 6402 020d 50000000 		.4byte	.LVL97
 6403 0211 0400     		.2byte	0x4
ARM GAS  C:\Users\tslator\AppData\Local\Temp\ccc8OXeR.s 			page 135


 6404 0213 F3       		.byte	0xf3
 6405 0214 01       		.uleb128 0x1
 6406 0215 50       		.byte	0x50
 6407 0216 9F       		.byte	0x9f
 6408 0217 50000000 		.4byte	.LVL97
 6409 021b 53000000 		.4byte	.LVL98-1
 6410 021f 0100     		.2byte	0x1
 6411 0221 50       		.byte	0x50
 6412 0222 53000000 		.4byte	.LVL98-1
 6413 0226 70000000 		.4byte	.LVL100
 6414 022a 0400     		.2byte	0x4
 6415 022c F3       		.byte	0xf3
 6416 022d 01       		.uleb128 0x1
 6417 022e 50       		.byte	0x50
 6418 022f 9F       		.byte	0x9f
 6419 0230 70000000 		.4byte	.LVL100
 6420 0234 73000000 		.4byte	.LVL101-1
 6421 0238 0100     		.2byte	0x1
 6422 023a 50       		.byte	0x50
 6423 023b 73000000 		.4byte	.LVL101-1
 6424 023f 90000000 		.4byte	.LVL103
 6425 0243 0400     		.2byte	0x4
 6426 0245 F3       		.byte	0xf3
 6427 0246 01       		.uleb128 0x1
 6428 0247 50       		.byte	0x50
 6429 0248 9F       		.byte	0x9f
 6430 0249 90000000 		.4byte	.LVL103
 6431 024d 93000000 		.4byte	.LVL104-1
 6432 0251 0100     		.2byte	0x1
 6433 0253 50       		.byte	0x50
 6434 0254 93000000 		.4byte	.LVL104-1
 6435 0258 B0000000 		.4byte	.LVL106
 6436 025c 0400     		.2byte	0x4
 6437 025e F3       		.byte	0xf3
 6438 025f 01       		.uleb128 0x1
 6439 0260 50       		.byte	0x50
 6440 0261 9F       		.byte	0x9f
 6441 0262 B0000000 		.4byte	.LVL106
 6442 0266 B3000000 		.4byte	.LVL107-1
 6443 026a 0100     		.2byte	0x1
 6444 026c 50       		.byte	0x50
 6445 026d B3000000 		.4byte	.LVL107-1
 6446 0271 D0000000 		.4byte	.LVL109
 6447 0275 0400     		.2byte	0x4
 6448 0277 F3       		.byte	0xf3
 6449 0278 01       		.uleb128 0x1
 6450 0279 50       		.byte	0x50
 6451 027a 9F       		.byte	0x9f
 6452 027b D0000000 		.4byte	.LVL109
 6453 027f D3000000 		.4byte	.LVL110-1
 6454 0283 0100     		.2byte	0x1
 6455 0285 50       		.byte	0x50
 6456 0286 D3000000 		.4byte	.LVL110-1
 6457 028a F2000000 		.4byte	.LVL112
 6458 028e 0400     		.2byte	0x4
 6459 0290 F3       		.byte	0xf3
 6460 0291 01       		.uleb128 0x1
ARM GAS  C:\Users\tslator\AppData\Local\Temp\ccc8OXeR.s 			page 136


 6461 0292 50       		.byte	0x50
 6462 0293 9F       		.byte	0x9f
 6463 0294 F2000000 		.4byte	.LVL112
 6464 0298 F5000000 		.4byte	.LVL113-1
 6465 029c 0100     		.2byte	0x1
 6466 029e 50       		.byte	0x50
 6467 029f F5000000 		.4byte	.LVL113-1
 6468 02a3 14010000 		.4byte	.LVL115
 6469 02a7 0400     		.2byte	0x4
 6470 02a9 F3       		.byte	0xf3
 6471 02aa 01       		.uleb128 0x1
 6472 02ab 50       		.byte	0x50
 6473 02ac 9F       		.byte	0x9f
 6474 02ad 14010000 		.4byte	.LVL115
 6475 02b1 16010000 		.4byte	.LVL116
 6476 02b5 0100     		.2byte	0x1
 6477 02b7 50       		.byte	0x50
 6478 02b8 16010000 		.4byte	.LVL116
 6479 02bc 48010000 		.4byte	.LFE77
 6480 02c0 0400     		.2byte	0x4
 6481 02c2 F3       		.byte	0xf3
 6482 02c3 01       		.uleb128 0x1
 6483 02c4 50       		.byte	0x50
 6484 02c5 9F       		.byte	0x9f
 6485 02c6 00000000 		.4byte	0
 6486 02ca 00000000 		.4byte	0
 6487              	.LLST7:
 6488 02ce 00000000 		.4byte	.LVL117
 6489 02d2 27000000 		.4byte	.LVL122-1
 6490 02d6 0100     		.2byte	0x1
 6491 02d8 50       		.byte	0x50
 6492 02d9 27000000 		.4byte	.LVL122-1
 6493 02dd 6A000000 		.4byte	.LVL128
 6494 02e1 0100     		.2byte	0x1
 6495 02e3 55       		.byte	0x55
 6496 02e4 6A000000 		.4byte	.LVL128
 6497 02e8 6E000000 		.4byte	.LVL129
 6498 02ec 0100     		.2byte	0x1
 6499 02ee 50       		.byte	0x50
 6500 02ef 6E000000 		.4byte	.LVL129
 6501 02f3 72000000 		.4byte	.LFE89
 6502 02f7 0400     		.2byte	0x4
 6503 02f9 F3       		.byte	0xf3
 6504 02fa 01       		.uleb128 0x1
 6505 02fb 50       		.byte	0x50
 6506 02fc 9F       		.byte	0x9f
 6507 02fd 00000000 		.4byte	0
 6508 0301 00000000 		.4byte	0
 6509              	.LLST8:
 6510 0305 00000000 		.4byte	.LVL117
 6511 0309 08000000 		.4byte	.LVL119
 6512 030d 0100     		.2byte	0x1
 6513 030f 51       		.byte	0x51
 6514 0310 08000000 		.4byte	.LVL119
 6515 0314 72000000 		.4byte	.LFE89
 6516 0318 0100     		.2byte	0x1
 6517 031a 54       		.byte	0x54
ARM GAS  C:\Users\tslator\AppData\Local\Temp\ccc8OXeR.s 			page 137


 6518 031b 00000000 		.4byte	0
 6519 031f 00000000 		.4byte	0
 6520              	.LLST9:
 6521 0323 00000000 		.4byte	.LVL117
 6522 0327 1A000000 		.4byte	.LVL120
 6523 032b 0100     		.2byte	0x1
 6524 032d 52       		.byte	0x52
 6525 032e 1A000000 		.4byte	.LVL120
 6526 0332 6A000000 		.4byte	.LVL128
 6527 0336 0100     		.2byte	0x1
 6528 0338 56       		.byte	0x56
 6529 0339 6A000000 		.4byte	.LVL128
 6530 033d 6E000000 		.4byte	.LVL129
 6531 0341 0100     		.2byte	0x1
 6532 0343 52       		.byte	0x52
 6533 0344 6E000000 		.4byte	.LVL129
 6534 0348 72000000 		.4byte	.LFE89
 6535 034c 0400     		.2byte	0x4
 6536 034e F3       		.byte	0xf3
 6537 034f 01       		.uleb128 0x1
 6538 0350 52       		.byte	0x52
 6539 0351 9F       		.byte	0x9f
 6540 0352 00000000 		.4byte	0
 6541 0356 00000000 		.4byte	0
 6542              	.LLST10:
 6543 035a 00000000 		.4byte	.LVL117
 6544 035e 24000000 		.4byte	.LVL121
 6545 0362 0100     		.2byte	0x1
 6546 0364 53       		.byte	0x53
 6547 0365 24000000 		.4byte	.LVL121
 6548 0369 6A000000 		.4byte	.LVL128
 6549 036d 0400     		.2byte	0x4
 6550 036f F3       		.byte	0xf3
 6551 0370 01       		.uleb128 0x1
 6552 0371 53       		.byte	0x53
 6553 0372 9F       		.byte	0x9f
 6554 0373 6A000000 		.4byte	.LVL128
 6555 0377 6E000000 		.4byte	.LVL129
 6556 037b 0100     		.2byte	0x1
 6557 037d 53       		.byte	0x53
 6558 037e 6E000000 		.4byte	.LVL129
 6559 0382 72000000 		.4byte	.LFE89
 6560 0386 0400     		.2byte	0x4
 6561 0388 F3       		.byte	0xf3
 6562 0389 01       		.uleb128 0x1
 6563 038a 53       		.byte	0x53
 6564 038b 9F       		.byte	0x9f
 6565 038c 00000000 		.4byte	0
 6566 0390 00000000 		.4byte	0
 6567              	.LLST11:
 6568 0394 06000000 		.4byte	.LVL118
 6569 0398 4A000000 		.4byte	.LVL124
 6570 039c 0400     		.2byte	0x4
 6571 039e 0A       		.byte	0xa
 6572 039f DC05     		.2byte	0x5dc
 6573 03a1 9F       		.byte	0x9f
 6574 03a2 4A000000 		.4byte	.LVL124
ARM GAS  C:\Users\tslator\AppData\Local\Temp\ccc8OXeR.s 			page 138


 6575 03a6 62000000 		.4byte	.LVL125
 6576 03aa 0100     		.2byte	0x1
 6577 03ac 50       		.byte	0x50
 6578 03ad 64000000 		.4byte	.LVL126
 6579 03b1 68000000 		.4byte	.LVL127
 6580 03b5 0100     		.2byte	0x1
 6581 03b7 50       		.byte	0x50
 6582 03b8 6A000000 		.4byte	.LVL128
 6583 03bc 6E000000 		.4byte	.LVL129
 6584 03c0 0400     		.2byte	0x4
 6585 03c2 0A       		.byte	0xa
 6586 03c3 DC05     		.2byte	0x5dc
 6587 03c5 9F       		.byte	0x9f
 6588 03c6 00000000 		.4byte	0
 6589 03ca 00000000 		.4byte	0
 6590              	.LLST12:
 6591 03ce 00000000 		.4byte	.LVL130
 6592 03d2 0A000000 		.4byte	.LVL131
 6593 03d6 0100     		.2byte	0x1
 6594 03d8 50       		.byte	0x50
 6595 03d9 0A000000 		.4byte	.LVL131
 6596 03dd 2C000000 		.4byte	.LFE65
 6597 03e1 0400     		.2byte	0x4
 6598 03e3 F3       		.byte	0xf3
 6599 03e4 01       		.uleb128 0x1
 6600 03e5 50       		.byte	0x50
 6601 03e6 9F       		.byte	0x9f
 6602 03e7 00000000 		.4byte	0
 6603 03eb 00000000 		.4byte	0
 6604              	.LLST13:
 6605 03ef 14000000 		.4byte	.LVL132
 6606 03f3 1D000000 		.4byte	.LVL133-1
 6607 03f7 0100     		.2byte	0x1
 6608 03f9 50       		.byte	0x50
 6609 03fa 00000000 		.4byte	0
 6610 03fe 00000000 		.4byte	0
 6611              	.LLST14:
 6612 0402 00000000 		.4byte	.LVL135
 6613 0406 0A000000 		.4byte	.LVL136
 6614 040a 0100     		.2byte	0x1
 6615 040c 50       		.byte	0x50
 6616 040d 0A000000 		.4byte	.LVL136
 6617 0411 24000000 		.4byte	.LFE66
 6618 0415 0400     		.2byte	0x4
 6619 0417 F3       		.byte	0xf3
 6620 0418 01       		.uleb128 0x1
 6621 0419 50       		.byte	0x50
 6622 041a 9F       		.byte	0x9f
 6623 041b 00000000 		.4byte	0
 6624 041f 00000000 		.4byte	0
 6625              	.LLST15:
 6626 0423 0C000000 		.4byte	.LVL137
 6627 0427 12000000 		.4byte	.LVL138
 6628 042b 0600     		.2byte	0x6
 6629 042d 70       		.byte	0x70
 6630 042e 00       		.sleb128 0
 6631 042f 74       		.byte	0x74
ARM GAS  C:\Users\tslator\AppData\Local\Temp\ccc8OXeR.s 			page 139


 6632 0430 00       		.sleb128 0
 6633 0431 21       		.byte	0x21
 6634 0432 9F       		.byte	0x9f
 6635 0433 00000000 		.4byte	0
 6636 0437 00000000 		.4byte	0
 6637              	.LLST16:
 6638 043b 00000000 		.4byte	.LVL141
 6639 043f 0C000000 		.4byte	.LVL142
 6640 0443 0100     		.2byte	0x1
 6641 0445 50       		.byte	0x50
 6642 0446 0C000000 		.4byte	.LVL142
 6643 044a 13000000 		.4byte	.LVL145-1
 6644 044e 0100     		.2byte	0x1
 6645 0450 53       		.byte	0x53
 6646 0451 13000000 		.4byte	.LVL145-1
 6647 0455 64000000 		.4byte	.LFE67
 6648 0459 0400     		.2byte	0x4
 6649 045b F3       		.byte	0xf3
 6650 045c 01       		.uleb128 0x1
 6651 045d 50       		.byte	0x50
 6652 045e 9F       		.byte	0x9f
 6653 045f 00000000 		.4byte	0
 6654 0463 00000000 		.4byte	0
 6655              	.LLST17:
 6656 0467 00000000 		.4byte	.LVL141
 6657 046b 0E000000 		.4byte	.LVL143
 6658 046f 0100     		.2byte	0x1
 6659 0471 51       		.byte	0x51
 6660 0472 0E000000 		.4byte	.LVL143
 6661 0476 56000000 		.4byte	.LVL154
 6662 047a 0100     		.2byte	0x1
 6663 047c 56       		.byte	0x56
 6664 047d 56000000 		.4byte	.LVL154
 6665 0481 64000000 		.4byte	.LFE67
 6666 0485 0400     		.2byte	0x4
 6667 0487 F3       		.byte	0xf3
 6668 0488 01       		.uleb128 0x1
 6669 0489 51       		.byte	0x51
 6670 048a 9F       		.byte	0x9f
 6671 048b 00000000 		.4byte	0
 6672 048f 00000000 		.4byte	0
 6673              	.LLST18:
 6674 0493 00000000 		.4byte	.LVL141
 6675 0497 10000000 		.4byte	.LVL144
 6676 049b 0100     		.2byte	0x1
 6677 049d 52       		.byte	0x52
 6678 049e 10000000 		.4byte	.LVL144
 6679 04a2 56000000 		.4byte	.LVL154
 6680 04a6 0100     		.2byte	0x1
 6681 04a8 55       		.byte	0x55
 6682 04a9 56000000 		.4byte	.LVL154
 6683 04ad 64000000 		.4byte	.LFE67
 6684 04b1 0400     		.2byte	0x4
 6685 04b3 F3       		.byte	0xf3
 6686 04b4 01       		.uleb128 0x1
 6687 04b5 52       		.byte	0x52
 6688 04b6 9F       		.byte	0x9f
ARM GAS  C:\Users\tslator\AppData\Local\Temp\ccc8OXeR.s 			page 140


 6689 04b7 00000000 		.4byte	0
 6690 04bb 00000000 		.4byte	0
 6691              	.LLST19:
 6692 04bf 1A000000 		.4byte	.LVL146
 6693 04c3 1E000000 		.4byte	.LVL147
 6694 04c7 0200     		.2byte	0x2
 6695 04c9 30       		.byte	0x30
 6696 04ca 9F       		.byte	0x9f
 6697 04cb 1E000000 		.4byte	.LVL147
 6698 04cf 36000000 		.4byte	.LVL150
 6699 04d3 0100     		.2byte	0x1
 6700 04d5 54       		.byte	0x54
 6701 04d6 38000000 		.4byte	.LVL151
 6702 04da 56000000 		.4byte	.LVL154
 6703 04de 0100     		.2byte	0x1
 6704 04e0 54       		.byte	0x54
 6705 04e1 00000000 		.4byte	0
 6706 04e5 00000000 		.4byte	0
 6707              	.LLST20:
 6708 04e9 00000000 		.4byte	.LVL155
 6709 04ed 0A000000 		.4byte	.LVL156
 6710 04f1 0100     		.2byte	0x1
 6711 04f3 50       		.byte	0x50
 6712 04f4 0A000000 		.4byte	.LVL156
 6713 04f8 44000000 		.4byte	.LVL163
 6714 04fc 0100     		.2byte	0x1
 6715 04fe 57       		.byte	0x57
 6716 04ff 44000000 		.4byte	.LVL163
 6717 0503 48000000 		.4byte	.LFE68
 6718 0507 0400     		.2byte	0x4
 6719 0509 F3       		.byte	0xf3
 6720 050a 01       		.uleb128 0x1
 6721 050b 50       		.byte	0x50
 6722 050c 9F       		.byte	0x9f
 6723 050d 00000000 		.4byte	0
 6724 0511 00000000 		.4byte	0
 6725              	.LLST21:
 6726 0515 00000000 		.4byte	.LVL155
 6727 0519 0C000000 		.4byte	.LVL157
 6728 051d 0100     		.2byte	0x1
 6729 051f 51       		.byte	0x51
 6730 0520 0C000000 		.4byte	.LVL157
 6731 0524 44000000 		.4byte	.LVL163
 6732 0528 0100     		.2byte	0x1
 6733 052a 54       		.byte	0x54
 6734 052b 44000000 		.4byte	.LVL163
 6735 052f 48000000 		.4byte	.LFE68
 6736 0533 0400     		.2byte	0x4
 6737 0535 F3       		.byte	0xf3
 6738 0536 01       		.uleb128 0x1
 6739 0537 51       		.byte	0x51
 6740 0538 9F       		.byte	0x9f
 6741 0539 00000000 		.4byte	0
 6742 053d 00000000 		.4byte	0
 6743              	.LLST22:
 6744 0541 00000000 		.4byte	.LVL164
 6745 0545 15000000 		.4byte	.LVL165-1
ARM GAS  C:\Users\tslator\AppData\Local\Temp\ccc8OXeR.s 			page 141


 6746 0549 0100     		.2byte	0x1
 6747 054b 50       		.byte	0x50
 6748 054c 15000000 		.4byte	.LVL165-1
 6749 0550 52000000 		.4byte	.LVL172
 6750 0554 0400     		.2byte	0x4
 6751 0556 F3       		.byte	0xf3
 6752 0557 01       		.uleb128 0x1
 6753 0558 50       		.byte	0x50
 6754 0559 9F       		.byte	0x9f
 6755 055a 52000000 		.4byte	.LVL172
 6756 055e 55000000 		.4byte	.LVL173-1
 6757 0562 0100     		.2byte	0x1
 6758 0564 50       		.byte	0x50
 6759 0565 55000000 		.4byte	.LVL173-1
 6760 0569 92000000 		.4byte	.LVL180
 6761 056d 0400     		.2byte	0x4
 6762 056f F3       		.byte	0xf3
 6763 0570 01       		.uleb128 0x1
 6764 0571 50       		.byte	0x50
 6765 0572 9F       		.byte	0x9f
 6766 0573 92000000 		.4byte	.LVL180
 6767 0577 95000000 		.4byte	.LVL181-1
 6768 057b 0100     		.2byte	0x1
 6769 057d 50       		.byte	0x50
 6770 057e 95000000 		.4byte	.LVL181-1
 6771 0582 BE000000 		.4byte	.LVL187
 6772 0586 0400     		.2byte	0x4
 6773 0588 F3       		.byte	0xf3
 6774 0589 01       		.uleb128 0x1
 6775 058a 50       		.byte	0x50
 6776 058b 9F       		.byte	0x9f
 6777 058c BE000000 		.4byte	.LVL187
 6778 0590 C1000000 		.4byte	.LVL188-1
 6779 0594 0100     		.2byte	0x1
 6780 0596 50       		.byte	0x50
 6781 0597 C1000000 		.4byte	.LVL188-1
 6782 059b 04010000 		.4byte	.LFE74
 6783 059f 0400     		.2byte	0x4
 6784 05a1 F3       		.byte	0xf3
 6785 05a2 01       		.uleb128 0x1
 6786 05a3 50       		.byte	0x50
 6787 05a4 9F       		.byte	0x9f
 6788 05a5 00000000 		.4byte	0
 6789 05a9 00000000 		.4byte	0
 6790              	.LLST23:
 6791 05ad 08000000 		.4byte	.LVL195
 6792 05b1 0D000000 		.4byte	.LVL196-1
 6793 05b5 0100     		.2byte	0x1
 6794 05b7 50       		.byte	0x50
 6795 05b8 00000000 		.4byte	0
 6796 05bc 00000000 		.4byte	0
 6797              	.LLST24:
 6798 05c0 08000000 		.4byte	.LVL198
 6799 05c4 29000000 		.4byte	.LVL199-1
 6800 05c8 0100     		.2byte	0x1
 6801 05ca 50       		.byte	0x50
 6802 05cb 32000000 		.4byte	.LVL200
ARM GAS  C:\Users\tslator\AppData\Local\Temp\ccc8OXeR.s 			page 142


 6803 05cf 35000000 		.4byte	.LVL201-1
 6804 05d3 0100     		.2byte	0x1
 6805 05d5 50       		.byte	0x50
 6806 05d6 3E000000 		.4byte	.LVL202
 6807 05da 41000000 		.4byte	.LVL203-1
 6808 05de 0100     		.2byte	0x1
 6809 05e0 50       		.byte	0x50
 6810 05e1 4A000000 		.4byte	.LVL204
 6811 05e5 53000000 		.4byte	.LVL205-1
 6812 05e9 0100     		.2byte	0x1
 6813 05eb 50       		.byte	0x50
 6814 05ec 78000000 		.4byte	.LVL208
 6815 05f0 81000000 		.4byte	.LVL209-1
 6816 05f4 0100     		.2byte	0x1
 6817 05f6 50       		.byte	0x50
 6818 05f7 A6000000 		.4byte	.LVL212
 6819 05fb A9000000 		.4byte	.LVL213-1
 6820 05ff 0100     		.2byte	0x1
 6821 0601 50       		.byte	0x50
 6822 0602 B6000000 		.4byte	.LVL214
 6823 0606 B9000000 		.4byte	.LVL215-1
 6824 060a 0100     		.2byte	0x1
 6825 060c 50       		.byte	0x50
 6826 060d C8000000 		.4byte	.LVL217
 6827 0611 CE000000 		.4byte	.LVL218
 6828 0615 0100     		.2byte	0x1
 6829 0617 50       		.byte	0x50
 6830 0618 00000000 		.4byte	0
 6831 061c 00000000 		.4byte	0
 6832              	.LLST25:
 6833 0620 04000000 		.4byte	.LVL219
 6834 0624 06000000 		.4byte	.LVL220
 6835 0628 0200     		.2byte	0x2
 6836 062a 30       		.byte	0x30
 6837 062b 9F       		.byte	0x9f
 6838 062c 06000000 		.4byte	.LVL220
 6839 0630 2C000000 		.4byte	.LVL225
 6840 0634 0100     		.2byte	0x1
 6841 0636 54       		.byte	0x54
 6842 0637 2E000000 		.4byte	.LVL226
 6843 063b 46000000 		.4byte	.LFE83
 6844 063f 0100     		.2byte	0x1
 6845 0641 54       		.byte	0x54
 6846 0642 00000000 		.4byte	0
 6847 0646 00000000 		.4byte	0
 6848              	.LLST26:
 6849 064a 00000000 		.4byte	.LVL232
 6850 064e 18000000 		.4byte	.LVL234
 6851 0652 0100     		.2byte	0x1
 6852 0654 50       		.byte	0x50
 6853 0655 18000000 		.4byte	.LVL234
 6854 0659 6C000000 		.4byte	.LVL244
 6855 065d 0400     		.2byte	0x4
 6856 065f F3       		.byte	0xf3
 6857 0660 01       		.uleb128 0x1
 6858 0661 50       		.byte	0x50
 6859 0662 9F       		.byte	0x9f
ARM GAS  C:\Users\tslator\AppData\Local\Temp\ccc8OXeR.s 			page 143


 6860 0663 6C000000 		.4byte	.LVL244
 6861 0667 6E000000 		.4byte	.LVL245
 6862 066b 0100     		.2byte	0x1
 6863 066d 50       		.byte	0x50
 6864 066e 6E000000 		.4byte	.LVL245
 6865 0672 84000000 		.4byte	.LFE90
 6866 0676 0400     		.2byte	0x4
 6867 0678 F3       		.byte	0xf3
 6868 0679 01       		.uleb128 0x1
 6869 067a 50       		.byte	0x50
 6870 067b 9F       		.byte	0x9f
 6871 067c 00000000 		.4byte	0
 6872 0680 00000000 		.4byte	0
 6873              	.LLST27:
 6874 0684 00000000 		.4byte	.LVL232
 6875 0688 1A000000 		.4byte	.LVL235
 6876 068c 0100     		.2byte	0x1
 6877 068e 51       		.byte	0x51
 6878 068f 1A000000 		.4byte	.LVL235
 6879 0693 1D000000 		.4byte	.LVL236-1
 6880 0697 0100     		.2byte	0x1
 6881 0699 50       		.byte	0x50
 6882 069a 1D000000 		.4byte	.LVL236-1
 6883 069e 58000000 		.4byte	.LVL241
 6884 06a2 0100     		.2byte	0x1
 6885 06a4 55       		.byte	0x55
 6886 06a5 58000000 		.4byte	.LVL241
 6887 06a9 5B000000 		.4byte	.LVL242-1
 6888 06ad 0100     		.2byte	0x1
 6889 06af 50       		.byte	0x50
 6890 06b0 6C000000 		.4byte	.LVL244
 6891 06b4 71000000 		.4byte	.LVL246-1
 6892 06b8 0100     		.2byte	0x1
 6893 06ba 51       		.byte	0x51
 6894 06bb 71000000 		.4byte	.LVL246-1
 6895 06bf 84000000 		.4byte	.LFE90
 6896 06c3 0600     		.2byte	0x6
 6897 06c5 F3       		.byte	0xf3
 6898 06c6 03       		.uleb128 0x3
 6899 06c7 F5       		.byte	0xf5
 6900 06c8 01       		.uleb128 0x1
 6901 06c9 25       		.uleb128 0x25
 6902 06ca 9F       		.byte	0x9f
 6903 06cb 00000000 		.4byte	0
 6904 06cf 00000000 		.4byte	0
 6905              	.LLST28:
 6906 06d3 02000000 		.4byte	.LVL233
 6907 06d7 6A000000 		.4byte	.LVL243
 6908 06db 0400     		.2byte	0x4
 6909 06dd 0A       		.byte	0xa
 6910 06de DC05     		.2byte	0x5dc
 6911 06e0 9F       		.byte	0x9f
 6912 06e1 6A000000 		.4byte	.LVL243
 6913 06e5 6C000000 		.4byte	.LVL244
 6914 06e9 0100     		.2byte	0x1
 6915 06eb 50       		.byte	0x50
 6916 06ec 6C000000 		.4byte	.LVL244
ARM GAS  C:\Users\tslator\AppData\Local\Temp\ccc8OXeR.s 			page 144


 6917 06f0 76000000 		.4byte	.LVL247
 6918 06f4 0400     		.2byte	0x4
 6919 06f6 0A       		.byte	0xa
 6920 06f7 DC05     		.2byte	0x5dc
 6921 06f9 9F       		.byte	0x9f
 6922 06fa 76000000 		.4byte	.LVL247
 6923 06fe 84000000 		.4byte	.LFE90
 6924 0702 0100     		.2byte	0x1
 6925 0704 50       		.byte	0x50
 6926 0705 00000000 		.4byte	0
 6927 0709 00000000 		.4byte	0
 6928              	.LLST29:
 6929 070d 34000000 		.4byte	.LVL237
 6930 0711 6C000000 		.4byte	.LVL244
 6931 0715 0100     		.2byte	0x1
 6932 0717 54       		.byte	0x54
 6933 0718 00000000 		.4byte	0
 6934 071c 00000000 		.4byte	0
 6935              		.section	.debug_aranges,"",%progbits
 6936 0000 FC000000 		.4byte	0xfc
 6937 0004 0200     		.2byte	0x2
 6938 0006 00000000 		.4byte	.Ldebug_info0
 6939 000a 04       		.byte	0x4
 6940 000b 00       		.byte	0
 6941 000c 0000     		.2byte	0
 6942 000e 0000     		.2byte	0
 6943 0010 00000000 		.4byte	.LFB63
 6944 0014 0C000000 		.4byte	.LFE63-.LFB63
 6945 0018 00000000 		.4byte	.LFB64
 6946 001c 0C000000 		.4byte	.LFE64-.LFB64
 6947 0020 00000000 		.4byte	.LFB69
 6948 0024 5C000000 		.4byte	.LFE69-.LFB69
 6949 0028 00000000 		.4byte	.LFB70
 6950 002c 90000000 		.4byte	.LFE70-.LFB70
 6951 0030 00000000 		.4byte	.LFB71
 6952 0034 20000000 		.4byte	.LFE71-.LFB71
 6953 0038 00000000 		.4byte	.LFB72
 6954 003c 68000000 		.4byte	.LFE72-.LFB72
 6955 0040 00000000 		.4byte	.LFB78
 6956 0044 30000000 		.4byte	.LFE78-.LFB78
 6957 0048 00000000 		.4byte	.LFB79
 6958 004c A4000000 		.4byte	.LFE79-.LFB79
 6959 0050 00000000 		.4byte	.LFB73
 6960 0054 18000000 		.4byte	.LFE73-.LFB73
 6961 0058 00000000 		.4byte	.LFB75
 6962 005c 58000000 		.4byte	.LFE75-.LFB75
 6963 0060 00000000 		.4byte	.LFB76
 6964 0064 50000000 		.4byte	.LFE76-.LFB76
 6965 0068 00000000 		.4byte	.LFB77
 6966 006c 48010000 		.4byte	.LFE77-.LFB77
 6967 0070 00000000 		.4byte	.LFB89
 6968 0074 72000000 		.4byte	.LFE89-.LFB89
 6969 0078 00000000 		.4byte	.LFB65
 6970 007c 2C000000 		.4byte	.LFE65-.LFB65
 6971 0080 00000000 		.4byte	.LFB66
 6972 0084 24000000 		.4byte	.LFE66-.LFB66
 6973 0088 00000000 		.4byte	.LFB67
ARM GAS  C:\Users\tslator\AppData\Local\Temp\ccc8OXeR.s 			page 145


 6974 008c 64000000 		.4byte	.LFE67-.LFB67
 6975 0090 00000000 		.4byte	.LFB68
 6976 0094 48000000 		.4byte	.LFE68-.LFB68
 6977 0098 00000000 		.4byte	.LFB74
 6978 009c 04010000 		.4byte	.LFE74-.LFB74
 6979 00a0 00000000 		.4byte	.LFB80
 6980 00a4 3C000000 		.4byte	.LFE80-.LFB80
 6981 00a8 00000000 		.4byte	.LFB81
 6982 00ac 14000000 		.4byte	.LFE81-.LFB81
 6983 00b0 00000000 		.4byte	.LFB82
 6984 00b4 D4000000 		.4byte	.LFE82-.LFB82
 6985 00b8 00000000 		.4byte	.LFB83
 6986 00bc 46000000 		.4byte	.LFE83-.LFB83
 6987 00c0 00000000 		.4byte	.LFB84
 6988 00c4 18000000 		.4byte	.LFE84-.LFB84
 6989 00c8 00000000 		.4byte	.LFB85
 6990 00cc 18000000 		.4byte	.LFE85-.LFB85
 6991 00d0 00000000 		.4byte	.LFB86
 6992 00d4 0C000000 		.4byte	.LFE86-.LFB86
 6993 00d8 00000000 		.4byte	.LFB87
 6994 00dc 0C000000 		.4byte	.LFE87-.LFB87
 6995 00e0 00000000 		.4byte	.LFB88
 6996 00e4 0C000000 		.4byte	.LFE88-.LFB88
 6997 00e8 00000000 		.4byte	.LFB90
 6998 00ec 84000000 		.4byte	.LFE90-.LFB90
 6999 00f0 00000000 		.4byte	.LFB91
 7000 00f4 10000000 		.4byte	.LFE91-.LFB91
 7001 00f8 00000000 		.4byte	0
 7002 00fc 00000000 		.4byte	0
 7003              		.section	.debug_ranges,"",%progbits
 7004              	.Ldebug_ranges0:
 7005 0000 00000000 		.4byte	.LFB63
 7006 0004 0C000000 		.4byte	.LFE63
 7007 0008 00000000 		.4byte	.LFB64
 7008 000c 0C000000 		.4byte	.LFE64
 7009 0010 00000000 		.4byte	.LFB69
 7010 0014 5C000000 		.4byte	.LFE69
 7011 0018 00000000 		.4byte	.LFB70
 7012 001c 90000000 		.4byte	.LFE70
 7013 0020 00000000 		.4byte	.LFB71
 7014 0024 20000000 		.4byte	.LFE71
 7015 0028 00000000 		.4byte	.LFB72
 7016 002c 68000000 		.4byte	.LFE72
 7017 0030 00000000 		.4byte	.LFB78
 7018 0034 30000000 		.4byte	.LFE78
 7019 0038 00000000 		.4byte	.LFB79
 7020 003c A4000000 		.4byte	.LFE79
 7021 0040 00000000 		.4byte	.LFB73
 7022 0044 18000000 		.4byte	.LFE73
 7023 0048 00000000 		.4byte	.LFB75
 7024 004c 58000000 		.4byte	.LFE75
 7025 0050 00000000 		.4byte	.LFB76
 7026 0054 50000000 		.4byte	.LFE76
 7027 0058 00000000 		.4byte	.LFB77
 7028 005c 48010000 		.4byte	.LFE77
 7029 0060 00000000 		.4byte	.LFB89
 7030 0064 72000000 		.4byte	.LFE89
ARM GAS  C:\Users\tslator\AppData\Local\Temp\ccc8OXeR.s 			page 146


 7031 0068 00000000 		.4byte	.LFB65
 7032 006c 2C000000 		.4byte	.LFE65
 7033 0070 00000000 		.4byte	.LFB66
 7034 0074 24000000 		.4byte	.LFE66
 7035 0078 00000000 		.4byte	.LFB67
 7036 007c 64000000 		.4byte	.LFE67
 7037 0080 00000000 		.4byte	.LFB68
 7038 0084 48000000 		.4byte	.LFE68
 7039 0088 00000000 		.4byte	.LFB74
 7040 008c 04010000 		.4byte	.LFE74
 7041 0090 00000000 		.4byte	.LFB80
 7042 0094 3C000000 		.4byte	.LFE80
 7043 0098 00000000 		.4byte	.LFB81
 7044 009c 14000000 		.4byte	.LFE81
 7045 00a0 00000000 		.4byte	.LFB82
 7046 00a4 D4000000 		.4byte	.LFE82
 7047 00a8 00000000 		.4byte	.LFB83
 7048 00ac 46000000 		.4byte	.LFE83
 7049 00b0 00000000 		.4byte	.LFB84
 7050 00b4 18000000 		.4byte	.LFE84
 7051 00b8 00000000 		.4byte	.LFB85
 7052 00bc 18000000 		.4byte	.LFE85
 7053 00c0 00000000 		.4byte	.LFB86
 7054 00c4 0C000000 		.4byte	.LFE86
 7055 00c8 00000000 		.4byte	.LFB87
 7056 00cc 0C000000 		.4byte	.LFE87
 7057 00d0 00000000 		.4byte	.LFB88
 7058 00d4 0C000000 		.4byte	.LFE88
 7059 00d8 00000000 		.4byte	.LFB90
 7060 00dc 84000000 		.4byte	.LFE90
 7061 00e0 00000000 		.4byte	.LFB91
 7062 00e4 10000000 		.4byte	.LFE91
 7063 00e8 00000000 		.4byte	0
 7064 00ec 00000000 		.4byte	0
 7065              		.section	.debug_line,"",%progbits
 7066              	.Ldebug_line0:
 7067 0000 17050000 		.section	.debug_str,"MS",%progbits,1
 7067      02000102 
 7067      00000201 
 7067      FB0E0D00 
 7067      01010101 
 7068              	.LASF125:
 7069 0000 69676169 		.ascii	"igain_str\000"
 7069      6E5F7374 
 7069      7200
 7070              	.LASF95:
 7071 000a 52696768 		.ascii	"RightTarget\000"
 7071      74546172 
 7071      67657400 
 7072              	.LASF82:
 7073 0016 64697265 		.ascii	"direction\000"
 7073      6374696F 
 7073      6E00
 7074              	.LASF160:
 7075 0020 43616C50 		.ascii	"CalPid_LeftCalibration\000"
 7075      69645F4C 
 7075      65667443 
ARM GAS  C:\Users\tslator\AppData\Local\Temp\ccc8OXeR.s 			page 147


 7075      616C6962 
 7075      72617469 
 7076              	.LASF23:
 7077 0037 57484545 		.ascii	"WHEEL_BOTH\000"
 7077      4C5F424F 
 7077      544800
 7078              	.LASF124:
 7079 0042 70676169 		.ascii	"pgain_str\000"
 7079      6E5F7374 
 7079      7200
 7080              	.LASF100:
 7081 004c 48616E64 		.ascii	"HandleError\000"
 7081      6C654572 
 7081      726F7200 
 7082              	.LASF69:
 7083 0058 70617261 		.ascii	"params\000"
 7083      6D7300
 7084              	.LASF62:
 7085 005f 53544152 		.ascii	"START_FUNC_TYPE\000"
 7085      545F4655 
 7085      4E435F54 
 7085      59504500 
 7086              	.LASF123:
 7087 006f 6F757470 		.ascii	"output\000"
 7087      757400
 7088              	.LASF113:
 7089 0076 436C6561 		.ascii	"ClearCalibrationStatusBit\000"
 7089      7243616C 
 7089      69627261 
 7089      74696F6E 
 7089      53746174 
 7090              	.LASF179:
 7091 0090 43616C50 		.ascii	"CalPid_Init\000"
 7091      69645F49 
 7091      6E697400 
 7092              	.LASF39:
 7093 009c 5F656570 		.ascii	"_eeprom_tag\000"
 7093      726F6D5F 
 7093      74616700 
 7094              	.LASF119:
 7095 00a8 62756666 		.ascii	"buffer\000"
 7095      657200
 7096              	.LASF152:
 7097 00af 63616C5F 		.ascii	"cal_stage_to_string\000"
 7097      73746167 
 7097      655F746F 
 7097      5F737472 
 7097      696E6700 
 7098              	.LASF54:
 7099 00c3 43414C5F 		.ascii	"CAL_STOP_STATE\000"
 7099      53544F50 
 7099      5F535441 
 7099      544500
 7100              	.LASF34:
 7101 00d2 43414C5F 		.ascii	"CAL_DATA_TYPE\000"
 7101      44415441 
 7101      5F545950 
ARM GAS  C:\Users\tslator\AppData\Local\Temp\ccc8OXeR.s 			page 148


 7101      4500
 7102              	.LASF9:
 7103 00e0 756E7369 		.ascii	"unsigned int\000"
 7103      676E6564 
 7103      20696E74 
 7103      00
 7104              	.LASF121:
 7105 00ed 43616C5F 		.ascii	"Cal_PrintGains\000"
 7105      5072696E 
 7105      74476169 
 7105      6E7300
 7106              	.LASF97:
 7107 00fc 44697370 		.ascii	"DisplayValMenu\000"
 7107      6C617956 
 7107      616C4D65 
 7107      6E7500
 7108              	.LASF137:
 7109 010b 43616C5F 		.ascii	"Cal_RightGetMotorCalData\000"
 7109      52696768 
 7109      74476574 
 7109      4D6F746F 
 7109      7243616C 
 7110              	.LASF131:
 7111 0124 43616C5F 		.ascii	"Cal_ReadResponse\000"
 7111      52656164 
 7111      52657370 
 7111      6F6E7365 
 7111      00
 7112              	.LASF84:
 7113 0135 43414C5F 		.ascii	"CAL_PID_PARAMS\000"
 7113      5049445F 
 7113      50415241 
 7113      4D5300
 7114              	.LASF24:
 7115 0144 57484545 		.ascii	"WHEEL_TYPE\000"
 7115      4C5F5459 
 7115      504500
 7116              	.LASF12:
 7117 014f 5F5F696E 		.ascii	"__int32_t\000"
 7117      7433325F 
 7117      7400
 7118              	.LASF17:
 7119 0159 696E7431 		.ascii	"int16\000"
 7119      3600
 7120              	.LASF48:
 7121 015f 72696768 		.ascii	"right_motor_fwd\000"
 7121      745F6D6F 
 7121      746F725F 
 7121      66776400 
 7122              	.LASF68:
 7123 016f 73746167 		.ascii	"stage\000"
 7123      6500
 7124              	.LASF22:
 7125 0175 57484545 		.ascii	"WHEEL_RIGHT\000"
 7125      4C5F5249 
 7125      47485400 
 7126              	.LASF92:
ARM GAS  C:\Users\tslator\AppData\Local\Temp\ccc8OXeR.s 			page 149


 7127 0181 55495F53 		.ascii	"UI_STATE_EXIT\000"
 7127      54415445 
 7127      5F455849 
 7127      5400
 7128              	.LASF53:
 7129 018f 43414C5F 		.ascii	"CAL_RUNNING_STATE\000"
 7129      52554E4E 
 7129      494E475F 
 7129      53544154 
 7129      4500
 7130              	.LASF43:
 7131 01a1 6C656674 		.ascii	"left_gains\000"
 7131      5F676169 
 7131      6E7300
 7132              	.LASF163:
 7133 01ac 43616C50 		.ascii	"CalPid_RightValidation\000"
 7133      69645F52 
 7133      69676874 
 7133      56616C69 
 7133      64617469 
 7134              	.LASF136:
 7135 01c3 6277645F 		.ascii	"bwd_cal_data\000"
 7135      63616C5F 
 7135      64617461 
 7135      00
 7136              	.LASF101:
 7137 01d0 50726F63 		.ascii	"ProcessCalibration\000"
 7137      65737343 
 7137      616C6962 
 7137      72617469 
 7137      6F6E00
 7138              	.LASF72:
 7139 01e3 75706461 		.ascii	"update\000"
 7139      746500
 7140              	.LASF74:
 7141 01ea 72657375 		.ascii	"results\000"
 7141      6C747300 
 7142              	.LASF174:
 7143 01f2 4E767374 		.ascii	"Nvstore_WriteUint16\000"
 7143      6F72655F 
 7143      57726974 
 7143      6555696E 
 7143      74313600 
 7144              	.LASF143:
 7145 0206 77686565 		.ascii	"wheel\000"
 7145      6C00
 7146              	.LASF157:
 7147 020c 57484545 		.ascii	"WHEEL_DIR_TO_CAL_DATA\000"
 7147      4C5F4449 
 7147      525F544F 
 7147      5F43414C 
 7147      5F444154 
 7148              	.LASF61:
 7149 0222 494E4954 		.ascii	"INIT_FUNC_TYPE\000"
 7149      5F46554E 
 7149      435F5459 
 7149      504500
ARM GAS  C:\Users\tslator\AppData\Local\Temp\ccc8OXeR.s 			page 150


 7150              	.LASF25:
 7151 0231 4449525F 		.ascii	"DIR_FORWARD\000"
 7151      464F5257 
 7151      41524400 
 7152              	.LASF99:
 7153 023d 44697370 		.ascii	"DisplayMenu\000"
 7153      6C61794D 
 7153      656E7500 
 7154              	.LASF55:
 7155 0249 43414C5F 		.ascii	"CAL_RESULTS_STATE\000"
 7155      52455355 
 7155      4C54535F 
 7155      53544154 
 7155      4500
 7156              	.LASF147:
 7157 025b 61637469 		.ascii	"active_cal\000"
 7157      76655F63 
 7157      616C00
 7158              	.LASF26:
 7159 0266 4449525F 		.ascii	"DIR_BACKWARD\000"
 7159      4241434B 
 7159      57415244 
 7159      00
 7160              	.LASF73:
 7161 0273 73746F70 		.ascii	"stop\000"
 7161      00
 7162              	.LASF0:
 7163 0278 666C6F61 		.ascii	"float\000"
 7163      7400
 7164              	.LASF41:
 7165 027e 63686563 		.ascii	"checksum\000"
 7165      6B73756D 
 7165      00
 7166              	.LASF18:
 7167 0287 696E7433 		.ascii	"int32\000"
 7167      3200
 7168              	.LASF138:
 7169 028d 43616C5F 		.ascii	"Cal_LeftGetPidGains\000"
 7169      4C656674 
 7169      47657450 
 7169      69644761 
 7169      696E7300 
 7170              	.LASF133:
 7171 02a1 696E6465 		.ascii	"index\000"
 7171      7800
 7172              	.LASF65:
 7173 02a7 52455355 		.ascii	"RESULTS_FUNC_TYPE\000"
 7173      4C54535F 
 7173      46554E43 
 7173      5F545950 
 7173      4500
 7174              	.LASF103:
 7175 02b9 72657375 		.ascii	"result\000"
 7175      6C7400
 7176              	.LASF129:
 7177 02c0 43616C5F 		.ascii	"Cal_Start\000"
 7177      53746172 
ARM GAS  C:\Users\tslator\AppData\Local\Temp\ccc8OXeR.s 			page 151


 7177      7400
 7178              	.LASF8:
 7179 02ca 6C6F6E67 		.ascii	"long long unsigned int\000"
 7179      206C6F6E 
 7179      6720756E 
 7179      7369676E 
 7179      65642069 
 7180              	.LASF166:
 7181 02e1 666F726D 		.ascii	"formatted_string\000"
 7181      61747465 
 7181      645F7374 
 7181      72696E67 
 7181      00
 7182              	.LASF60:
 7183 02f2 43414C5F 		.ascii	"CAL_STAGE_TYPE\000"
 7183      53544147 
 7183      455F5459 
 7183      504500
 7184              	.LASF132:
 7185 0301 64696769 		.ascii	"digits\000"
 7185      747300
 7186              	.LASF144:
 7187 0308 705F6361 		.ascii	"p_cal_data\000"
 7187      6C5F6461 
 7187      746100
 7188              	.LASF32:
 7189 0313 70776D5F 		.ascii	"pwm_data\000"
 7189      64617461 
 7189      00
 7190              	.LASF31:
 7191 031c 6370735F 		.ascii	"cps_data\000"
 7191      64617461 
 7191      00
 7192              	.LASF111:
 7193 0325 6C6F7765 		.ascii	"lower\000"
 7193      7200
 7194              	.LASF106:
 7195 032b 76616C75 		.ascii	"value\000"
 7195      6500
 7196              	.LASF150:
 7197 0331 72696768 		.ascii	"right_cmd_velocity\000"
 7197      745F636D 
 7197      645F7665 
 7197      6C6F6369 
 7197      747900
 7198              	.LASF159:
 7199 0344 43616C4D 		.ascii	"CalMotor_Validation\000"
 7199      6F746F72 
 7199      5F56616C 
 7199      69646174 
 7199      696F6E00 
 7200              	.LASF170:
 7201 0358 5365725F 		.ascii	"Ser_WriteByte\000"
 7201      57726974 
 7201      65427974 
 7201      6500
 7202              	.LASF45:
ARM GAS  C:\Users\tslator\AppData\Local\Temp\ccc8OXeR.s 			page 152


 7203 0366 72657665 		.ascii	"reversed_32\000"
 7203      72736564 
 7203      5F333200 
 7204              	.LASF118:
 7205 0372 70776D5F 		.ascii	"pwm_samples\000"
 7205      73616D70 
 7205      6C657300 
 7206              	.LASF110:
 7207 037e 64617461 		.ascii	"data_size\000"
 7207      5F73697A 
 7207      6500
 7208              	.LASF35:
 7209 0388 5F43414C 		.ascii	"_CAL_DATA_TYPE\000"
 7209      5F444154 
 7209      415F5459 
 7209      504500
 7210              	.LASF168:
 7211 0397 5365725F 		.ascii	"Ser_PutString\000"
 7211      50757453 
 7211      7472696E 
 7211      6700
 7212              	.LASF114:
 7213 03a5 53657443 		.ascii	"SetCalibrationStatusBit\000"
 7213      616C6962 
 7213      72617469 
 7213      6F6E5374 
 7213      61747573 
 7214              	.LASF140:
 7215 03bd 43616C5F 		.ascii	"Cal_SetLeftRightVelocity\000"
 7215      5365744C 
 7215      65667452 
 7215      69676874 
 7215      56656C6F 
 7216              	.LASF78:
 7217 03d6 5049445F 		.ascii	"PID_TYPE\000"
 7217      54595045 
 7217      00
 7218              	.LASF36:
 7219 03df 5F63616C 		.ascii	"_cal_pid_tag\000"
 7219      5F706964 
 7219      5F746167 
 7219      00
 7220              	.LASF173:
 7221 03ec 496E7465 		.ascii	"Interpolate\000"
 7221      72706F6C 
 7221      61746500 
 7222              	.LASF83:
 7223 03f8 72756E5F 		.ascii	"run_time\000"
 7223      74696D65 
 7223      00
 7224              	.LASF47:
 7225 0401 6C656674 		.ascii	"left_motor_bwd\000"
 7225      5F6D6F74 
 7225      6F725F62 
 7225      776400
 7226              	.LASF63:
 7227 0410 55504441 		.ascii	"UPDATE_FUNC_TYPE\000"
ARM GAS  C:\Users\tslator\AppData\Local\Temp\ccc8OXeR.s 			page 153


 7227      54455F46 
 7227      554E435F 
 7227      54595045 
 7227      00
 7228              	.LASF59:
 7229 0421 43414C5F 		.ascii	"CAL_VALIDATE_STAGE\000"
 7229      56414C49 
 7229      44415445 
 7229      5F535441 
 7229      474500
 7230              	.LASF139:
 7231 0434 43616C5F 		.ascii	"Cal_RightGetPidGains\000"
 7231      52696768 
 7231      74476574 
 7231      50696447 
 7231      61696E73 
 7232              	.LASF11:
 7233 0449 63686172 		.ascii	"char\000"
 7233      00
 7234              	.LASF85:
 7235 044e 5F6C696E 		.ascii	"_linear_params\000"
 7235      6561725F 
 7235      70617261 
 7235      6D7300
 7236              	.LASF30:
 7237 045d 6370735F 		.ascii	"cps_scale\000"
 7237      7363616C 
 7237      6500
 7238              	.LASF181:
 7239 0467 4932635F 		.ascii	"I2c_SetCalibrationStatus\000"
 7239      53657443 
 7239      616C6962 
 7239      72617469 
 7239      6F6E5374 
 7240              	.LASF77:
 7241 0480 5049445F 		.ascii	"PID_TYPE_RIGHT\000"
 7241      54595045 
 7241      5F524947 
 7241      485400
 7242              	.LASF15:
 7243 048f 75696E74 		.ascii	"uint16\000"
 7243      313600
 7244              	.LASF105:
 7245 0496 47657443 		.ascii	"GetCommand\000"
 7245      6F6D6D61 
 7245      6E6400
 7246              	.LASF81:
 7247 04a1 7069645F 		.ascii	"pid_type\000"
 7247      74797065 
 7247      00
 7248              	.LASF42:
 7249 04aa 72657365 		.ascii	"reserved_4\000"
 7249      72766564 
 7249      5F3400
 7250              	.LASF94:
 7251 04b5 4C656674 		.ascii	"LeftTarget\000"
 7251      54617267 
ARM GAS  C:\Users\tslator\AppData\Local\Temp\ccc8OXeR.s 			page 154


 7251      657400
 7252              	.LASF40:
 7253 04c0 73746174 		.ascii	"status\000"
 7253      757300
 7254              	.LASF50:
 7255 04c7 43414C5F 		.ascii	"CAL_EEPROM_TYPE\000"
 7255      45455052 
 7255      4F4D5F54 
 7255      59504500 
 7256              	.LASF102:
 7257 04d7 6F757462 		.ascii	"outbuf\000"
 7257      756600
 7258              	.LASF96:
 7259 04de 44697370 		.ascii	"DisplayCalMenu\000"
 7259      6C617943 
 7259      616C4D65 
 7259      6E7500
 7260              	.LASF165:
 7261 04ed 43616C41 		.ascii	"CalAng_Calibration\000"
 7261      6E675F43 
 7261      616C6962 
 7261      72617469 
 7261      6F6E00
 7262              	.LASF79:
 7263 0500 63616C5F 		.ascii	"cal_pid_params_tag\000"
 7263      7069645F 
 7263      70617261 
 7263      6D735F74 
 7263      616700
 7264              	.LASF27:
 7265 0513 4449525F 		.ascii	"DIR_TYPE\000"
 7265      54595045 
 7265      00
 7266              	.LASF142:
 7267 051c 72696768 		.ascii	"right\000"
 7267      7400
 7268              	.LASF7:
 7269 0522 6C6F6E67 		.ascii	"long long int\000"
 7269      206C6F6E 
 7269      6720696E 
 7269      7400
 7270              	.LASF46:
 7271 0530 6C656674 		.ascii	"left_motor_fwd\000"
 7271      5F6D6F74 
 7271      6F725F66 
 7271      776400
 7272              	.LASF57:
 7273 053f 43414C5F 		.ascii	"CAL_STATE_TYPE\000"
 7273      53544154 
 7273      455F5459 
 7273      504500
 7274              	.LASF20:
 7275 054e 4745545F 		.ascii	"GET_TARGET_FUNC_TYPE\000"
 7275      54415247 
 7275      45545F46 
 7275      554E435F 
 7275      54595045 
ARM GAS  C:\Users\tslator\AppData\Local\Temp\ccc8OXeR.s 			page 155


 7276              	.LASF49:
 7277 0563 72696768 		.ascii	"right_motor_bwd\000"
 7277      745F6D6F 
 7277      746F725F 
 7277      62776400 
 7278              	.LASF44:
 7279 0573 72696768 		.ascii	"right_gains\000"
 7279      745F6761 
 7279      696E7300 
 7280              	.LASF188:
 7281 057f 705F7069 		.ascii	"p_pid_params\000"
 7281      645F7061 
 7281      72616D73 
 7281      00
 7282              	.LASF187:
 7283 058c 443A5C70 		.ascii	"D:\\projects\\ArloBot\\arlobot_freesoc\\freesoc.cyd"
 7283      726F6A65 
 7283      6374735C 
 7283      41726C6F 
 7283      426F745C 
 7284 05bb 736E00   		.ascii	"sn\000"
 7285              	.LASF120:
 7286 05be 6C616265 		.ascii	"label_str\000"
 7286      6C5F7374 
 7286      7200
 7287              	.LASF175:
 7288 05c8 4932635F 		.ascii	"I2c_ClearCalibrationStatusBit\000"
 7288      436C6561 
 7288      7243616C 
 7288      69627261 
 7288      74696F6E 
 7289              	.LASF28:
 7290 05e6 6370735F 		.ascii	"cps_min\000"
 7290      6D696E00 
 7291              	.LASF56:
 7292 05ee 43414C5F 		.ascii	"CAL_DONE_STATE\000"
 7292      444F4E45 
 7292      5F535441 
 7292      544500
 7293              	.LASF108:
 7294 05fd 47657456 		.ascii	"GetValidation\000"
 7294      616C6964 
 7294      6174696F 
 7294      6E00
 7295              	.LASF58:
 7296 060b 43414C5F 		.ascii	"CAL_CALIBRATE_STAGE\000"
 7296      43414C49 
 7296      42524154 
 7296      455F5354 
 7296      41474500 
 7297              	.LASF161:
 7298 061f 43616C50 		.ascii	"CalPid_RightCalibration\000"
 7298      69645F52 
 7298      69676874 
 7298      43616C69 
 7298      62726174 
 7299              	.LASF37:
ARM GAS  C:\Users\tslator\AppData\Local\Temp\ccc8OXeR.s 			page 156


 7300 0637 72657665 		.ascii	"reversed\000"
 7300      72736564 
 7300      00
 7301              	.LASF135:
 7302 0640 6677645F 		.ascii	"fwd_cal_data\000"
 7302      63616C5F 
 7302      64617461 
 7302      00
 7303              	.LASF126:
 7304 064d 64676169 		.ascii	"dgain_str\000"
 7304      6E5F7374 
 7304      7200
 7305              	.LASF186:
 7306 0657 2E2E5C73 		.ascii	"..\\source\\cal.c\000"
 7306      6F757263 
 7306      655C6361 
 7306      6C2E6300 
 7307              	.LASF16:
 7308 0667 75696E74 		.ascii	"uint32\000"
 7308      333200
 7309              	.LASF164:
 7310 066e 43616C4C 		.ascii	"CalLin_Validation\000"
 7310      696E5F56 
 7310      616C6964 
 7310      6174696F 
 7310      6E00
 7311              	.LASF172:
 7312 0680 73707269 		.ascii	"sprintf\000"
 7312      6E746600 
 7313              	.LASF89:
 7314 0688 55495F53 		.ascii	"UI_STATE_CALIBRATION\000"
 7314      54415445 
 7314      5F43414C 
 7314      49425241 
 7314      54494F4E 
 7315              	.LASF180:
 7316 069d 43616C4C 		.ascii	"CalLin_Init\000"
 7316      696E5F49 
 7316      6E697400 
 7317              	.LASF183:
 7318 06a9 5365725F 		.ascii	"Ser_Update\000"
 7318      55706461 
 7318      746500
 7319              	.LASF153:
 7320 06b4 63616C5F 		.ascii	"cal_state_to_string\000"
 7320      73746174 
 7320      655F746F 
 7320      5F737472 
 7320      696E6700 
 7321              	.LASF38:
 7322 06c8 43414C5F 		.ascii	"CAL_PID_TYPE\000"
 7322      5049445F 
 7322      54595045 
 7322      00
 7323              	.LASF91:
 7324 06d5 55495F53 		.ascii	"UI_STATE_SETTINGS\000"
 7324      54415445 
ARM GAS  C:\Users\tslator\AppData\Local\Temp\ccc8OXeR.s 			page 157


 7324      5F534554 
 7324      54494E47 
 7324      5300
 7325              	.LASF189:
 7326 06e7 43616C5F 		.ascii	"Cal_CpsToPwm\000"
 7326      43707354 
 7326      6F50776D 
 7326      00
 7327              	.LASF109:
 7328 06f4 43616C63 		.ascii	"CalcPwm\000"
 7328      50776D00 
 7329              	.LASF130:
 7330 06fc 43616C5F 		.ascii	"Cal_Update\000"
 7330      55706461 
 7330      746500
 7331              	.LASF148:
 7332 0707 61637469 		.ascii	"active_val\000"
 7332      76655F76 
 7332      616C00
 7333              	.LASF154:
 7334 0712 705F6361 		.ascii	"p_cal_eeprom\000"
 7334      6C5F6565 
 7334      70726F6D 
 7334      00
 7335              	.LASF3:
 7336 071f 73686F72 		.ascii	"short int\000"
 7336      7420696E 
 7336      7400
 7337              	.LASF155:
 7338 0729 43616C5F 		.ascii	"Cal_LeftTarget\000"
 7338      4C656674 
 7338      54617267 
 7338      657400
 7339              	.LASF5:
 7340 0738 6C6F6E67 		.ascii	"long int\000"
 7340      20696E74 
 7340      00
 7341              	.LASF151:
 7342 0741 49544D5F 		.ascii	"ITM_RxBuffer\000"
 7342      52784275 
 7342      66666572 
 7342      00
 7343              	.LASF86:
 7344 074e 64697374 		.ascii	"distance\000"
 7344      616E6365 
 7344      00
 7345              	.LASF178:
 7346 0757 43616C4D 		.ascii	"CalMotor_Init\000"
 7346      6F746F72 
 7346      5F496E69 
 7346      7400
 7347              	.LASF90:
 7348 0765 55495F53 		.ascii	"UI_STATE_VALIDATION\000"
 7348      54415445 
 7348      5F56414C 
 7348      49444154 
 7348      494F4E00 
ARM GAS  C:\Users\tslator\AppData\Local\Temp\ccc8OXeR.s 			page 158


 7349              	.LASF171:
 7350 0779 42696E61 		.ascii	"BinaryRangeSearch\000"
 7350      72795261 
 7350      6E676553 
 7350      65617263 
 7350      6800
 7351              	.LASF64:
 7352 078b 53544F50 		.ascii	"STOP_FUNC_TYPE\000"
 7352      5F46554E 
 7352      435F5459 
 7352      504500
 7353              	.LASF141:
 7354 079a 6C656674 		.ascii	"left\000"
 7354      00
 7355              	.LASF80:
 7356 079f 6E616D65 		.ascii	"name\000"
 7356      00
 7357              	.LASF71:
 7358 07a4 73746172 		.ascii	"start\000"
 7358      7400
 7359              	.LASF88:
 7360 07aa 55495F53 		.ascii	"UI_STATE_INIT\000"
 7360      54415445 
 7360      5F494E49 
 7360      5400
 7361              	.LASF158:
 7362 07b8 43616C4D 		.ascii	"CalMotor_Calibration\000"
 7362      6F746F72 
 7362      5F43616C 
 7362      69627261 
 7362      74696F6E 
 7363              	.LASF176:
 7364 07cd 4932635F 		.ascii	"I2c_SetCalibrationStatusBit\000"
 7364      53657443 
 7364      616C6962 
 7364      72617469 
 7364      6F6E5374 
 7365              	.LASF70:
 7366 07e9 696E6974 		.ascii	"init\000"
 7366      00
 7367              	.LASF145:
 7368 07ee 43616C5F 		.ascii	"Cal_Clear\000"
 7368      436C6561 
 7368      7200
 7369              	.LASF104:
 7370 07f8 44697370 		.ascii	"DisplayExit\000"
 7370      6C617945 
 7370      78697400 
 7371              	.LASF10:
 7372 0804 73697A65 		.ascii	"sizetype\000"
 7372      74797065 
 7372      00
 7373              	.LASF6:
 7374 080d 6C6F6E67 		.ascii	"long unsigned int\000"
 7374      20756E73 
 7374      69676E65 
 7374      6420696E 
ARM GAS  C:\Users\tslator\AppData\Local\Temp\ccc8OXeR.s 			page 159


 7374      7400
 7375              	.LASF117:
 7376 081f 6370735F 		.ascii	"cps_samples\000"
 7376      73616D70 
 7376      6C657300 
 7377              	.LASF13:
 7378 082b 696E7433 		.ascii	"int32_t\000"
 7378      325F7400 
 7379              	.LASF177:
 7380 0833 66746F61 		.ascii	"ftoa\000"
 7380      00
 7381              	.LASF87:
 7382 0838 43414C5F 		.ascii	"CAL_LIN_PARAMS\000"
 7382      4C494E5F 
 7382      50415241 
 7382      4D5300
 7383              	.LASF2:
 7384 0847 756E7369 		.ascii	"unsigned char\000"
 7384      676E6564 
 7384      20636861 
 7384      7200
 7385              	.LASF162:
 7386 0855 43616C50 		.ascii	"CalPid_LeftValidation\000"
 7386      69645F4C 
 7386      65667456 
 7386      616C6964 
 7386      6174696F 
 7387              	.LASF127:
 7388 086b 50726F63 		.ascii	"ProcessSettings\000"
 7388      65737353 
 7388      65747469 
 7388      6E677300 
 7389              	.LASF185:
 7390 087b 474E5520 		.ascii	"GNU C 4.9.3 20150303 (release) [ARM/embedded-4_9-br"
 7390      4320342E 
 7390      392E3320 
 7390      32303135 
 7390      30333033 
 7391 08ae 616E6368 		.ascii	"anch revision 221220] -mcpu=cortex-m3 -mthumb -g -O"
 7391      20726576 
 7391      6973696F 
 7391      6E203232 
 7391      31323230 
 7392 08e1 67202D66 		.ascii	"g -ffunction-sections -ffat-lto-objects\000"
 7392      66756E63 
 7392      74696F6E 
 7392      2D736563 
 7392      74696F6E 
 7393              	.LASF112:
 7394 0909 75707065 		.ascii	"upper\000"
 7394      7200
 7395              	.LASF167:
 7396 090f 64656275 		.ascii	"debug_control_enabled\000"
 7396      675F636F 
 7396      6E74726F 
 7396      6C5F656E 
 7396      61626C65 
ARM GAS  C:\Users\tslator\AppData\Local\Temp\ccc8OXeR.s 			page 160


 7397              	.LASF67:
 7398 0925 73746174 		.ascii	"state\000"
 7398      6500
 7399              	.LASF116:
 7400 092b 6C616265 		.ascii	"label\000"
 7400      6C00
 7401              	.LASF52:
 7402 0931 43414C5F 		.ascii	"CAL_START_STATE\000"
 7402      53544152 
 7402      545F5354 
 7402      41544500 
 7403              	.LASF169:
 7404 0941 5365725F 		.ascii	"Ser_ReadByte\000"
 7404      52656164 
 7404      42797465 
 7404      00
 7405              	.LASF76:
 7406 094e 5049445F 		.ascii	"PID_TYPE_LEFT\000"
 7406      54595045 
 7406      5F4C4546 
 7406      5400
 7407              	.LASF21:
 7408 095c 57484545 		.ascii	"WHEEL_LEFT\000"
 7408      4C5F4C45 
 7408      465400
 7409              	.LASF1:
 7410 0967 7369676E 		.ascii	"signed char\000"
 7410      65642063 
 7410      68617200 
 7411              	.LASF4:
 7412 0973 73686F72 		.ascii	"short unsigned int\000"
 7412      7420756E 
 7412      7369676E 
 7412      65642069 
 7412      6E7400
 7413              	.LASF184:
 7414 0986 61746F66 		.ascii	"atof\000"
 7414      00
 7415              	.LASF75:
 7416 098b 43414C49 		.ascii	"CALIBRATION_TYPE\000"
 7416      42524154 
 7416      494F4E5F 
 7416      54595045 
 7416      00
 7417              	.LASF93:
 7418 099c 55495F53 		.ascii	"UI_STATE_ENUM\000"
 7418      54415445 
 7418      5F454E55 
 7418      4D00
 7419              	.LASF33:
 7420 09aa 72657365 		.ascii	"reserved\000"
 7420      72766564 
 7420      00
 7421              	.LASF149:
 7422 09b3 6C656674 		.ascii	"left_cmd_velocity\000"
 7422      5F636D64 
 7422      5F76656C 
ARM GAS  C:\Users\tslator\AppData\Local\Temp\ccc8OXeR.s 			page 161


 7422      6F636974 
 7422      7900
 7423              	.LASF14:
 7424 09c5 75696E74 		.ascii	"uint8\000"
 7424      3800
 7425              	.LASF19:
 7426 09cb 646F7562 		.ascii	"double\000"
 7426      6C6500
 7427              	.LASF107:
 7428 09d2 47657443 		.ascii	"GetCalibration\000"
 7428      616C6962 
 7428      72617469 
 7428      6F6E00
 7429              	.LASF98:
 7430 09e1 44697370 		.ascii	"DisplaySettingsMenu\000"
 7430      6C617953 
 7430      65747469 
 7430      6E67734D 
 7430      656E7500 
 7431              	.LASF29:
 7432 09f5 6370735F 		.ascii	"cps_max\000"
 7432      6D617800 
 7433              	.LASF128:
 7434 09fd 43616C5F 		.ascii	"Cal_Init\000"
 7434      496E6974 
 7434      00
 7435              	.LASF134:
 7436 0a06 43616C5F 		.ascii	"Cal_LeftGetMotorCalData\000"
 7436      4C656674 
 7436      4765744D 
 7436      6F746F72 
 7436      43616C44 
 7437              	.LASF51:
 7438 0a1e 43414C5F 		.ascii	"CAL_INIT_STATE\000"
 7438      494E4954 
 7438      5F535441 
 7438      544500
 7439              	.LASF182:
 7440 0a2d 436F6E74 		.ascii	"Control_OverrideDebug\000"
 7440      726F6C5F 
 7440      4F766572 
 7440      72696465 
 7440      44656275 
 7441              	.LASF156:
 7442 0a43 43616C5F 		.ascii	"Cal_RightTarget\000"
 7442      52696768 
 7442      74546172 
 7442      67657400 
 7443              	.LASF66:
 7444 0a53 63616C69 		.ascii	"calibration_type_tag\000"
 7444      62726174 
 7444      696F6E5F 
 7444      74797065 
 7444      5F746167 
 7445              	.LASF115:
 7446 0a68 43616C5F 		.ascii	"Cal_PrintSamples\000"
 7446      5072696E 
ARM GAS  C:\Users\tslator\AppData\Local\Temp\ccc8OXeR.s 			page 162


 7446      7453616D 
 7446      706C6573 
 7446      00
 7447              	.LASF122:
 7448 0a79 6761696E 		.ascii	"gains\000"
 7448      7300
 7449              	.LASF146:
 7450 0a7f 75695F73 		.ascii	"ui_state\000"
 7450      74617465 
 7450      00
 7451              		.ident	"GCC: (GNU Tools for ARM Embedded Processors) 4.9.3 20150303 (release) [ARM/embedded-4_9-br
