ARM GAS  C:\Users\Tim\AppData\Local\Temp\ccdG4I7D.s 			page 1


   1              		.syntax unified
   2              		.cpu cortex-m3
   3              		.fpu softvfp
   4              		.eabi_attribute 20, 1
   5              		.eabi_attribute 21, 1
   6              		.eabi_attribute 23, 3
   7              		.eabi_attribute 24, 1
   8              		.eabi_attribute 25, 1
   9              		.eabi_attribute 26, 1
  10              		.eabi_attribute 30, 1
  11              		.eabi_attribute 34, 1
  12              		.eabi_attribute 18, 4
  13              		.thumb
  14              		.file	"calang.c"
  15              		.text
  16              	.Ltext0:
  17              		.cfi_sections	.debug_frame
  18              		.section	.text.CalAngularLeftTarget,"ax",%progbits
  19              		.align	2
  20              		.thumb
  21              		.thumb_func
  22              		.type	CalAngularLeftTarget, %function
  23              	CalAngularLeftTarget:
  24              	.LFB63:
  25              		.file 1 "..\\source\\calang.c"
   1:..\source/calang.c **** #include <math.h>
   2:..\source/calang.c **** #include "calang.h"
   3:..\source/calang.c **** #include "odom.h"
   4:..\source/calang.c **** #include "motor.h"
   5:..\source/calang.c **** #include "encoder.h"
   6:..\source/calang.c **** #include "pid.h"
   7:..\source/calang.c **** #include "time.h"
   8:..\source/calang.c **** #include "utils.h"
   9:..\source/calang.c **** #include "serial.h"
  10:..\source/calang.c **** #include "nvstore.h"
  11:..\source/calang.c **** #include "debug.h"
  12:..\source/calang.c **** 
  13:..\source/calang.c **** #define ANGULAR_BIAS_VELOCITY (0.7)
  14:..\source/calang.c **** #define ANGULAR_BIAS_ANGLE (2*PI)
  15:..\source/calang.c **** #define ANGULAR_ACCELERATION (0.3)
  16:..\source/calang.c **** #define RAMP_UP_ANGLE        (ANGULAR_BIAS_ANGLE / 3.0)
  17:..\source/calang.c **** 
  18:..\source/calang.c **** /* Note: The Encoder and PID sample rates are 20 Hz.  The sample rate for updating the linear veloc
  19:..\source/calang.c ****          than those sample rates, i.e., 10 Hz.
  20:..\source/calang.c **** */
  21:..\source/calang.c **** #define CALANG_SAMPLE_RATE (PID_SAMPLE_RATE / 2)        
  22:..\source/calang.c **** #define CALANG_SAMPLE_TIME_MS  SAMPLE_TIME_MS(CALANG_SAMPLE_RATE)
  23:..\source/calang.c **** 
  24:..\source/calang.c **** static float left_cmd_velocity;
  25:..\source/calang.c **** static float right_cmd_velocity;
  26:..\source/calang.c **** static float angular_velocity;
  27:..\source/calang.c **** static uint32 last_time;
  28:..\source/calang.c **** 
  29:..\source/calang.c **** static float CalAngularLeftTarget()
  30:..\source/calang.c **** {
  26              		.loc 1 30 0
  27              		.cfi_startproc
ARM GAS  C:\Users\Tim\AppData\Local\Temp\ccdG4I7D.s 			page 2


  28              		@ args = 0, pretend = 0, frame = 0
  29              		@ frame_needed = 0, uses_anonymous_args = 0
  30              		@ link register save eliminated.
  31:..\source/calang.c ****     return left_cmd_velocity;
  32:..\source/calang.c **** }
  31              		.loc 1 32 0
  32 0000 014B     		ldr	r3, .L2
  33 0002 1868     		ldr	r0, [r3]	@ float
  34 0004 7047     		bx	lr
  35              	.L3:
  36 0006 00BF     		.align	2
  37              	.L2:
  38 0008 00000000 		.word	.LANCHOR0
  39              		.cfi_endproc
  40              	.LFE63:
  41              		.size	CalAngularLeftTarget, .-CalAngularLeftTarget
  42              		.section	.text.CalAngularRightTarget,"ax",%progbits
  43              		.align	2
  44              		.thumb
  45              		.thumb_func
  46              		.type	CalAngularRightTarget, %function
  47              	CalAngularRightTarget:
  48              	.LFB64:
  33:..\source/calang.c **** 
  34:..\source/calang.c **** static float CalAngularRightTarget()
  35:..\source/calang.c **** {
  49              		.loc 1 35 0
  50              		.cfi_startproc
  51              		@ args = 0, pretend = 0, frame = 0
  52              		@ frame_needed = 0, uses_anonymous_args = 0
  53              		@ link register save eliminated.
  36:..\source/calang.c ****     return right_cmd_velocity;
  37:..\source/calang.c **** }
  54              		.loc 1 37 0
  55 0000 014B     		ldr	r3, .L5
  56 0002 5868     		ldr	r0, [r3, #4]	@ float
  57 0004 7047     		bx	lr
  58              	.L6:
  59 0006 00BF     		.align	2
  60              	.L5:
  61 0008 00000000 		.word	.LANCHOR0
  62              		.cfi_endproc
  63              	.LFE64:
  64              		.size	CalAngularRightTarget, .-CalAngularRightTarget
  65              		.global	__aeabi_ui2d
  66              		.global	__aeabi_dcmpge
  67              		.global	__aeabi_fcmplt
  68              		.global	__aeabi_f2d
  69              		.global	__aeabi_dcmple
  70              		.global	__aeabi_dmul
  71              		.global	__aeabi_ddiv
  72              		.global	__aeabi_dadd
  73              		.global	__aeabi_d2f
  74              		.global	__aeabi_dcmplt
  75              		.section	.text.UpdateVelocity,"ax",%progbits
  76              		.align	2
  77              		.thumb
ARM GAS  C:\Users\Tim\AppData\Local\Temp\ccdG4I7D.s 			page 3


  78              		.thumb_func
  79              		.type	UpdateVelocity, %function
  80              	UpdateVelocity:
  81              	.LFB65:
  38:..\source/calang.c **** 
  39:..\source/calang.c **** static void UpdateVelocity(float heading)
  40:..\source/calang.c **** {
  82              		.loc 1 40 0
  83              		.cfi_startproc
  84              		@ args = 0, pretend = 0, frame = 0
  85              		@ frame_needed = 0, uses_anonymous_args = 0
  86              	.LVL0:
  87 0000 F8B5     		push	{r3, r4, r5, r6, r7, lr}
  88              		.cfi_def_cfa_offset 24
  89              		.cfi_offset 3, -24
  90              		.cfi_offset 4, -20
  91              		.cfi_offset 5, -16
  92              		.cfi_offset 6, -12
  93              		.cfi_offset 7, -8
  94              		.cfi_offset 14, -4
  95 0002 0446     		mov	r4, r0
  41:..\source/calang.c ****     uint32 delta_time;
  42:..\source/calang.c ****     #define MAX_VELOCITY (0.14105)
  43:..\source/calang.c ****     
  44:..\source/calang.c ****     delta_time = millis() - last_time;
  96              		.loc 1 44 0
  97 0004 FFF7FEFF 		bl	millis
  98              	.LVL1:
  99 0008 2F4B     		ldr	r3, .L22+24
 100 000a 9B68     		ldr	r3, [r3, #8]
 101              	.LVL2:
  45:..\source/calang.c ****     if (delta_time >= CALANG_SAMPLE_TIME_MS)
 102              		.loc 1 45 0
 103 000c C01A     		subs	r0, r0, r3
 104              	.LVL3:
 105 000e FFF7FEFF 		bl	__aeabi_ui2d
 106              	.LVL4:
 107 0012 0646     		mov	r6, r0
 108 0014 0F46     		mov	r7, r1
 109 0016 0022     		movs	r2, #0
 110 0018 2C4B     		ldr	r3, .L22+28
 111 001a FFF7FEFF 		bl	__aeabi_dcmpge
 112              	.LVL5:
 113 001e 0028     		cmp	r0, #0
 114 0020 45D0     		beq	.L7
  46:..\source/calang.c ****     {
  47:..\source/calang.c ****         last_time = millis();
 115              		.loc 1 47 0
 116 0022 FFF7FEFF 		bl	millis
 117              	.LVL6:
 118 0026 284B     		ldr	r3, .L22+24
 119 0028 9860     		str	r0, [r3, #8]
  48:..\source/calang.c ****     
  49:..\source/calang.c ****         /* Ramp up for the first 1/3 of the motion:
  50:..\source/calang.c ****          */
  51:..\source/calang.c ****         
  52:..\source/calang.c ****         if (abs(heading) <= RAMP_UP_ANGLE)
ARM GAS  C:\Users\Tim\AppData\Local\Temp\ccdG4I7D.s 			page 4


 120              		.loc 1 52 0
 121 002a 2046     		mov	r0, r4
 122 002c 0021     		movs	r1, #0
 123 002e FFF7FEFF 		bl	__aeabi_fcmplt
 124              	.LVL7:
 125 0032 10B1     		cbz	r0, .L19
 126              		.loc 1 52 0 is_stmt 0 discriminator 1
 127 0034 04F10040 		add	r0, r4, #-2147483648
 128 0038 00E0     		b	.L10
 129              	.L19:
 130              		.loc 1 52 0
 131 003a 2046     		mov	r0, r4
 132              	.L10:
 133              		.loc 1 52 0 discriminator 4
 134 003c FFF7FEFF 		bl	__aeabi_f2d
 135              	.LVL8:
 136 0040 1BA3     		adr	r3, .L22
 137 0042 D3E90023 		ldrd	r2, [r3]
 138 0046 FFF7FEFF 		bl	__aeabi_dcmple
 139              	.LVL9:
 140 004a 48B3     		cbz	r0, .L20
  53:..\source/calang.c ****         {
  54:..\source/calang.c ****             angular_velocity += ANGULAR_ACCELERATION * delta_time / 1000.0;
 141              		.loc 1 54 0 is_stmt 1
 142 004c 3046     		mov	r0, r6
 143 004e 3946     		mov	r1, r7
 144 0050 19A3     		adr	r3, .L22+8
 145 0052 D3E90023 		ldrd	r2, [r3]
 146 0056 FFF7FEFF 		bl	__aeabi_dmul
 147              	.LVL10:
 148 005a 0022     		movs	r2, #0
 149 005c 1C4B     		ldr	r3, .L22+32
 150 005e FFF7FEFF 		bl	__aeabi_ddiv
 151              	.LVL11:
 152 0062 0446     		mov	r4, r0
 153              	.LVL12:
 154 0064 0D46     		mov	r5, r1
 155 0066 184B     		ldr	r3, .L22+24
 156 0068 D868     		ldr	r0, [r3, #12]	@ float
 157 006a FFF7FEFF 		bl	__aeabi_f2d
 158              	.LVL13:
 159 006e 2246     		mov	r2, r4
 160 0070 2B46     		mov	r3, r5
 161 0072 FFF7FEFF 		bl	__aeabi_dadd
 162              	.LVL14:
 163 0076 FFF7FEFF 		bl	__aeabi_d2f
 164              	.LVL15:
 165 007a 0446     		mov	r4, r0
  55:..\source/calang.c ****             angular_velocity = min(angular_velocity, ANGULAR_BIAS_VELOCITY);
 166              		.loc 1 55 0
 167 007c FFF7FEFF 		bl	__aeabi_f2d
 168              	.LVL16:
 169 0080 0FA3     		adr	r3, .L22+16
 170 0082 D3E90023 		ldrd	r2, [r3]
 171 0086 FFF7FEFF 		bl	__aeabi_dcmplt
 172              	.LVL17:
 173 008a 00B9     		cbnz	r0, .L14
ARM GAS  C:\Users\Tim\AppData\Local\Temp\ccdG4I7D.s 			page 5


 174 008c 114C     		ldr	r4, .L22+36
 175              	.L14:
 176              		.loc 1 55 0 is_stmt 0 discriminator 4
 177 008e 0E4B     		ldr	r3, .L22+24
 178 0090 DC60     		str	r4, [r3, #12]	@ float
  56:..\source/calang.c ****             
  57:..\source/calang.c ****             ConvertLinearAngularToDifferential(0, angular_velocity, &left_cmd_velocity, &right_cmd_
 179              		.loc 1 57 0 is_stmt 1 discriminator 4
 180 0092 0020     		movs	r0, #0
 181 0094 2146     		mov	r1, r4
 182 0096 1A46     		mov	r2, r3
 183 0098 0433     		adds	r3, r3, #4
 184 009a FFF7FEFF 		bl	ConvertLinearAngularToDifferential
 185              	.LVL18:
 186 009e F8BD     		pop	{r3, r4, r5, r6, r7, pc}
 187              	.LVL19:
 188              	.L20:
  58:..\source/calang.c ****         }
  59:..\source/calang.c ****         else
  60:..\source/calang.c ****         {
  61:..\source/calang.c ****             ConvertLinearAngularToDifferential(0, ANGULAR_BIAS_VELOCITY, &left_cmd_velocity, &right
 189              		.loc 1 61 0
 190 00a0 094B     		ldr	r3, .L22+24
 191 00a2 0020     		movs	r0, #0
 192 00a4 0B49     		ldr	r1, .L22+36
 193 00a6 1A46     		mov	r2, r3
 194 00a8 0433     		adds	r3, r3, #4
 195 00aa FFF7FEFF 		bl	ConvertLinearAngularToDifferential
 196              	.LVL20:
 197              	.L7:
 198 00ae F8BD     		pop	{r3, r4, r5, r6, r7, pc}
 199              	.LVL21:
 200              	.L23:
 201              		.align	3
 202              	.L22:
 203 00b0 65732D38 		.word	942502757
 204 00b4 52C10040 		.word	1073791314
 205 00b8 33333333 		.word	858993459
 206 00bc 3333D33F 		.word	1070805811
 207 00c0 66666666 		.word	1717986918
 208 00c4 6666E63F 		.word	1072064102
 209 00c8 00000000 		.word	.LANCHOR0
 210 00cc 00005940 		.word	1079574528
 211 00d0 00408F40 		.word	1083129856
 212 00d4 3333333F 		.word	1060320051
 213              		.cfi_endproc
 214              	.LFE65:
 215              		.size	UpdateVelocity, .-UpdateVelocity
 216              		.global	__aeabi_fsub
 217              		.global	__aeabi_dcmpgt
 218              		.global	__aeabi_dsub
 219              		.global	__aeabi_fadd
 220              		.section	.text.DoAngularBiasMotion,"ax",%progbits
 221              		.align	2
 222              		.global	DoAngularBiasMotion
 223              		.thumb
 224              		.thumb_func
ARM GAS  C:\Users\Tim\AppData\Local\Temp\ccdG4I7D.s 			page 6


 225              		.type	DoAngularBiasMotion, %function
 226              	DoAngularBiasMotion:
 227              	.LFB66:
  62:..\source/calang.c ****         }
  63:..\source/calang.c ****     }
  64:..\source/calang.c ****         
  65:..\source/calang.c **** }
  66:..\source/calang.c **** 
  67:..\source/calang.c **** void DoAngularBiasMotion()
  68:..\source/calang.c **** /*
  69:..\source/calang.c ****     Set angular bias to 1.0
  70:..\source/calang.c ****     Rotate 360 degrees
  71:..\source/calang.c ****         Get the current heading
  72:..\source/calang.c ****         Stop motors
  73:..\source/calang.c ****         Start turn angle = 0
  74:..\source/calang.c ****         Test angle = 360
  75:..\source/calang.c ****         while turn angle < test angle
  76:..\source/calang.c **** 
  77:..\source/calang.c ****             Set angular velocity
  78:..\source/calang.c ****             Get heading
  79:..\source/calang.c ****             Calculate delta angle
  80:..\source/calang.c ****             Update turn and last angles
  81:..\source/calang.c **** 
  82:..\source/calang.c ****         Stop motors
  83:..\source/calang.c **** 
  84:..\source/calang.c ****  */
  85:..\source/calang.c **** {
 228              		.loc 1 85 0
 229              		.cfi_startproc
 230              		@ args = 0, pretend = 0, frame = 0
 231              		@ frame_needed = 0, uses_anonymous_args = 0
 232 0000 2DE9F843 		push	{r3, r4, r5, r6, r7, r8, r9, lr}
 233              		.cfi_def_cfa_offset 32
 234              		.cfi_offset 3, -32
 235              		.cfi_offset 4, -28
 236              		.cfi_offset 5, -24
 237              		.cfi_offset 6, -20
 238              		.cfi_offset 7, -16
 239              		.cfi_offset 8, -12
 240              		.cfi_offset 9, -8
 241              		.cfi_offset 14, -4
  86:..\source/calang.c ****     float heading;
  87:..\source/calang.c ****     float turn_heading;
  88:..\source/calang.c ****     float delta_heading;
  89:..\source/calang.c ****     float last_heading;
  90:..\source/calang.c ****     
  91:..\source/calang.c ****     uint16 old_debug_control_enabled = debug_control_enabled;    
 242              		.loc 1 91 0
 243 0004 444B     		ldr	r3, .L39+24
 244 0006 B3F80090 		ldrh	r9, [r3]
 245              	.LVL22:
  92:..\source/calang.c ****     debug_control_enabled = DEBUG_ODOM_ENABLE_BIT;
 246              		.loc 1 92 0
 247 000a 4022     		movs	r2, #64
 248 000c 1A80     		strh	r2, [r3]	@ movhi
  93:..\source/calang.c ****     
  94:..\source/calang.c ****     last_time = millis();
ARM GAS  C:\Users\Tim\AppData\Local\Temp\ccdG4I7D.s 			page 7


 249              		.loc 1 94 0
 250 000e FFF7FEFF 		bl	millis
 251              	.LVL23:
 252 0012 424B     		ldr	r3, .L39+28
 253 0014 9860     		str	r0, [r3, #8]
  95:..\source/calang.c **** 
  96:..\source/calang.c ****     left_cmd_velocity = 0;
 254              		.loc 1 96 0
 255 0016 0024     		movs	r4, #0
 256 0018 1C60     		str	r4, [r3]	@ float
  97:..\source/calang.c ****     right_cmd_velocity = 0;
 257              		.loc 1 97 0
 258 001a 5C60     		str	r4, [r3, #4]	@ float
  98:..\source/calang.c ****     angular_velocity = 0;
 259              		.loc 1 98 0
 260 001c DC60     		str	r4, [r3, #12]	@ float
  99:..\source/calang.c ****     Motor_LeftSetCntsPerSec(0);
 261              		.loc 1 99 0
 262 001e 2046     		mov	r0, r4
 263 0020 FFF7FEFF 		bl	Motor_LeftSetCntsPerSec
 264              	.LVL24:
 100:..\source/calang.c ****     Motor_RightSetCntsPerSec(0);
 265              		.loc 1 100 0
 266 0024 2046     		mov	r0, r4
 267 0026 FFF7FEFF 		bl	Motor_RightSetCntsPerSec
 268              	.LVL25:
 101:..\source/calang.c ****     
 102:..\source/calang.c ****     Pid_SetLeftRightTarget(CalAngularLeftTarget, CalAngularRightTarget);
 269              		.loc 1 102 0
 270 002a 3D48     		ldr	r0, .L39+32
 271 002c 3D49     		ldr	r1, .L39+36
 272 002e FFF7FEFF 		bl	Pid_SetLeftRightTarget
 273              	.LVL26:
 103:..\source/calang.c ****     
 104:..\source/calang.c ****     Encoder_Reset();
 274              		.loc 1 104 0
 275 0032 FFF7FEFF 		bl	Encoder_Reset
 276              	.LVL27:
 105:..\source/calang.c ****     Pid_Reset();
 277              		.loc 1 105 0
 278 0036 FFF7FEFF 		bl	Pid_Reset
 279              	.LVL28:
 106:..\source/calang.c ****     Odom_Reset();    
 280              		.loc 1 106 0
 281 003a FFF7FEFF 		bl	Odom_Reset
 282              	.LVL29:
 107:..\source/calang.c ****     
 108:..\source/calang.c ****     turn_heading = 0;
 109:..\source/calang.c ****     last_heading = Odom_GetHeading();
 283              		.loc 1 109 0
 284 003e FFF7FEFF 		bl	Odom_GetHeading
 285              	.LVL30:
 286 0042 0546     		mov	r5, r0
 287              	.LVL31:
 288              	.L31:
 110:..\source/calang.c **** 
 111:..\source/calang.c ****     do
ARM GAS  C:\Users\Tim\AppData\Local\Temp\ccdG4I7D.s 			page 8


 112:..\source/calang.c ****     {
 113:..\source/calang.c ****         Encoder_Update();
 289              		.loc 1 113 0
 290 0044 FFF7FEFF 		bl	Encoder_Update
 291              	.LVL32:
 114:..\source/calang.c ****         Pid_Update();
 292              		.loc 1 114 0
 293 0048 FFF7FEFF 		bl	Pid_Update
 294              	.LVL33:
 115:..\source/calang.c ****         Odom_Update();
 295              		.loc 1 115 0
 296 004c FFF7FEFF 		bl	Odom_Update
 297              	.LVL34:
 116:..\source/calang.c ****         
 117:..\source/calang.c ****         heading = Odom_GetHeading();
 298              		.loc 1 117 0
 299 0050 FFF7FEFF 		bl	Odom_GetHeading
 300              	.LVL35:
 301 0054 8046     		mov	r8, r0
 302              	.LVL36:
 118:..\source/calang.c ****         delta_heading = heading - last_heading;
 303              		.loc 1 118 0
 304 0056 2946     		mov	r1, r5
 305 0058 FFF7FEFF 		bl	__aeabi_fsub
 306              	.LVL37:
 307 005c 0546     		mov	r5, r0
 308              	.LVL38:
 119:..\source/calang.c ****         if (delta_heading > PI) 
 309              		.loc 1 119 0
 310 005e FFF7FEFF 		bl	__aeabi_f2d
 311              	.LVL39:
 312 0062 0646     		mov	r6, r0
 313 0064 0F46     		mov	r7, r1
 314 0066 26A3     		adr	r3, .L39
 315 0068 D3E90023 		ldrd	r2, [r3]
 316 006c FFF7FEFF 		bl	__aeabi_dcmpgt
 317              	.LVL40:
 318 0070 50B1     		cbz	r0, .L36
 120:..\source/calang.c ****         { 
 121:..\source/calang.c ****             delta_heading -= 2*PI; 
 319              		.loc 1 121 0
 320 0072 3046     		mov	r0, r6
 321 0074 3946     		mov	r1, r7
 322 0076 24A3     		adr	r3, .L39+8
 323 0078 D3E90023 		ldrd	r2, [r3]
 324 007c FFF7FEFF 		bl	__aeabi_dsub
 325              	.LVL41:
 326 0080 FFF7FEFF 		bl	__aeabi_d2f
 327              	.LVL42:
 328 0084 0546     		mov	r5, r0
 329              	.LVL43:
 330 0086 11E0     		b	.L27
 331              	.LVL44:
 332              	.L36:
 122:..\source/calang.c ****         } 
 123:..\source/calang.c ****         else if (delta_heading <= -PI) 
 333              		.loc 1 123 0
ARM GAS  C:\Users\Tim\AppData\Local\Temp\ccdG4I7D.s 			page 9


 334 0088 3046     		mov	r0, r6
 335 008a 3946     		mov	r1, r7
 336 008c 20A3     		adr	r3, .L39+16
 337 008e D3E90023 		ldrd	r2, [r3]
 338 0092 FFF7FEFF 		bl	__aeabi_dcmple
 339              	.LVL45:
 340 0096 48B1     		cbz	r0, .L27
 124:..\source/calang.c ****         { 
 125:..\source/calang.c ****             delta_heading += 2*PI; 
 341              		.loc 1 125 0
 342 0098 3046     		mov	r0, r6
 343 009a 3946     		mov	r1, r7
 344 009c 1AA3     		adr	r3, .L39+8
 345 009e D3E90023 		ldrd	r2, [r3]
 346 00a2 FFF7FEFF 		bl	__aeabi_dadd
 347              	.LVL46:
 348 00a6 FFF7FEFF 		bl	__aeabi_d2f
 349              	.LVL47:
 350 00aa 0546     		mov	r5, r0
 351              	.LVL48:
 352              	.L27:
 126:..\source/calang.c ****         }
 127:..\source/calang.c **** 
 128:..\source/calang.c ****         turn_heading += delta_heading;
 353              		.loc 1 128 0
 354 00ac 2046     		mov	r0, r4
 355 00ae 2946     		mov	r1, r5
 356 00b0 FFF7FEFF 		bl	__aeabi_fadd
 357              	.LVL49:
 358 00b4 0446     		mov	r4, r0
 359              	.LVL50:
 129:..\source/calang.c ****         last_heading = heading;
 130:..\source/calang.c ****         
 131:..\source/calang.c ****         UpdateVelocity(turn_heading);
 360              		.loc 1 131 0
 361 00b6 FFF7FEFF 		bl	UpdateVelocity
 362              	.LVL51:
 132:..\source/calang.c ****     
 133:..\source/calang.c ****     } while (abs(turn_heading) < ANGULAR_BIAS_ANGLE);
 363              		.loc 1 133 0
 364 00ba 2046     		mov	r0, r4
 365 00bc 0021     		movs	r1, #0
 366 00be FFF7FEFF 		bl	__aeabi_fcmplt
 367              	.LVL52:
 368 00c2 10B1     		cbz	r0, .L37
 369              		.loc 1 133 0 is_stmt 0 discriminator 1
 370 00c4 04F10040 		add	r0, r4, #-2147483648
 371 00c8 00E0     		b	.L29
 372              	.L37:
 373              		.loc 1 133 0
 374 00ca 2046     		mov	r0, r4
 375              	.L29:
 376              		.loc 1 133 0 discriminator 4
 377 00cc FFF7FEFF 		bl	__aeabi_f2d
 378              	.LVL53:
 129:..\source/calang.c ****         last_heading = heading;
 379              		.loc 1 129 0 is_stmt 1 discriminator 4
ARM GAS  C:\Users\Tim\AppData\Local\Temp\ccdG4I7D.s 			page 10


 380 00d0 4546     		mov	r5, r8
 381              	.LVL54:
 382              		.loc 1 133 0 discriminator 4
 383 00d2 0DA3     		adr	r3, .L39+8
 384 00d4 D3E90023 		ldrd	r2, [r3]
 385 00d8 FFF7FEFF 		bl	__aeabi_dcmplt
 386              	.LVL55:
 387 00dc 0028     		cmp	r0, #0
 388 00de B1D1     		bne	.L31
 389              	.LVL56:
 134:..\source/calang.c ****     
 135:..\source/calang.c ****     left_cmd_velocity = 0;
 390              		.loc 1 135 0
 391 00e0 0E4B     		ldr	r3, .L39+28
 392 00e2 0024     		movs	r4, #0
 393              	.LVL57:
 394 00e4 1C60     		str	r4, [r3]	@ float
 136:..\source/calang.c ****     right_cmd_velocity = 0;
 395              		.loc 1 136 0
 396 00e6 5C60     		str	r4, [r3, #4]	@ float
 137:..\source/calang.c ****     Motor_LeftSetCntsPerSec(0);
 397              		.loc 1 137 0
 398 00e8 2046     		mov	r0, r4
 399 00ea FFF7FEFF 		bl	Motor_LeftSetCntsPerSec
 400              	.LVL58:
 138:..\source/calang.c ****     Motor_RightSetCntsPerSec(0);
 401              		.loc 1 138 0
 402 00ee 2046     		mov	r0, r4
 403 00f0 FFF7FEFF 		bl	Motor_RightSetCntsPerSec
 404              	.LVL59:
 139:..\source/calang.c ****     
 140:..\source/calang.c ****     debug_control_enabled = old_debug_control_enabled;    
 405              		.loc 1 140 0
 406 00f4 084B     		ldr	r3, .L39+24
 407 00f6 A3F80090 		strh	r9, [r3]	@ movhi
 408 00fa BDE8F883 		pop	{r3, r4, r5, r6, r7, r8, r9, pc}
 409              	.LVL60:
 410              	.L40:
 411 00fe 00BF     		.align	3
 412              	.L39:
 413 0100 182D4454 		.word	1413754136
 414 0104 FB210940 		.word	1074340347
 415 0108 182D4454 		.word	1413754136
 416 010c FB211940 		.word	1075388923
 417 0110 182D4454 		.word	1413754136
 418 0114 FB2109C0 		.word	-1073143301
 419 0118 00000000 		.word	debug_control_enabled
 420 011c 00000000 		.word	.LANCHOR0
 421 0120 00000000 		.word	CalAngularLeftTarget
 422 0124 00000000 		.word	CalAngularRightTarget
 423              		.cfi_endproc
 424              	.LFE66:
 425              		.size	DoAngularBiasMotion, .-DoAngularBiasMotion
 426              		.global	__aeabi_fdiv
 427              		.section	.text.CalibrateAngularBias,"ax",%progbits
 428              		.align	2
 429              		.global	CalibrateAngularBias
ARM GAS  C:\Users\Tim\AppData\Local\Temp\ccdG4I7D.s 			page 11


 430              		.thumb
 431              		.thumb_func
 432              		.type	CalibrateAngularBias, %function
 433              	CalibrateAngularBias:
 434              	.LFB67:
 141:..\source/calang.c **** }
 142:..\source/calang.c **** 
 143:..\source/calang.c **** void CalibrateAngularBias()
 144:..\source/calang.c **** {
 435              		.loc 1 144 0
 436              		.cfi_startproc
 437              		@ args = 0, pretend = 0, frame = 0
 438              		@ frame_needed = 0, uses_anonymous_args = 0
 439 0000 38B5     		push	{r3, r4, r5, lr}
 440              		.cfi_def_cfa_offset 16
 441              		.cfi_offset 3, -16
 442              		.cfi_offset 4, -12
 443              		.cfi_offset 5, -8
 444              		.cfi_offset 14, -4
 145:..\source/calang.c ****     Ser_PutString("\r\nPerforming angular bias calibration\r\n");
 445              		.loc 1 145 0
 446 0002 1448     		ldr	r0, .L43
 447 0004 FFF7FEFF 		bl	Ser_PutString
 448              	.LVL61:
 146:..\source/calang.c **** 
 147:..\source/calang.c ****     Nvstore_WriteFloat(1.0, NVSTORE_CAL_EEPROM_ADDR_TO_OFFSET(&p_cal_eeprom->angular_bias));
 449              		.loc 1 147 0
 450 0008 134D     		ldr	r5, .L43+4
 451 000a 2968     		ldr	r1, [r5]
 452 000c A1F5FF41 		sub	r1, r1, #32640
 453 0010 5439     		subs	r1, r1, #84
 454 0012 4FF07E50 		mov	r0, #1065353216
 455 0016 89B2     		uxth	r1, r1
 456 0018 FFF7FEFF 		bl	Nvstore_WriteFloat
 457              	.LVL62:
 148:..\source/calang.c ****     
 149:..\source/calang.c ****     DoAngularBiasMotion();
 458              		.loc 1 149 0
 459 001c FFF7FEFF 		bl	DoAngularBiasMotion
 460              	.LVL63:
 150:..\source/calang.c ****                 
 151:..\source/calang.c ****     Ser_PutString("Enter the measured rotation in degrees (enter 5 chars), e.g., 345.0 : ");
 461              		.loc 1 151 0
 462 0020 0E48     		ldr	r0, .L43+8
 463 0022 FFF7FEFF 		bl	Ser_PutString
 464              	.LVL64:
 152:..\source/calang.c ****     float meas_rotation = Cal_ReadResponse();
 465              		.loc 1 152 0
 466 0026 FFF7FEFF 		bl	Cal_ReadResponse
 467              	.LVL65:
 468 002a 0146     		mov	r1, r0
 469              	.LVL66:
 153:..\source/calang.c ****     float angular_bias = 360.0 / meas_rotation;
 470              		.loc 1 153 0
 471 002c 0C48     		ldr	r0, .L43+12
 472              	.LVL67:
 473 002e FFF7FEFF 		bl	__aeabi_fdiv
ARM GAS  C:\Users\Tim\AppData\Local\Temp\ccdG4I7D.s 			page 12


 474              	.LVL68:
 475 0032 0446     		mov	r4, r0
 476              	.LVL69:
 154:..\source/calang.c ****     Cal_DisplayBias("angular", angular_bias);
 477              		.loc 1 154 0
 478 0034 0B48     		ldr	r0, .L43+16
 479              	.LVL70:
 480 0036 2146     		mov	r1, r4
 481 0038 FFF7FEFF 		bl	Cal_DisplayBias
 482              	.LVL71:
 155:..\source/calang.c ****     
 156:..\source/calang.c ****     /* Store the angular bias into EEPROM */
 157:..\source/calang.c ****     Nvstore_WriteFloat(angular_bias, NVSTORE_CAL_EEPROM_ADDR_TO_OFFSET(&p_cal_eeprom->angular_bias)
 483              		.loc 1 157 0
 484 003c 2968     		ldr	r1, [r5]
 485 003e A1F5FF41 		sub	r1, r1, #32640
 486 0042 5439     		subs	r1, r1, #84
 487 0044 2046     		mov	r0, r4
 488 0046 89B2     		uxth	r1, r1
 489 0048 FFF7FEFF 		bl	Nvstore_WriteFloat
 490              	.LVL72:
 158:..\source/calang.c ****     Ser_PutString("Angular bias calibration complete\r\n");
 491              		.loc 1 158 0
 492 004c 0648     		ldr	r0, .L43+20
 493 004e FFF7FEFF 		bl	Ser_PutString
 494              	.LVL73:
 495 0052 38BD     		pop	{r3, r4, r5, pc}
 496              	.LVL74:
 497              	.L44:
 498              		.align	2
 499              	.L43:
 500 0054 00000000 		.word	.LC0
 501 0058 00000000 		.word	p_cal_eeprom
 502 005c 28000000 		.word	.LC1
 503 0060 0000B443 		.word	1135869952
 504 0064 70000000 		.word	.LC2
 505 0068 78000000 		.word	.LC3
 506              		.cfi_endproc
 507              	.LFE67:
 508              		.size	CalibrateAngularBias, .-CalibrateAngularBias
 509              		.section	.text.ValidateAngularBias,"ax",%progbits
 510              		.align	2
 511              		.global	ValidateAngularBias
 512              		.thumb
 513              		.thumb_func
 514              		.type	ValidateAngularBias, %function
 515              	ValidateAngularBias:
 516              	.LFB68:
 159:..\source/calang.c ****     
 160:..\source/calang.c **** }
 161:..\source/calang.c **** 
 162:..\source/calang.c **** void ValidateAngularBias()
 163:..\source/calang.c **** {
 517              		.loc 1 163 0
 518              		.cfi_startproc
 519              		@ args = 0, pretend = 0, frame = 0
 520              		@ frame_needed = 0, uses_anonymous_args = 0
ARM GAS  C:\Users\Tim\AppData\Local\Temp\ccdG4I7D.s 			page 13


 521 0000 08B5     		push	{r3, lr}
 522              		.cfi_def_cfa_offset 8
 523              		.cfi_offset 3, -8
 524              		.cfi_offset 14, -4
 164:..\source/calang.c ****     /* Note: consider whether calibration should be done in both directions: CW and CCW and the ave
 165:..\source/calang.c ****        actual angular bias.  There would need to be some interaction with the user to mark a new st
 166:..\source/calang.c ****        after the first motion.
 167:..\source/calang.c ****      */
 168:..\source/calang.c ****     
 169:..\source/calang.c ****     Ser_PutString("\r\nValidating angular bias calibration\r\n");
 525              		.loc 1 169 0
 526 0002 0448     		ldr	r0, .L47
 527 0004 FFF7FEFF 		bl	Ser_PutString
 528              	.LVL75:
 170:..\source/calang.c ****     DoAngularBiasMotion();
 529              		.loc 1 170 0
 530 0008 FFF7FEFF 		bl	DoAngularBiasMotion
 531              	.LVL76:
 171:..\source/calang.c ****     Ser_PutString("Angular bias validation complete\r\n");
 532              		.loc 1 171 0
 533 000c 0248     		ldr	r0, .L47+4
 534 000e FFF7FEFF 		bl	Ser_PutString
 535              	.LVL77:
 536 0012 08BD     		pop	{r3, pc}
 537              	.L48:
 538              		.align	2
 539              	.L47:
 540 0014 9C000000 		.word	.LC4
 541 0018 C4000000 		.word	.LC5
 542              		.cfi_endproc
 543              	.LFE68:
 544              		.size	ValidateAngularBias, .-ValidateAngularBias
 545              		.comm	formatted_string,256,4
 546              		.comm	debug_control_enabled,2,2
 547              		.comm	p_cal_eeprom,4,4
 548              		.section	.rodata.str1.4,"aMS",%progbits,1
 549              		.align	2
 550              	.LC0:
 551 0000 0D0A5065 		.ascii	"\015\012Performing angular bias calibration\015\012"
 551      72666F72 
 551      6D696E67 
 551      20616E67 
 551      756C6172 
 552 0027 00       		.ascii	"\000"
 553              	.LC1:
 554 0028 456E7465 		.ascii	"Enter the measured rotation in degrees (enter 5 cha"
 554      72207468 
 554      65206D65 
 554      61737572 
 554      65642072 
 555 005b 7273292C 		.ascii	"rs), e.g., 345.0 : \000"
 555      20652E67 
 555      2E2C2033 
 555      34352E30 
 555      203A2000 
 556 006f 00       		.space	1
 557              	.LC2:
ARM GAS  C:\Users\Tim\AppData\Local\Temp\ccdG4I7D.s 			page 14


 558 0070 616E6775 		.ascii	"angular\000"
 558      6C617200 
 559              	.LC3:
 560 0078 416E6775 		.ascii	"Angular bias calibration complete\015\012\000"
 560      6C617220 
 560      62696173 
 560      2063616C 
 560      69627261 
 561              	.LC4:
 562 009c 0D0A5661 		.ascii	"\015\012Validating angular bias calibration\015\012"
 562      6C696461 
 562      74696E67 
 562      20616E67 
 562      756C6172 
 563 00c3 00       		.ascii	"\000"
 564              	.LC5:
 565 00c4 416E6775 		.ascii	"Angular bias validation complete\015\012\000"
 565      6C617220 
 565      62696173 
 565      2076616C 
 565      69646174 
 566 00e7 00       		.bss
 567              		.align	2
 568              		.set	.LANCHOR0,. + 0
 569              		.type	left_cmd_velocity, %object
 570              		.size	left_cmd_velocity, 4
 571              	left_cmd_velocity:
 572 0000 00000000 		.space	4
 573              		.type	right_cmd_velocity, %object
 574              		.size	right_cmd_velocity, 4
 575              	right_cmd_velocity:
 576 0004 00000000 		.space	4
 577              		.type	last_time, %object
 578              		.size	last_time, 4
 579              	last_time:
 580 0008 00000000 		.space	4
 581              		.type	angular_velocity, %object
 582              		.size	angular_velocity, 4
 583              	angular_velocity:
 584 000c 00000000 		.space	4
 585              		.text
 586              	.Letext0:
 587              		.file 2 "c:\\program files (x86)\\cypress\\psoc creator\\3.3\\psoc creator\\import\\gnu\\arm\\4.9.
 588              		.file 3 "c:\\program files (x86)\\cypress\\psoc creator\\3.3\\psoc creator\\import\\gnu\\arm\\4.9.
 589              		.file 4 "Generated_Source\\PSoC5/cytypes.h"
 590              		.file 5 "..\\source\\config.h"
 591              		.file 6 "..\\source\\cal.h"
 592              		.file 7 "Generated_Source\\PSoC5/core_cm3.h"
 593              		.file 8 "..\\source\\debug.h"
 594              		.file 9 "..\\source\\time.h"
 595              		.file 10 "..\\source\\utils.h"
 596              		.file 11 "..\\source\\motor.h"
 597              		.file 12 "..\\source\\pid.h"
 598              		.file 13 "..\\source\\encoder.h"
 599              		.file 14 "..\\source\\odom.h"
 600              		.file 15 "..\\source\\serial.h"
 601              		.file 16 "..\\source\\nvstore.h"
ARM GAS  C:\Users\Tim\AppData\Local\Temp\ccdG4I7D.s 			page 15

