ARM GAS  C:\Users\Tim\AppData\Local\Temp\ccsaiBj4.s 			page 1


   1              		.syntax unified
   2              		.cpu cortex-m3
   3              		.fpu softvfp
   4              		.eabi_attribute 20, 1
   5              		.eabi_attribute 21, 1
   6              		.eabi_attribute 23, 3
   7              		.eabi_attribute 24, 1
   8              		.eabi_attribute 25, 1
   9              		.eabi_attribute 26, 1
  10              		.eabi_attribute 30, 1
  11              		.eabi_attribute 34, 1
  12              		.eabi_attribute 18, 4
  13              		.thumb
  14              		.file	"calcps2pwm.c"
  15              		.text
  16              	.Ltext0:
  17              		.cfi_sections	.debug_frame
  18              		.section	.text.CalculatePwmSamples,"ax",%progbits
  19              		.align	2
  20              		.thumb
  21              		.thumb_func
  22              		.type	CalculatePwmSamples, %function
  23              	CalculatePwmSamples:
  24              	.LFB63:
  25              		.file 1 "..\\source\\calcps2pwm.c"
   1:..\source/calcps2pwm.c **** #include <stdio.h>
   2:..\source/calcps2pwm.c **** #include "calcps2pwm.h"
   3:..\source/calcps2pwm.c **** #include "motor.h"
   4:..\source/calcps2pwm.c **** #include "pwm.h"
   5:..\source/calcps2pwm.c **** #include "nvstore.h"
   6:..\source/calcps2pwm.c **** #include "serial.h"
   7:..\source/calcps2pwm.c **** 
   8:..\source/calcps2pwm.c **** /*
   9:..\source/calcps2pwm.c ****     Explantation of Count/Sec to PWM Calibration:
  10:..\source/calcps2pwm.c **** 
  11:..\source/calcps2pwm.c ****     Calibration involves mapping count/sec values to PWM values.  Each motor is run (forward and ba
  12:..\source/calcps2pwm.c ****     an average count/sec for each PWM sample.  The results are stored in an structure (CAL_DATA_TYP
  13:..\source/calcps2pwm.c ****     count/sec averages, PWM samples, min/max count/sec and a scale factor.  There are four CAL_DATA
  14:..\source/calcps2pwm.c ****     for left motor forward, left motor backward, right motor forward and right motor backward.  The
  15:..\source/calcps2pwm.c ****     stored in NVRAM on the Psoc and pointers to the calibration data are passed to the motor module
  16:..\source/calcps2pwm.c ****     
  17:..\source/calcps2pwm.c ****     Upon startup, the calibration data is made available to the motors via pointers to NVRAM (Note:
  18:..\source/calcps2pwm.c ****     maps NVRAM to memory so there is no appreciable overhead in reading from NVRAM (or so I believe
  19:..\source/calcps2pwm.c **** 
  20:..\source/calcps2pwm.c ****  */
  21:..\source/calcps2pwm.c **** 
  22:..\source/calcps2pwm.c **** 
  23:..\source/calcps2pwm.c **** static int32 cps_samples[CAL_NUM_SAMPLES];
  24:..\source/calcps2pwm.c **** static uint16 pwm_samples[CAL_NUM_SAMPLES];
  25:..\source/calcps2pwm.c **** static int32 cps_sum[CAL_NUM_SAMPLES];
  26:..\source/calcps2pwm.c **** static CAL_DATA_TYPE cal_data;
  27:..\source/calcps2pwm.c **** 
  28:..\source/calcps2pwm.c **** static void CalculatePwmSamples(WHEEL_TYPE wheel, DIR_TYPE dir, uint16 *pwm_samples, uint8 *reverse
  29:..\source/calcps2pwm.c **** {
  26              		.loc 1 29 0
  27              		.cfi_startproc
  28              		@ args = 0, pretend = 0, frame = 0
ARM GAS  C:\Users\Tim\AppData\Local\Temp\ccsaiBj4.s 			page 2


  29              		@ frame_needed = 0, uses_anonymous_args = 0
  30              		@ link register save eliminated.
  31              	.LVL0:
  30:..\source/calcps2pwm.c ****     /*
  31:..\source/calcps2pwm.c ****         if wheel is left
  32:..\source/calcps2pwm.c ****             if dir is forward
  33:..\source/calcps2pwm.c ****                 pwm start = 1500
  34:..\source/calcps2pwm.c ****                 pwm end = 2000
  35:..\source/calcps2pwm.c ****                 pwm step = (2000 - 1500) / num_samples
  36:..\source/calcps2pwm.c ****             if dir is backward
  37:..\source/calcps2pwm.c ****                 pwm start = 1000
  38:..\source/calcps2pwm.c ****                 pwm end = 1500
  39:..\source/calcps2pwm.c ****                 pwm step = (1500 - 1000) / num_samples
  40:..\source/calcps2pwm.c ****     
  41:..\source/calcps2pwm.c ****         if wheel is right
  42:..\source/calcps2pwm.c ****             if dir is forward
  43:..\source/calcps2pwm.c ****                 pwm start = 1000
  44:..\source/calcps2pwm.c ****                 pwm end = 1500
  45:..\source/calcps2pwm.c ****                 pwm step = (1500 - 1000) / num_samples
  46:..\source/calcps2pwm.c ****             if dir is backward
  47:..\source/calcps2pwm.c ****                 pwm start = 1500
  48:..\source/calcps2pwm.c ****                 pwm end = 2000
  49:..\source/calcps2pwm.c ****                 pwm step = (2000 - 1500) / num_samples
  50:..\source/calcps2pwm.c ****     */
  51:..\source/calcps2pwm.c ****     
  52:..\source/calcps2pwm.c ****     uint16 pwm;
  53:..\source/calcps2pwm.c ****     uint16 pwm_start;
  54:..\source/calcps2pwm.c ****     uint16 pwm_end;
  55:..\source/calcps2pwm.c ****     uint16 pwm_step;
  56:..\source/calcps2pwm.c ****     
  57:..\source/calcps2pwm.c ****     if (wheel == LEFT_WHEEL)
  32              		.loc 1 57 0
  33 0000 B8B9     		cbnz	r0, .L2
  34              	.LBB2:
  58:..\source/calcps2pwm.c ****     {
  59:..\source/calcps2pwm.c ****         if (dir == FORWARD_DIR)
  35              		.loc 1 59 0
  36 0002 29B9     		cbnz	r1, .L3
  37              	.LVL1:
  60:..\source/calcps2pwm.c ****         {
  61:..\source/calcps2pwm.c ****             pwm_start = LEFT_PWM_STOP;
  62:..\source/calcps2pwm.c ****             pwm_end = LEFT_PWM_FULL_FORWARD;
  63:..\source/calcps2pwm.c ****             pwm_step = LEFT_PWM_FORWARD_DOMAIN / (CAL_NUM_SAMPLES - 1);
  64:..\source/calcps2pwm.c ****             *reverse_pwm = 0;
  38              		.loc 1 64 0
  39 0004 1970     		strb	r1, [r3]
  62:..\source/calcps2pwm.c ****             pwm_step = LEFT_PWM_FORWARD_DOMAIN / (CAL_NUM_SAMPLES - 1);
  40              		.loc 1 62 0
  41 0006 4FF4FA60 		mov	r0, #2000
  42              	.LVL2:
  61:..\source/calcps2pwm.c ****             pwm_end = LEFT_PWM_FULL_FORWARD;
  43              		.loc 1 61 0
  44 000a 40F2DC53 		movw	r3, #1500
  45              	.LVL3:
  46 000e 05E0     		b	.L4
  47              	.LVL4:
  48              	.L3:
ARM GAS  C:\Users\Tim\AppData\Local\Temp\ccsaiBj4.s 			page 3


  65:..\source/calcps2pwm.c ****         }
  66:..\source/calcps2pwm.c ****         else
  67:..\source/calcps2pwm.c ****         {
  68:..\source/calcps2pwm.c ****             pwm_start = LEFT_PWM_FULL_BACKWARD;
  69:..\source/calcps2pwm.c ****             pwm_end = LEFT_PWM_STOP;
  70:..\source/calcps2pwm.c ****             pwm_step = LEFT_PWM_BACKWARD_DOMAIN / (CAL_NUM_SAMPLES - 1);
  71:..\source/calcps2pwm.c ****             *reverse_pwm = 1;
  49              		.loc 1 71 0
  50 0010 0121     		movs	r1, #1
  51              	.LVL5:
  52 0012 1970     		strb	r1, [r3]
  69:..\source/calcps2pwm.c ****             pwm_step = LEFT_PWM_BACKWARD_DOMAIN / (CAL_NUM_SAMPLES - 1);
  53              		.loc 1 69 0
  54 0014 40F2DC50 		movw	r0, #1500
  55              	.LVL6:
  68:..\source/calcps2pwm.c ****             pwm_end = LEFT_PWM_STOP;
  56              		.loc 1 68 0
  57 0018 4FF47A73 		mov	r3, #1000
  58              	.LVL7:
  59              	.L4:
  72:..\source/calcps2pwm.c ****         }
  73:..\source/calcps2pwm.c **** 
  74:..\source/calcps2pwm.c ****         uint8 ii;
  75:..\source/calcps2pwm.c ****         for (ii = 0, pwm = pwm_start; pwm <= pwm_end; ++ii, pwm += pwm_step)
  60              		.loc 1 75 0
  61 001c 0021     		movs	r1, #0
  62 001e 05E0     		b	.L5
  63              	.LVL8:
  64              	.L6:
  76:..\source/calcps2pwm.c ****         {
  77:..\source/calcps2pwm.c ****             pwm_samples[ii] = pwm;
  65              		.loc 1 77 0 discriminator 3
  66 0020 22F81130 		strh	r3, [r2, r1, lsl #1]	@ movhi
  75:..\source/calcps2pwm.c ****         {
  67              		.loc 1 75 0 discriminator 3
  68 0024 0131     		adds	r1, r1, #1
  69              	.LVL9:
  70 0026 C9B2     		uxtb	r1, r1
  71              	.LVL10:
  72 0028 0A33     		adds	r3, r3, #10
  73              	.LVL11:
  74 002a 9BB2     		uxth	r3, r3
  75              	.LVL12:
  76              	.L5:
  75:..\source/calcps2pwm.c ****         {
  77              		.loc 1 75 0 is_stmt 0 discriminator 1
  78 002c 8342     		cmp	r3, r0
  79 002e F7D9     		bls	.L6
  80 0030 7047     		bx	lr
  81              	.LVL13:
  82              	.L2:
  83              	.LBE2:
  84              	.LBB3:
  78:..\source/calcps2pwm.c ****         }
  79:..\source/calcps2pwm.c ****     }
  80:..\source/calcps2pwm.c ****     else
  81:..\source/calcps2pwm.c ****     {
ARM GAS  C:\Users\Tim\AppData\Local\Temp\ccsaiBj4.s 			page 4


  82:..\source/calcps2pwm.c ****         if (dir == FORWARD_DIR)
  85              		.loc 1 82 0 is_stmt 1
  86 0032 29B9     		cbnz	r1, .L8
  87              	.LVL14:
  83:..\source/calcps2pwm.c ****         {
  84:..\source/calcps2pwm.c ****             pwm_start = RIGHT_PWM_STOP;
  85:..\source/calcps2pwm.c ****             pwm_end = RIGHT_PWM_FULL_FORWARD;
  86:..\source/calcps2pwm.c ****             pwm_step = RIGHT_PWM_FORWARD_DOMAIN / (CAL_NUM_SAMPLES - 1);
  87:..\source/calcps2pwm.c ****             *reverse_pwm = 0;
  88              		.loc 1 87 0
  89 0034 1970     		strb	r1, [r3]
  85:..\source/calcps2pwm.c ****             pwm_step = RIGHT_PWM_FORWARD_DOMAIN / (CAL_NUM_SAMPLES - 1);
  90              		.loc 1 85 0
  91 0036 4FF47A70 		mov	r0, #1000
  92              	.LVL15:
  84:..\source/calcps2pwm.c ****             pwm_end = RIGHT_PWM_FULL_FORWARD;
  93              		.loc 1 84 0
  94 003a 40F2DC53 		movw	r3, #1500
  95              	.LVL16:
  96 003e 05E0     		b	.L9
  97              	.LVL17:
  98              	.L8:
  88:..\source/calcps2pwm.c ****         }
  89:..\source/calcps2pwm.c ****         else
  90:..\source/calcps2pwm.c ****         {
  91:..\source/calcps2pwm.c ****             pwm_start = RIGHT_PWM_FULL_BACKWARD;
  92:..\source/calcps2pwm.c ****             pwm_end = RIGHT_PWM_STOP;
  93:..\source/calcps2pwm.c ****             pwm_step = RIGHT_PWM_BACKWARD_DOMAIN / (CAL_NUM_SAMPLES - 1);
  94:..\source/calcps2pwm.c ****             *reverse_pwm = 1;
  99              		.loc 1 94 0
 100 0040 0121     		movs	r1, #1
 101              	.LVL18:
 102 0042 1970     		strb	r1, [r3]
  92:..\source/calcps2pwm.c ****             pwm_step = RIGHT_PWM_BACKWARD_DOMAIN / (CAL_NUM_SAMPLES - 1);
 103              		.loc 1 92 0
 104 0044 40F2DC50 		movw	r0, #1500
 105              	.LVL19:
  91:..\source/calcps2pwm.c ****             pwm_end = RIGHT_PWM_STOP;
 106              		.loc 1 91 0
 107 0048 4FF4FA63 		mov	r3, #2000
 108              	.LVL20:
 109              	.L9:
  95:..\source/calcps2pwm.c ****         }
  96:..\source/calcps2pwm.c ****         uint8 ii;
  97:..\source/calcps2pwm.c ****         for (ii = 0, pwm = pwm_start; pwm >= pwm_end; ++ii, pwm -= pwm_step)
 110              		.loc 1 97 0
 111 004c 0021     		movs	r1, #0
 112 004e 05E0     		b	.L10
 113              	.LVL21:
 114              	.L11:
  98:..\source/calcps2pwm.c ****         {
  99:..\source/calcps2pwm.c ****             pwm_samples[ii] = pwm;
 115              		.loc 1 99 0 discriminator 3
 116 0050 22F81130 		strh	r3, [r2, r1, lsl #1]	@ movhi
  97:..\source/calcps2pwm.c ****         {
 117              		.loc 1 97 0 discriminator 3
 118 0054 0131     		adds	r1, r1, #1
ARM GAS  C:\Users\Tim\AppData\Local\Temp\ccsaiBj4.s 			page 5


 119              	.LVL22:
 120 0056 C9B2     		uxtb	r1, r1
 121              	.LVL23:
 122 0058 0A3B     		subs	r3, r3, #10
 123              	.LVL24:
 124 005a 9BB2     		uxth	r3, r3
 125              	.LVL25:
 126              	.L10:
  97:..\source/calcps2pwm.c ****         {
 127              		.loc 1 97 0 is_stmt 0 discriminator 1
 128 005c 8342     		cmp	r3, r0
 129 005e F7D2     		bcs	.L11
 130 0060 7047     		bx	lr
 131              	.LBE3:
 132              		.cfi_endproc
 133              	.LFE63:
 134              		.size	CalculatePwmSamples, .-CalculatePwmSamples
 135 0062 00BF     		.section	.text.AddSamplesToSum,"ax",%progbits
 136              		.align	2
 137              		.thumb
 138              		.thumb_func
 139              		.type	AddSamplesToSum, %function
 140              	AddSamplesToSum:
 141              	.LFB64:
 100:..\source/calcps2pwm.c ****         }
 101:..\source/calcps2pwm.c ****         
 102:..\source/calcps2pwm.c ****     }
 103:..\source/calcps2pwm.c **** }
 104:..\source/calcps2pwm.c **** 
 105:..\source/calcps2pwm.c **** static void AddSamplesToSum(int32 *cps_samples, int32 *cps_sum)
 106:..\source/calcps2pwm.c **** {
 142              		.loc 1 106 0 is_stmt 1
 143              		.cfi_startproc
 144              		@ args = 0, pretend = 0, frame = 0
 145              		@ frame_needed = 0, uses_anonymous_args = 0
 146              		@ link register save eliminated.
 147              	.LVL26:
 148 0000 10B4     		push	{r4}
 149              		.cfi_def_cfa_offset 4
 150              		.cfi_offset 4, -4
 151              	.LVL27:
 107:..\source/calcps2pwm.c ****     uint8 ii;
 108:..\source/calcps2pwm.c ****     for (ii = 0; ii < CAL_NUM_SAMPLES; ++ii)
 152              		.loc 1 108 0
 153 0002 0023     		movs	r3, #0
 154 0004 08E0     		b	.L13
 155              	.LVL28:
 156              	.L14:
 109:..\source/calcps2pwm.c ****     {
 110:..\source/calcps2pwm.c ****         cps_sum[ii] += cps_samples[ii];
 157              		.loc 1 110 0 discriminator 3
 158 0006 50F82320 		ldr	r2, [r0, r3, lsl #2]
 159 000a 51F82340 		ldr	r4, [r1, r3, lsl #2]
 160 000e 2244     		add	r2, r2, r4
 161 0010 41F82320 		str	r2, [r1, r3, lsl #2]
 108:..\source/calcps2pwm.c ****     {
 162              		.loc 1 108 0 discriminator 3
ARM GAS  C:\Users\Tim\AppData\Local\Temp\ccsaiBj4.s 			page 6


 163 0014 0133     		adds	r3, r3, #1
 164              	.LVL29:
 165 0016 DBB2     		uxtb	r3, r3
 166              	.LVL30:
 167              	.L13:
 108:..\source/calcps2pwm.c ****     {
 168              		.loc 1 108 0 is_stmt 0 discriminator 1
 169 0018 322B     		cmp	r3, #50
 170 001a F4D9     		bls	.L14
 111:..\source/calcps2pwm.c ****     }
 112:..\source/calcps2pwm.c **** }
 171              		.loc 1 112 0 is_stmt 1
 172 001c 5DF8044B 		ldr	r4, [sp], #4
 173              		.cfi_restore 4
 174              		.cfi_def_cfa_offset 0
 175 0020 7047     		bx	lr
 176              		.cfi_endproc
 177              	.LFE64:
 178              		.size	AddSamplesToSum, .-AddSamplesToSum
 179 0022 00BF     		.section	.text.CalculateAvgCpsSamples,"ax",%progbits
 180              		.align	2
 181              		.thumb
 182              		.thumb_func
 183              		.type	CalculateAvgCpsSamples, %function
 184              	CalculateAvgCpsSamples:
 185              	.LFB65:
 113:..\source/calcps2pwm.c ****     
 114:..\source/calcps2pwm.c **** static void CalculateAvgCpsSamples(int32 *cps_sum, uint8 num_runs, int32 *avg_cps_samples)
 115:..\source/calcps2pwm.c **** {
 186              		.loc 1 115 0
 187              		.cfi_startproc
 188              		@ args = 0, pretend = 0, frame = 0
 189              		@ frame_needed = 0, uses_anonymous_args = 0
 190              		@ link register save eliminated.
 191              	.LVL31:
 192 0000 10B4     		push	{r4}
 193              		.cfi_def_cfa_offset 4
 194              		.cfi_offset 4, -4
 195              	.LVL32:
 116:..\source/calcps2pwm.c ****     uint8 ii;
 117:..\source/calcps2pwm.c ****     for (ii = 0; ii < CAL_NUM_SAMPLES; ++ii)
 196              		.loc 1 117 0
 197 0002 0023     		movs	r3, #0
 198 0004 07E0     		b	.L17
 199              	.LVL33:
 200              	.L18:
 118:..\source/calcps2pwm.c ****     {
 119:..\source/calcps2pwm.c ****         avg_cps_samples[ii] = cps_sum[ii]/num_runs;
 201              		.loc 1 119 0 discriminator 3
 202 0006 50F82340 		ldr	r4, [r0, r3, lsl #2]
 203 000a 94FBF1F4 		sdiv	r4, r4, r1
 204 000e 42F82340 		str	r4, [r2, r3, lsl #2]
 117:..\source/calcps2pwm.c ****     {
 205              		.loc 1 117 0 discriminator 3
 206 0012 0133     		adds	r3, r3, #1
 207              	.LVL34:
 208 0014 DBB2     		uxtb	r3, r3
ARM GAS  C:\Users\Tim\AppData\Local\Temp\ccsaiBj4.s 			page 7


 209              	.LVL35:
 210              	.L17:
 117:..\source/calcps2pwm.c ****     {
 211              		.loc 1 117 0 is_stmt 0 discriminator 1
 212 0016 322B     		cmp	r3, #50
 213 0018 F5D9     		bls	.L18
 120:..\source/calcps2pwm.c ****     }
 121:..\source/calcps2pwm.c **** }
 214              		.loc 1 121 0 is_stmt 1
 215 001a 5DF8044B 		ldr	r4, [sp], #4
 216              		.cfi_restore 4
 217              		.cfi_def_cfa_offset 0
 218 001e 7047     		bx	lr
 219              		.cfi_endproc
 220              	.LFE65:
 221              		.size	CalculateAvgCpsSamples, .-CalculateAvgCpsSamples
 222              		.section	.text.CalculateMinMaxCpsSample,"ax",%progbits
 223              		.align	2
 224              		.thumb
 225              		.thumb_func
 226              		.type	CalculateMinMaxCpsSample, %function
 227              	CalculateMinMaxCpsSample:
 228              	.LFB66:
 122:..\source/calcps2pwm.c **** 
 123:..\source/calcps2pwm.c **** static void CalculateMinMaxCpsSample(int32 *samples, uint8 num_samples, int32 *min, int32 *max)
 124:..\source/calcps2pwm.c **** {
 229              		.loc 1 124 0
 230              		.cfi_startproc
 231              		@ args = 0, pretend = 0, frame = 0
 232              		@ frame_needed = 0, uses_anonymous_args = 0
 233              		@ link register save eliminated.
 234              	.LVL36:
 235 0000 F0B4     		push	{r4, r5, r6, r7}
 236              		.cfi_def_cfa_offset 16
 237              		.cfi_offset 4, -16
 238              		.cfi_offset 5, -12
 239              		.cfi_offset 6, -8
 240              		.cfi_offset 7, -4
 125:..\source/calcps2pwm.c ****     uint8 ii;
 126:..\source/calcps2pwm.c ****     *min = 65535;
 241              		.loc 1 126 0
 242 0002 4FF6FF74 		movw	r4, #65535
 243 0006 1460     		str	r4, [r2]
 127:..\source/calcps2pwm.c ****     *max = -65535;
 244              		.loc 1 127 0
 245 0008 0A4C     		ldr	r4, .L26
 246 000a 1C60     		str	r4, [r3]
 247              	.LVL37:
 128:..\source/calcps2pwm.c ****     
 129:..\source/calcps2pwm.c ****     for (ii = 0; ii < num_samples; ++ii)
 248              		.loc 1 129 0
 249 000c 0024     		movs	r4, #0
 250 000e 0DE0     		b	.L21
 251              	.LVL38:
 252              	.L24:
 130:..\source/calcps2pwm.c ****     {
 131:..\source/calcps2pwm.c ****         if (samples[ii] > *max)
ARM GAS  C:\Users\Tim\AppData\Local\Temp\ccsaiBj4.s 			page 8


 253              		.loc 1 131 0
 254 0010 A600     		lsls	r6, r4, #2
 255 0012 50F82450 		ldr	r5, [r0, r4, lsl #2]
 256 0016 1F68     		ldr	r7, [r3]
 257 0018 BD42     		cmp	r5, r7
 258 001a 00DD     		ble	.L22
 132:..\source/calcps2pwm.c ****         {
 133:..\source/calcps2pwm.c ****             *max = samples[ii];
 259              		.loc 1 133 0
 260 001c 1D60     		str	r5, [r3]
 261              	.L22:
 134:..\source/calcps2pwm.c ****         }
 135:..\source/calcps2pwm.c ****         if (samples[ii] < *min)
 262              		.loc 1 135 0
 263 001e 8559     		ldr	r5, [r0, r6]
 264 0020 1668     		ldr	r6, [r2]
 265 0022 B542     		cmp	r5, r6
 266 0024 00DA     		bge	.L23
 136:..\source/calcps2pwm.c ****         {
 137:..\source/calcps2pwm.c ****             *min = samples[ii];
 267              		.loc 1 137 0
 268 0026 1560     		str	r5, [r2]
 269              	.L23:
 129:..\source/calcps2pwm.c ****     {
 270              		.loc 1 129 0 discriminator 2
 271 0028 0134     		adds	r4, r4, #1
 272              	.LVL39:
 273 002a E4B2     		uxtb	r4, r4
 274              	.LVL40:
 275              	.L21:
 129:..\source/calcps2pwm.c ****     {
 276              		.loc 1 129 0 is_stmt 0 discriminator 1
 277 002c 8C42     		cmp	r4, r1
 278 002e EFD3     		bcc	.L24
 138:..\source/calcps2pwm.c ****         }
 139:..\source/calcps2pwm.c ****     }
 140:..\source/calcps2pwm.c **** }
 279              		.loc 1 140 0 is_stmt 1
 280 0030 F0BC     		pop	{r4, r5, r6, r7}
 281              		.cfi_restore 7
 282              		.cfi_restore 6
 283              		.cfi_restore 5
 284              		.cfi_restore 4
 285              		.cfi_def_cfa_offset 0
 286              	.LVL41:
 287 0032 7047     		bx	lr
 288              	.L27:
 289              		.align	2
 290              	.L26:
 291 0034 0100FFFF 		.word	-65535
 292              		.cfi_endproc
 293              	.LFE66:
 294              		.size	CalculateMinMaxCpsSample, .-CalculateMinMaxCpsSample
 295              		.section	.text.CalibrateWheelSpeed,"ax",%progbits
 296              		.align	2
 297              		.thumb
 298              		.thumb_func
ARM GAS  C:\Users\Tim\AppData\Local\Temp\ccsaiBj4.s 			page 9


 299              		.type	CalibrateWheelSpeed, %function
 300              	CalibrateWheelSpeed:
 301              	.LFB67:
 141:..\source/calcps2pwm.c **** 
 142:..\source/calcps2pwm.c **** static void CalibrateWheelSpeed(WHEEL_TYPE wheel, DIR_TYPE dir, uint8 num_runs, int32 *cps_samples,
 143:..\source/calcps2pwm.c **** /*
 144:..\source/calcps2pwm.c ****     calculate the PWM samples
 145:..\source/calcps2pwm.c ****         Note: the pwm samples depend on the wheel and direction
 146:..\source/calcps2pwm.c ****     for the number of runs
 147:..\source/calcps2pwm.c ****         collect cps-to-pwm samples
 148:..\source/calcps2pwm.c ****         add the samples to the sum (for averaging)
 149:..\source/calcps2pwm.c **** 
 150:..\source/calcps2pwm.c ****     calculate the average cps for each pwm
 151:..\source/calcps2pwm.c **** */
 152:..\source/calcps2pwm.c **** {
 302              		.loc 1 152 0
 303              		.cfi_startproc
 304              		@ args = 4, pretend = 0, frame = 8
 305              		@ frame_needed = 0, uses_anonymous_args = 0
 306              	.LVL42:
 307 0000 2DE9F041 		push	{r4, r5, r6, r7, r8, lr}
 308              		.cfi_def_cfa_offset 24
 309              		.cfi_offset 4, -24
 310              		.cfi_offset 5, -20
 311              		.cfi_offset 6, -16
 312              		.cfi_offset 7, -12
 313              		.cfi_offset 8, -8
 314              		.cfi_offset 14, -4
 315 0004 84B0     		sub	sp, sp, #16
 316              		.cfi_def_cfa_offset 40
 317 0006 8046     		mov	r8, r0
 318 0008 1746     		mov	r7, r2
 319 000a 1D46     		mov	r5, r3
 320 000c 0A9E     		ldr	r6, [sp, #40]
 321              	.LVL43:
 153:..\source/calcps2pwm.c ****     uint8 run;
 154:..\source/calcps2pwm.c ****     uint8 num_avg_iter = 10;
 155:..\source/calcps2pwm.c ****     uint8 reverse_pwm;
 156:..\source/calcps2pwm.c ****     
 157:..\source/calcps2pwm.c ****     
 158:..\source/calcps2pwm.c ****     CalculatePwmSamples(wheel, dir, pwm_samples, &reverse_pwm);
 322              		.loc 1 158 0
 323 000e 3246     		mov	r2, r6
 324              	.LVL44:
 325 0010 0DF10F03 		add	r3, sp, #15
 326              	.LVL45:
 327 0014 FFF7FEFF 		bl	CalculatePwmSamples
 328              	.LVL46:
 159:..\source/calcps2pwm.c **** 
 160:..\source/calcps2pwm.c ****     memset(cps_sum, 0, CAL_NUM_SAMPLES * sizeof(int32));
 329              		.loc 1 160 0
 330 0018 0F48     		ldr	r0, .L32
 331 001a 0021     		movs	r1, #0
 332 001c CC22     		movs	r2, #204
 333 001e FFF7FEFF 		bl	memset
 334              	.LVL47:
 161:..\source/calcps2pwm.c ****     
ARM GAS  C:\Users\Tim\AppData\Local\Temp\ccsaiBj4.s 			page 10


 162:..\source/calcps2pwm.c ****     for (run = 0; run < num_runs; ++run)
 335              		.loc 1 162 0
 336 0022 0024     		movs	r4, #0
 337 0024 0DE0     		b	.L29
 338              	.LVL48:
 339              	.L30:
 163:..\source/calcps2pwm.c ****     {
 164:..\source/calcps2pwm.c ****         Motor_CollectPwmCpsSamples(wheel, reverse_pwm, num_avg_iter, pwm_samples, cps_samples);
 340              		.loc 1 164 0 discriminator 3
 341 0026 9DF80F10 		ldrb	r1, [sp, #15]	@ zero_extendqisi2
 342 002a 0095     		str	r5, [sp]
 343 002c 4046     		mov	r0, r8
 344 002e 0A22     		movs	r2, #10
 345 0030 3346     		mov	r3, r6
 346 0032 FFF7FEFF 		bl	Motor_CollectPwmCpsSamples
 347              	.LVL49:
 165:..\source/calcps2pwm.c ****         AddSamplesToSum(cps_samples, cps_sum);
 348              		.loc 1 165 0 discriminator 3
 349 0036 2846     		mov	r0, r5
 350 0038 0749     		ldr	r1, .L32
 351 003a FFF7FEFF 		bl	AddSamplesToSum
 352              	.LVL50:
 162:..\source/calcps2pwm.c ****     {
 353              		.loc 1 162 0 discriminator 3
 354 003e 0134     		adds	r4, r4, #1
 355              	.LVL51:
 356 0040 E4B2     		uxtb	r4, r4
 357              	.LVL52:
 358              	.L29:
 162:..\source/calcps2pwm.c ****     {
 359              		.loc 1 162 0 is_stmt 0 discriminator 1
 360 0042 BC42     		cmp	r4, r7
 361 0044 EFD3     		bcc	.L30
 166:..\source/calcps2pwm.c ****     }
 167:..\source/calcps2pwm.c ****     
 168:..\source/calcps2pwm.c ****     CalculateAvgCpsSamples(cps_sum, num_runs, cps_samples);
 362              		.loc 1 168 0 is_stmt 1
 363 0046 0448     		ldr	r0, .L32
 364 0048 3946     		mov	r1, r7
 365 004a 2A46     		mov	r2, r5
 366 004c FFF7FEFF 		bl	CalculateAvgCpsSamples
 367              	.LVL53:
 169:..\source/calcps2pwm.c **** }
 368              		.loc 1 169 0
 369 0050 04B0     		add	sp, sp, #16
 370              		.cfi_def_cfa_offset 24
 371              		@ sp needed
 372 0052 BDE8F081 		pop	{r4, r5, r6, r7, r8, pc}
 373              	.LVL54:
 374              	.L33:
 375 0056 00BF     		.align	2
 376              	.L32:
 377 0058 00000000 		.word	.LANCHOR0
 378              		.cfi_endproc
 379              	.LFE67:
 380              		.size	CalibrateWheelSpeed, .-CalibrateWheelSpeed
 381              		.section	.text.OutputSamples,"ax",%progbits
ARM GAS  C:\Users\Tim\AppData\Local\Temp\ccsaiBj4.s 			page 11


 382              		.align	2
 383              		.thumb
 384              		.thumb_func
 385              		.type	OutputSamples, %function
 386              	OutputSamples:
 387              	.LFB69:
 170:..\source/calcps2pwm.c **** 
 171:..\source/calcps2pwm.c **** static void StoreWheelSpeed(WHEEL_TYPE wheel, DIR_TYPE dir, int32 *cps_samples, uint16 *pwm_samples
 172:..\source/calcps2pwm.c **** {
 173:..\source/calcps2pwm.c ****     CalculateMinMaxCpsSample(cps_samples, CAL_NUM_SAMPLES, &cal_data.cps_min, &cal_data.cps_max);
 174:..\source/calcps2pwm.c ****     cal_data.cps_scale = CAL_SCALE_FACTOR;
 175:..\source/calcps2pwm.c ****     memcpy(cal_data.cps_data, cps_samples, CAL_NUM_SAMPLES);
 176:..\source/calcps2pwm.c ****     memcpy(cal_data.pwm_data, pwm_samples, CAL_NUM_SAMPLES);
 177:..\source/calcps2pwm.c **** 
 178:..\source/calcps2pwm.c ****     CAL_DATA_TYPE *p_cal_data;
 179:..\source/calcps2pwm.c ****     if (wheel == LEFT_WHEEL)
 180:..\source/calcps2pwm.c ****     {
 181:..\source/calcps2pwm.c ****         if (dir == FORWARD_DIR)
 182:..\source/calcps2pwm.c ****         {
 183:..\source/calcps2pwm.c ****             p_cal_data = (CAL_DATA_TYPE *) &p_cal_eeprom->left_motor_fwd;
 184:..\source/calcps2pwm.c ****         }
 185:..\source/calcps2pwm.c ****         else
 186:..\source/calcps2pwm.c ****         {
 187:..\source/calcps2pwm.c ****             p_cal_data = (CAL_DATA_TYPE *) &p_cal_eeprom->left_motor_bwd;
 188:..\source/calcps2pwm.c ****         }
 189:..\source/calcps2pwm.c ****     }
 190:..\source/calcps2pwm.c ****     else
 191:..\source/calcps2pwm.c ****     {
 192:..\source/calcps2pwm.c ****         if (dir == FORWARD_DIR)
 193:..\source/calcps2pwm.c ****         {
 194:..\source/calcps2pwm.c ****             p_cal_data = (CAL_DATA_TYPE *) &p_cal_eeprom->left_motor_fwd;
 195:..\source/calcps2pwm.c ****         }
 196:..\source/calcps2pwm.c ****         else
 197:..\source/calcps2pwm.c ****         {
 198:..\source/calcps2pwm.c ****             p_cal_data = (CAL_DATA_TYPE *) &p_cal_eeprom->left_motor_bwd;
 199:..\source/calcps2pwm.c ****         }
 200:..\source/calcps2pwm.c ****     }
 201:..\source/calcps2pwm.c ****     
 202:..\source/calcps2pwm.c ****     uint16 offset = NVSTORE_CAL_EEPROM_ADDR_TO_OFFSET(p_cal_data);
 203:..\source/calcps2pwm.c ****     Nvstore_WriteBytes((uint8 *) &cal_data, sizeof(cal_data), offset);
 204:..\source/calcps2pwm.c **** }
 205:..\source/calcps2pwm.c **** 
 206:..\source/calcps2pwm.c **** static void OutputSamples(int32 *cps_samples, uint16 *pwm_samples)
 207:..\source/calcps2pwm.c **** {
 388              		.loc 1 207 0
 389              		.cfi_startproc
 390              		@ args = 0, pretend = 0, frame = 104
 391              		@ frame_needed = 0, uses_anonymous_args = 0
 392              	.LVL55:
 393 0000 70B5     		push	{r4, r5, r6, lr}
 394              		.cfi_def_cfa_offset 16
 395              		.cfi_offset 4, -16
 396              		.cfi_offset 5, -12
 397              		.cfi_offset 6, -8
 398              		.cfi_offset 14, -4
 399 0002 9AB0     		sub	sp, sp, #104
 400              		.cfi_def_cfa_offset 120
ARM GAS  C:\Users\Tim\AppData\Local\Temp\ccsaiBj4.s 			page 12


 401 0004 0646     		mov	r6, r0
 402 0006 0D46     		mov	r5, r1
 403              	.LVL56:
 208:..\source/calcps2pwm.c ****     uint8 ii;
 209:..\source/calcps2pwm.c ****     char  buffer[100];
 210:..\source/calcps2pwm.c ****     
 211:..\source/calcps2pwm.c ****     for (ii = 0; ii < CAL_NUM_SAMPLES - 1; ++ii)
 404              		.loc 1 211 0
 405 0008 0024     		movs	r4, #0
 406 000a 0CE0     		b	.L35
 407              	.LVL57:
 408              	.L36:
 212:..\source/calcps2pwm.c ****     {
 213:..\source/calcps2pwm.c ****         sprintf(buffer, "%ld -> %d,", cps_samples[ii], pwm_samples[ii]);
 409              		.loc 1 213 0 discriminator 3
 410 000c 01A8     		add	r0, sp, #4
 411 000e 0D49     		ldr	r1, .L38
 412 0010 56F82420 		ldr	r2, [r6, r4, lsl #2]
 413 0014 35F81430 		ldrh	r3, [r5, r4, lsl #1]
 414 0018 FFF7FEFF 		bl	sprintf
 415              	.LVL58:
 214:..\source/calcps2pwm.c ****         Ser_PutString(buffer);
 416              		.loc 1 214 0 discriminator 3
 417 001c 01A8     		add	r0, sp, #4
 418 001e FFF7FEFF 		bl	Ser_PutString
 419              	.LVL59:
 211:..\source/calcps2pwm.c ****     {
 420              		.loc 1 211 0 discriminator 3
 421 0022 0134     		adds	r4, r4, #1
 422              	.LVL60:
 423 0024 E4B2     		uxtb	r4, r4
 424              	.LVL61:
 425              	.L35:
 211:..\source/calcps2pwm.c ****     {
 426              		.loc 1 211 0 is_stmt 0 discriminator 1
 427 0026 312C     		cmp	r4, #49
 428 0028 F0D9     		bls	.L36
 215:..\source/calcps2pwm.c ****     }
 216:..\source/calcps2pwm.c ****     sprintf(buffer, "%ld -> %d", cps_samples[ii], pwm_samples[ii]);
 429              		.loc 1 216 0 is_stmt 1
 430 002a 01A8     		add	r0, sp, #4
 431 002c 0649     		ldr	r1, .L38+4
 432 002e 56F82420 		ldr	r2, [r6, r4, lsl #2]
 433 0032 35F81430 		ldrh	r3, [r5, r4, lsl #1]
 434 0036 FFF7FEFF 		bl	sprintf
 435              	.LVL62:
 217:..\source/calcps2pwm.c ****     Ser_PutString(buffer);
 436              		.loc 1 217 0
 437 003a 01A8     		add	r0, sp, #4
 438 003c FFF7FEFF 		bl	Ser_PutString
 439              	.LVL63:
 218:..\source/calcps2pwm.c **** }
 440              		.loc 1 218 0
 441 0040 1AB0     		add	sp, sp, #104
 442              		.cfi_def_cfa_offset 16
 443              		@ sp needed
 444 0042 70BD     		pop	{r4, r5, r6, pc}
ARM GAS  C:\Users\Tim\AppData\Local\Temp\ccsaiBj4.s 			page 13


 445              	.LVL64:
 446              	.L39:
 447              		.align	2
 448              	.L38:
 449 0044 00000000 		.word	.LC0
 450 0048 0C000000 		.word	.LC1
 451              		.cfi_endproc
 452              	.LFE69:
 453              		.size	OutputSamples, .-OutputSamples
 454              		.section	.text.StoreWheelSpeed,"ax",%progbits
 455              		.align	2
 456              		.thumb
 457              		.thumb_func
 458              		.type	StoreWheelSpeed, %function
 459              	StoreWheelSpeed:
 460              	.LFB68:
 172:..\source/calcps2pwm.c ****     CalculateMinMaxCpsSample(cps_samples, CAL_NUM_SAMPLES, &cal_data.cps_min, &cal_data.cps_max);
 461              		.loc 1 172 0
 462              		.cfi_startproc
 463              		@ args = 0, pretend = 0, frame = 0
 464              		@ frame_needed = 0, uses_anonymous_args = 0
 465              	.LVL65:
 466 0000 2DE9F843 		push	{r3, r4, r5, r6, r7, r8, r9, lr}
 467              		.cfi_def_cfa_offset 32
 468              		.cfi_offset 3, -32
 469              		.cfi_offset 4, -28
 470              		.cfi_offset 5, -24
 471              		.cfi_offset 6, -20
 472              		.cfi_offset 7, -16
 473              		.cfi_offset 8, -12
 474              		.cfi_offset 9, -8
 475              		.cfi_offset 14, -4
 476 0004 8146     		mov	r9, r0
 477 0006 8846     		mov	r8, r1
 478 0008 1546     		mov	r5, r2
 479 000a 1F46     		mov	r7, r3
 173:..\source/calcps2pwm.c ****     cal_data.cps_scale = CAL_SCALE_FACTOR;
 480              		.loc 1 173 0
 481 000c 294E     		ldr	r6, .L48
 482 000e 1046     		mov	r0, r2
 483              	.LVL66:
 484 0010 3321     		movs	r1, #51
 485              	.LVL67:
 486 0012 06F1CC02 		add	r2, r6, #204
 487              	.LVL68:
 488 0016 06F1D003 		add	r3, r6, #208
 489              	.LVL69:
 490 001a FFF7FEFF 		bl	CalculateMinMaxCpsSample
 491              	.LVL70:
 174:..\source/calcps2pwm.c ****     memcpy(cal_data.cps_data, cps_samples, CAL_NUM_SAMPLES);
 492              		.loc 1 174 0
 493 001e 6423     		movs	r3, #100
 494 0020 C6F8D430 		str	r3, [r6, #212]
 175:..\source/calcps2pwm.c ****     memcpy(cal_data.pwm_data, pwm_samples, CAL_NUM_SAMPLES);
 495              		.loc 1 175 0
 496 0024 2C46     		mov	r4, r5
 497 0026 06F1D80E 		add	lr, r6, #216
ARM GAS  C:\Users\Tim\AppData\Local\Temp\ccsaiBj4.s 			page 14


 498 002a 05F13006 		add	r6, r5, #48
 499              	.LVL71:
 500              	.L41:
 501 002e 7546     		mov	r5, lr
 502 0030 2068     		ldr	r0, [r4]	@ unaligned
 503 0032 6168     		ldr	r1, [r4, #4]	@ unaligned
 504 0034 A268     		ldr	r2, [r4, #8]	@ unaligned
 505 0036 E368     		ldr	r3, [r4, #12]	@ unaligned
 506 0038 0FC5     		stmia	r5!, {r0, r1, r2, r3}
 507 003a 1034     		adds	r4, r4, #16
 508 003c AE46     		mov	lr, r5
 509 003e B442     		cmp	r4, r6
 510 0040 F5D1     		bne	.L41
 511 0042 2288     		ldrh	r2, [r4]	@ unaligned
 512 0044 A378     		ldrb	r3, [r4, #2]	@ zero_extendqisi2
 513 0046 2A80     		strh	r2, [r5]	@ unaligned
 514 0048 AB70     		strb	r3, [r5, #2]
 176:..\source/calcps2pwm.c **** 
 515              		.loc 1 176 0
 516 004a 3C46     		mov	r4, r7
 517 004c 1A4E     		ldr	r6, .L48+4
 518              	.LVL72:
 519 004e 3037     		adds	r7, r7, #48
 520              	.LVL73:
 521              	.L42:
 522 0050 3546     		mov	r5, r6
 523 0052 2068     		ldr	r0, [r4]	@ unaligned
 524 0054 6168     		ldr	r1, [r4, #4]	@ unaligned
 525 0056 A268     		ldr	r2, [r4, #8]	@ unaligned
 526 0058 E368     		ldr	r3, [r4, #12]	@ unaligned
 527 005a 0FC5     		stmia	r5!, {r0, r1, r2, r3}
 528 005c 1034     		adds	r4, r4, #16
 529 005e 2E46     		mov	r6, r5
 530 0060 BC42     		cmp	r4, r7
 531 0062 F5D1     		bne	.L42
 532 0064 2288     		ldrh	r2, [r4]	@ unaligned
 533 0066 A378     		ldrb	r3, [r4, #2]	@ zero_extendqisi2
 534 0068 2A80     		strh	r2, [r5]	@ unaligned
 535 006a AB70     		strb	r3, [r5, #2]
 179:..\source/calcps2pwm.c ****     {
 536              		.loc 1 179 0
 537 006c B9F1000F 		cmp	r9, #0
 538 0070 0BD1     		bne	.L43
 181:..\source/calcps2pwm.c ****         {
 539              		.loc 1 181 0
 540 0072 B8F1000F 		cmp	r8, #0
 541 0076 03D1     		bne	.L44
 183:..\source/calcps2pwm.c ****         }
 542              		.loc 1 183 0
 543 0078 104B     		ldr	r3, .L48+8
 544 007a 1A68     		ldr	r2, [r3]
 545 007c 3032     		adds	r2, r2, #48
 546              	.LVL74:
 547 007e 0FE0     		b	.L45
 548              	.LVL75:
 549              	.L44:
 187:..\source/calcps2pwm.c ****         }
ARM GAS  C:\Users\Tim\AppData\Local\Temp\ccsaiBj4.s 			page 15


 550              		.loc 1 187 0
 551 0080 0E4B     		ldr	r3, .L48+8
 552 0082 1A68     		ldr	r2, [r3]
 553 0084 02F5B872 		add	r2, r2, #368
 554              	.LVL76:
 555 0088 0AE0     		b	.L45
 556              	.LVL77:
 557              	.L43:
 192:..\source/calcps2pwm.c ****         {
 558              		.loc 1 192 0
 559 008a B8F1000F 		cmp	r8, #0
 560 008e 03D1     		bne	.L46
 194:..\source/calcps2pwm.c ****         }
 561              		.loc 1 194 0
 562 0090 0A4B     		ldr	r3, .L48+8
 563 0092 1A68     		ldr	r2, [r3]
 564 0094 3032     		adds	r2, r2, #48
 565              	.LVL78:
 566 0096 03E0     		b	.L45
 567              	.LVL79:
 568              	.L46:
 198:..\source/calcps2pwm.c ****         }
 569              		.loc 1 198 0
 570 0098 084B     		ldr	r3, .L48+8
 571 009a 1A68     		ldr	r2, [r3]
 572 009c 02F5B872 		add	r2, r2, #368
 573              	.LVL80:
 574              	.L45:
 202:..\source/calcps2pwm.c ****     Nvstore_WriteBytes((uint8 *) &cal_data, sizeof(cal_data), offset);
 575              		.loc 1 202 0
 576 00a0 92B2     		uxth	r2, r2
 577              	.LVL81:
 203:..\source/calcps2pwm.c **** }
 578              		.loc 1 203 0
 579 00a2 0748     		ldr	r0, .L48+12
 580 00a4 4FF4A071 		mov	r1, #320
 581 00a8 82F40042 		eor	r2, r2, #32768
 582              	.LVL82:
 583 00ac FFF7FEFF 		bl	Nvstore_WriteBytes
 584              	.LVL83:
 585 00b0 BDE8F883 		pop	{r3, r4, r5, r6, r7, r8, r9, pc}
 586              	.LVL84:
 587              	.L49:
 588              		.align	2
 589              	.L48:
 590 00b4 00000000 		.word	.LANCHOR0
 591 00b8 A4010000 		.word	.LANCHOR0+420
 592 00bc 00000000 		.word	p_cal_eeprom
 593 00c0 CC000000 		.word	.LANCHOR0+204
 594              		.cfi_endproc
 595              	.LFE68:
 596              		.size	StoreWheelSpeed, .-StoreWheelSpeed
 597              		.section	.text.PerformCountPerSecToPwmCalibration,"ax",%progbits
 598              		.align	2
 599              		.global	PerformCountPerSecToPwmCalibration
 600              		.thumb
 601              		.thumb_func
ARM GAS  C:\Users\Tim\AppData\Local\Temp\ccsaiBj4.s 			page 16


 602              		.type	PerformCountPerSecToPwmCalibration, %function
 603              	PerformCountPerSecToPwmCalibration:
 604              	.LFB70:
 219:..\source/calcps2pwm.c **** 
 220:..\source/calcps2pwm.c **** void PerformCountPerSecToPwmCalibration(uint8 verbose)
 221:..\source/calcps2pwm.c **** /* 
 222:..\source/calcps2pwm.c ****     Clear Count/Sec to PWM calibration bit
 223:..\source/calcps2pwm.c ****     Perform left/right forward/reverse calibration
 224:..\source/calcps2pwm.c ****     If verbose then write results to serial port
 225:..\source/calcps2pwm.c ****     Store calibration data to EEPROM
 226:..\source/calcps2pwm.c ****     Set Count/Sec to PWM calibration bit
 227:..\source/calcps2pwm.c ****     Update Count/Sec to PWM calibration bit in EEPROM
 228:..\source/calcps2pwm.c ****  */
 229:..\source/calcps2pwm.c **** {
 605              		.loc 1 229 0
 606              		.cfi_startproc
 607              		@ args = 0, pretend = 0, frame = 0
 608              		@ frame_needed = 0, uses_anonymous_args = 0
 609              	.LVL85:
 610 0000 70B5     		push	{r4, r5, r6, lr}
 611              		.cfi_def_cfa_offset 16
 612              		.cfi_offset 4, -16
 613              		.cfi_offset 5, -12
 614              		.cfi_offset 6, -8
 615              		.cfi_offset 14, -4
 616 0002 82B0     		sub	sp, sp, #8
 617              		.cfi_def_cfa_offset 24
 230:..\source/calcps2pwm.c ****     if (verbose)
 618              		.loc 1 230 0
 619 0004 0446     		mov	r4, r0
 620 0006 10B1     		cbz	r0, .L51
 231:..\source/calcps2pwm.c ****     {
 232:..\source/calcps2pwm.c ****         Ser_PutString("Starting Count/Sec To PWM calibration ...\r\n");
 621              		.loc 1 232 0
 622 0008 3C48     		ldr	r0, .L58
 623              	.LVL86:
 624 000a FFF7FEFF 		bl	Ser_PutString
 625              	.LVL87:
 626              	.L51:
 233:..\source/calcps2pwm.c ****     }
 234:..\source/calcps2pwm.c ****     
 235:..\source/calcps2pwm.c ****     CalibrateWheelSpeed(LEFT_WHEEL, FORWARD_DIR, 5, cps_samples, pwm_samples);
 627              		.loc 1 235 0
 628 000e 3C4B     		ldr	r3, .L58+4
 629 0010 03F53672 		add	r2, r3, #728
 630 0014 0092     		str	r2, [sp]
 631 0016 0020     		movs	r0, #0
 632 0018 0146     		mov	r1, r0
 633 001a 0522     		movs	r2, #5
 634 001c 03F50373 		add	r3, r3, #524
 635 0020 FFF7FEFF 		bl	CalibrateWheelSpeed
 636              	.LVL88:
 236:..\source/calcps2pwm.c ****     if (verbose)
 637              		.loc 1 236 0
 638 0024 34B1     		cbz	r4, .L52
 237:..\source/calcps2pwm.c ****     {
 238:..\source/calcps2pwm.c ****         OutputSamples(cps_samples, pwm_samples);
ARM GAS  C:\Users\Tim\AppData\Local\Temp\ccsaiBj4.s 			page 17


 639              		.loc 1 238 0
 640 0026 3649     		ldr	r1, .L58+4
 641 0028 01F50370 		add	r0, r1, #524
 642 002c 01F53671 		add	r1, r1, #728
 643 0030 FFF7FEFF 		bl	OutputSamples
 644              	.LVL89:
 645              	.L52:
 239:..\source/calcps2pwm.c ****     }
 240:..\source/calcps2pwm.c ****     StoreWheelSpeed(LEFT_WHEEL, FORWARD_DIR, cps_samples, pwm_samples);
 646              		.loc 1 240 0
 647 0034 324D     		ldr	r5, .L58+4
 648 0036 05F50376 		add	r6, r5, #524
 649 003a 05F53675 		add	r5, r5, #728
 650 003e 0020     		movs	r0, #0
 651 0040 0146     		mov	r1, r0
 652 0042 3246     		mov	r2, r6
 653 0044 2B46     		mov	r3, r5
 654 0046 FFF7FEFF 		bl	StoreWheelSpeed
 655              	.LVL90:
 241:..\source/calcps2pwm.c **** 
 242:..\source/calcps2pwm.c ****     CalibrateWheelSpeed(LEFT_WHEEL, BACKWARD_DIR, 5, cps_samples, pwm_samples);
 656              		.loc 1 242 0
 657 004a 0095     		str	r5, [sp]
 658 004c 0020     		movs	r0, #0
 659 004e 0121     		movs	r1, #1
 660 0050 0522     		movs	r2, #5
 661 0052 3346     		mov	r3, r6
 662 0054 FFF7FEFF 		bl	CalibrateWheelSpeed
 663              	.LVL91:
 243:..\source/calcps2pwm.c ****     if (verbose)
 664              		.loc 1 243 0
 665 0058 1CB1     		cbz	r4, .L53
 244:..\source/calcps2pwm.c ****     {
 245:..\source/calcps2pwm.c ****         OutputSamples(cps_samples, pwm_samples);
 666              		.loc 1 245 0
 667 005a 3046     		mov	r0, r6
 668 005c 2946     		mov	r1, r5
 669 005e FFF7FEFF 		bl	OutputSamples
 670              	.LVL92:
 671              	.L53:
 246:..\source/calcps2pwm.c ****     }
 247:..\source/calcps2pwm.c ****     StoreWheelSpeed(LEFT_WHEEL, BACKWARD_DIR, cps_samples, pwm_samples);
 672              		.loc 1 247 0
 673 0062 274D     		ldr	r5, .L58+4
 674 0064 05F50376 		add	r6, r5, #524
 675 0068 05F53675 		add	r5, r5, #728
 676 006c 0020     		movs	r0, #0
 677 006e 0121     		movs	r1, #1
 678 0070 3246     		mov	r2, r6
 679 0072 2B46     		mov	r3, r5
 680 0074 FFF7FEFF 		bl	StoreWheelSpeed
 681              	.LVL93:
 248:..\source/calcps2pwm.c **** 
 249:..\source/calcps2pwm.c ****     CalibrateWheelSpeed(RIGHT_WHEEL, FORWARD_DIR, 5, cps_samples, pwm_samples);
 682              		.loc 1 249 0
 683 0078 0095     		str	r5, [sp]
 684 007a 0120     		movs	r0, #1
ARM GAS  C:\Users\Tim\AppData\Local\Temp\ccsaiBj4.s 			page 18


 685 007c 0021     		movs	r1, #0
 686 007e 0522     		movs	r2, #5
 687 0080 3346     		mov	r3, r6
 688 0082 FFF7FEFF 		bl	CalibrateWheelSpeed
 689              	.LVL94:
 250:..\source/calcps2pwm.c ****     if (verbose)
 690              		.loc 1 250 0
 691 0086 1CB1     		cbz	r4, .L54
 251:..\source/calcps2pwm.c ****     {
 252:..\source/calcps2pwm.c ****         OutputSamples(cps_samples, pwm_samples);
 692              		.loc 1 252 0
 693 0088 3046     		mov	r0, r6
 694 008a 2946     		mov	r1, r5
 695 008c FFF7FEFF 		bl	OutputSamples
 696              	.LVL95:
 697              	.L54:
 253:..\source/calcps2pwm.c ****     }
 254:..\source/calcps2pwm.c ****     StoreWheelSpeed(RIGHT_WHEEL, FORWARD_DIR, cps_samples, pwm_samples);
 698              		.loc 1 254 0
 699 0090 1B4D     		ldr	r5, .L58+4
 700 0092 05F50376 		add	r6, r5, #524
 701 0096 05F53675 		add	r5, r5, #728
 702 009a 0120     		movs	r0, #1
 703 009c 0021     		movs	r1, #0
 704 009e 3246     		mov	r2, r6
 705 00a0 2B46     		mov	r3, r5
 706 00a2 FFF7FEFF 		bl	StoreWheelSpeed
 707              	.LVL96:
 255:..\source/calcps2pwm.c **** 
 256:..\source/calcps2pwm.c ****     CalibrateWheelSpeed(RIGHT_WHEEL, BACKWARD_DIR, 5, cps_samples, pwm_samples);
 708              		.loc 1 256 0
 709 00a6 0095     		str	r5, [sp]
 710 00a8 0120     		movs	r0, #1
 711 00aa 0146     		mov	r1, r0
 712 00ac 0522     		movs	r2, #5
 713 00ae 3346     		mov	r3, r6
 714 00b0 FFF7FEFF 		bl	CalibrateWheelSpeed
 715              	.LVL97:
 257:..\source/calcps2pwm.c ****     if (verbose)
 716              		.loc 1 257 0
 717 00b4 1CB1     		cbz	r4, .L55
 258:..\source/calcps2pwm.c ****     {
 259:..\source/calcps2pwm.c ****         OutputSamples(cps_samples, pwm_samples);
 718              		.loc 1 259 0
 719 00b6 3046     		mov	r0, r6
 720 00b8 2946     		mov	r1, r5
 721 00ba FFF7FEFF 		bl	OutputSamples
 722              	.LVL98:
 723              	.L55:
 260:..\source/calcps2pwm.c ****     }
 261:..\source/calcps2pwm.c ****     StoreWheelSpeed(RIGHT_WHEEL, BACKWARD_DIR, cps_samples, pwm_samples);
 724              		.loc 1 261 0
 725 00be 104B     		ldr	r3, .L58+4
 726 00c0 0120     		movs	r0, #1
 727 00c2 0146     		mov	r1, r0
 728 00c4 03F50372 		add	r2, r3, #524
 729 00c8 03F53673 		add	r3, r3, #728
ARM GAS  C:\Users\Tim\AppData\Local\Temp\ccsaiBj4.s 			page 19


 730 00cc FFF7FEFF 		bl	StoreWheelSpeed
 731              	.LVL99:
 262:..\source/calcps2pwm.c **** 
 263:..\source/calcps2pwm.c ****     Motor_LeftSetCalibration((CAL_DATA_TYPE *) &p_cal_eeprom->left_motor_fwd, (CAL_DATA_TYPE *) &p_
 732              		.loc 1 263 0
 733 00d0 0C4D     		ldr	r5, .L58+8
 734 00d2 2968     		ldr	r1, [r5]
 735 00d4 01F13000 		add	r0, r1, #48
 736 00d8 01F5B871 		add	r1, r1, #368
 737 00dc FFF7FEFF 		bl	Motor_LeftSetCalibration
 738              	.LVL100:
 264:..\source/calcps2pwm.c ****     Motor_RightSetCalibration((CAL_DATA_TYPE *) &p_cal_eeprom->right_motor_fwd, (CAL_DATA_TYPE *) &
 739              		.loc 1 264 0
 740 00e0 2968     		ldr	r1, [r5]
 741 00e2 01F52C70 		add	r0, r1, #688
 742 00e6 01F57C71 		add	r1, r1, #1008
 743 00ea FFF7FEFF 		bl	Motor_RightSetCalibration
 744              	.LVL101:
 265:..\source/calcps2pwm.c ****     
 266:..\source/calcps2pwm.c ****     if (verbose)
 745              		.loc 1 266 0
 746 00ee 14B1     		cbz	r4, .L50
 267:..\source/calcps2pwm.c ****     {
 268:..\source/calcps2pwm.c ****         Ser_PutString("Count/Sec to PWM Calibration complete.\r\n");
 747              		.loc 1 268 0
 748 00f0 0548     		ldr	r0, .L58+12
 749 00f2 FFF7FEFF 		bl	Ser_PutString
 750              	.LVL102:
 751              	.L50:
 269:..\source/calcps2pwm.c ****     }
 270:..\source/calcps2pwm.c **** }
 752              		.loc 1 270 0
 753 00f6 02B0     		add	sp, sp, #8
 754              		.cfi_def_cfa_offset 16
 755              		@ sp needed
 756 00f8 70BD     		pop	{r4, r5, r6, pc}
 757              	.L59:
 758 00fa 00BF     		.align	2
 759              	.L58:
 760 00fc 18000000 		.word	.LC2
 761 0100 00000000 		.word	.LANCHOR0
 762 0104 00000000 		.word	p_cal_eeprom
 763 0108 44000000 		.word	.LC3
 764              		.cfi_endproc
 765              	.LFE70:
 766              		.size	PerformCountPerSecToPwmCalibration, .-PerformCountPerSecToPwmCalibration
 767              		.comm	p_cal_eeprom,4,4
 768              		.section	.rodata.str1.4,"aMS",%progbits,1
 769              		.align	2
 770              	.LC0:
 771 0000 256C6420 		.ascii	"%ld -> %d,\000"
 771      2D3E2025 
 771      642C00
 772 000b 00       		.space	1
 773              	.LC1:
 774 000c 256C6420 		.ascii	"%ld -> %d\000"
 774      2D3E2025 
ARM GAS  C:\Users\Tim\AppData\Local\Temp\ccsaiBj4.s 			page 20


 774      6400
 775 0016 0000     		.space	2
 776              	.LC2:
 777 0018 53746172 		.ascii	"Starting Count/Sec To PWM calibration ...\015\012\000"
 777      74696E67 
 777      20436F75 
 777      6E742F53 
 777      65632054 
 778              	.LC3:
 779 0044 436F756E 		.ascii	"Count/Sec to PWM Calibration complete.\015\012\000"
 779      742F5365 
 779      6320746F 
 779      2050574D 
 779      2043616C 
 780 006d 000000   		.bss
 781              		.align	2
 782              		.set	.LANCHOR0,. + 0
 783              		.type	cps_sum, %object
 784              		.size	cps_sum, 204
 785              	cps_sum:
 786 0000 00000000 		.space	204
 786      00000000 
 786      00000000 
 786      00000000 
 786      00000000 
 787              		.type	cal_data, %object
 788              		.size	cal_data, 320
 789              	cal_data:
 790 00cc 00000000 		.space	320
 790      00000000 
 790      00000000 
 790      00000000 
 790      00000000 
 791              		.type	cps_samples, %object
 792              		.size	cps_samples, 204
 793              	cps_samples:
 794 020c 00000000 		.space	204
 794      00000000 
 794      00000000 
 794      00000000 
 794      00000000 
 795              		.type	pwm_samples, %object
 796              		.size	pwm_samples, 102
 797              	pwm_samples:
 798 02d8 00000000 		.space	102
 798      00000000 
 798      00000000 
 798      00000000 
 798      00000000 
 799 033e 0000     		.text
 800              	.Letext0:
 801              		.file 2 "c:\\program files (x86)\\cypress\\psoc creator\\3.3\\psoc creator\\import\\gnu\\arm\\4.9.
 802              		.file 3 "c:\\program files (x86)\\cypress\\psoc creator\\3.3\\psoc creator\\import\\gnu\\arm\\4.9.
 803              		.file 4 "Generated_Source\\PSoC5/cytypes.h"
 804              		.file 5 "..\\source\\config.h"
 805              		.file 6 "..\\source\\cal.h"
 806              		.file 7 "Generated_Source\\PSoC5/core_cm3.h"
ARM GAS  C:\Users\Tim\AppData\Local\Temp\ccsaiBj4.s 			page 21


 807              		.file 8 "..\\source\\motor.h"
 808              		.file 9 "..\\source\\serial.h"
 809              		.file 10 "..\\source\\nvstore.h"
 810              		.file 11 "c:\\program files (x86)\\cypress\\psoc creator\\3.3\\psoc creator\\import\\gnu\\arm\\4.9