ARM GAS  C:\Users\tslator\AppData\Local\Temp\ccB7Nxya.s 			page 1


   1              		.syntax unified
   2              		.cpu cortex-m3
   3              		.fpu softvfp
   4              		.eabi_attribute 20, 1
   5              		.eabi_attribute 21, 1
   6              		.eabi_attribute 23, 3
   7              		.eabi_attribute 24, 1
   8              		.eabi_attribute 25, 1
   9              		.eabi_attribute 26, 1
  10              		.eabi_attribute 30, 1
  11              		.eabi_attribute 34, 1
  12              		.eabi_attribute 18, 4
  13              		.thumb
  14              		.file	"callin.c"
  15              		.text
  16              	.Ltext0:
  17              		.cfi_sections	.debug_frame
  18              		.section	.text.Results,"ax",%progbits
  19              		.align	2
  20              		.thumb
  21              		.thumb_func
  22              		.type	Results, %function
  23              	Results:
  24              	.LFB67:
  25              		.file 1 "..\\source\\callin.c"
   1:..\source/callin.c **** #include <math.h>
   2:..\source/callin.c **** #include "callin.h"
   3:..\source/callin.c **** #include "odom.h"
   4:..\source/callin.c **** #include "motor.h"
   5:..\source/callin.c **** #include "encoder.h"
   6:..\source/callin.c **** #include "pid.h"
   7:..\source/callin.c **** #include "time.h"
   8:..\source/callin.c **** #include "utils.h"
   9:..\source/callin.c **** #include "serial.h"
  10:..\source/callin.c **** #include "nvstore.h"
  11:..\source/callin.c **** #include "debug.h"
  12:..\source/callin.c **** #include "pwm.h"
  13:..\source/callin.c **** 
  14:..\source/callin.c **** /* The purpose of linear validation will be move the robot in the forward/backward direction,
  15:..\source/callin.c ****    capture the odometry, and compare the results with the expected distance traveled.  The
  16:..\source/callin.c ****    goal is to see the robot moving in a straight line.
  17:..\source/callin.c ****  */
  18:..\source/callin.c **** 
  19:..\source/callin.c **** #define LINEAR_BIAS_DISTANCE (1.0)
  20:..\source/callin.c **** #define LINEAR_BIAS_VELOCITY (0.150)
  21:..\source/callin.c **** #define LINEAR_BIAS_TOLERANCE (0.001)
  22:..\source/callin.c **** #define LINEAR_ACCELERATION (0.067)
  23:..\source/callin.c **** #define RAMP_UP_DIST        (LINEAR_BIAS_DISTANCE / 3.0)
  24:..\source/callin.c **** 
  25:..\source/callin.c **** /* Note: The Encoder and PID sample rates are 20 Hz.  The sample rate for updating the linear veloc
  26:..\source/callin.c ****          than those sample rates, i.e., 10 Hz.
  27:..\source/callin.c **** */
  28:..\source/callin.c **** #define CALLIN_SAMPLE_RATE (PID_SAMPLE_RATE / 2)        
  29:..\source/callin.c **** #define CALLIN_SAMPLE_TIME_MS  SAMPLE_TIME_MS(CALLIN_SAMPLE_RATE)
  30:..\source/callin.c **** 
  31:..\source/callin.c **** static CAL_LIN_PARAMS linear_params = {DIR_FORWARD, 
  32:..\source/callin.c ****                                        10000, 
ARM GAS  C:\Users\tslator\AppData\Local\Temp\ccB7Nxya.s 			page 2


  33:..\source/callin.c ****                                        LINEAR_BIAS_DISTANCE, 
  34:..\source/callin.c ****                                        LINEAR_BIAS_VELOCITY};
  35:..\source/callin.c **** 
  36:..\source/callin.c **** static uint32 start_time;
  37:..\source/callin.c **** static uint16 old_debug_control_enabled;
  38:..\source/callin.c **** 
  39:..\source/callin.c **** static uint8 Init(CAL_STAGE_TYPE stage, void *params);
  40:..\source/callin.c **** static uint8 Start(CAL_STAGE_TYPE stage, void *params);
  41:..\source/callin.c **** static uint8 Update(CAL_STAGE_TYPE stage, void *params);
  42:..\source/callin.c **** static uint8 Stop(CAL_STAGE_TYPE stage, void *params);
  43:..\source/callin.c **** static uint8 Results(CAL_STAGE_TYPE stage, void *params);
  44:..\source/callin.c **** 
  45:..\source/callin.c **** static float left_cmd_velocity;
  46:..\source/callin.c **** static float right_cmd_velocity;
  47:..\source/callin.c **** static uint32 last_time;
  48:..\source/callin.c **** 
  49:..\source/callin.c **** static CALIBRATION_TYPE linear_calibration = {CAL_INIT_STATE,
  50:..\source/callin.c ****                                               CAL_VALIDATE_STAGE,
  51:..\source/callin.c ****                                               &linear_params,
  52:..\source/callin.c ****                                               Init,
  53:..\source/callin.c ****                                               Start,
  54:..\source/callin.c ****                                               Update,
  55:..\source/callin.c ****                                               Stop,
  56:..\source/callin.c ****                                               Results};
  57:..\source/callin.c **** 
  58:..\source/callin.c **** 
  59:..\source/callin.c **** 
  60:..\source/callin.c **** static uint8 Init(CAL_STAGE_TYPE stage, void *params)
  61:..\source/callin.c **** {
  62:..\source/callin.c ****     CAL_LIN_PARAMS *p_lin_params = (CAL_LIN_PARAMS *)params;
  63:..\source/callin.c ****     char banner[64];
  64:..\source/callin.c **** 
  65:..\source/callin.c ****     switch (stage)
  66:..\source/callin.c ****     {
  67:..\source/callin.c ****         case CAL_VALIDATE_STAGE:
  68:..\source/callin.c ****             sprintf(banner, "\r\n%s Linear validation\r\n", p_lin_params->direction == DIR_FORWARD 
  69:..\source/callin.c ****             Ser_PutString(banner);
  70:..\source/callin.c ****             Cal_SetLeftRightVelocity(0, 0);
  71:..\source/callin.c ****             Pid_SetLeftRightTarget(Cal_LeftTarget, Cal_RightTarget);
  72:..\source/callin.c **** 
  73:..\source/callin.c ****             old_debug_control_enabled = debug_control_enabled;
  74:..\source/callin.c **** 
  75:..\source/callin.c ****             debug_control_enabled = DEBUG_ODOM_ENABLE_BIT | DEBUG_LEFT_PID_ENABLE_BIT | DEBUG_LEFT_
  76:..\source/callin.c **** 
  77:..\source/callin.c ****             break;
  78:..\source/callin.c **** 
  79:..\source/callin.c ****         default:
  80:..\source/callin.c ****             break;
  81:..\source/callin.c ****     }
  82:..\source/callin.c **** 
  83:..\source/callin.c **** 
  84:..\source/callin.c ****     return CAL_OK;
  85:..\source/callin.c **** }
  86:..\source/callin.c **** 
  87:..\source/callin.c **** static uint8 Start(CAL_STAGE_TYPE stage, void *params)
  88:..\source/callin.c **** {
  89:..\source/callin.c ****     CAL_LIN_PARAMS *p_lin_params = (CAL_LIN_PARAMS *) params;
ARM GAS  C:\Users\tslator\AppData\Local\Temp\ccB7Nxya.s 			page 3


  90:..\source/callin.c **** 
  91:..\source/callin.c ****     switch (stage)
  92:..\source/callin.c ****     {
  93:..\source/callin.c ****         case CAL_VALIDATE_STAGE:
  94:..\source/callin.c ****             Ser_PutString("Linear Validation Start\r\n");
  95:..\source/callin.c ****             Pid_Enable(TRUE);            
  96:..\source/callin.c ****             Encoder_Reset();
  97:..\source/callin.c ****             Pid_Reset();
  98:..\source/callin.c ****             Odom_Reset();
  99:..\source/callin.c **** 
 100:..\source/callin.c ****             float velocity = p_lin_params->mps;
 101:..\source/callin.c ****             if( p_lin_params->direction == DIR_BACKWARD )
 102:..\source/callin.c ****             {
 103:..\source/callin.c ****                 velocity = -velocity;
 104:..\source/callin.c ****             }
 105:..\source/callin.c **** 
 106:..\source/callin.c ****             Cal_SetLeftRightVelocity(velocity, velocity);
 107:..\source/callin.c **** 
 108:..\source/callin.c ****             Ser_PutString("\r\nValidating ");
 109:..\source/callin.c ****             Ser_PutString("\r\n");
 110:..\source/callin.c ****             start_time = millis();
 111:..\source/callin.c **** 
 112:..\source/callin.c ****             break;
 113:..\source/callin.c **** 
 114:..\source/callin.c ****         default:
 115:..\source/callin.c ****             break;
 116:..\source/callin.c ****     }
 117:..\source/callin.c **** 
 118:..\source/callin.c ****     return CAL_OK;
 119:..\source/callin.c **** }
 120:..\source/callin.c **** 
 121:..\source/callin.c **** static uint8 Update(CAL_STAGE_TYPE stage, void *params)
 122:..\source/callin.c **** {
 123:..\source/callin.c ****     CAL_LIN_PARAMS * p_lin_params = (CAL_LIN_PARAMS *) params;
 124:..\source/callin.c **** 
 125:..\source/callin.c ****     switch (stage)
 126:..\source/callin.c ****     {
 127:..\source/callin.c ****         case CAL_VALIDATE_STAGE:
 128:..\source/callin.c ****             if (millis() - start_time < p_lin_params->run_time)
 129:..\source/callin.c ****             {
 130:..\source/callin.c ****                 float left_dist = abs(Encoder_LeftGetDist());
 131:..\source/callin.c ****                 float right_dist = abs(Encoder_RightGetDist());
 132:..\source/callin.c **** 
 133:..\source/callin.c ****                 if ( left_dist < p_lin_params->distance && right_dist < p_lin_params->distance )
 134:..\source/callin.c ****                 {
 135:..\source/callin.c ****                     return CAL_OK;
 136:..\source/callin.c ****                 }
 137:..\source/callin.c **** 
 138:..\source/callin.c ****                 return CAL_COMPLETE;
 139:..\source/callin.c ****             }
 140:..\source/callin.c ****             Ser_PutString("\r\nRun time expired\r\n");
 141:..\source/callin.c ****             break;
 142:..\source/callin.c **** 
 143:..\source/callin.c ****         default:
 144:..\source/callin.c ****             break;
 145:..\source/callin.c ****     }
 146:..\source/callin.c **** 
ARM GAS  C:\Users\tslator\AppData\Local\Temp\ccB7Nxya.s 			page 4


 147:..\source/callin.c ****     return CAL_COMPLETE;
 148:..\source/callin.c **** }
 149:..\source/callin.c **** 
 150:..\source/callin.c **** static uint8 Stop(CAL_STAGE_TYPE stage, void *params)
 151:..\source/callin.c **** {
 152:..\source/callin.c ****     float left_dist;
 153:..\source/callin.c ****     float right_dist;
 154:..\source/callin.c ****     float heading;
 155:..\source/callin.c ****     char output[64];
 156:..\source/callin.c ****     char left_dist_str[10];
 157:..\source/callin.c ****     char right_dist_str[10];
 158:..\source/callin.c ****     char heading_str[10];
 159:..\source/callin.c ****     CAL_LIN_PARAMS *p_lin_params = (CAL_LIN_PARAMS *)params;
 160:..\source/callin.c **** 
 161:..\source/callin.c ****     Cal_SetLeftRightVelocity(0, 0);
 162:..\source/callin.c **** 
 163:..\source/callin.c ****     switch (stage)
 164:..\source/callin.c ****     {
 165:..\source/callin.c ****         case CAL_VALIDATE_STAGE:
 166:..\source/callin.c ****             left_dist = abs(Encoder_LeftGetDist());
 167:..\source/callin.c ****             right_dist = abs(Encoder_RightGetDist());
 168:..\source/callin.c ****             heading = (left_dist - right_dist)/TRACK_WIDTH;
 169:..\source/callin.c **** 
 170:..\source/callin.c ****             ftoa(left_dist, left_dist_str, 3);    
 171:..\source/callin.c ****             ftoa(right_dist, right_dist_str, 3);
 172:..\source/callin.c ****             ftoa(heading, heading_str, 3);
 173:..\source/callin.c ****             sprintf(output, "\r\n%s Linear validation complete\r\n", p_lin_params->direction == DIR
 174:..\source/callin.c ****             Ser_PutString(output);
 175:..\source/callin.c ****             sprintf(output, "Left Wheel Distance: %s\r\nRight Wheel Distance: %s\r\n", left_dist_st
 176:..\source/callin.c ****             Ser_PutString(output);
 177:..\source/callin.c ****             sprintf(output, "Heading: %s\r\n", heading_str);
 178:..\source/callin.c ****             Ser_PutString(output);
 179:..\source/callin.c ****             break;
 180:..\source/callin.c ****             
 181:..\source/callin.c ****         default:
 182:..\source/callin.c ****             break;
 183:..\source/callin.c ****     }
 184:..\source/callin.c **** 
 185:..\source/callin.c ****     debug_control_enabled = old_debug_control_enabled;    
 186:..\source/callin.c **** 
 187:..\source/callin.c ****     return CAL_OK;
 188:..\source/callin.c **** }
 189:..\source/callin.c **** 
 190:..\source/callin.c **** static uint8 Results(CAL_STAGE_TYPE stage, void *params)
 191:..\source/callin.c **** {
  26              		.loc 1 191 0
  27              		.cfi_startproc
  28              		@ args = 0, pretend = 0, frame = 0
  29              		@ frame_needed = 0, uses_anonymous_args = 0
  30              	.LVL0:
 192:..\source/callin.c ****     CAL_LIN_PARAMS *p_lin_params = (CAL_LIN_PARAMS *)params;
 193:..\source/callin.c **** 
 194:..\source/callin.c ****     switch (stage)
  31              		.loc 1 194 0
  32 0000 0128     		cmp	r0, #1
  33 0002 05D1     		bne	.L5
 191:..\source/callin.c ****     CAL_LIN_PARAMS *p_lin_params = (CAL_LIN_PARAMS *)params;
ARM GAS  C:\Users\tslator\AppData\Local\Temp\ccB7Nxya.s 			page 5


  34              		.loc 1 191 0
  35 0004 08B5     		push	{r3, lr}
  36              		.cfi_def_cfa_offset 8
  37              		.cfi_offset 3, -8
  38              		.cfi_offset 14, -4
 195:..\source/callin.c ****     {
 196:..\source/callin.c ****         case CAL_VALIDATE_STAGE:
 197:..\source/callin.c ****             Ser_PutString("\r\nPrinting Linear validation results\r\n");
  39              		.loc 1 197 0
  40 0006 0348     		ldr	r0, .L6
  41              	.LVL1:
  42 0008 FFF7FEFF 		bl	Ser_PutString
  43              	.LVL2:
 198:..\source/callin.c ****             /* Get the left, right and average distance traveled
 199:..\source/callin.c ****                 Need to capture the left, right delta distance at the start (probably 0 because odo
 200:..\source/callin.c ****                 We want to see how far each wheel went and compute the error
 201:..\source/callin.c ****                */
 202:..\source/callin.c ****             break;
 203:..\source/callin.c ****     }
 204:..\source/callin.c **** 
 205:..\source/callin.c ****     return CAL_OK;
 206:..\source/callin.c **** }
  44              		.loc 1 206 0
  45 000c 0020     		movs	r0, #0
  46 000e 08BD     		pop	{r3, pc}
  47              	.LVL3:
  48              	.L5:
  49              		.cfi_def_cfa_offset 0
  50              		.cfi_restore 3
  51              		.cfi_restore 14
  52 0010 0020     		movs	r0, #0
  53              	.LVL4:
  54 0012 7047     		bx	lr
  55              	.L7:
  56              		.align	2
  57              	.L6:
  58 0014 00000000 		.word	.LC0
  59              		.cfi_endproc
  60              	.LFE67:
  61              		.size	Results, .-Results
  62              		.global	__aeabi_fcmplt
  63              		.global	__aeabi_fsub
  64              		.global	__aeabi_f2d
  65              		.global	__aeabi_ddiv
  66              		.global	__aeabi_d2f
  67              		.section	.text.Stop,"ax",%progbits
  68              		.align	2
  69              		.thumb
  70              		.thumb_func
  71              		.type	Stop, %function
  72              	Stop:
  73              	.LFB66:
 151:..\source/callin.c ****     float left_dist;
  74              		.loc 1 151 0
  75              		.cfi_startproc
  76              		@ args = 0, pretend = 0, frame = 104
  77              		@ frame_needed = 0, uses_anonymous_args = 0
ARM GAS  C:\Users\tslator\AppData\Local\Temp\ccB7Nxya.s 			page 6


  78              	.LVL5:
  79 0000 F0B5     		push	{r4, r5, r6, r7, lr}
  80              		.cfi_def_cfa_offset 20
  81              		.cfi_offset 4, -20
  82              		.cfi_offset 5, -16
  83              		.cfi_offset 6, -12
  84              		.cfi_offset 7, -8
  85              		.cfi_offset 14, -4
  86 0002 9BB0     		sub	sp, sp, #108
  87              		.cfi_def_cfa_offset 128
  88 0004 0446     		mov	r4, r0
  89 0006 0D46     		mov	r5, r1
  90              	.LVL6:
 161:..\source/callin.c **** 
  91              		.loc 1 161 0
  92 0008 0021     		movs	r1, #0
  93              	.LVL7:
  94 000a 0846     		mov	r0, r1
  95              	.LVL8:
  96 000c FFF7FEFF 		bl	Cal_SetLeftRightVelocity
  97              	.LVL9:
 163:..\source/callin.c ****     {
  98              		.loc 1 163 0
  99 0010 012C     		cmp	r4, #1
 100 0012 55D1     		bne	.L9
 166:..\source/callin.c ****             right_dist = abs(Encoder_RightGetDist());
 101              		.loc 1 166 0
 102 0014 FFF7FEFF 		bl	Encoder_LeftGetDist
 103              	.LVL10:
 104 0018 0021     		movs	r1, #0
 105 001a FFF7FEFF 		bl	__aeabi_fcmplt
 106              	.LVL11:
 107 001e 20B1     		cbz	r0, .L21
 166:..\source/callin.c ****             right_dist = abs(Encoder_RightGetDist());
 108              		.loc 1 166 0 is_stmt 0 discriminator 1
 109 0020 FFF7FEFF 		bl	Encoder_LeftGetDist
 110              	.LVL12:
 111 0024 00F10046 		add	r6, r0, #-2147483648
 112 0028 02E0     		b	.L13
 113              	.L21:
 166:..\source/callin.c ****             right_dist = abs(Encoder_RightGetDist());
 114              		.loc 1 166 0 discriminator 2
 115 002a FFF7FEFF 		bl	Encoder_LeftGetDist
 116              	.LVL13:
 117 002e 0646     		mov	r6, r0
 118              	.L13:
 119              	.LVL14:
 167:..\source/callin.c ****             heading = (left_dist - right_dist)/TRACK_WIDTH;
 120              		.loc 1 167 0 is_stmt 1 discriminator 4
 121 0030 FFF7FEFF 		bl	Encoder_RightGetDist
 122              	.LVL15:
 123 0034 0021     		movs	r1, #0
 124 0036 FFF7FEFF 		bl	__aeabi_fcmplt
 125              	.LVL16:
 126 003a 20B1     		cbz	r0, .L22
 167:..\source/callin.c ****             heading = (left_dist - right_dist)/TRACK_WIDTH;
 127              		.loc 1 167 0 is_stmt 0 discriminator 1
ARM GAS  C:\Users\tslator\AppData\Local\Temp\ccB7Nxya.s 			page 7


 128 003c FFF7FEFF 		bl	Encoder_RightGetDist
 129              	.LVL17:
 130 0040 00F10044 		add	r4, r0, #-2147483648
 131 0044 02E0     		b	.L16
 132              	.L22:
 167:..\source/callin.c ****             heading = (left_dist - right_dist)/TRACK_WIDTH;
 133              		.loc 1 167 0 discriminator 2
 134 0046 FFF7FEFF 		bl	Encoder_RightGetDist
 135              	.LVL18:
 136 004a 0446     		mov	r4, r0
 137              	.L16:
 138              	.LVL19:
 168:..\source/callin.c **** 
 139              		.loc 1 168 0 is_stmt 1 discriminator 4
 140 004c 3046     		mov	r0, r6
 141 004e 2146     		mov	r1, r4
 142 0050 FFF7FEFF 		bl	__aeabi_fsub
 143              	.LVL20:
 144 0054 FFF7FEFF 		bl	__aeabi_f2d
 145              	.LVL21:
 146 0058 1DA3     		adr	r3, .L24
 147 005a D3E90023 		ldrd	r2, [r3]
 148 005e FFF7FEFF 		bl	__aeabi_ddiv
 149              	.LVL22:
 150 0062 FFF7FEFF 		bl	__aeabi_d2f
 151              	.LVL23:
 152 0066 0746     		mov	r7, r0
 153              	.LVL24:
 170:..\source/callin.c ****             ftoa(right_dist, right_dist_str, 3);
 154              		.loc 1 170 0 discriminator 4
 155 0068 3046     		mov	r0, r6
 156              	.LVL25:
 157 006a 07A9     		add	r1, sp, #28
 158 006c 0322     		movs	r2, #3
 159 006e FFF7FEFF 		bl	ftoa
 160              	.LVL26:
 171:..\source/callin.c ****             ftoa(heading, heading_str, 3);
 161              		.loc 1 171 0 discriminator 4
 162 0072 2046     		mov	r0, r4
 163 0074 04A9     		add	r1, sp, #16
 164 0076 0322     		movs	r2, #3
 165 0078 FFF7FEFF 		bl	ftoa
 166              	.LVL27:
 172:..\source/callin.c ****             sprintf(output, "\r\n%s Linear validation complete\r\n", p_lin_params->direction == DIR
 167              		.loc 1 172 0 discriminator 4
 168 007c 3846     		mov	r0, r7
 169 007e 01A9     		add	r1, sp, #4
 170 0080 0322     		movs	r2, #3
 171 0082 FFF7FEFF 		bl	ftoa
 172              	.LVL28:
 173:..\source/callin.c ****             Ser_PutString(output);
 173              		.loc 1 173 0 discriminator 4
 174 0086 2B78     		ldrb	r3, [r5]	@ zero_extendqisi2
 175 0088 0BB9     		cbnz	r3, .L18
 173:..\source/callin.c ****             Ser_PutString(output);
 176              		.loc 1 173 0 is_stmt 0
 177 008a 134A     		ldr	r2, .L24+8
ARM GAS  C:\Users\tslator\AppData\Local\Temp\ccB7Nxya.s 			page 8


 178 008c 00E0     		b	.L17
 179              	.L18:
 180 008e 134A     		ldr	r2, .L24+12
 181              	.L17:
 173:..\source/callin.c ****             Ser_PutString(output);
 182              		.loc 1 173 0 discriminator 4
 183 0090 0AA8     		add	r0, sp, #40
 184 0092 1349     		ldr	r1, .L24+16
 185 0094 FFF7FEFF 		bl	sprintf
 186              	.LVL29:
 174:..\source/callin.c ****             sprintf(output, "Left Wheel Distance: %s\r\nRight Wheel Distance: %s\r\n", left_dist_st
 187              		.loc 1 174 0 is_stmt 1 discriminator 4
 188 0098 0AA8     		add	r0, sp, #40
 189 009a FFF7FEFF 		bl	Ser_PutString
 190              	.LVL30:
 175:..\source/callin.c ****             Ser_PutString(output);
 191              		.loc 1 175 0 discriminator 4
 192 009e 0AA8     		add	r0, sp, #40
 193 00a0 1049     		ldr	r1, .L24+20
 194 00a2 07AA     		add	r2, sp, #28
 195 00a4 04AB     		add	r3, sp, #16
 196 00a6 FFF7FEFF 		bl	sprintf
 197              	.LVL31:
 176:..\source/callin.c ****             sprintf(output, "Heading: %s\r\n", heading_str);
 198              		.loc 1 176 0 discriminator 4
 199 00aa 0AA8     		add	r0, sp, #40
 200 00ac FFF7FEFF 		bl	Ser_PutString
 201              	.LVL32:
 177:..\source/callin.c ****             Ser_PutString(output);
 202              		.loc 1 177 0 discriminator 4
 203 00b0 0AA8     		add	r0, sp, #40
 204 00b2 0D49     		ldr	r1, .L24+24
 205 00b4 01AA     		add	r2, sp, #4
 206 00b6 FFF7FEFF 		bl	sprintf
 207              	.LVL33:
 178:..\source/callin.c ****             break;
 208              		.loc 1 178 0 discriminator 4
 209 00ba 0AA8     		add	r0, sp, #40
 210 00bc FFF7FEFF 		bl	Ser_PutString
 211              	.LVL34:
 212              	.L9:
 185:..\source/callin.c **** 
 213              		.loc 1 185 0
 214 00c0 0A4B     		ldr	r3, .L24+28
 215 00c2 1A88     		ldrh	r2, [r3]
 216 00c4 0A4B     		ldr	r3, .L24+32
 217 00c6 1A80     		strh	r2, [r3]	@ movhi
 188:..\source/callin.c **** 
 218              		.loc 1 188 0
 219 00c8 0020     		movs	r0, #0
 220 00ca 1BB0     		add	sp, sp, #108
 221              		.cfi_def_cfa_offset 20
 222              		@ sp needed
 223 00cc F0BD     		pop	{r4, r5, r6, r7, pc}
 224              	.LVL35:
 225              	.L25:
 226 00ce 00BF     		.align	3
ARM GAS  C:\Users\tslator\AppData\Local\Temp\ccB7Nxya.s 			page 9


 227              	.L24:
 228 00d0 986E1283 		.word	-2095944040
 229 00d4 C0CAD93F 		.word	1071237824
 230 00d8 28000000 		.word	.LC1
 231 00dc 30000000 		.word	.LC2
 232 00e0 3C000000 		.word	.LC3
 233 00e4 60000000 		.word	.LC4
 234 00e8 94000000 		.word	.LC5
 235 00ec 00000000 		.word	.LANCHOR0
 236 00f0 00000000 		.word	debug_control_enabled
 237              		.cfi_endproc
 238              	.LFE66:
 239              		.size	Stop, .-Stop
 240 00f4 AFF30080 		.section	.text.Update,"ax",%progbits
 241              		.align	2
 242              		.thumb
 243              		.thumb_func
 244              		.type	Update, %function
 245              	Update:
 246              	.LFB65:
 122:..\source/callin.c ****     CAL_LIN_PARAMS * p_lin_params = (CAL_LIN_PARAMS *) params;
 247              		.loc 1 122 0
 248              		.cfi_startproc
 249              		@ args = 0, pretend = 0, frame = 0
 250              		@ frame_needed = 0, uses_anonymous_args = 0
 251              	.LVL36:
 125:..\source/callin.c ****     {
 252              		.loc 1 125 0
 253 0000 0128     		cmp	r0, #1
 254 0002 37D1     		bne	.L43
 122:..\source/callin.c ****     CAL_LIN_PARAMS * p_lin_params = (CAL_LIN_PARAMS *) params;
 255              		.loc 1 122 0
 256 0004 70B5     		push	{r4, r5, r6, lr}
 257              		.cfi_def_cfa_offset 16
 258              		.cfi_offset 4, -16
 259              		.cfi_offset 5, -12
 260              		.cfi_offset 6, -8
 261              		.cfi_offset 14, -4
 262 0006 0C46     		mov	r4, r1
 128:..\source/callin.c ****             {
 263              		.loc 1 128 0
 264 0008 FFF7FEFF 		bl	millis
 265              	.LVL37:
 266 000c 1C4B     		ldr	r3, .L48
 267 000e 5B68     		ldr	r3, [r3, #4]
 268 0010 C01A     		subs	r0, r0, r3
 269 0012 6368     		ldr	r3, [r4, #4]
 270 0014 9842     		cmp	r0, r3
 271 0016 28D2     		bcs	.L29
 272              	.LBB2:
 130:..\source/callin.c ****                 float right_dist = abs(Encoder_RightGetDist());
 273              		.loc 1 130 0
 274 0018 FFF7FEFF 		bl	Encoder_LeftGetDist
 275              	.LVL38:
 276 001c 0021     		movs	r1, #0
 277 001e FFF7FEFF 		bl	__aeabi_fcmplt
 278              	.LVL39:
ARM GAS  C:\Users\tslator\AppData\Local\Temp\ccB7Nxya.s 			page 10


 279 0022 20B1     		cbz	r0, .L44
 130:..\source/callin.c ****                 float right_dist = abs(Encoder_RightGetDist());
 280              		.loc 1 130 0 is_stmt 0 discriminator 1
 281 0024 FFF7FEFF 		bl	Encoder_LeftGetDist
 282              	.LVL40:
 283 0028 00F10045 		add	r5, r0, #-2147483648
 284 002c 02E0     		b	.L32
 285              	.L44:
 130:..\source/callin.c ****                 float right_dist = abs(Encoder_RightGetDist());
 286              		.loc 1 130 0 discriminator 2
 287 002e FFF7FEFF 		bl	Encoder_LeftGetDist
 288              	.LVL41:
 289 0032 0546     		mov	r5, r0
 290              	.L32:
 291              	.LVL42:
 131:..\source/callin.c **** 
 292              		.loc 1 131 0 is_stmt 1 discriminator 4
 293 0034 FFF7FEFF 		bl	Encoder_RightGetDist
 294              	.LVL43:
 295 0038 0021     		movs	r1, #0
 296 003a FFF7FEFF 		bl	__aeabi_fcmplt
 297              	.LVL44:
 298 003e 20B1     		cbz	r0, .L45
 131:..\source/callin.c **** 
 299              		.loc 1 131 0 is_stmt 0 discriminator 1
 300 0040 FFF7FEFF 		bl	Encoder_RightGetDist
 301              	.LVL45:
 302 0044 00F10046 		add	r6, r0, #-2147483648
 303 0048 02E0     		b	.L35
 304              	.L45:
 131:..\source/callin.c **** 
 305              		.loc 1 131 0 discriminator 2
 306 004a FFF7FEFF 		bl	Encoder_RightGetDist
 307              	.LVL46:
 308 004e 0646     		mov	r6, r0
 309              	.L35:
 310              	.LVL47:
 133:..\source/callin.c ****                 {
 311              		.loc 1 133 0 is_stmt 1 discriminator 4
 312 0050 A468     		ldr	r4, [r4, #8]	@ float
 313              	.LVL48:
 314 0052 2846     		mov	r0, r5
 315 0054 2146     		mov	r1, r4
 316 0056 FFF7FEFF 		bl	__aeabi_fcmplt
 317              	.LVL49:
 318 005a 68B1     		cbz	r0, .L46
 133:..\source/callin.c ****                 {
 319              		.loc 1 133 0 is_stmt 0 discriminator 1
 320 005c 3046     		mov	r0, r6
 321 005e 2146     		mov	r1, r4
 322 0060 FFF7FEFF 		bl	__aeabi_fcmplt
 323              	.LVL50:
 324 0064 50B9     		cbnz	r0, .L39
 138:..\source/callin.c ****             }
 325              		.loc 1 138 0 is_stmt 1
 326 0066 0120     		movs	r0, #1
 327 0068 70BD     		pop	{r4, r5, r6, pc}
ARM GAS  C:\Users\tslator\AppData\Local\Temp\ccB7Nxya.s 			page 11


 328              	.LVL51:
 329              	.L29:
 330              	.LBE2:
 140:..\source/callin.c ****             break;
 331              		.loc 1 140 0
 332 006a 0648     		ldr	r0, .L48+4
 333 006c FFF7FEFF 		bl	Ser_PutString
 334              	.LVL52:
 147:..\source/callin.c **** }
 335              		.loc 1 147 0
 336 0070 0120     		movs	r0, #1
 141:..\source/callin.c **** 
 337              		.loc 1 141 0
 338 0072 70BD     		pop	{r4, r5, r6, pc}
 339              	.LVL53:
 340              	.L43:
 341              		.cfi_def_cfa_offset 0
 342              		.cfi_restore 4
 343              		.cfi_restore 5
 344              		.cfi_restore 6
 345              		.cfi_restore 14
 147:..\source/callin.c **** }
 346              		.loc 1 147 0
 347 0074 0120     		movs	r0, #1
 348              	.LVL54:
 148:..\source/callin.c **** 
 349              		.loc 1 148 0
 350 0076 7047     		bx	lr
 351              	.LVL55:
 352              	.L46:
 353              		.cfi_def_cfa_offset 16
 354              		.cfi_offset 4, -16
 355              		.cfi_offset 5, -12
 356              		.cfi_offset 6, -8
 357              		.cfi_offset 14, -4
 358              	.LBB3:
 138:..\source/callin.c ****             }
 359              		.loc 1 138 0
 360 0078 0120     		movs	r0, #1
 361 007a 70BD     		pop	{r4, r5, r6, pc}
 362              	.LVL56:
 363              	.L39:
 135:..\source/callin.c ****                 }
 364              		.loc 1 135 0
 365 007c 0020     		movs	r0, #0
 366              	.LBE3:
 148:..\source/callin.c **** 
 367              		.loc 1 148 0
 368 007e 70BD     		pop	{r4, r5, r6, pc}
 369              	.LVL57:
 370              	.L49:
 371              		.align	2
 372              	.L48:
 373 0080 00000000 		.word	.LANCHOR0
 374 0084 A4000000 		.word	.LC6
 375              		.cfi_endproc
 376              	.LFE65:
ARM GAS  C:\Users\tslator\AppData\Local\Temp\ccB7Nxya.s 			page 12


 377              		.size	Update, .-Update
 378              		.section	.text.Start,"ax",%progbits
 379              		.align	2
 380              		.thumb
 381              		.thumb_func
 382              		.type	Start, %function
 383              	Start:
 384              	.LFB64:
  88:..\source/callin.c ****     CAL_LIN_PARAMS *p_lin_params = (CAL_LIN_PARAMS *) params;
 385              		.loc 1 88 0
 386              		.cfi_startproc
 387              		@ args = 0, pretend = 0, frame = 0
 388              		@ frame_needed = 0, uses_anonymous_args = 0
 389              	.LVL58:
  91:..\source/callin.c ****     {
 390              		.loc 1 91 0
 391 0000 0128     		cmp	r0, #1
 392 0002 22D1     		bne	.L55
  88:..\source/callin.c ****     CAL_LIN_PARAMS *p_lin_params = (CAL_LIN_PARAMS *) params;
 393              		.loc 1 88 0
 394 0004 10B5     		push	{r4, lr}
 395              		.cfi_def_cfa_offset 8
 396              		.cfi_offset 4, -8
 397              		.cfi_offset 14, -4
 398 0006 0C46     		mov	r4, r1
 399              	.LBB4:
  94:..\source/callin.c ****             Pid_Enable(TRUE);            
 400              		.loc 1 94 0
 401 0008 1148     		ldr	r0, .L56
 402              	.LVL59:
 403 000a FFF7FEFF 		bl	Ser_PutString
 404              	.LVL60:
  95:..\source/callin.c ****             Encoder_Reset();
 405              		.loc 1 95 0
 406 000e 0120     		movs	r0, #1
 407 0010 FFF7FEFF 		bl	Pid_Enable
 408              	.LVL61:
  96:..\source/callin.c ****             Pid_Reset();
 409              		.loc 1 96 0
 410 0014 FFF7FEFF 		bl	Encoder_Reset
 411              	.LVL62:
  97:..\source/callin.c ****             Odom_Reset();
 412              		.loc 1 97 0
 413 0018 FFF7FEFF 		bl	Pid_Reset
 414              	.LVL63:
  98:..\source/callin.c **** 
 415              		.loc 1 98 0
 416 001c FFF7FEFF 		bl	Odom_Reset
 417              	.LVL64:
 100:..\source/callin.c ****             if( p_lin_params->direction == DIR_BACKWARD )
 418              		.loc 1 100 0
 419 0020 E168     		ldr	r1, [r4, #12]	@ float
 420              	.LVL65:
 101:..\source/callin.c ****             {
 421              		.loc 1 101 0
 422 0022 2378     		ldrb	r3, [r4]	@ zero_extendqisi2
 423 0024 012B     		cmp	r3, #1
ARM GAS  C:\Users\tslator\AppData\Local\Temp\ccB7Nxya.s 			page 13


 424 0026 01D1     		bne	.L53
 103:..\source/callin.c ****             }
 425              		.loc 1 103 0
 426 0028 01F10041 		add	r1, r1, #-2147483648
 427              	.LVL66:
 428              	.L53:
 106:..\source/callin.c **** 
 429              		.loc 1 106 0
 430 002c 0846     		mov	r0, r1
 431 002e FFF7FEFF 		bl	Cal_SetLeftRightVelocity
 432              	.LVL67:
 108:..\source/callin.c ****             Ser_PutString("\r\n");
 433              		.loc 1 108 0
 434 0032 0848     		ldr	r0, .L56+4
 435 0034 FFF7FEFF 		bl	Ser_PutString
 436              	.LVL68:
 109:..\source/callin.c ****             start_time = millis();
 437              		.loc 1 109 0
 438 0038 0748     		ldr	r0, .L56+8
 439 003a FFF7FEFF 		bl	Ser_PutString
 440              	.LVL69:
 110:..\source/callin.c **** 
 441              		.loc 1 110 0
 442 003e FFF7FEFF 		bl	millis
 443              	.LVL70:
 444 0042 064B     		ldr	r3, .L56+12
 445 0044 5860     		str	r0, [r3, #4]
 446              	.LBE4:
 119:..\source/callin.c **** 
 447              		.loc 1 119 0
 448 0046 0020     		movs	r0, #0
 449 0048 10BD     		pop	{r4, pc}
 450              	.LVL71:
 451              	.L55:
 452              		.cfi_def_cfa_offset 0
 453              		.cfi_restore 4
 454              		.cfi_restore 14
 455 004a 0020     		movs	r0, #0
 456              	.LVL72:
 457 004c 7047     		bx	lr
 458              	.L57:
 459 004e 00BF     		.align	2
 460              	.L56:
 461 0050 BC000000 		.word	.LC7
 462 0054 D8000000 		.word	.LC8
 463 0058 E8000000 		.word	.LC9
 464 005c 00000000 		.word	.LANCHOR0
 465              		.cfi_endproc
 466              	.LFE64:
 467              		.size	Start, .-Start
 468              		.section	.text.Init,"ax",%progbits
 469              		.align	2
 470              		.thumb
 471              		.thumb_func
 472              		.type	Init, %function
 473              	Init:
 474              	.LFB63:
ARM GAS  C:\Users\tslator\AppData\Local\Temp\ccB7Nxya.s 			page 14


  61:..\source/callin.c ****     CAL_LIN_PARAMS *p_lin_params = (CAL_LIN_PARAMS *)params;
 475              		.loc 1 61 0
 476              		.cfi_startproc
 477              		@ args = 0, pretend = 0, frame = 64
 478              		@ frame_needed = 0, uses_anonymous_args = 0
 479              	.LVL73:
  65:..\source/callin.c ****     {
 480              		.loc 1 65 0
 481 0000 0128     		cmp	r0, #1
 482 0002 21D1     		bne	.L64
  61:..\source/callin.c ****     CAL_LIN_PARAMS *p_lin_params = (CAL_LIN_PARAMS *)params;
 483              		.loc 1 61 0
 484 0004 00B5     		push	{lr}
 485              		.cfi_def_cfa_offset 4
 486              		.cfi_offset 14, -4
 487 0006 91B0     		sub	sp, sp, #68
 488              		.cfi_def_cfa_offset 72
  68:..\source/callin.c ****             Ser_PutString(banner);
 489              		.loc 1 68 0
 490 0008 0B78     		ldrb	r3, [r1]	@ zero_extendqisi2
 491 000a 0BB9     		cbnz	r3, .L62
 492 000c 0F4A     		ldr	r2, .L65
 493 000e 00E0     		b	.L61
 494              	.L62:
 495 0010 0F4A     		ldr	r2, .L65+4
 496              	.L61:
  68:..\source/callin.c ****             Ser_PutString(banner);
 497              		.loc 1 68 0 is_stmt 0 discriminator 4
 498 0012 6846     		mov	r0, sp
 499              	.LVL74:
 500 0014 0F49     		ldr	r1, .L65+8
 501              	.LVL75:
 502 0016 FFF7FEFF 		bl	sprintf
 503              	.LVL76:
  69:..\source/callin.c ****             Cal_SetLeftRightVelocity(0, 0);
 504              		.loc 1 69 0 is_stmt 1 discriminator 4
 505 001a 6846     		mov	r0, sp
 506 001c FFF7FEFF 		bl	Ser_PutString
 507              	.LVL77:
  70:..\source/callin.c ****             Pid_SetLeftRightTarget(Cal_LeftTarget, Cal_RightTarget);
 508              		.loc 1 70 0 discriminator 4
 509 0020 0021     		movs	r1, #0
 510 0022 0846     		mov	r0, r1
 511 0024 FFF7FEFF 		bl	Cal_SetLeftRightVelocity
 512              	.LVL78:
  71:..\source/callin.c **** 
 513              		.loc 1 71 0 discriminator 4
 514 0028 0B4B     		ldr	r3, .L65+12
 515 002a 1868     		ldr	r0, [r3]
 516 002c 0B4B     		ldr	r3, .L65+16
 517 002e 1968     		ldr	r1, [r3]
 518 0030 FFF7FEFF 		bl	Pid_SetLeftRightTarget
 519              	.LVL79:
  73:..\source/callin.c **** 
 520              		.loc 1 73 0 discriminator 4
 521 0034 0A4B     		ldr	r3, .L65+20
 522 0036 1988     		ldrh	r1, [r3]
ARM GAS  C:\Users\tslator\AppData\Local\Temp\ccB7Nxya.s 			page 15


 523 0038 0A4A     		ldr	r2, .L65+24
 524 003a 1180     		strh	r1, [r2]	@ movhi
  75:..\source/callin.c **** 
 525              		.loc 1 75 0 discriminator 4
 526 003c 4F22     		movs	r2, #79
 527 003e 1A80     		strh	r2, [r3]	@ movhi
  85:..\source/callin.c **** 
 528              		.loc 1 85 0 discriminator 4
 529 0040 0020     		movs	r0, #0
 530 0042 11B0     		add	sp, sp, #68
 531              		.cfi_def_cfa_offset 4
 532              		@ sp needed
 533 0044 5DF804FB 		ldr	pc, [sp], #4
 534              	.LVL80:
 535              	.L64:
 536              		.cfi_def_cfa_offset 0
 537              		.cfi_restore 14
  85:..\source/callin.c **** 
 538              		.loc 1 85 0 is_stmt 0
 539 0048 0020     		movs	r0, #0
 540              	.LVL81:
 541 004a 7047     		bx	lr
 542              	.L66:
 543              		.align	2
 544              	.L65:
 545 004c 28000000 		.word	.LC1
 546 0050 30000000 		.word	.LC2
 547 0054 EC000000 		.word	.LC10
 548 0058 00000000 		.word	Cal_LeftTarget
 549 005c 00000000 		.word	Cal_RightTarget
 550 0060 00000000 		.word	debug_control_enabled
 551 0064 00000000 		.word	.LANCHOR0
 552              		.cfi_endproc
 553              	.LFE63:
 554              		.size	Init, .-Init
 555              		.section	.text.CalLin_Init,"ax",%progbits
 556              		.align	2
 557              		.global	CalLin_Init
 558              		.thumb
 559              		.thumb_func
 560              		.type	CalLin_Init, %function
 561              	CalLin_Init:
 562              	.LFB70:
 207:..\source/callin.c **** 
 208:..\source/callin.c **** 
 209:..\source/callin.c **** static float CalLinearLeftTarget()
 210:..\source/callin.c **** {
 211:..\source/callin.c ****     return left_cmd_velocity;
 212:..\source/callin.c **** }
 213:..\source/callin.c **** 
 214:..\source/callin.c **** static float CalLinearRightTarget()
 215:..\source/callin.c **** {
 216:..\source/callin.c ****     return right_cmd_velocity;
 217:..\source/callin.c **** }
 218:..\source/callin.c **** 
 219:..\source/callin.c **** void CalLin_Init()
 220:..\source/callin.c **** {
ARM GAS  C:\Users\tslator\AppData\Local\Temp\ccB7Nxya.s 			page 16


 563              		.loc 1 220 0 is_stmt 1
 564              		.cfi_startproc
 565              		@ args = 0, pretend = 0, frame = 0
 566              		@ frame_needed = 0, uses_anonymous_args = 0
 567              		@ link register save eliminated.
 221:..\source/callin.c ****     CalLin_Validation = &linear_calibration;
 568              		.loc 1 221 0
 569 0000 014A     		ldr	r2, .L68
 570 0002 024B     		ldr	r3, .L68+4
 571 0004 1A60     		str	r2, [r3]
 572 0006 7047     		bx	lr
 573              	.L69:
 574              		.align	2
 575              	.L68:
 576 0008 00000000 		.word	.LANCHOR1
 577 000c 00000000 		.word	CalLin_Validation
 578              		.cfi_endproc
 579              	.LFE70:
 580              		.size	CalLin_Init, .-CalLin_Init
 581              		.comm	debug_control_enabled,2,2
 582              		.comm	formatted_string,256,4
 583              		.comm	CalLin_Validation,4,4
 584              		.comm	Cal_RightTarget,4,4
 585              		.comm	Cal_LeftTarget,4,4
 586              		.comm	p_cal_eeprom,4,4
 587              		.data
 588              		.align	2
 589              		.set	.LANCHOR1,. + 0
 590              		.type	linear_calibration, %object
 591              		.size	linear_calibration, 28
 592              	linear_calibration:
 593 0000 00       		.byte	0
 594 0001 01       		.byte	1
 595 0002 0000     		.space	2
 596 0004 1C000000 		.word	linear_params
 597 0008 00000000 		.word	Init
 598 000c 00000000 		.word	Start
 599 0010 00000000 		.word	Update
 600 0014 00000000 		.word	Stop
 601 0018 00000000 		.word	Results
 602              		.type	linear_params, %object
 603              		.size	linear_params, 16
 604              	linear_params:
 605 001c 00       		.byte	0
 606 001d 000000   		.space	3
 607 0020 10270000 		.word	10000
 608 0024 0000803F 		.word	1065353216
 609 0028 9A99193E 		.word	1041865114
 610              		.section	.rodata.str1.4,"aMS",%progbits,1
 611              		.align	2
 612              	.LC0:
 613 0000 0D0A5072 		.ascii	"\015\012Printing Linear validation results\015\012\000"
 613      696E7469 
 613      6E67204C 
 613      696E6561 
 613      72207661 
 614 0027 00       		.space	1
ARM GAS  C:\Users\tslator\AppData\Local\Temp\ccB7Nxya.s 			page 17


 615              	.LC1:
 616 0028 466F7277 		.ascii	"Forward\000"
 616      61726400 
 617              	.LC2:
 618 0030 4261636B 		.ascii	"Backward\000"
 618      77617264 
 618      00
 619 0039 000000   		.space	3
 620              	.LC3:
 621 003c 0D0A2573 		.ascii	"\015\012%s Linear validation complete\015\012\000"
 621      204C696E 
 621      65617220 
 621      76616C69 
 621      64617469 
 622 005e 0000     		.space	2
 623              	.LC4:
 624 0060 4C656674 		.ascii	"Left Wheel Distance: %s\015\012Right Wheel Distance"
 624      20576865 
 624      656C2044 
 624      69737461 
 624      6E63653A 
 625 008d 3A202573 		.ascii	": %s\015\012\000"
 625      0D0A00
 626              	.LC5:
 627 0094 48656164 		.ascii	"Heading: %s\015\012\000"
 627      696E673A 
 627      2025730D 
 627      0A00
 628 00a2 0000     		.space	2
 629              	.LC6:
 630 00a4 0D0A5275 		.ascii	"\015\012Run time expired\015\012\000"
 630      6E207469 
 630      6D652065 
 630      78706972 
 630      65640D0A 
 631 00b9 000000   		.space	3
 632              	.LC7:
 633 00bc 4C696E65 		.ascii	"Linear Validation Start\015\012\000"
 633      61722056 
 633      616C6964 
 633      6174696F 
 633      6E205374 
 634 00d6 0000     		.space	2
 635              	.LC8:
 636 00d8 0D0A5661 		.ascii	"\015\012Validating \000"
 636      6C696461 
 636      74696E67 
 636      2000
 637 00e6 0000     		.space	2
 638              	.LC9:
 639 00e8 0D0A00   		.ascii	"\015\012\000"
 640 00eb 00       		.space	1
 641              	.LC10:
 642 00ec 0D0A2573 		.ascii	"\015\012%s Linear validation\015\012\000"
 642      204C696E 
 642      65617220 
 642      76616C69 
ARM GAS  C:\Users\tslator\AppData\Local\Temp\ccB7Nxya.s 			page 18


 642      64617469 
 643 0105 000000   		.bss
 644              		.align	2
 645              		.set	.LANCHOR0,. + 0
 646              		.type	old_debug_control_enabled, %object
 647              		.size	old_debug_control_enabled, 2
 648              	old_debug_control_enabled:
 649 0000 0000     		.space	2
 650 0002 0000     		.space	2
 651              		.type	start_time, %object
 652              		.size	start_time, 4
 653              	start_time:
 654 0004 00000000 		.space	4
 655              		.text
 656              	.Letext0:
 657              		.file 2 "c:\\program files (x86)\\cypress\\psoc creator\\3.3\\psoc creator\\import\\gnu\\arm\\4.9.
 658              		.file 3 "c:\\program files (x86)\\cypress\\psoc creator\\3.3\\psoc creator\\import\\gnu\\arm\\4.9.
 659              		.file 4 "Generated_Source\\PSoC5/cytypes.h"
 660              		.file 5 "..\\source\\config.h"
 661              		.file 6 "..\\source\\calstore.h"
 662              		.file 7 "..\\source\\cal.h"
 663              		.file 8 "..\\source\\callin.h"
 664              		.file 9 "Generated_Source\\PSoC5/core_cm3.h"
 665              		.file 10 "..\\source\\debug.h"
 666              		.file 11 "..\\source\\serial.h"
 667              		.file 12 "..\\source\\encoder.h"
 668              		.file 13 "..\\source\\utils.h"
 669              		.file 14 "..\\source\\time.h"
 670              		.file 15 "..\\source\\pid.h"
 671              		.file 16 "..\\source\\odom.h"
 672              		.file 17 "c:\\program files (x86)\\cypress\\psoc creator\\3.3\\psoc creator\\import\\gnu\\arm\\4.9