ARM GAS  C:\Users\Tim\AppData\Local\Temp\ccfMsRPN.s 			page 1


   1              		.syntax unified
   2              		.cpu cortex-m3
   3              		.fpu softvfp
   4              		.eabi_attribute 20, 1
   5              		.eabi_attribute 21, 1
   6              		.eabi_attribute 23, 3
   7              		.eabi_attribute 24, 1
   8              		.eabi_attribute 25, 1
   9              		.eabi_attribute 26, 1
  10              		.eabi_attribute 30, 1
  11              		.eabi_attribute 34, 1
  12              		.eabi_attribute 18, 4
  13              		.thumb
  14              		.file	"calmotor.c"
  15              		.text
  16              	.Ltext0:
  17              		.cfi_sections	.debug_frame
  18              		.global	__aeabi_i2f
  19              		.global	__aeabi_fcmplt
  20              		.global	__aeabi_fcmpgt
  21              		.global	__aeabi_f2d
  22              		.global	__aeabi_dmul
  23              		.global	__aeabi_d2f
  24              		.global	__aeabi_fsub
  25              		.global	__aeabi_fdiv
  26              		.global	__aeabi_fmul
  27              		.global	__aeabi_fadd
  28              		.section	.text.CalculateValidationValues,"ax",%progbits
  29              		.align	2
  30              		.thumb
  31              		.thumb_func
  32              		.type	CalculateValidationValues, %function
  33              	CalculateValidationValues:
  34              	.LFB63:
  35              		.file 1 "..\\source\\calmotor.c"
   1:..\source/calmotor.c **** #include <stdio.h>
   2:..\source/calmotor.c **** #include "calmotor.h"
   3:..\source/calmotor.c **** #include "motor.h"
   4:..\source/calmotor.c **** #include "pwm.h"
   5:..\source/calmotor.c **** #include "nvstore.h"
   6:..\source/calmotor.c **** #include "serial.h"
   7:..\source/calmotor.c **** #include "encoder.h"
   8:..\source/calmotor.c **** #include "time.h"
   9:..\source/calmotor.c **** #include "utils.h"
  10:..\source/calmotor.c **** #include "debug.h"
  11:..\source/calmotor.c **** #include "pid.h"
  12:..\source/calmotor.c **** 
  13:..\source/calmotor.c **** 
  14:..\source/calmotor.c **** #define MAX_MOTOR_CAL_ITERATION (3)
  15:..\source/calmotor.c **** 
  16:..\source/calmotor.c **** /*
  17:..\source/calmotor.c ****     Explanation of Count/Sec to PWM Calibration:
  18:..\source/calmotor.c **** 
  19:..\source/calmotor.c ****     Calibration involves mapping count/sec values to PWM values.  Each motor is run (forward and ba
  20:..\source/calmotor.c ****     an average count/sec for each PWM sample.  The results are stored in an structure (CAL_DATA_TYP
  21:..\source/calmotor.c ****     count/sec averages, PWM samples, min/max count/sec and a scale factor.  There are four CAL_DATA
  22:..\source/calmotor.c ****     for left motor forward, left motor backward, right motor forward and right motor backward.  The
ARM GAS  C:\Users\Tim\AppData\Local\Temp\ccfMsRPN.s 			page 2


  23:..\source/calmotor.c ****     stored in NVRAM on the Psoc and pointers to the calibration data are passed to the motor module
  24:..\source/calmotor.c ****     
  25:..\source/calmotor.c ****     Upon startup, the calibration data is made available to the motors via pointers to NVRAM (Note:
  26:..\source/calmotor.c ****     maps NVRAM to memory so there is no appreciable overhead in reading from NVRAM (or so I believe
  27:..\source/calmotor.c **** 
  28:..\source/calmotor.c ****  */
  29:..\source/calmotor.c **** 
  30:..\source/calmotor.c **** static uint8 Init(CAL_STAGE_TYPE stage, void *params);
  31:..\source/calmotor.c **** static uint8 Start(CAL_STAGE_TYPE stage, void *params);
  32:..\source/calmotor.c **** static uint8 Update(CAL_STAGE_TYPE stage, void *params);
  33:..\source/calmotor.c **** static uint8 Stop(CAL_STAGE_TYPE stage, void *params);
  34:..\source/calmotor.c **** static uint8 Results(CAL_STAGE_TYPE stage, void *params);
  35:..\source/calmotor.c **** 
  36:..\source/calmotor.c **** static int32 cps_samples[CAL_NUM_SAMPLES];
  37:..\source/calmotor.c **** static uint16 pwm_samples[CAL_NUM_SAMPLES];
  38:..\source/calmotor.c **** static int32 cps_sum[CAL_NUM_SAMPLES];
  39:..\source/calmotor.c **** static CAL_DATA_TYPE cal_data;
  40:..\source/calmotor.c **** 
  41:..\source/calmotor.c **** 
  42:..\source/calmotor.c **** static float fwd_cps_validate[11] = {0.0, 0.0, 0.0, 0.0, 0.0, 0.0, 0.0, 0.0, 0.0, 0.0, 0.0};
  43:..\source/calmotor.c **** static float bwd_cps_validate[11] = {-0.0, -0.0, -0.0, -0.0, -0.0, -0.0, -0.0, -0.0, -0.0, -0.0, -0
  44:..\source/calmotor.c **** 
  45:..\source/calmotor.c **** 
  46:..\source/calmotor.c **** static CALIBRATION_TYPE motor_calibration = {CAL_INIT_STATE, 
  47:..\source/calmotor.c ****                                              CAL_CALIBRATE_STAGE,
  48:..\source/calmotor.c ****                                              0,
  49:..\source/calmotor.c ****                                              Init, 
  50:..\source/calmotor.c ****                                              Start, 
  51:..\source/calmotor.c ****                                              Update, 
  52:..\source/calmotor.c ****                                              Stop, 
  53:..\source/calmotor.c ****                                              Results };
  54:..\source/calmotor.c **** 
  55:..\source/calmotor.c **** static void CalculateValidationValues()
  56:..\source/calmotor.c **** /* This routine calculates a series of count/second in a triangle profile from slow to fast to slow
  57:..\source/calmotor.c ****    calibration data to determine a range forward and reverse count/second for each wheel.  The rout
  58:..\source/calmotor.c ****    motor validation to confirm that motor calibration conversion from count/second to pwm is reason
  59:..\source/calmotor.c ****  */
  60:..\source/calmotor.c **** {
  36              		.loc 1 60 0
  37              		.cfi_startproc
  38              		@ args = 0, pretend = 0, frame = 0
  39              		@ frame_needed = 0, uses_anonymous_args = 0
  40 0000 2DE9F84F 		push	{r3, r4, r5, r6, r7, r8, r9, r10, fp, lr}
  41              		.cfi_def_cfa_offset 40
  42              		.cfi_offset 3, -40
  43              		.cfi_offset 4, -36
  44              		.cfi_offset 5, -32
  45              		.cfi_offset 6, -28
  46              		.cfi_offset 7, -24
  47              		.cfi_offset 8, -20
  48              		.cfi_offset 9, -16
  49              		.cfi_offset 10, -12
  50              		.cfi_offset 11, -8
  51              		.cfi_offset 14, -4
  61:..\source/calmotor.c ****     uint8 ii;
  62:..\source/calmotor.c ****     char outbuf[64];
  63:..\source/calmotor.c ****     char str_val[10];
ARM GAS  C:\Users\Tim\AppData\Local\Temp\ccfMsRPN.s 			page 3


  64:..\source/calmotor.c ****     
  65:..\source/calmotor.c ****     if (p_cal_eeprom->status & CAL_MOTOR_BIT)
  52              		.loc 1 65 0
  53 0004 584B     		ldr	r3, .L14+16
  54 0006 1C68     		ldr	r4, [r3]
  55 0008 2388     		ldrh	r3, [r4]
  56 000a 13F0010F 		tst	r3, #1
  57 000e 00F0A180 		beq	.L1
  58              	.LBB2:
  66:..\source/calmotor.c ****     {
  67:..\source/calmotor.c ****     
  68:..\source/calmotor.c ****         float left_forward_cps_max = p_cal_eeprom->left_motor_fwd.cps_max / p_cal_eeprom->left_moto
  59              		.loc 1 68 0
  60 0012 E06C     		ldr	r0, [r4, #76]
  61 0014 236D     		ldr	r3, [r4, #80]
  62 0016 90FBF3F0 		sdiv	r0, r0, r3
  63 001a FFF7FEFF 		bl	__aeabi_i2f
  64              	.LVL0:
  65 001e 0646     		mov	r6, r0
  66              	.LVL1:
  69:..\source/calmotor.c ****         float right_forward_cps_max = p_cal_eeprom->right_motor_fwd.cps_max / p_cal_eeprom->right_m
  67              		.loc 1 69 0
  68 0020 D4F8CC02 		ldr	r0, [r4, #716]
  69              	.LVL2:
  70 0024 D4F8D032 		ldr	r3, [r4, #720]
  71 0028 90FBF3F0 		sdiv	r0, r0, r3
  72 002c FFF7FEFF 		bl	__aeabi_i2f
  73              	.LVL3:
  74 0030 0746     		mov	r7, r0
  75              	.LVL4:
  70:..\source/calmotor.c ****         float left_backward_cps_min = p_cal_eeprom->left_motor_bwd.cps_min / p_cal_eeprom->left_mot
  76              		.loc 1 70 0
  77 0032 D4F88801 		ldr	r0, [r4, #392]
  78              	.LVL5:
  79 0036 D4F89031 		ldr	r3, [r4, #400]
  80 003a 90FBF3F0 		sdiv	r0, r0, r3
  81 003e FFF7FEFF 		bl	__aeabi_i2f
  82              	.LVL6:
  83 0042 0546     		mov	r5, r0
  84              	.LVL7:
  71:..\source/calmotor.c ****         float right_backward_cps_min = p_cal_eeprom->right_motor_bwd.cps_min / p_cal_eeprom->right_
  85              		.loc 1 71 0
  86 0044 D4F80804 		ldr	r0, [r4, #1032]
  87              	.LVL8:
  88 0048 D4F81034 		ldr	r3, [r4, #1040]
  89 004c 90FBF3F0 		sdiv	r0, r0, r3
  90 0050 FFF7FEFF 		bl	__aeabi_i2f
  91              	.LVL9:
  92 0054 8246     		mov	r10, r0
  93              	.LVL10:
  72:..\source/calmotor.c **** 
  73:..\source/calmotor.c ****         float forward_cps_max = min(left_forward_cps_max, right_forward_cps_max);
  94              		.loc 1 73 0
  95 0056 3046     		mov	r0, r6
  96              	.LVL11:
  97 0058 3946     		mov	r1, r7
  98 005a FFF7FEFF 		bl	__aeabi_fcmplt
ARM GAS  C:\Users\Tim\AppData\Local\Temp\ccfMsRPN.s 			page 4


  99              	.LVL12:
 100 005e 00B1     		cbz	r0, .L3
 101 0060 3746     		mov	r7, r6
 102              	.LVL13:
 103              	.L3:
  74:..\source/calmotor.c ****         float backward_cps_min = max(left_backward_cps_min, right_backward_cps_min);
 104              		.loc 1 74 0 discriminator 4
 105 0062 2846     		mov	r0, r5
 106 0064 5146     		mov	r1, r10
 107 0066 FFF7FEFF 		bl	__aeabi_fcmpgt
 108              	.LVL14:
 109 006a 00B1     		cbz	r0, .L5
 110              		.loc 1 74 0 is_stmt 0
 111 006c AA46     		mov	r10, r5
 112              	.LVL15:
 113              	.L5:
  75:..\source/calmotor.c ****         
  76:..\source/calmotor.c ****         float fwd_cps_start = 0.2 * forward_cps_max;
 114              		.loc 1 76 0 is_stmt 1 discriminator 4
 115 006e 3846     		mov	r0, r7
 116 0070 FFF7FEFF 		bl	__aeabi_f2d
 117              	.LVL16:
 118 0074 0446     		mov	r4, r0
 119 0076 0D46     		mov	r5, r1
 120              	.LVL17:
 121 0078 37A3     		adr	r3, .L14
 122 007a D3E90023 		ldrd	r2, [r3]
 123 007e FFF7FEFF 		bl	__aeabi_dmul
 124              	.LVL18:
 125 0082 FFF7FEFF 		bl	__aeabi_d2f
 126              	.LVL19:
 127 0086 0646     		mov	r6, r0
 128              	.LVL20:
  77:..\source/calmotor.c ****         float fwd_cps_end = 0.8 * forward_cps_max;
 129              		.loc 1 77 0 discriminator 4
 130 0088 2046     		mov	r0, r4
 131              	.LVL21:
 132 008a 2946     		mov	r1, r5
 133 008c 34A3     		adr	r3, .L14+8
 134 008e D3E90023 		ldrd	r2, [r3]
 135 0092 FFF7FEFF 		bl	__aeabi_dmul
 136              	.LVL22:
 137 0096 FFF7FEFF 		bl	__aeabi_d2f
 138              	.LVL23:
 139 009a 8346     		mov	fp, r0
 140              	.LVL24:
  78:..\source/calmotor.c ****         float bwd_cps_start = 0.2 * backward_cps_min;
 141              		.loc 1 78 0 discriminator 4
 142 009c 5046     		mov	r0, r10
 143              	.LVL25:
 144 009e FFF7FEFF 		bl	__aeabi_f2d
 145              	.LVL26:
 146 00a2 8046     		mov	r8, r0
 147 00a4 8946     		mov	r9, r1
 148 00a6 2CA3     		adr	r3, .L14
 149 00a8 D3E90023 		ldrd	r2, [r3]
 150 00ac FFF7FEFF 		bl	__aeabi_dmul
ARM GAS  C:\Users\Tim\AppData\Local\Temp\ccfMsRPN.s 			page 5


 151              	.LVL27:
 152 00b0 FFF7FEFF 		bl	__aeabi_d2f
 153              	.LVL28:
 154 00b4 0546     		mov	r5, r0
 155              	.LVL29:
  79:..\source/calmotor.c ****         float bwd_cps_end = 0.8 * backward_cps_min;
 156              		.loc 1 79 0 discriminator 4
 157 00b6 4046     		mov	r0, r8
 158              	.LVL30:
 159 00b8 4946     		mov	r1, r9
 160 00ba 29A3     		adr	r3, .L14+8
 161 00bc D3E90023 		ldrd	r2, [r3]
 162 00c0 FFF7FEFF 		bl	__aeabi_dmul
 163              	.LVL31:
 164 00c4 FFF7FEFF 		bl	__aeabi_d2f
 165              	.LVL32:
 166 00c8 0446     		mov	r4, r0
 167              	.LVL33:
  80:..\source/calmotor.c ****         
  81:..\source/calmotor.c ****         float fwd_cps_delta = (fwd_cps_end - fwd_cps_start)/5;
 168              		.loc 1 81 0 discriminator 4
 169 00ca 5846     		mov	r0, fp
 170              	.LVL34:
 171 00cc 3146     		mov	r1, r6
 172 00ce FFF7FEFF 		bl	__aeabi_fsub
 173              	.LVL35:
 174 00d2 2649     		ldr	r1, .L14+20
 175 00d4 FFF7FEFF 		bl	__aeabi_fdiv
 176              	.LVL36:
 177 00d8 8146     		mov	r9, r0
 178              	.LVL37:
  82:..\source/calmotor.c ****         float bwd_cps_delta = (bwd_cps_end - bwd_cps_start)/5;
 179              		.loc 1 82 0 discriminator 4
 180 00da 2046     		mov	r0, r4
 181              	.LVL38:
 182 00dc 2946     		mov	r1, r5
 183 00de FFF7FEFF 		bl	__aeabi_fsub
 184              	.LVL39:
 185 00e2 2249     		ldr	r1, .L14+20
 186 00e4 FFF7FEFF 		bl	__aeabi_fdiv
 187              	.LVL40:
 188 00e8 8046     		mov	r8, r0
 189              	.LVL41:
  83:..\source/calmotor.c ****         
  84:..\source/calmotor.c ****         fwd_cps_validate[5] = forward_cps_max;
 190              		.loc 1 84 0 discriminator 4
 191 00ea 214B     		ldr	r3, .L14+24
 192 00ec 5F61     		str	r7, [r3, #20]	@ float
  85:..\source/calmotor.c ****         bwd_cps_validate[5] = backward_cps_min;
 193              		.loc 1 85 0 discriminator 4
 194 00ee 214B     		ldr	r3, .L14+28
 195 00f0 C3F814A0 		str	r10, [r3, #20]	@ float
 196              	.LVL42:
  86:..\source/calmotor.c ****         
  87:..\source/calmotor.c ****         for (ii = 0; ii <= 4; ++ii)
 197              		.loc 1 87 0 discriminator 4
 198 00f4 0024     		movs	r4, #0
ARM GAS  C:\Users\Tim\AppData\Local\Temp\ccfMsRPN.s 			page 6


 199              	.LVL43:
 200 00f6 18E0     		b	.L7
 201              	.LVL44:
 202              	.L8:
  88:..\source/calmotor.c ****         {
  89:..\source/calmotor.c ****             fwd_cps_validate[ii] = (fwd_cps_start + fwd_cps_delta * ii);
 203              		.loc 1 89 0 discriminator 3
 204 00f8 2046     		mov	r0, r4
 205 00fa FFF7FEFF 		bl	__aeabi_i2f
 206              	.LVL45:
 207 00fe 0746     		mov	r7, r0
 208 0100 4946     		mov	r1, r9
 209 0102 FFF7FEFF 		bl	__aeabi_fmul
 210              	.LVL46:
 211 0106 3146     		mov	r1, r6
 212 0108 FFF7FEFF 		bl	__aeabi_fadd
 213              	.LVL47:
 214 010c 184B     		ldr	r3, .L14+24
 215 010e 43F82400 		str	r0, [r3, r4, lsl #2]	@ float
  90:..\source/calmotor.c ****             bwd_cps_validate[ii] = (bwd_cps_start + bwd_cps_delta * ii);
 216              		.loc 1 90 0 discriminator 3
 217 0112 4046     		mov	r0, r8
 218 0114 3946     		mov	r1, r7
 219 0116 FFF7FEFF 		bl	__aeabi_fmul
 220              	.LVL48:
 221 011a 2946     		mov	r1, r5
 222 011c FFF7FEFF 		bl	__aeabi_fadd
 223              	.LVL49:
 224 0120 144B     		ldr	r3, .L14+28
 225 0122 43F82400 		str	r0, [r3, r4, lsl #2]	@ float
  87:..\source/calmotor.c ****         {
 226              		.loc 1 87 0 discriminator 3
 227 0126 0134     		adds	r4, r4, #1
 228              	.LVL50:
 229 0128 E4B2     		uxtb	r4, r4
 230              	.LVL51:
 231              	.L7:
  87:..\source/calmotor.c ****         {
 232              		.loc 1 87 0 is_stmt 0 discriminator 1
 233 012a 042C     		cmp	r4, #4
 234 012c E4D9     		bls	.L8
 235 012e 0023     		movs	r3, #0
 236 0130 0EE0     		b	.L9
 237              	.LVL52:
 238              	.L10:
  91:..\source/calmotor.c ****         }
  92:..\source/calmotor.c ****         
  93:..\source/calmotor.c ****         for (ii = 0; ii <= 4; ++ii)
  94:..\source/calmotor.c ****         {
  95:..\source/calmotor.c ****             fwd_cps_validate[6 + ii] = fwd_cps_validate[4 - ii];
 239              		.loc 1 95 0 is_stmt 1 discriminator 3
 240 0132 991D     		adds	r1, r3, #6
 241 0134 C3F10400 		rsb	r0, r3, #4
 242 0138 0D4A     		ldr	r2, .L14+24
 243 013a 52F82040 		ldr	r4, [r2, r0, lsl #2]	@ float
 244 013e 42F82140 		str	r4, [r2, r1, lsl #2]	@ float
  96:..\source/calmotor.c ****             bwd_cps_validate[6 + ii] = bwd_cps_validate[4 - ii];
ARM GAS  C:\Users\Tim\AppData\Local\Temp\ccfMsRPN.s 			page 7


 245              		.loc 1 96 0 discriminator 3
 246 0142 0C4A     		ldr	r2, .L14+28
 247 0144 52F82000 		ldr	r0, [r2, r0, lsl #2]	@ float
 248 0148 42F82100 		str	r0, [r2, r1, lsl #2]	@ float
  93:..\source/calmotor.c ****         {
 249              		.loc 1 93 0 discriminator 3
 250 014c 0133     		adds	r3, r3, #1
 251              	.LVL53:
 252 014e DBB2     		uxtb	r3, r3
 253              	.LVL54:
 254              	.L9:
  93:..\source/calmotor.c ****         {
 255              		.loc 1 93 0 is_stmt 0 discriminator 1
 256 0150 042B     		cmp	r3, #4
 257 0152 EED9     		bls	.L10
 258              	.LVL55:
 259              	.L1:
 260 0154 BDE8F88F 		pop	{r3, r4, r5, r6, r7, r8, r9, r10, fp, pc}
 261              	.L15:
 262              		.align	3
 263              	.L14:
 264 0158 9A999999 		.word	-1717986918
 265 015c 9999C93F 		.word	1070176665
 266 0160 9A999999 		.word	-1717986918
 267 0164 9999E93F 		.word	1072273817
 268 0168 00000000 		.word	p_cal_eeprom
 269 016c 0000A040 		.word	1084227584
 270 0170 00000000 		.word	.LANCHOR0
 271 0174 00000000 		.word	.LANCHOR1
 272              	.LBE2:
 273              		.cfi_endproc
 274              	.LFE63:
 275              		.size	CalculateValidationValues, .-CalculateValidationValues
 276              		.section	.text.CalculatePwmSamples,"ax",%progbits
 277              		.align	2
 278              		.thumb
 279              		.thumb_func
 280              		.type	CalculatePwmSamples, %function
 281              	CalculatePwmSamples:
 282              	.LFB64:
  97:..\source/calmotor.c ****         }
  98:..\source/calmotor.c ****     }
  99:..\source/calmotor.c **** }
 100:..\source/calmotor.c **** 
 101:..\source/calmotor.c **** static void CalculatePwmSamples(WHEEL_TYPE wheel, DIR_TYPE dir, uint16 *pwm_samples, uint8 *reverse
 102:..\source/calmotor.c **** {
 283              		.loc 1 102 0 is_stmt 1
 284              		.cfi_startproc
 285              		@ args = 0, pretend = 0, frame = 0
 286              		@ frame_needed = 0, uses_anonymous_args = 0
 287              		@ link register save eliminated.
 288              	.LVL56:
 103:..\source/calmotor.c ****     /*
 104:..\source/calmotor.c ****         if wheel is left
 105:..\source/calmotor.c ****             if dir is forward
 106:..\source/calmotor.c ****                 pwm start = 1500
 107:..\source/calmotor.c ****                 pwm end = 2000
ARM GAS  C:\Users\Tim\AppData\Local\Temp\ccfMsRPN.s 			page 8


 108:..\source/calmotor.c ****                 pwm step = (2000 - 1500) / num_samples
 109:..\source/calmotor.c ****             if dir is backward
 110:..\source/calmotor.c ****                 pwm start = 1000
 111:..\source/calmotor.c ****                 pwm end = 1500
 112:..\source/calmotor.c ****                 pwm step = (1500 - 1000) / num_samples
 113:..\source/calmotor.c ****     
 114:..\source/calmotor.c ****         if wheel is right
 115:..\source/calmotor.c ****             if dir is forward
 116:..\source/calmotor.c ****                 pwm start = 1000
 117:..\source/calmotor.c ****                 pwm end = 1500
 118:..\source/calmotor.c ****                 pwm step = (1500 - 1000) / num_samples
 119:..\source/calmotor.c ****             if dir is backward
 120:..\source/calmotor.c ****                 pwm start = 1500
 121:..\source/calmotor.c ****                 pwm end = 2000
 122:..\source/calmotor.c ****                 pwm step = (2000 - 1500) / num_samples
 123:..\source/calmotor.c ****     */
 124:..\source/calmotor.c ****     
 125:..\source/calmotor.c ****     uint16 pwm;
 126:..\source/calmotor.c ****     uint16 pwm_start;
 127:..\source/calmotor.c ****     uint16 pwm_end;
 128:..\source/calmotor.c ****     uint16 pwm_step;
 129:..\source/calmotor.c ****     
 130:..\source/calmotor.c ****     if (wheel == WHEEL_LEFT)
 289              		.loc 1 130 0
 290 0000 B8B9     		cbnz	r0, .L17
 291              	.LBB3:
 131:..\source/calmotor.c ****     {
 132:..\source/calmotor.c ****         if (dir == DIR_FORWARD)
 292              		.loc 1 132 0
 293 0002 29B9     		cbnz	r1, .L18
 294              	.LVL57:
 133:..\source/calmotor.c ****         {
 134:..\source/calmotor.c ****             pwm_start = LEFT_PWM_STOP;
 135:..\source/calmotor.c ****             pwm_end = LEFT_PWM_FULL_FORWARD;
 136:..\source/calmotor.c ****             pwm_step = LEFT_PWM_FORWARD_DOMAIN / (CAL_NUM_SAMPLES - 1);
 137:..\source/calmotor.c ****             *reverse_pwm = 0;
 295              		.loc 1 137 0
 296 0004 1970     		strb	r1, [r3]
 135:..\source/calmotor.c ****             pwm_step = LEFT_PWM_FORWARD_DOMAIN / (CAL_NUM_SAMPLES - 1);
 297              		.loc 1 135 0
 298 0006 4FF4FA60 		mov	r0, #2000
 299              	.LVL58:
 134:..\source/calmotor.c ****             pwm_end = LEFT_PWM_FULL_FORWARD;
 300              		.loc 1 134 0
 301 000a 40F2DC53 		movw	r3, #1500
 302              	.LVL59:
 303 000e 05E0     		b	.L19
 304              	.LVL60:
 305              	.L18:
 138:..\source/calmotor.c ****         }
 139:..\source/calmotor.c ****         else
 140:..\source/calmotor.c ****         {
 141:..\source/calmotor.c ****             pwm_start = LEFT_PWM_FULL_BACKWARD;
 142:..\source/calmotor.c ****             pwm_end = LEFT_PWM_STOP;
 143:..\source/calmotor.c ****             pwm_step = LEFT_PWM_BACKWARD_DOMAIN / (CAL_NUM_SAMPLES - 1);
 144:..\source/calmotor.c ****             *reverse_pwm = 1;
 306              		.loc 1 144 0
ARM GAS  C:\Users\Tim\AppData\Local\Temp\ccfMsRPN.s 			page 9


 307 0010 0121     		movs	r1, #1
 308              	.LVL61:
 309 0012 1970     		strb	r1, [r3]
 142:..\source/calmotor.c ****             pwm_step = LEFT_PWM_BACKWARD_DOMAIN / (CAL_NUM_SAMPLES - 1);
 310              		.loc 1 142 0
 311 0014 40F2DC50 		movw	r0, #1500
 312              	.LVL62:
 141:..\source/calmotor.c ****             pwm_end = LEFT_PWM_STOP;
 313              		.loc 1 141 0
 314 0018 4FF47A73 		mov	r3, #1000
 315              	.LVL63:
 316              	.L19:
 145:..\source/calmotor.c ****         }
 146:..\source/calmotor.c **** 
 147:..\source/calmotor.c ****         uint8 ii;
 148:..\source/calmotor.c ****         for (ii = 0, pwm = pwm_start; pwm <= pwm_end; ++ii, pwm += pwm_step)
 317              		.loc 1 148 0
 318 001c 0021     		movs	r1, #0
 319 001e 05E0     		b	.L20
 320              	.LVL64:
 321              	.L21:
 149:..\source/calmotor.c ****         {
 150:..\source/calmotor.c ****             pwm_samples[ii] = pwm;
 322              		.loc 1 150 0 discriminator 3
 323 0020 22F81130 		strh	r3, [r2, r1, lsl #1]	@ movhi
 148:..\source/calmotor.c ****         {
 324              		.loc 1 148 0 discriminator 3
 325 0024 0131     		adds	r1, r1, #1
 326              	.LVL65:
 327 0026 C9B2     		uxtb	r1, r1
 328              	.LVL66:
 329 0028 0A33     		adds	r3, r3, #10
 330              	.LVL67:
 331 002a 9BB2     		uxth	r3, r3
 332              	.LVL68:
 333              	.L20:
 148:..\source/calmotor.c ****         {
 334              		.loc 1 148 0 is_stmt 0 discriminator 1
 335 002c 8342     		cmp	r3, r0
 336 002e F7D9     		bls	.L21
 337 0030 7047     		bx	lr
 338              	.LVL69:
 339              	.L17:
 340              	.LBE3:
 341              	.LBB4:
 151:..\source/calmotor.c ****         }
 152:..\source/calmotor.c ****     }
 153:..\source/calmotor.c ****     else
 154:..\source/calmotor.c ****     {
 155:..\source/calmotor.c ****         if (dir == DIR_FORWARD)
 342              		.loc 1 155 0 is_stmt 1
 343 0032 29B9     		cbnz	r1, .L23
 344              	.LVL70:
 156:..\source/calmotor.c ****         {
 157:..\source/calmotor.c ****             pwm_start = RIGHT_PWM_STOP;
 158:..\source/calmotor.c ****             pwm_end = RIGHT_PWM_FULL_FORWARD;
 159:..\source/calmotor.c ****             pwm_step = RIGHT_PWM_FORWARD_DOMAIN / (CAL_NUM_SAMPLES - 1);
ARM GAS  C:\Users\Tim\AppData\Local\Temp\ccfMsRPN.s 			page 10


 160:..\source/calmotor.c ****             *reverse_pwm = 0;
 345              		.loc 1 160 0
 346 0034 1970     		strb	r1, [r3]
 158:..\source/calmotor.c ****             pwm_step = RIGHT_PWM_FORWARD_DOMAIN / (CAL_NUM_SAMPLES - 1);
 347              		.loc 1 158 0
 348 0036 4FF47A70 		mov	r0, #1000
 349              	.LVL71:
 157:..\source/calmotor.c ****             pwm_end = RIGHT_PWM_FULL_FORWARD;
 350              		.loc 1 157 0
 351 003a 40F2DC53 		movw	r3, #1500
 352              	.LVL72:
 353 003e 05E0     		b	.L24
 354              	.LVL73:
 355              	.L23:
 161:..\source/calmotor.c ****         }
 162:..\source/calmotor.c ****         else
 163:..\source/calmotor.c ****         {
 164:..\source/calmotor.c ****             pwm_start = RIGHT_PWM_FULL_BACKWARD;
 165:..\source/calmotor.c ****             pwm_end = RIGHT_PWM_STOP;
 166:..\source/calmotor.c ****             pwm_step = RIGHT_PWM_BACKWARD_DOMAIN / (CAL_NUM_SAMPLES - 1);
 167:..\source/calmotor.c ****             *reverse_pwm = 1;
 356              		.loc 1 167 0
 357 0040 0121     		movs	r1, #1
 358              	.LVL74:
 359 0042 1970     		strb	r1, [r3]
 165:..\source/calmotor.c ****             pwm_step = RIGHT_PWM_BACKWARD_DOMAIN / (CAL_NUM_SAMPLES - 1);
 360              		.loc 1 165 0
 361 0044 40F2DC50 		movw	r0, #1500
 362              	.LVL75:
 164:..\source/calmotor.c ****             pwm_end = RIGHT_PWM_STOP;
 363              		.loc 1 164 0
 364 0048 4FF4FA63 		mov	r3, #2000
 365              	.LVL76:
 366              	.L24:
 168:..\source/calmotor.c ****         }
 169:..\source/calmotor.c ****         uint8 ii;
 170:..\source/calmotor.c ****         for (ii = 0, pwm = pwm_start; pwm >= pwm_end; ++ii, pwm -= pwm_step)
 367              		.loc 1 170 0
 368 004c 0021     		movs	r1, #0
 369 004e 05E0     		b	.L25
 370              	.LVL77:
 371              	.L26:
 171:..\source/calmotor.c ****         {
 172:..\source/calmotor.c ****             pwm_samples[ii] = pwm;
 372              		.loc 1 172 0 discriminator 3
 373 0050 22F81130 		strh	r3, [r2, r1, lsl #1]	@ movhi
 170:..\source/calmotor.c ****         {
 374              		.loc 1 170 0 discriminator 3
 375 0054 0131     		adds	r1, r1, #1
 376              	.LVL78:
 377 0056 C9B2     		uxtb	r1, r1
 378              	.LVL79:
 379 0058 0A3B     		subs	r3, r3, #10
 380              	.LVL80:
 381 005a 9BB2     		uxth	r3, r3
 382              	.LVL81:
 383              	.L25:
ARM GAS  C:\Users\Tim\AppData\Local\Temp\ccfMsRPN.s 			page 11


 170:..\source/calmotor.c ****         {
 384              		.loc 1 170 0 is_stmt 0 discriminator 1
 385 005c 8342     		cmp	r3, r0
 386 005e F7D2     		bcs	.L26
 387 0060 7047     		bx	lr
 388              	.LBE4:
 389              		.cfi_endproc
 390              	.LFE64:
 391              		.size	CalculatePwmSamples, .-CalculatePwmSamples
 392 0062 00BF     		.section	.text.AddSamplesToSum,"ax",%progbits
 393              		.align	2
 394              		.thumb
 395              		.thumb_func
 396              		.type	AddSamplesToSum, %function
 397              	AddSamplesToSum:
 398              	.LFB65:
 173:..\source/calmotor.c ****         }
 174:..\source/calmotor.c ****         
 175:..\source/calmotor.c ****     }
 176:..\source/calmotor.c **** }
 177:..\source/calmotor.c **** 
 178:..\source/calmotor.c **** static void AddSamplesToSum(int32 *cps_samples, int32 *cps_sum)
 179:..\source/calmotor.c **** {
 399              		.loc 1 179 0 is_stmt 1
 400              		.cfi_startproc
 401              		@ args = 0, pretend = 0, frame = 0
 402              		@ frame_needed = 0, uses_anonymous_args = 0
 403              		@ link register save eliminated.
 404              	.LVL82:
 405 0000 10B4     		push	{r4}
 406              		.cfi_def_cfa_offset 4
 407              		.cfi_offset 4, -4
 408              	.LVL83:
 180:..\source/calmotor.c ****     uint8 ii;
 181:..\source/calmotor.c ****     for (ii = 0; ii < CAL_NUM_SAMPLES; ++ii)
 409              		.loc 1 181 0
 410 0002 0023     		movs	r3, #0
 411 0004 08E0     		b	.L28
 412              	.LVL84:
 413              	.L29:
 182:..\source/calmotor.c ****     {
 183:..\source/calmotor.c ****         cps_sum[ii] += cps_samples[ii];
 414              		.loc 1 183 0 discriminator 3
 415 0006 50F82320 		ldr	r2, [r0, r3, lsl #2]
 416 000a 51F82340 		ldr	r4, [r1, r3, lsl #2]
 417 000e 2244     		add	r2, r2, r4
 418 0010 41F82320 		str	r2, [r1, r3, lsl #2]
 181:..\source/calmotor.c ****     {
 419              		.loc 1 181 0 discriminator 3
 420 0014 0133     		adds	r3, r3, #1
 421              	.LVL85:
 422 0016 DBB2     		uxtb	r3, r3
 423              	.LVL86:
 424              	.L28:
 181:..\source/calmotor.c ****     {
 425              		.loc 1 181 0 is_stmt 0 discriminator 1
 426 0018 322B     		cmp	r3, #50
ARM GAS  C:\Users\Tim\AppData\Local\Temp\ccfMsRPN.s 			page 12


 427 001a F4D9     		bls	.L29
 184:..\source/calmotor.c ****     }
 185:..\source/calmotor.c **** }
 428              		.loc 1 185 0 is_stmt 1
 429 001c 5DF8044B 		ldr	r4, [sp], #4
 430              		.cfi_restore 4
 431              		.cfi_def_cfa_offset 0
 432 0020 7047     		bx	lr
 433              		.cfi_endproc
 434              	.LFE65:
 435              		.size	AddSamplesToSum, .-AddSamplesToSum
 436 0022 00BF     		.section	.text.CalculateAvgCpsSamples,"ax",%progbits
 437              		.align	2
 438              		.thumb
 439              		.thumb_func
 440              		.type	CalculateAvgCpsSamples, %function
 441              	CalculateAvgCpsSamples:
 442              	.LFB66:
 186:..\source/calmotor.c ****     
 187:..\source/calmotor.c **** static void CalculateAvgCpsSamples(int32 *cps_sum, uint8 num_runs, int32 *avg_cps_samples)
 188:..\source/calmotor.c **** {
 443              		.loc 1 188 0
 444              		.cfi_startproc
 445              		@ args = 0, pretend = 0, frame = 0
 446              		@ frame_needed = 0, uses_anonymous_args = 0
 447              		@ link register save eliminated.
 448              	.LVL87:
 449 0000 10B4     		push	{r4}
 450              		.cfi_def_cfa_offset 4
 451              		.cfi_offset 4, -4
 452              	.LVL88:
 189:..\source/calmotor.c ****     uint8 ii;
 190:..\source/calmotor.c ****     for (ii = 0; ii < CAL_NUM_SAMPLES; ++ii)
 453              		.loc 1 190 0
 454 0002 0023     		movs	r3, #0
 455 0004 07E0     		b	.L32
 456              	.LVL89:
 457              	.L33:
 191:..\source/calmotor.c ****     {
 192:..\source/calmotor.c ****         avg_cps_samples[ii] = cps_sum[ii]/num_runs;
 458              		.loc 1 192 0 discriminator 3
 459 0006 50F82340 		ldr	r4, [r0, r3, lsl #2]
 460 000a 94FBF1F4 		sdiv	r4, r4, r1
 461 000e 42F82340 		str	r4, [r2, r3, lsl #2]
 190:..\source/calmotor.c ****     {
 462              		.loc 1 190 0 discriminator 3
 463 0012 0133     		adds	r3, r3, #1
 464              	.LVL90:
 465 0014 DBB2     		uxtb	r3, r3
 466              	.LVL91:
 467              	.L32:
 190:..\source/calmotor.c ****     {
 468              		.loc 1 190 0 is_stmt 0 discriminator 1
 469 0016 322B     		cmp	r3, #50
 470 0018 F5D9     		bls	.L33
 193:..\source/calmotor.c ****     }
 194:..\source/calmotor.c **** }
ARM GAS  C:\Users\Tim\AppData\Local\Temp\ccfMsRPN.s 			page 13


 471              		.loc 1 194 0 is_stmt 1
 472 001a 5DF8044B 		ldr	r4, [sp], #4
 473              		.cfi_restore 4
 474              		.cfi_def_cfa_offset 0
 475 001e 7047     		bx	lr
 476              		.cfi_endproc
 477              	.LFE66:
 478              		.size	CalculateAvgCpsSamples, .-CalculateAvgCpsSamples
 479              		.section	.text.CalculateMinMaxCpsSample,"ax",%progbits
 480              		.align	2
 481              		.thumb
 482              		.thumb_func
 483              		.type	CalculateMinMaxCpsSample, %function
 484              	CalculateMinMaxCpsSample:
 485              	.LFB67:
 195:..\source/calmotor.c **** 
 196:..\source/calmotor.c **** static void CalculateMinMaxCpsSample(int32 *samples, uint8 num_samples, int32 *min, int32 *max)
 197:..\source/calmotor.c **** {
 486              		.loc 1 197 0
 487              		.cfi_startproc
 488              		@ args = 0, pretend = 0, frame = 0
 489              		@ frame_needed = 0, uses_anonymous_args = 0
 490              		@ link register save eliminated.
 491              	.LVL92:
 492 0000 F0B4     		push	{r4, r5, r6, r7}
 493              		.cfi_def_cfa_offset 16
 494              		.cfi_offset 4, -16
 495              		.cfi_offset 5, -12
 496              		.cfi_offset 6, -8
 497              		.cfi_offset 7, -4
 198:..\source/calmotor.c ****     uint8 ii;
 199:..\source/calmotor.c ****     *min = 65535;
 498              		.loc 1 199 0
 499 0002 4FF6FF74 		movw	r4, #65535
 500 0006 1460     		str	r4, [r2]
 200:..\source/calmotor.c ****     *max = -65535;
 501              		.loc 1 200 0
 502 0008 0A4C     		ldr	r4, .L41
 503 000a 1C60     		str	r4, [r3]
 504              	.LVL93:
 201:..\source/calmotor.c ****     
 202:..\source/calmotor.c ****     for (ii = 0; ii < num_samples; ++ii)
 505              		.loc 1 202 0
 506 000c 0024     		movs	r4, #0
 507 000e 0DE0     		b	.L36
 508              	.LVL94:
 509              	.L39:
 203:..\source/calmotor.c ****     {
 204:..\source/calmotor.c ****         if (samples[ii] > *max)
 510              		.loc 1 204 0
 511 0010 A600     		lsls	r6, r4, #2
 512 0012 50F82450 		ldr	r5, [r0, r4, lsl #2]
 513 0016 1F68     		ldr	r7, [r3]
 514 0018 BD42     		cmp	r5, r7
 515 001a 00DD     		ble	.L37
 205:..\source/calmotor.c ****         {
 206:..\source/calmotor.c ****             *max = samples[ii];
ARM GAS  C:\Users\Tim\AppData\Local\Temp\ccfMsRPN.s 			page 14


 516              		.loc 1 206 0
 517 001c 1D60     		str	r5, [r3]
 518              	.L37:
 207:..\source/calmotor.c ****         }
 208:..\source/calmotor.c ****         if (samples[ii] < *min)
 519              		.loc 1 208 0
 520 001e 8559     		ldr	r5, [r0, r6]
 521 0020 1668     		ldr	r6, [r2]
 522 0022 B542     		cmp	r5, r6
 523 0024 00DA     		bge	.L38
 209:..\source/calmotor.c ****         {
 210:..\source/calmotor.c ****             *min = samples[ii];
 524              		.loc 1 210 0
 525 0026 1560     		str	r5, [r2]
 526              	.L38:
 202:..\source/calmotor.c ****     {
 527              		.loc 1 202 0 discriminator 2
 528 0028 0134     		adds	r4, r4, #1
 529              	.LVL95:
 530 002a E4B2     		uxtb	r4, r4
 531              	.LVL96:
 532              	.L36:
 202:..\source/calmotor.c ****     {
 533              		.loc 1 202 0 is_stmt 0 discriminator 1
 534 002c 8C42     		cmp	r4, r1
 535 002e EFD3     		bcc	.L39
 211:..\source/calmotor.c ****         }
 212:..\source/calmotor.c ****     }
 213:..\source/calmotor.c **** }
 536              		.loc 1 213 0 is_stmt 1
 537 0030 F0BC     		pop	{r4, r5, r6, r7}
 538              		.cfi_restore 7
 539              		.cfi_restore 6
 540              		.cfi_restore 5
 541              		.cfi_restore 4
 542              		.cfi_def_cfa_offset 0
 543              	.LVL97:
 544 0032 7047     		bx	lr
 545              	.L42:
 546              		.align	2
 547              	.L41:
 548 0034 0100FFFF 		.word	-65535
 549              		.cfi_endproc
 550              	.LFE67:
 551              		.size	CalculateMinMaxCpsSample, .-CalculateMinMaxCpsSample
 552              		.section	.text.Stop,"ax",%progbits
 553              		.align	2
 554              		.thumb
 555              		.thumb_func
 556              		.type	Stop, %function
 557              	Stop:
 558              	.LFB77:
 214:..\source/calmotor.c **** 
 215:..\source/calmotor.c **** static int32 CollectCpsPwmSamples(SET_MOTOR_PWM_FUNC_TYPE set_pwm, GET_ENCODER_FUNC_TYPE cnts_per_s
 216:..\source/calmotor.c **** {
 217:..\source/calmotor.c ****     uint8 ii;
 218:..\source/calmotor.c ****     float cnts_per_sec_sum;
ARM GAS  C:\Users\Tim\AppData\Local\Temp\ccfMsRPN.s 			page 15


 219:..\source/calmotor.c ****     float enc_cnts_per_sec;
 220:..\source/calmotor.c ****     uint16 iterations;
 221:..\source/calmotor.c ****     
 222:..\source/calmotor.c ****     cnts_per_sec_sum = 0;
 223:..\source/calmotor.c ****     num_avg_iter *= 5;
 224:..\source/calmotor.c ****     iterations = num_avg_iter + 5;
 225:..\source/calmotor.c ****     set_pwm(pwm);
 226:..\source/calmotor.c ****     for ( ii = 0; ii < iterations; ++ii)
 227:..\source/calmotor.c ****     {
 228:..\source/calmotor.c ****         Encoder_Update();
 229:..\source/calmotor.c ****         if (ii >= 5)
 230:..\source/calmotor.c ****         {
 231:..\source/calmotor.c ****             enc_cnts_per_sec = cnts_per_sec();        
 232:..\source/calmotor.c ****             cnts_per_sec_sum += enc_cnts_per_sec * CAL_SCALE_FACTOR;
 233:..\source/calmotor.c ****         }
 234:..\source/calmotor.c ****         CyDelay(10);
 235:..\source/calmotor.c ****     }
 236:..\source/calmotor.c ****     
 237:..\source/calmotor.c ****     return (int32) cnts_per_sec_sum / num_avg_iter;
 238:..\source/calmotor.c **** }
 239:..\source/calmotor.c **** 
 240:..\source/calmotor.c **** static void CollectPwmCpsSamples(WHEEL_TYPE wheel, uint8 reverse_pwm, uint8 num_avg_iter, uint16 *p
 241:..\source/calmotor.c **** {
 242:..\source/calmotor.c ****     uint8 index;
 243:..\source/calmotor.c ****     SET_MOTOR_PWM_FUNC_TYPE set_pwm;
 244:..\source/calmotor.c ****     RAMP_DOWN_PWM_FUNC_TYPE ramp_down;
 245:..\source/calmotor.c ****     GET_ENCODER_FUNC_TYPE get_cps;    
 246:..\source/calmotor.c **** 
 247:..\source/calmotor.c ****     set_pwm   = (wheel == WHEEL_LEFT) ? Motor_LeftSetPwm : Motor_RightSetPwm;
 248:..\source/calmotor.c ****     ramp_down = (wheel == WHEEL_LEFT) ? Motor_LeftRampDown : Motor_RightRampDown;
 249:..\source/calmotor.c ****     get_cps   = (wheel == WHEEL_LEFT) ? Encoder_LeftGetCntsPerSec : Encoder_RightGetCntsPerSec;
 250:..\source/calmotor.c ****     
 251:..\source/calmotor.c ****     set_pwm(PWM_STOP);
 252:..\source/calmotor.c ****     CyDelay(500);
 253:..\source/calmotor.c ****     Encoder_Reset();
 254:..\source/calmotor.c **** 
 255:..\source/calmotor.c ****     /* Note: The pwm samples are loaded in ascending order wrt to the pwm value, e.g., 1500 .. 200 
 256:..\source/calmotor.c ****        This is so the interpolation will work without any special handling.  However, when calculat
 257:..\source/calmotor.c ****        necessary to apply the pwm values in reverse order when collecting CPS values in the 1000 to
 258:..\source/calmotor.c ****        the motor moves in from stop to full speed.
 259:..\source/calmotor.c ****     
 260:..\source/calmotor.c ****        This range is in the backward direction on the left wheel and the forward direction on the r
 261:..\source/calmotor.c ****      */
 262:..\source/calmotor.c ****     memset(cps_samples, 0, CAL_NUM_SAMPLES * sizeof(int32));
 263:..\source/calmotor.c ****     
 264:..\source/calmotor.c ****     if (reverse_pwm)
 265:..\source/calmotor.c **** {
 266:..\source/calmotor.c ****         for ( index = 0; index < CAL_NUM_SAMPLES; ++index)
 267:..\source/calmotor.c ****         {
 268:..\source/calmotor.c ****             uint8 offset = CAL_NUM_SAMPLES - 1 - index;
 269:..\source/calmotor.c ****             cps_samples[offset] = CollectCpsPwmSamples(set_pwm, get_cps, pwm_samples[offset], num_a
 270:..\source/calmotor.c ****         }
 271:..\source/calmotor.c **** }
 272:..\source/calmotor.c ****     else
 273:..\source/calmotor.c ****     {
 274:..\source/calmotor.c ****         for ( index = 0; index < CAL_NUM_SAMPLES; ++index)
 275:..\source/calmotor.c ****         {
ARM GAS  C:\Users\Tim\AppData\Local\Temp\ccfMsRPN.s 			page 16


 276:..\source/calmotor.c ****             cps_samples[index] = CollectCpsPwmSamples(set_pwm, get_cps, pwm_samples[index], num_avg
 277:..\source/calmotor.c ****         }
 278:..\source/calmotor.c ****     }
 279:..\source/calmotor.c ****     
 280:..\source/calmotor.c ****     ramp_down(1000);
 281:..\source/calmotor.c ****     set_pwm(PWM_STOP);
 282:..\source/calmotor.c **** }
 283:..\source/calmotor.c **** 
 284:..\source/calmotor.c **** static void CalibrateWheelSpeed(WHEEL_TYPE wheel, DIR_TYPE dir, uint8 num_runs, int32 *cps_samples,
 285:..\source/calmotor.c **** /*
 286:..\source/calmotor.c ****     calculate the PWM samples
 287:..\source/calmotor.c ****         Note: the pwm samples depend on the wheel and direction
 288:..\source/calmotor.c ****     for the number of runs
 289:..\source/calmotor.c ****         collect cps-to-pwm samples
 290:..\source/calmotor.c ****         add the samples to the sum (for averaging)
 291:..\source/calmotor.c **** 
 292:..\source/calmotor.c ****     calculate the average cps for each pwm
 293:..\source/calmotor.c **** */
 294:..\source/calmotor.c **** {
 295:..\source/calmotor.c ****     uint8 run;
 296:..\source/calmotor.c ****     uint8 num_avg_iter = 10;
 297:..\source/calmotor.c ****     uint8 reverse_pwm;
 298:..\source/calmotor.c ****     
 299:..\source/calmotor.c ****     
 300:..\source/calmotor.c ****     CalculatePwmSamples(wheel, dir, pwm_samples, &reverse_pwm);
 301:..\source/calmotor.c **** 
 302:..\source/calmotor.c ****     memset(cps_sum, 0, CAL_NUM_SAMPLES * sizeof(int32));
 303:..\source/calmotor.c ****     
 304:..\source/calmotor.c ****     for (run = 0; run < num_runs; ++run)
 305:..\source/calmotor.c ****     {
 306:..\source/calmotor.c ****         CollectPwmCpsSamples(wheel, reverse_pwm, num_avg_iter, pwm_samples, cps_samples);
 307:..\source/calmotor.c ****         AddSamplesToSum(cps_samples, cps_sum);
 308:..\source/calmotor.c ****     }
 309:..\source/calmotor.c ****     
 310:..\source/calmotor.c ****     CalculateAvgCpsSamples(cps_sum, num_runs, cps_samples);
 311:..\source/calmotor.c **** }
 312:..\source/calmotor.c **** 
 313:..\source/calmotor.c **** static void StoreWheelSpeedSamples(WHEEL_TYPE wheel, DIR_TYPE dir, int32 *cps_samples, uint16 *pwm_
 314:..\source/calmotor.c **** {
 315:..\source/calmotor.c ****     CalculateMinMaxCpsSample(cps_samples, CAL_NUM_SAMPLES, &cal_data.cps_min, &cal_data.cps_max);
 316:..\source/calmotor.c ****     cal_data.cps_scale = CAL_SCALE_FACTOR;
 317:..\source/calmotor.c ****     memcpy(&cal_data.cps_data[0], cps_samples, sizeof(cps_samples[0]) * CAL_NUM_SAMPLES);
 318:..\source/calmotor.c ****     memcpy(&cal_data.pwm_data[0], pwm_samples, sizeof(pwm_samples[0]) * CAL_NUM_SAMPLES);
 319:..\source/calmotor.c **** 
 320:..\source/calmotor.c ****     CAL_DATA_TYPE *p_cal_data = WHEEL_DIR_TO_CAL_DATA[wheel][dir];
 321:..\source/calmotor.c ****     
 322:..\source/calmotor.c ****     uint16 offset = NVSTORE_CAL_EEPROM_ADDR_TO_OFFSET(p_cal_data);
 323:..\source/calmotor.c ****     Nvstore_WriteBytes((uint8 *) &cal_data, sizeof(cal_data), offset);
 324:..\source/calmotor.c **** }
 325:..\source/calmotor.c **** 
 326:..\source/calmotor.c **** static void PrintVelocityParams(char *label, float cps, float mps, uint16 pwm)
 327:..\source/calmotor.c **** {
 328:..\source/calmotor.c ****     char cps_str[10];
 329:..\source/calmotor.c ****     char mps_str[10];
 330:..\source/calmotor.c ****     char output[64];
 331:..\source/calmotor.c ****     
 332:..\source/calmotor.c ****     ftoa(cps, cps_str, 3);
ARM GAS  C:\Users\Tim\AppData\Local\Temp\ccfMsRPN.s 			page 17


 333:..\source/calmotor.c ****     ftoa(mps, mps_str, 3);
 334:..\source/calmotor.c ****     
 335:..\source/calmotor.c ****     sprintf(output, "%s - cps: %s, mps: %s, pwm: %d\r\n", label, cps_str, mps_str, pwm);
 336:..\source/calmotor.c ****     Ser_PutString(output);
 337:..\source/calmotor.c **** }
 338:..\source/calmotor.c **** 
 339:..\source/calmotor.c **** static void DoVelocityValidation(char *label, float *cps, uint8 num_cps, WHEEL_TYPE wheel)
 340:..\source/calmotor.c **** {
 341:..\source/calmotor.c ****     uint8 ii;
 342:..\source/calmotor.c ****     uint16 pwm;
 343:..\source/calmotor.c ****     uint32 start_time;
 344:..\source/calmotor.c ****     float mps = 0.0;
 345:..\source/calmotor.c ****     SET_MOTOR_PWM_FUNC_TYPE set_pwm;
 346:..\source/calmotor.c ****     GET_MOTOR_PWM_FUNC_TYPE get_pwm;
 347:..\source/calmotor.c ****     GET_ENCODER_FUNC_TYPE get_mps;
 348:..\source/calmotor.c ****     char outbuf[64];
 349:..\source/calmotor.c ****     char str_val[10];
 350:..\source/calmotor.c ****     
 351:..\source/calmotor.c ****     switch (wheel)
 352:..\source/calmotor.c ****     {
 353:..\source/calmotor.c ****         case WHEEL_LEFT:
 354:..\source/calmotor.c ****             set_pwm = Motor_LeftSetPwm;
 355:..\source/calmotor.c ****             get_pwm = Motor_LeftGetPwm;
 356:..\source/calmotor.c ****             get_mps = Encoder_LeftGetMeterPerSec;
 357:..\source/calmotor.c ****             break;
 358:..\source/calmotor.c **** 
 359:..\source/calmotor.c ****         case WHEEL_RIGHT:
 360:..\source/calmotor.c ****             set_pwm = Motor_RightSetPwm;
 361:..\source/calmotor.c ****             get_pwm = Motor_RightGetPwm;
 362:..\source/calmotor.c ****             get_mps = Encoder_RightGetMeterPerSec;
 363:..\source/calmotor.c ****             break;
 364:..\source/calmotor.c ****         
 365:..\source/calmotor.c ****         case WHEEL_BOTH:
 366:..\source/calmotor.c ****         default:
 367:..\source/calmotor.c ****             return;
 368:..\source/calmotor.c ****     }
 369:..\source/calmotor.c ****     
 370:..\source/calmotor.c ****     set_pwm(PWM_STOP);
 371:..\source/calmotor.c ****     
 372:..\source/calmotor.c ****     for (ii = 0; ii < num_cps; ++ii)
 373:..\source/calmotor.c ****     {
 374:..\source/calmotor.c ****         pwm = Cal_CpsToPwm(wheel, cps[ii]);
 375:..\source/calmotor.c ****         set_pwm(pwm);
 376:..\source/calmotor.c ****         start_time = millis();
 377:..\source/calmotor.c ****         while (millis() - start_time < 2000)
 378:..\source/calmotor.c ****         {
 379:..\source/calmotor.c ****             Encoder_Update();
 380:..\source/calmotor.c ****             mps = get_mps();
 381:..\source/calmotor.c ****         }
 382:..\source/calmotor.c ****         
 383:..\source/calmotor.c ****         PrintVelocityParams(label, cps[ii], mps, get_pwm());
 384:..\source/calmotor.c ****     }
 385:..\source/calmotor.c ****     
 386:..\source/calmotor.c ****     set_pwm(PWM_STOP);
 387:..\source/calmotor.c **** }
 388:..\source/calmotor.c **** 
 389:..\source/calmotor.c **** static uint8 Init(CAL_STAGE_TYPE stage, void *params)
ARM GAS  C:\Users\Tim\AppData\Local\Temp\ccfMsRPN.s 			page 18


 390:..\source/calmotor.c **** {
 391:..\source/calmotor.c ****     params = params;
 392:..\source/calmotor.c ****     switch (stage)
 393:..\source/calmotor.c ****     {
 394:..\source/calmotor.c ****         case CAL_CALIBRATE_STAGE:
 395:..\source/calmotor.c ****             Ser_PutString("\r\nInitialize motor calibration\r\n");            
 396:..\source/calmotor.c ****             Pid_Enable(FALSE);
 397:..\source/calmotor.c ****             break;
 398:..\source/calmotor.c ****             
 399:..\source/calmotor.c ****         case CAL_VALIDATE_STAGE:
 400:..\source/calmotor.c ****             Ser_PutString("\r\nInitialize motor validation\r\n");
 401:..\source/calmotor.c ****             Pid_Enable(FALSE);
 402:..\source/calmotor.c ****             CalculateValidationValues();
 403:..\source/calmotor.c ****             break;
 404:..\source/calmotor.c ****     }
 405:..\source/calmotor.c ****     
 406:..\source/calmotor.c ****     return CAL_OK;    
 407:..\source/calmotor.c **** }
 408:..\source/calmotor.c **** 
 409:..\source/calmotor.c **** static uint8 Start(CAL_STAGE_TYPE stage, void *params)
 410:..\source/calmotor.c **** {
 411:..\source/calmotor.c ****     params = params;
 412:..\source/calmotor.c ****     
 413:..\source/calmotor.c ****     switch (stage)
 414:..\source/calmotor.c ****     {
 415:..\source/calmotor.c ****         case CAL_CALIBRATE_STAGE:
 416:..\source/calmotor.c ****             Ser_PutString("\r\nPerforming motor calibration\r\n");
 417:..\source/calmotor.c ****             break;
 418:..\source/calmotor.c ****         
 419:..\source/calmotor.c ****         case CAL_VALIDATE_STAGE:
 420:..\source/calmotor.c ****             Ser_PutString("\r\nPerforming motor validation\r\n");
 421:..\source/calmotor.c ****             break;
 422:..\source/calmotor.c ****     }
 423:..\source/calmotor.c ****     
 424:..\source/calmotor.c ****     return CAL_OK;
 425:..\source/calmotor.c **** }
 426:..\source/calmotor.c **** 
 427:..\source/calmotor.c **** static uint8 Update(CAL_STAGE_TYPE stage, void *params)
 428:..\source/calmotor.c **** {
 429:..\source/calmotor.c ****     uint16 last_debug_control_enabled;
 430:..\source/calmotor.c **** 
 431:..\source/calmotor.c ****     params = params;
 432:..\source/calmotor.c ****     
 433:..\source/calmotor.c ****     last_debug_control_enabled = debug_control_enabled;
 434:..\source/calmotor.c ****     
 435:..\source/calmotor.c ****     switch (stage)
 436:..\source/calmotor.c ****     {
 437:..\source/calmotor.c ****         case CAL_CALIBRATE_STAGE:
 438:..\source/calmotor.c ****             Ser_PutString("Left-Forward Calibration\r\n");
 439:..\source/calmotor.c ****             debug_control_enabled = DEBUG_LEFT_ENCODER_ENABLE_BIT;
 440:..\source/calmotor.c **** 
 441:..\source/calmotor.c ****             CalibrateWheelSpeed(WHEEL_LEFT, DIR_FORWARD, MAX_MOTOR_CAL_ITERATION, cps_samples, pwm_
 442:..\source/calmotor.c ****             StoreWheelSpeedSamples(WHEEL_LEFT, DIR_FORWARD, cps_samples, pwm_samples);
 443:..\source/calmotor.c ****             
 444:..\source/calmotor.c ****             Ser_PutString("Left-Backward Calibration\r\n");
 445:..\source/calmotor.c ****             CalibrateWheelSpeed(WHEEL_LEFT, DIR_BACKWARD, MAX_MOTOR_CAL_ITERATION, cps_samples, pwm
 446:..\source/calmotor.c ****             StoreWheelSpeedSamples(WHEEL_LEFT, DIR_BACKWARD, cps_samples, pwm_samples);
ARM GAS  C:\Users\Tim\AppData\Local\Temp\ccfMsRPN.s 			page 19


 447:..\source/calmotor.c ****             
 448:..\source/calmotor.c ****             Ser_PutString("Right-Forward Calibration\r\n");
 449:..\source/calmotor.c ****             debug_control_enabled = DEBUG_RIGHT_ENCODER_ENABLE_BIT;                    
 450:..\source/calmotor.c ****             CalibrateWheelSpeed(WHEEL_RIGHT, DIR_FORWARD, MAX_MOTOR_CAL_ITERATION, cps_samples, pwm
 451:..\source/calmotor.c ****             StoreWheelSpeedSamples(WHEEL_RIGHT, DIR_FORWARD, cps_samples, pwm_samples);
 452:..\source/calmotor.c ****             
 453:..\source/calmotor.c ****             Ser_PutString("Right-Backward Calibration\r\n");
 454:..\source/calmotor.c ****             CalibrateWheelSpeed(WHEEL_RIGHT, DIR_BACKWARD, MAX_MOTOR_CAL_ITERATION, cps_samples, pw
 455:..\source/calmotor.c ****             StoreWheelSpeedSamples(WHEEL_RIGHT, DIR_BACKWARD, cps_samples, pwm_samples);
 456:..\source/calmotor.c **** 
 457:..\source/calmotor.c ****             debug_control_enabled = last_debug_control_enabled;
 458:..\source/calmotor.c ****             return CAL_COMPLETE;
 459:..\source/calmotor.c ****             break;
 460:..\source/calmotor.c ****             
 461:..\source/calmotor.c ****         case CAL_VALIDATE_STAGE:
 462:..\source/calmotor.c ****             DoVelocityValidation("left-forward", fwd_cps_validate, 11, WHEEL_LEFT);
 463:..\source/calmotor.c ****             DoVelocityValidation("right-forward", fwd_cps_validate, 11, WHEEL_RIGHT);
 464:..\source/calmotor.c ****             DoVelocityValidation("left-backward", bwd_cps_validate, 11, WHEEL_LEFT);
 465:..\source/calmotor.c ****             DoVelocityValidation("right-backward", bwd_cps_validate, 11, WHEEL_RIGHT);
 466:..\source/calmotor.c ****             return CAL_COMPLETE;
 467:..\source/calmotor.c ****             break;
 468:..\source/calmotor.c ****     }
 469:..\source/calmotor.c ****     
 470:..\source/calmotor.c ****     return CAL_OK;
 471:..\source/calmotor.c **** }
 472:..\source/calmotor.c **** 
 473:..\source/calmotor.c **** static uint8 Stop(CAL_STAGE_TYPE stage, void *params)
 474:..\source/calmotor.c **** {
 559              		.loc 1 474 0
 560              		.cfi_startproc
 561              		@ args = 0, pretend = 0, frame = 0
 562              		@ frame_needed = 0, uses_anonymous_args = 0
 563              	.LVL98:
 564 0000 08B5     		push	{r3, lr}
 565              		.cfi_def_cfa_offset 8
 566              		.cfi_offset 3, -8
 567              		.cfi_offset 14, -4
 475:..\source/calmotor.c ****     params = params;
 476:..\source/calmotor.c ****     
 477:..\source/calmotor.c ****     switch (stage)
 568              		.loc 1 477 0
 569 0002 10B1     		cbz	r0, .L45
 570 0004 0128     		cmp	r0, #1
 571 0006 04D0     		beq	.L46
 572 0008 06E0     		b	.L44
 573              	.L45:
 478:..\source/calmotor.c ****     {
 479:..\source/calmotor.c ****         case CAL_CALIBRATE_STAGE:
 480:..\source/calmotor.c ****             Ser_PutString("Motor calibration complete\r\n");
 574              		.loc 1 480 0
 575 000a 0448     		ldr	r0, .L48
 576              	.LVL99:
 577 000c FFF7FEFF 		bl	Ser_PutString
 578              	.LVL100:
 481:..\source/calmotor.c ****             break;
 579              		.loc 1 481 0
 580 0010 02E0     		b	.L44
ARM GAS  C:\Users\Tim\AppData\Local\Temp\ccfMsRPN.s 			page 20


 581              	.LVL101:
 582              	.L46:
 482:..\source/calmotor.c ****         case CAL_VALIDATE_STAGE:
 483:..\source/calmotor.c ****             Ser_PutString("Motor validation complete\r\n");
 583              		.loc 1 483 0
 584 0012 0348     		ldr	r0, .L48+4
 585              	.LVL102:
 586 0014 FFF7FEFF 		bl	Ser_PutString
 587              	.LVL103:
 588              	.L44:
 484:..\source/calmotor.c ****             break;
 485:..\source/calmotor.c ****     }
 486:..\source/calmotor.c ****     return CAL_OK;
 487:..\source/calmotor.c **** }
 589              		.loc 1 487 0
 590 0018 0020     		movs	r0, #0
 591 001a 08BD     		pop	{r3, pc}
 592              	.L49:
 593              		.align	2
 594              	.L48:
 595 001c 00000000 		.word	.LC0
 596 0020 20000000 		.word	.LC1
 597              		.cfi_endproc
 598              	.LFE77:
 599              		.size	Stop, .-Stop
 600              		.section	.text.Start,"ax",%progbits
 601              		.align	2
 602              		.thumb
 603              		.thumb_func
 604              		.type	Start, %function
 605              	Start:
 606              	.LFB75:
 410:..\source/calmotor.c ****     params = params;
 607              		.loc 1 410 0
 608              		.cfi_startproc
 609              		@ args = 0, pretend = 0, frame = 0
 610              		@ frame_needed = 0, uses_anonymous_args = 0
 611              	.LVL104:
 612 0000 08B5     		push	{r3, lr}
 613              		.cfi_def_cfa_offset 8
 614              		.cfi_offset 3, -8
 615              		.cfi_offset 14, -4
 413:..\source/calmotor.c ****     {
 616              		.loc 1 413 0
 617 0002 10B1     		cbz	r0, .L52
 618 0004 0128     		cmp	r0, #1
 619 0006 04D0     		beq	.L53
 620 0008 06E0     		b	.L51
 621              	.L52:
 416:..\source/calmotor.c ****             break;
 622              		.loc 1 416 0
 623 000a 0448     		ldr	r0, .L55
 624              	.LVL105:
 625 000c FFF7FEFF 		bl	Ser_PutString
 626              	.LVL106:
 417:..\source/calmotor.c ****         
 627              		.loc 1 417 0
ARM GAS  C:\Users\Tim\AppData\Local\Temp\ccfMsRPN.s 			page 21


 628 0010 02E0     		b	.L51
 629              	.LVL107:
 630              	.L53:
 420:..\source/calmotor.c ****             break;
 631              		.loc 1 420 0
 632 0012 0348     		ldr	r0, .L55+4
 633              	.LVL108:
 634 0014 FFF7FEFF 		bl	Ser_PutString
 635              	.LVL109:
 636              	.L51:
 425:..\source/calmotor.c **** 
 637              		.loc 1 425 0
 638 0018 0020     		movs	r0, #0
 639 001a 08BD     		pop	{r3, pc}
 640              	.L56:
 641              		.align	2
 642              	.L55:
 643 001c 3C000000 		.word	.LC2
 644 0020 60000000 		.word	.LC3
 645              		.cfi_endproc
 646              	.LFE75:
 647              		.size	Start, .-Start
 648              		.section	.text.Results,"ax",%progbits
 649              		.align	2
 650              		.thumb
 651              		.thumb_func
 652              		.type	Results, %function
 653              	Results:
 654              	.LFB78:
 488:..\source/calmotor.c **** 
 489:..\source/calmotor.c **** static uint8 Results(CAL_STAGE_TYPE stage, void *params)
 490:..\source/calmotor.c **** {
 655              		.loc 1 490 0
 656              		.cfi_startproc
 657              		@ args = 0, pretend = 0, frame = 0
 658              		@ frame_needed = 0, uses_anonymous_args = 0
 659              	.LVL110:
 660 0000 08B5     		push	{r3, lr}
 661              		.cfi_def_cfa_offset 8
 662              		.cfi_offset 3, -8
 663              		.cfi_offset 14, -4
 491:..\source/calmotor.c ****     switch (stage)
 664              		.loc 1 491 0
 665 0002 10B1     		cbz	r0, .L59
 666 0004 0128     		cmp	r0, #1
 667 0006 06D0     		beq	.L60
 668 0008 08E0     		b	.L58
 669              	.L59:
 492:..\source/calmotor.c ****     {
 493:..\source/calmotor.c ****         case CAL_CALIBRATE_STAGE:
 494:..\source/calmotor.c ****             Ser_PutString("\r\nPrinting motor calibration results\r\n");
 670              		.loc 1 494 0
 671 000a 0548     		ldr	r0, .L62
 672              	.LVL111:
 673 000c FFF7FEFF 		bl	Ser_PutString
 674              	.LVL112:
 495:..\source/calmotor.c ****             Cal_PrintAllMotorParams();
ARM GAS  C:\Users\Tim\AppData\Local\Temp\ccfMsRPN.s 			page 22


 675              		.loc 1 495 0
 676 0010 FFF7FEFF 		bl	Cal_PrintAllMotorParams
 677              	.LVL113:
 496:..\source/calmotor.c ****             break;
 678              		.loc 1 496 0
 679 0014 02E0     		b	.L58
 680              	.LVL114:
 681              	.L60:
 497:..\source/calmotor.c ****         
 498:..\source/calmotor.c ****         case CAL_VALIDATE_STAGE:
 499:..\source/calmotor.c ****             Ser_PutString("\r\nPrinting motor validation results\r\n");
 682              		.loc 1 499 0
 683 0016 0348     		ldr	r0, .L62+4
 684              	.LVL115:
 685 0018 FFF7FEFF 		bl	Ser_PutString
 686              	.LVL116:
 687              	.L58:
 500:..\source/calmotor.c ****             //Val_PrintAllMotorParams();
 501:..\source/calmotor.c ****             break;
 502:..\source/calmotor.c ****     }
 503:..\source/calmotor.c ****     return CAL_OK;
 504:..\source/calmotor.c **** }
 688              		.loc 1 504 0
 689 001c 0020     		movs	r0, #0
 690 001e 08BD     		pop	{r3, pc}
 691              	.L63:
 692              		.align	2
 693              	.L62:
 694 0020 80000000 		.word	.LC4
 695 0024 A8000000 		.word	.LC5
 696              		.cfi_endproc
 697              	.LFE78:
 698              		.size	Results, .-Results
 699              		.global	__aeabi_f2iz
 700              		.section	.text.CollectCpsPwmSamples,"ax",%progbits
 701              		.align	2
 702              		.thumb
 703              		.thumb_func
 704              		.type	CollectCpsPwmSamples, %function
 705              	CollectCpsPwmSamples:
 706              	.LFB68:
 216:..\source/calmotor.c ****     uint8 ii;
 707              		.loc 1 216 0
 708              		.cfi_startproc
 709              		@ args = 0, pretend = 0, frame = 0
 710              		@ frame_needed = 0, uses_anonymous_args = 0
 711              	.LVL117:
 712 0000 2DE9F041 		push	{r4, r5, r6, r7, r8, lr}
 713              		.cfi_def_cfa_offset 24
 714              		.cfi_offset 4, -24
 715              		.cfi_offset 5, -20
 716              		.cfi_offset 6, -16
 717              		.cfi_offset 7, -12
 718              		.cfi_offset 8, -8
 719              		.cfi_offset 14, -4
 720 0004 0446     		mov	r4, r0
 721 0006 8846     		mov	r8, r1
ARM GAS  C:\Users\Tim\AppData\Local\Temp\ccfMsRPN.s 			page 23


 722              	.LVL118:
 223:..\source/calmotor.c ****     iterations = num_avg_iter + 5;
 723              		.loc 1 223 0
 724 0008 03EB8303 		add	r3, r3, r3, lsl #2
 725              	.LVL119:
 726 000c DFB2     		uxtb	r7, r3
 727              	.LVL120:
 224:..\source/calmotor.c ****     set_pwm(pwm);
 728              		.loc 1 224 0
 729 000e 7D1D     		adds	r5, r7, #5
 730              	.LVL121:
 225:..\source/calmotor.c ****     for ( ii = 0; ii < iterations; ++ii)
 731              		.loc 1 225 0
 732 0010 1046     		mov	r0, r2
 733              	.LVL122:
 734 0012 A047     		blx	r4
 735              	.LVL123:
 222:..\source/calmotor.c ****     num_avg_iter *= 5;
 736              		.loc 1 222 0
 737 0014 0026     		movs	r6, #0
 226:..\source/calmotor.c ****     {
 738              		.loc 1 226 0
 739 0016 0024     		movs	r4, #0
 740              	.LVL124:
 741 0018 11E0     		b	.L65
 742              	.LVL125:
 743              	.L67:
 228:..\source/calmotor.c ****         if (ii >= 5)
 744              		.loc 1 228 0
 745 001a FFF7FEFF 		bl	Encoder_Update
 746              	.LVL126:
 229:..\source/calmotor.c ****         {
 747              		.loc 1 229 0
 748 001e 042C     		cmp	r4, #4
 749 0020 08D9     		bls	.L66
 231:..\source/calmotor.c ****             cnts_per_sec_sum += enc_cnts_per_sec * CAL_SCALE_FACTOR;
 750              		.loc 1 231 0
 751 0022 C047     		blx	r8
 752              	.LVL127:
 232:..\source/calmotor.c ****         }
 753              		.loc 1 232 0
 754 0024 0B49     		ldr	r1, .L69
 755 0026 FFF7FEFF 		bl	__aeabi_fmul
 756              	.LVL128:
 757 002a 0146     		mov	r1, r0
 758 002c 3046     		mov	r0, r6
 759 002e FFF7FEFF 		bl	__aeabi_fadd
 760              	.LVL129:
 761 0032 0646     		mov	r6, r0
 762              	.LVL130:
 763              	.L66:
 234:..\source/calmotor.c ****     }
 764              		.loc 1 234 0 discriminator 2
 765 0034 0A20     		movs	r0, #10
 766 0036 FFF7FEFF 		bl	CyDelay
 767              	.LVL131:
 226:..\source/calmotor.c ****     {
ARM GAS  C:\Users\Tim\AppData\Local\Temp\ccfMsRPN.s 			page 24


 768              		.loc 1 226 0 discriminator 2
 769 003a 0134     		adds	r4, r4, #1
 770              	.LVL132:
 771 003c E4B2     		uxtb	r4, r4
 772              	.LVL133:
 773              	.L65:
 226:..\source/calmotor.c ****     {
 774              		.loc 1 226 0 is_stmt 0 discriminator 1
 775 003e A3B2     		uxth	r3, r4
 776 0040 AB42     		cmp	r3, r5
 777 0042 EAD3     		bcc	.L67
 237:..\source/calmotor.c **** }
 778              		.loc 1 237 0 is_stmt 1
 779 0044 3046     		mov	r0, r6
 780 0046 FFF7FEFF 		bl	__aeabi_f2iz
 781              	.LVL134:
 238:..\source/calmotor.c **** 
 782              		.loc 1 238 0
 783 004a 90FBF7F0 		sdiv	r0, r0, r7
 784 004e BDE8F081 		pop	{r4, r5, r6, r7, r8, pc}
 785              	.LVL135:
 786              	.L70:
 787 0052 00BF     		.align	2
 788              	.L69:
 789 0054 0000C842 		.word	1120403456
 790              		.cfi_endproc
 791              	.LFE68:
 792              		.size	CollectCpsPwmSamples, .-CollectCpsPwmSamples
 793              		.section	.text.CollectPwmCpsSamples,"ax",%progbits
 794              		.align	2
 795              		.thumb
 796              		.thumb_func
 797              		.type	CollectPwmCpsSamples, %function
 798              	CollectPwmCpsSamples:
 799              	.LFB69:
 241:..\source/calmotor.c ****     uint8 index;
 800              		.loc 1 241 0
 801              		.cfi_startproc
 802              		@ args = 4, pretend = 0, frame = 0
 803              		@ frame_needed = 0, uses_anonymous_args = 0
 804              	.LVL136:
 805 0000 2DE9F84F 		push	{r3, r4, r5, r6, r7, r8, r9, r10, fp, lr}
 806              		.cfi_def_cfa_offset 40
 807              		.cfi_offset 3, -40
 808              		.cfi_offset 4, -36
 809              		.cfi_offset 5, -32
 810              		.cfi_offset 6, -28
 811              		.cfi_offset 7, -24
 812              		.cfi_offset 8, -20
 813              		.cfi_offset 9, -16
 814              		.cfi_offset 10, -12
 815              		.cfi_offset 11, -8
 816              		.cfi_offset 14, -4
 817 0004 0C46     		mov	r4, r1
 818 0006 9046     		mov	r8, r2
 819 0008 9946     		mov	r9, r3
 820 000a 0A9E     		ldr	r6, [sp, #40]
ARM GAS  C:\Users\Tim\AppData\Local\Temp\ccfMsRPN.s 			page 25


 247:..\source/calmotor.c ****     ramp_down = (wheel == WHEEL_LEFT) ? Motor_LeftRampDown : Motor_RightRampDown;
 821              		.loc 1 247 0
 822 000c 0346     		mov	r3, r0
 823              	.LVL137:
 824 000e 08B9     		cbnz	r0, .L80
 825 0010 224D     		ldr	r5, .L85
 826 0012 00E0     		b	.L72
 827              	.L80:
 828 0014 224D     		ldr	r5, .L85+4
 829              	.L72:
 830              	.LVL138:
 248:..\source/calmotor.c ****     get_cps   = (wheel == WHEEL_LEFT) ? Encoder_LeftGetCntsPerSec : Encoder_RightGetCntsPerSec;
 831              		.loc 1 248 0 discriminator 4
 832 0016 13B9     		cbnz	r3, .L81
 248:..\source/calmotor.c ****     get_cps   = (wheel == WHEEL_LEFT) ? Encoder_LeftGetCntsPerSec : Encoder_RightGetCntsPerSec;
 833              		.loc 1 248 0 is_stmt 0
 834 0018 DFF890A0 		ldr	r10, .L85+16
 835 001c 01E0     		b	.L73
 836              	.L81:
 837 001e DFF890A0 		ldr	r10, .L85+20
 838              	.L73:
 839              	.LVL139:
 249:..\source/calmotor.c ****     
 840              		.loc 1 249 0 is_stmt 1 discriminator 4
 841 0022 0BB9     		cbnz	r3, .L82
 249:..\source/calmotor.c ****     
 842              		.loc 1 249 0 is_stmt 0
 843 0024 1F4F     		ldr	r7, .L85+8
 844 0026 00E0     		b	.L74
 845              	.L82:
 846 0028 1F4F     		ldr	r7, .L85+12
 847              	.L74:
 848              	.LVL140:
 251:..\source/calmotor.c ****     CyDelay(500);
 849              		.loc 1 251 0 is_stmt 1 discriminator 4
 850 002a 40F2DC50 		movw	r0, #1500
 851              	.LVL141:
 852 002e A847     		blx	r5
 853              	.LVL142:
 252:..\source/calmotor.c ****     Encoder_Reset();
 854              		.loc 1 252 0 discriminator 4
 855 0030 4FF4FA70 		mov	r0, #500
 856 0034 FFF7FEFF 		bl	CyDelay
 857              	.LVL143:
 253:..\source/calmotor.c **** 
 858              		.loc 1 253 0 discriminator 4
 859 0038 FFF7FEFF 		bl	Encoder_Reset
 860              	.LVL144:
 262:..\source/calmotor.c ****     
 861              		.loc 1 262 0 discriminator 4
 862 003c 3046     		mov	r0, r6
 863 003e 0021     		movs	r1, #0
 864 0040 CC22     		movs	r2, #204
 865 0042 FFF7FEFF 		bl	memset
 866              	.LVL145:
 264:..\source/calmotor.c **** {
 867              		.loc 1 264 0 discriminator 4
ARM GAS  C:\Users\Tim\AppData\Local\Temp\ccfMsRPN.s 			page 26


 868 0046 84B9     		cbnz	r4, .L83
 869 0048 1EE0     		b	.L76
 870              	.LVL146:
 871              	.L77:
 872              	.LBB5:
 268:..\source/calmotor.c ****             cps_samples[offset] = CollectCpsPwmSamples(set_pwm, get_cps, pwm_samples[offset], num_a
 873              		.loc 1 268 0 discriminator 3
 874 004a C4F1320B 		rsb	fp, r4, #50
 875 004e 5FFA8BFB 		uxtb	fp, fp
 876              	.LVL147:
 269:..\source/calmotor.c ****         }
 877              		.loc 1 269 0 discriminator 3
 878 0052 2846     		mov	r0, r5
 879 0054 3946     		mov	r1, r7
 880 0056 39F81B20 		ldrh	r2, [r9, fp, lsl #1]
 881 005a 4346     		mov	r3, r8
 882 005c FFF7FEFF 		bl	CollectCpsPwmSamples
 883              	.LVL148:
 884 0060 46F82B00 		str	r0, [r6, fp, lsl #2]
 885              	.LBE5:
 266:..\source/calmotor.c ****         {
 886              		.loc 1 266 0 discriminator 3
 887 0064 0134     		adds	r4, r4, #1
 888              	.LVL149:
 889 0066 E4B2     		uxtb	r4, r4
 890              	.LVL150:
 891 0068 00E0     		b	.L75
 892              	.LVL151:
 893              	.L83:
 894 006a 0024     		movs	r4, #0
 895              	.L75:
 896              	.LVL152:
 266:..\source/calmotor.c ****         {
 897              		.loc 1 266 0 is_stmt 0 discriminator 1
 898 006c 322C     		cmp	r4, #50
 899 006e ECD9     		bls	.L77
 900 0070 0CE0     		b	.L78
 901              	.L79:
 276:..\source/calmotor.c ****         }
 902              		.loc 1 276 0 is_stmt 1 discriminator 3
 903 0072 2846     		mov	r0, r5
 904 0074 3946     		mov	r1, r7
 905 0076 39F81420 		ldrh	r2, [r9, r4, lsl #1]
 906 007a 4346     		mov	r3, r8
 907 007c FFF7FEFF 		bl	CollectCpsPwmSamples
 908              	.LVL153:
 909 0080 46F82400 		str	r0, [r6, r4, lsl #2]
 274:..\source/calmotor.c ****         {
 910              		.loc 1 274 0 discriminator 3
 911 0084 0134     		adds	r4, r4, #1
 912              	.LVL154:
 913 0086 E4B2     		uxtb	r4, r4
 914              	.LVL155:
 915              	.L76:
 274:..\source/calmotor.c ****         {
 916              		.loc 1 274 0 is_stmt 0 discriminator 1
 917 0088 322C     		cmp	r4, #50
ARM GAS  C:\Users\Tim\AppData\Local\Temp\ccfMsRPN.s 			page 27


 918 008a F2D9     		bls	.L79
 919              	.L78:
 280:..\source/calmotor.c ****     set_pwm(PWM_STOP);
 920              		.loc 1 280 0 is_stmt 1
 921 008c 4FF47A70 		mov	r0, #1000
 922 0090 D047     		blx	r10
 923              	.LVL156:
 281:..\source/calmotor.c **** }
 924              		.loc 1 281 0
 925 0092 40F2DC50 		movw	r0, #1500
 926 0096 A847     		blx	r5
 927              	.LVL157:
 928 0098 BDE8F88F 		pop	{r3, r4, r5, r6, r7, r8, r9, r10, fp, pc}
 929              	.LVL158:
 930              	.L86:
 931              		.align	2
 932              	.L85:
 933 009c 00000000 		.word	Motor_LeftSetPwm
 934 00a0 00000000 		.word	Motor_RightSetPwm
 935 00a4 00000000 		.word	Encoder_LeftGetCntsPerSec
 936 00a8 00000000 		.word	Encoder_RightGetCntsPerSec
 937 00ac 00000000 		.word	Motor_LeftRampDown
 938 00b0 00000000 		.word	Motor_RightRampDown
 939              		.cfi_endproc
 940              	.LFE69:
 941              		.size	CollectPwmCpsSamples, .-CollectPwmCpsSamples
 942              		.section	.text.CalibrateWheelSpeed,"ax",%progbits
 943              		.align	2
 944              		.thumb
 945              		.thumb_func
 946              		.type	CalibrateWheelSpeed, %function
 947              	CalibrateWheelSpeed:
 948              	.LFB70:
 294:..\source/calmotor.c ****     uint8 run;
 949              		.loc 1 294 0
 950              		.cfi_startproc
 951              		@ args = 4, pretend = 0, frame = 8
 952              		@ frame_needed = 0, uses_anonymous_args = 0
 953              	.LVL159:
 954 0000 2DE9F041 		push	{r4, r5, r6, r7, r8, lr}
 955              		.cfi_def_cfa_offset 24
 956              		.cfi_offset 4, -24
 957              		.cfi_offset 5, -20
 958              		.cfi_offset 6, -16
 959              		.cfi_offset 7, -12
 960              		.cfi_offset 8, -8
 961              		.cfi_offset 14, -4
 962 0004 84B0     		sub	sp, sp, #16
 963              		.cfi_def_cfa_offset 40
 964 0006 8046     		mov	r8, r0
 965 0008 1746     		mov	r7, r2
 966 000a 1D46     		mov	r5, r3
 967 000c 0A9E     		ldr	r6, [sp, #40]
 968              	.LVL160:
 300:..\source/calmotor.c **** 
 969              		.loc 1 300 0
 970 000e 3246     		mov	r2, r6
ARM GAS  C:\Users\Tim\AppData\Local\Temp\ccfMsRPN.s 			page 28


 971              	.LVL161:
 972 0010 0DF10F03 		add	r3, sp, #15
 973              	.LVL162:
 974 0014 FFF7FEFF 		bl	CalculatePwmSamples
 975              	.LVL163:
 302:..\source/calmotor.c ****     
 976              		.loc 1 302 0
 977 0018 0F48     		ldr	r0, .L91
 978 001a 0021     		movs	r1, #0
 979 001c CC22     		movs	r2, #204
 980 001e FFF7FEFF 		bl	memset
 981              	.LVL164:
 304:..\source/calmotor.c ****     {
 982              		.loc 1 304 0
 983 0022 0024     		movs	r4, #0
 984 0024 0DE0     		b	.L88
 985              	.LVL165:
 986              	.L89:
 306:..\source/calmotor.c ****         AddSamplesToSum(cps_samples, cps_sum);
 987              		.loc 1 306 0 discriminator 3
 988 0026 9DF80F10 		ldrb	r1, [sp, #15]	@ zero_extendqisi2
 989 002a 0095     		str	r5, [sp]
 990 002c 4046     		mov	r0, r8
 991 002e 0A22     		movs	r2, #10
 992 0030 3346     		mov	r3, r6
 993 0032 FFF7FEFF 		bl	CollectPwmCpsSamples
 994              	.LVL166:
 307:..\source/calmotor.c ****     }
 995              		.loc 1 307 0 discriminator 3
 996 0036 2846     		mov	r0, r5
 997 0038 0749     		ldr	r1, .L91
 998 003a FFF7FEFF 		bl	AddSamplesToSum
 999              	.LVL167:
 304:..\source/calmotor.c ****     {
 1000              		.loc 1 304 0 discriminator 3
 1001 003e 0134     		adds	r4, r4, #1
 1002              	.LVL168:
 1003 0040 E4B2     		uxtb	r4, r4
 1004              	.LVL169:
 1005              	.L88:
 304:..\source/calmotor.c ****     {
 1006              		.loc 1 304 0 is_stmt 0 discriminator 1
 1007 0042 BC42     		cmp	r4, r7
 1008 0044 EFD3     		bcc	.L89
 310:..\source/calmotor.c **** }
 1009              		.loc 1 310 0 is_stmt 1
 1010 0046 0448     		ldr	r0, .L91
 1011 0048 3946     		mov	r1, r7
 1012 004a 2A46     		mov	r2, r5
 1013 004c FFF7FEFF 		bl	CalculateAvgCpsSamples
 1014              	.LVL170:
 311:..\source/calmotor.c **** 
 1015              		.loc 1 311 0
 1016 0050 04B0     		add	sp, sp, #16
 1017              		.cfi_def_cfa_offset 24
 1018              		@ sp needed
 1019 0052 BDE8F081 		pop	{r4, r5, r6, r7, r8, pc}
ARM GAS  C:\Users\Tim\AppData\Local\Temp\ccfMsRPN.s 			page 29


 1020              	.LVL171:
 1021              	.L92:
 1022 0056 00BF     		.align	2
 1023              	.L91:
 1024 0058 2C000000 		.word	.LANCHOR0+44
 1025              		.cfi_endproc
 1026              	.LFE70:
 1027              		.size	CalibrateWheelSpeed, .-CalibrateWheelSpeed
 1028              		.section	.text.StoreWheelSpeedSamples,"ax",%progbits
 1029              		.align	2
 1030              		.thumb
 1031              		.thumb_func
 1032              		.type	StoreWheelSpeedSamples, %function
 1033              	StoreWheelSpeedSamples:
 1034              	.LFB71:
 314:..\source/calmotor.c ****     CalculateMinMaxCpsSample(cps_samples, CAL_NUM_SAMPLES, &cal_data.cps_min, &cal_data.cps_max);
 1035              		.loc 1 314 0
 1036              		.cfi_startproc
 1037              		@ args = 0, pretend = 0, frame = 0
 1038              		@ frame_needed = 0, uses_anonymous_args = 0
 1039              	.LVL172:
 1040 0000 2DE9F843 		push	{r3, r4, r5, r6, r7, r8, r9, lr}
 1041              		.cfi_def_cfa_offset 32
 1042              		.cfi_offset 3, -32
 1043              		.cfi_offset 4, -28
 1044              		.cfi_offset 5, -24
 1045              		.cfi_offset 6, -20
 1046              		.cfi_offset 7, -16
 1047              		.cfi_offset 8, -12
 1048              		.cfi_offset 9, -8
 1049              		.cfi_offset 14, -4
 1050 0004 8046     		mov	r8, r0
 1051 0006 0D46     		mov	r5, r1
 1052 0008 1746     		mov	r7, r2
 1053 000a 9946     		mov	r9, r3
 315:..\source/calmotor.c ****     cal_data.cps_scale = CAL_SCALE_FACTOR;
 1054              		.loc 1 315 0
 1055 000c 134C     		ldr	r4, .L95
 1056 000e 04F1F806 		add	r6, r4, #248
 1057 0012 1046     		mov	r0, r2
 1058              	.LVL173:
 1059 0014 3321     		movs	r1, #51
 1060              	.LVL174:
 1061 0016 3246     		mov	r2, r6
 1062              	.LVL175:
 1063 0018 04F1FC03 		add	r3, r4, #252
 1064              	.LVL176:
 1065 001c FFF7FEFF 		bl	CalculateMinMaxCpsSample
 1066              	.LVL177:
 316:..\source/calmotor.c ****     memcpy(&cal_data.cps_data[0], cps_samples, sizeof(cps_samples[0]) * CAL_NUM_SAMPLES);
 1067              		.loc 1 316 0
 1068 0020 6423     		movs	r3, #100
 1069 0022 C4F80031 		str	r3, [r4, #256]
 317:..\source/calmotor.c ****     memcpy(&cal_data.pwm_data[0], pwm_samples, sizeof(pwm_samples[0]) * CAL_NUM_SAMPLES);
 1070              		.loc 1 317 0
 1071 0026 04F58270 		add	r0, r4, #260
 1072 002a 3946     		mov	r1, r7
ARM GAS  C:\Users\Tim\AppData\Local\Temp\ccfMsRPN.s 			page 30


 1073 002c CC22     		movs	r2, #204
 1074 002e FFF7FEFF 		bl	memcpy
 1075              	.LVL178:
 318:..\source/calmotor.c **** 
 1076              		.loc 1 318 0
 1077 0032 04F5E870 		add	r0, r4, #464
 1078 0036 4946     		mov	r1, r9
 1079 0038 6622     		movs	r2, #102
 1080 003a FFF7FEFF 		bl	memcpy
 1081              	.LVL179:
 320:..\source/calmotor.c ****     
 1082              		.loc 1 320 0
 1083 003e 05EB4805 		add	r5, r5, r8, lsl #1
 1084              	.LVL180:
 322:..\source/calmotor.c ****     Nvstore_WriteBytes((uint8 *) &cal_data, sizeof(cal_data), offset);
 1085              		.loc 1 322 0
 1086 0042 074B     		ldr	r3, .L95+4
 1087 0044 33F82520 		ldrh	r2, [r3, r5, lsl #2]
 1088              	.LVL181:
 323:..\source/calmotor.c **** }
 1089              		.loc 1 323 0
 1090 0048 3046     		mov	r0, r6
 1091 004a 4FF4A071 		mov	r1, #320
 1092 004e 82F40042 		eor	r2, r2, #32768
 1093              	.LVL182:
 1094 0052 FFF7FEFF 		bl	Nvstore_WriteBytes
 1095              	.LVL183:
 1096 0056 BDE8F883 		pop	{r3, r4, r5, r6, r7, r8, r9, pc}
 1097              	.LVL184:
 1098              	.L96:
 1099 005a 00BF     		.align	2
 1100              	.L95:
 1101 005c 00000000 		.word	.LANCHOR0
 1102 0060 00000000 		.word	WHEEL_DIR_TO_CAL_DATA
 1103              		.cfi_endproc
 1104              	.LFE71:
 1105              		.size	StoreWheelSpeedSamples, .-StoreWheelSpeedSamples
 1106              		.section	.text.PrintVelocityParams,"ax",%progbits
 1107              		.align	2
 1108              		.thumb
 1109              		.thumb_func
 1110              		.type	PrintVelocityParams, %function
 1111              	PrintVelocityParams:
 1112              	.LFB72:
 327:..\source/calmotor.c ****     char cps_str[10];
 1113              		.loc 1 327 0
 1114              		.cfi_startproc
 1115              		@ args = 0, pretend = 0, frame = 88
 1116              		@ frame_needed = 0, uses_anonymous_args = 0
 1117              	.LVL185:
 1118 0000 F0B5     		push	{r4, r5, r6, r7, lr}
 1119              		.cfi_def_cfa_offset 20
 1120              		.cfi_offset 4, -20
 1121              		.cfi_offset 5, -16
 1122              		.cfi_offset 6, -12
 1123              		.cfi_offset 7, -8
 1124              		.cfi_offset 14, -4
ARM GAS  C:\Users\Tim\AppData\Local\Temp\ccfMsRPN.s 			page 31


 1125 0002 99B0     		sub	sp, sp, #100
 1126              		.cfi_def_cfa_offset 120
 1127 0004 0546     		mov	r5, r0
 1128 0006 1746     		mov	r7, r2
 1129 0008 1E46     		mov	r6, r3
 332:..\source/calmotor.c ****     ftoa(mps, mps_str, 3);
 1130              		.loc 1 332 0
 1131 000a 0846     		mov	r0, r1
 1132              	.LVL186:
 1133 000c 15A9     		add	r1, sp, #84
 1134              	.LVL187:
 1135 000e 0322     		movs	r2, #3
 1136              	.LVL188:
 1137 0010 FFF7FEFF 		bl	ftoa
 1138              	.LVL189:
 333:..\source/calmotor.c ****     
 1139              		.loc 1 333 0
 1140 0014 12AC     		add	r4, sp, #72
 1141 0016 3846     		mov	r0, r7
 1142 0018 2146     		mov	r1, r4
 1143 001a 0322     		movs	r2, #3
 1144 001c FFF7FEFF 		bl	ftoa
 1145              	.LVL190:
 335:..\source/calmotor.c ****     Ser_PutString(output);
 1146              		.loc 1 335 0
 1147 0020 0094     		str	r4, [sp]
 1148 0022 0196     		str	r6, [sp, #4]
 1149 0024 02A8     		add	r0, sp, #8
 1150 0026 0549     		ldr	r1, .L99
 1151 0028 2A46     		mov	r2, r5
 1152 002a 15AB     		add	r3, sp, #84
 1153 002c FFF7FEFF 		bl	sprintf
 1154              	.LVL191:
 336:..\source/calmotor.c **** }
 1155              		.loc 1 336 0
 1156 0030 02A8     		add	r0, sp, #8
 1157 0032 FFF7FEFF 		bl	Ser_PutString
 1158              	.LVL192:
 337:..\source/calmotor.c **** 
 1159              		.loc 1 337 0
 1160 0036 19B0     		add	sp, sp, #100
 1161              		.cfi_def_cfa_offset 20
 1162              		@ sp needed
 1163 0038 F0BD     		pop	{r4, r5, r6, r7, pc}
 1164              	.LVL193:
 1165              	.L100:
 1166 003a 00BF     		.align	2
 1167              	.L99:
 1168 003c D0000000 		.word	.LC6
 1169              		.cfi_endproc
 1170              	.LFE72:
 1171              		.size	PrintVelocityParams, .-PrintVelocityParams
 1172              		.section	.text.DoVelocityValidation,"ax",%progbits
 1173              		.align	2
 1174              		.thumb
 1175              		.thumb_func
 1176              		.type	DoVelocityValidation, %function
ARM GAS  C:\Users\Tim\AppData\Local\Temp\ccfMsRPN.s 			page 32


 1177              	DoVelocityValidation:
 1178              	.LFB73:
 340:..\source/calmotor.c ****     uint8 ii;
 1179              		.loc 1 340 0
 1180              		.cfi_startproc
 1181              		@ args = 0, pretend = 0, frame = 16
 1182              		@ frame_needed = 0, uses_anonymous_args = 0
 1183              	.LVL194:
 1184 0000 2DE9F04F 		push	{r4, r5, r6, r7, r8, r9, r10, fp, lr}
 1185              		.cfi_def_cfa_offset 36
 1186              		.cfi_offset 4, -36
 1187              		.cfi_offset 5, -32
 1188              		.cfi_offset 6, -28
 1189              		.cfi_offset 7, -24
 1190              		.cfi_offset 8, -20
 1191              		.cfi_offset 9, -16
 1192              		.cfi_offset 10, -12
 1193              		.cfi_offset 11, -8
 1194              		.cfi_offset 14, -4
 1195 0004 85B0     		sub	sp, sp, #20
 1196              		.cfi_def_cfa_offset 56
 1197              	.LVL195:
 351:..\source/calmotor.c ****     {
 1198              		.loc 1 351 0
 1199 0006 1C46     		mov	r4, r3
 1200 0008 13B1     		cbz	r3, .L103
 1201 000a 012B     		cmp	r3, #1
 1202 000c 06D0     		beq	.L109
 1203 000e 3BE0     		b	.L101
 1204              	.L103:
 356:..\source/calmotor.c ****             break;
 1205              		.loc 1 356 0
 1206 0010 1F4E     		ldr	r6, .L111
 355:..\source/calmotor.c ****             get_mps = Encoder_LeftGetMeterPerSec;
 1207              		.loc 1 355 0
 1208 0012 204B     		ldr	r3, .L111+4
 1209              	.LVL196:
 1210 0014 0193     		str	r3, [sp, #4]
 354:..\source/calmotor.c ****             get_pwm = Motor_LeftGetPwm;
 1211              		.loc 1 354 0
 1212 0016 DFF888B0 		ldr	fp, .L111+16
 1213 001a 04E0     		b	.L104
 1214              	.LVL197:
 1215              	.L109:
 362:..\source/calmotor.c ****             break;
 1216              		.loc 1 362 0
 1217 001c 1E4E     		ldr	r6, .L111+8
 361:..\source/calmotor.c ****             get_mps = Encoder_RightGetMeterPerSec;
 1218              		.loc 1 361 0
 1219 001e 1F4B     		ldr	r3, .L111+12
 1220              	.LVL198:
 1221 0020 0193     		str	r3, [sp, #4]
 360:..\source/calmotor.c ****             get_pwm = Motor_RightGetPwm;
 1222              		.loc 1 360 0
 1223 0022 DFF880B0 		ldr	fp, .L111+20
 1224              	.L104:
 1225 0026 0394     		str	r4, [sp, #12]
ARM GAS  C:\Users\Tim\AppData\Local\Temp\ccfMsRPN.s 			page 33


 1226 0028 9246     		mov	r10, r2
 1227 002a 8846     		mov	r8, r1
 1228 002c 0290     		str	r0, [sp, #8]
 1229              	.LVL199:
 370:..\source/calmotor.c ****     
 1230              		.loc 1 370 0
 1231 002e 40F2DC50 		movw	r0, #1500
 1232              	.LVL200:
 1233 0032 D847     		blx	fp
 1234              	.LVL201:
 344:..\source/calmotor.c ****     SET_MOTOR_PWM_FUNC_TYPE set_pwm;
 1235              		.loc 1 344 0
 1236 0034 0025     		movs	r5, #0
 372:..\source/calmotor.c ****     {
 1237              		.loc 1 372 0
 1238 0036 0027     		movs	r7, #0
 1239 0038 21E0     		b	.L105
 1240              	.LVL202:
 1241              	.L108:
 374:..\source/calmotor.c ****         set_pwm(pwm);
 1242              		.loc 1 374 0
 1243 003a 4FEA8709 		lsl	r9, r7, #2
 1244 003e 0398     		ldr	r0, [sp, #12]
 1245 0040 58F82710 		ldr	r1, [r8, r7, lsl #2]	@ float
 1246 0044 FFF7FEFF 		bl	Cal_CpsToPwm
 1247              	.LVL203:
 375:..\source/calmotor.c ****         start_time = millis();
 1248              		.loc 1 375 0
 1249 0048 D847     		blx	fp
 1250              	.LVL204:
 376:..\source/calmotor.c ****         while (millis() - start_time < 2000)
 1251              		.loc 1 376 0
 1252 004a FFF7FEFF 		bl	millis
 1253              	.LVL205:
 1254 004e 0446     		mov	r4, r0
 1255              	.LVL206:
 377:..\source/calmotor.c ****         {
 1256              		.loc 1 377 0
 1257 0050 03E0     		b	.L106
 1258              	.LVL207:
 1259              	.L107:
 379:..\source/calmotor.c ****             mps = get_mps();
 1260              		.loc 1 379 0
 1261 0052 FFF7FEFF 		bl	Encoder_Update
 1262              	.LVL208:
 380:..\source/calmotor.c ****         }
 1263              		.loc 1 380 0
 1264 0056 B047     		blx	r6
 1265              	.LVL209:
 1266 0058 0546     		mov	r5, r0
 1267              	.LVL210:
 1268              	.L106:
 377:..\source/calmotor.c ****         {
 1269              		.loc 1 377 0
 1270 005a FFF7FEFF 		bl	millis
 1271              	.LVL211:
 1272 005e 001B     		subs	r0, r0, r4
ARM GAS  C:\Users\Tim\AppData\Local\Temp\ccfMsRPN.s 			page 34


 1273 0060 B0F5FA6F 		cmp	r0, #2000
 1274 0064 F5D3     		bcc	.L107
 383:..\source/calmotor.c ****     }
 1275              		.loc 1 383 0 discriminator 2
 1276 0066 58F80940 		ldr	r4, [r8, r9]	@ float
 1277              	.LVL212:
 1278 006a 019B     		ldr	r3, [sp, #4]
 1279 006c 9847     		blx	r3
 1280              	.LVL213:
 1281 006e 0346     		mov	r3, r0
 1282 0070 0298     		ldr	r0, [sp, #8]
 1283 0072 2146     		mov	r1, r4
 1284 0074 2A46     		mov	r2, r5
 1285 0076 FFF7FEFF 		bl	PrintVelocityParams
 1286              	.LVL214:
 372:..\source/calmotor.c ****     {
 1287              		.loc 1 372 0 discriminator 2
 1288 007a 0137     		adds	r7, r7, #1
 1289              	.LVL215:
 1290 007c FFB2     		uxtb	r7, r7
 1291              	.LVL216:
 1292              	.L105:
 372:..\source/calmotor.c ****     {
 1293              		.loc 1 372 0 is_stmt 0 discriminator 1
 1294 007e 5745     		cmp	r7, r10
 1295 0080 DBD3     		bcc	.L108
 386:..\source/calmotor.c **** }
 1296              		.loc 1 386 0 is_stmt 1
 1297 0082 40F2DC50 		movw	r0, #1500
 1298 0086 D847     		blx	fp
 1299              	.LVL217:
 1300              	.L101:
 387:..\source/calmotor.c **** 
 1301              		.loc 1 387 0
 1302 0088 05B0     		add	sp, sp, #20
 1303              		.cfi_def_cfa_offset 36
 1304              		@ sp needed
 1305 008a BDE8F08F 		pop	{r4, r5, r6, r7, r8, r9, r10, fp, pc}
 1306              	.L112:
 1307 008e 00BF     		.align	2
 1308              	.L111:
 1309 0090 00000000 		.word	Encoder_LeftGetMeterPerSec
 1310 0094 00000000 		.word	Motor_LeftGetPwm
 1311 0098 00000000 		.word	Encoder_RightGetMeterPerSec
 1312 009c 00000000 		.word	Motor_RightGetPwm
 1313 00a0 00000000 		.word	Motor_LeftSetPwm
 1314 00a4 00000000 		.word	Motor_RightSetPwm
 1315              		.cfi_endproc
 1316              	.LFE73:
 1317              		.size	DoVelocityValidation, .-DoVelocityValidation
 1318              		.section	.text.Update,"ax",%progbits
 1319              		.align	2
 1320              		.thumb
 1321              		.thumb_func
 1322              		.type	Update, %function
 1323              	Update:
 1324              	.LFB76:
ARM GAS  C:\Users\Tim\AppData\Local\Temp\ccfMsRPN.s 			page 35


 428:..\source/calmotor.c ****     uint16 last_debug_control_enabled;
 1325              		.loc 1 428 0
 1326              		.cfi_startproc
 1327              		@ args = 0, pretend = 0, frame = 0
 1328              		@ frame_needed = 0, uses_anonymous_args = 0
 1329              	.LVL218:
 1330 0000 2DE9F041 		push	{r4, r5, r6, r7, r8, lr}
 1331              		.cfi_def_cfa_offset 24
 1332              		.cfi_offset 4, -24
 1333              		.cfi_offset 5, -20
 1334              		.cfi_offset 6, -16
 1335              		.cfi_offset 7, -12
 1336              		.cfi_offset 8, -8
 1337              		.cfi_offset 14, -4
 1338 0004 82B0     		sub	sp, sp, #8
 1339              		.cfi_def_cfa_offset 32
 433:..\source/calmotor.c ****     
 1340              		.loc 1 433 0
 1341 0006 3B4B     		ldr	r3, .L120
 1342 0008 1F88     		ldrh	r7, [r3]
 1343              	.LVL219:
 435:..\source/calmotor.c ****     {
 1344              		.loc 1 435 0
 1345 000a 10B1     		cbz	r0, .L115
 1346 000c 0128     		cmp	r0, #1
 1347 000e 51D0     		beq	.L116
 1348 0010 6CE0     		b	.L118
 1349              	.L115:
 438:..\source/calmotor.c ****             debug_control_enabled = DEBUG_LEFT_ENCODER_ENABLE_BIT;
 1350              		.loc 1 438 0
 1351 0012 3948     		ldr	r0, .L120+4
 1352              	.LVL220:
 1353 0014 FFF7FEFF 		bl	Ser_PutString
 1354              	.LVL221:
 439:..\source/calmotor.c **** 
 1355              		.loc 1 439 0
 1356 0018 DFF8D880 		ldr	r8, .L120
 1357 001c 0124     		movs	r4, #1
 1358 001e A8F80040 		strh	r4, [r8]	@ movhi
 441:..\source/calmotor.c ****             StoreWheelSpeedSamples(WHEEL_LEFT, DIR_FORWARD, cps_samples, pwm_samples);
 1359              		.loc 1 441 0
 1360 0022 364D     		ldr	r5, .L120+8
 1361 0024 05F50E76 		add	r6, r5, #568
 1362 0028 05F54175 		add	r5, r5, #772
 1363 002c 0095     		str	r5, [sp]
 1364 002e 0020     		movs	r0, #0
 1365 0030 0146     		mov	r1, r0
 1366 0032 0322     		movs	r2, #3
 1367 0034 3346     		mov	r3, r6
 1368 0036 FFF7FEFF 		bl	CalibrateWheelSpeed
 1369              	.LVL222:
 442:..\source/calmotor.c ****             
 1370              		.loc 1 442 0
 1371 003a 0020     		movs	r0, #0
 1372 003c 0146     		mov	r1, r0
 1373 003e 3246     		mov	r2, r6
 1374 0040 2B46     		mov	r3, r5
ARM GAS  C:\Users\Tim\AppData\Local\Temp\ccfMsRPN.s 			page 36


 1375 0042 FFF7FEFF 		bl	StoreWheelSpeedSamples
 1376              	.LVL223:
 444:..\source/calmotor.c ****             CalibrateWheelSpeed(WHEEL_LEFT, DIR_BACKWARD, MAX_MOTOR_CAL_ITERATION, cps_samples, pwm
 1377              		.loc 1 444 0
 1378 0046 2E48     		ldr	r0, .L120+12
 1379 0048 FFF7FEFF 		bl	Ser_PutString
 1380              	.LVL224:
 445:..\source/calmotor.c ****             StoreWheelSpeedSamples(WHEEL_LEFT, DIR_BACKWARD, cps_samples, pwm_samples);
 1381              		.loc 1 445 0
 1382 004c 0095     		str	r5, [sp]
 1383 004e 0020     		movs	r0, #0
 1384 0050 2146     		mov	r1, r4
 1385 0052 0322     		movs	r2, #3
 1386 0054 3346     		mov	r3, r6
 1387 0056 FFF7FEFF 		bl	CalibrateWheelSpeed
 1388              	.LVL225:
 446:..\source/calmotor.c ****             
 1389              		.loc 1 446 0
 1390 005a 0020     		movs	r0, #0
 1391 005c 2146     		mov	r1, r4
 1392 005e 3246     		mov	r2, r6
 1393 0060 2B46     		mov	r3, r5
 1394 0062 FFF7FEFF 		bl	StoreWheelSpeedSamples
 1395              	.LVL226:
 448:..\source/calmotor.c ****             debug_control_enabled = DEBUG_RIGHT_ENCODER_ENABLE_BIT;                    
 1396              		.loc 1 448 0
 1397 0066 2748     		ldr	r0, .L120+16
 1398 0068 FFF7FEFF 		bl	Ser_PutString
 1399              	.LVL227:
 449:..\source/calmotor.c ****             CalibrateWheelSpeed(WHEEL_RIGHT, DIR_FORWARD, MAX_MOTOR_CAL_ITERATION, cps_samples, pwm
 1400              		.loc 1 449 0
 1401 006c 0223     		movs	r3, #2
 1402 006e A8F80030 		strh	r3, [r8]	@ movhi
 450:..\source/calmotor.c ****             StoreWheelSpeedSamples(WHEEL_RIGHT, DIR_FORWARD, cps_samples, pwm_samples);
 1403              		.loc 1 450 0
 1404 0072 0095     		str	r5, [sp]
 1405 0074 2046     		mov	r0, r4
 1406 0076 0021     		movs	r1, #0
 1407 0078 0322     		movs	r2, #3
 1408 007a 3346     		mov	r3, r6
 1409 007c FFF7FEFF 		bl	CalibrateWheelSpeed
 1410              	.LVL228:
 451:..\source/calmotor.c ****             
 1411              		.loc 1 451 0
 1412 0080 2046     		mov	r0, r4
 1413 0082 0021     		movs	r1, #0
 1414 0084 3246     		mov	r2, r6
 1415 0086 2B46     		mov	r3, r5
 1416 0088 FFF7FEFF 		bl	StoreWheelSpeedSamples
 1417              	.LVL229:
 453:..\source/calmotor.c ****             CalibrateWheelSpeed(WHEEL_RIGHT, DIR_BACKWARD, MAX_MOTOR_CAL_ITERATION, cps_samples, pw
 1418              		.loc 1 453 0
 1419 008c 1E48     		ldr	r0, .L120+20
 1420 008e FFF7FEFF 		bl	Ser_PutString
 1421              	.LVL230:
 454:..\source/calmotor.c ****             StoreWheelSpeedSamples(WHEEL_RIGHT, DIR_BACKWARD, cps_samples, pwm_samples);
 1422              		.loc 1 454 0
ARM GAS  C:\Users\Tim\AppData\Local\Temp\ccfMsRPN.s 			page 37


 1423 0092 0095     		str	r5, [sp]
 1424 0094 2046     		mov	r0, r4
 1425 0096 2146     		mov	r1, r4
 1426 0098 0322     		movs	r2, #3
 1427 009a 3346     		mov	r3, r6
 1428 009c FFF7FEFF 		bl	CalibrateWheelSpeed
 1429              	.LVL231:
 455:..\source/calmotor.c **** 
 1430              		.loc 1 455 0
 1431 00a0 2046     		mov	r0, r4
 1432 00a2 2146     		mov	r1, r4
 1433 00a4 3246     		mov	r2, r6
 1434 00a6 2B46     		mov	r3, r5
 1435 00a8 FFF7FEFF 		bl	StoreWheelSpeedSamples
 1436              	.LVL232:
 457:..\source/calmotor.c ****             return CAL_COMPLETE;
 1437              		.loc 1 457 0
 1438 00ac A8F80070 		strh	r7, [r8]	@ movhi
 458:..\source/calmotor.c ****             break;
 1439              		.loc 1 458 0
 1440 00b0 2046     		mov	r0, r4
 1441 00b2 1CE0     		b	.L114
 1442              	.LVL233:
 1443              	.L116:
 462:..\source/calmotor.c ****             DoVelocityValidation("right-forward", fwd_cps_validate, 11, WHEEL_RIGHT);
 1444              		.loc 1 462 0
 1445 00b4 114C     		ldr	r4, .L120+8
 1446 00b6 1548     		ldr	r0, .L120+24
 1447              	.LVL234:
 1448 00b8 2146     		mov	r1, r4
 1449              	.LVL235:
 1450 00ba 0B22     		movs	r2, #11
 1451 00bc 0023     		movs	r3, #0
 1452 00be FFF7FEFF 		bl	DoVelocityValidation
 1453              	.LVL236:
 463:..\source/calmotor.c ****             DoVelocityValidation("left-backward", bwd_cps_validate, 11, WHEEL_LEFT);
 1454              		.loc 1 463 0
 1455 00c2 1348     		ldr	r0, .L120+28
 1456 00c4 2146     		mov	r1, r4
 1457 00c6 0B22     		movs	r2, #11
 1458 00c8 0123     		movs	r3, #1
 1459 00ca FFF7FEFF 		bl	DoVelocityValidation
 1460              	.LVL237:
 464:..\source/calmotor.c ****             DoVelocityValidation("right-backward", bwd_cps_validate, 11, WHEEL_RIGHT);
 1461              		.loc 1 464 0
 1462 00ce 114C     		ldr	r4, .L120+32
 1463 00d0 1148     		ldr	r0, .L120+36
 1464 00d2 2146     		mov	r1, r4
 1465 00d4 0B22     		movs	r2, #11
 1466 00d6 0023     		movs	r3, #0
 1467 00d8 FFF7FEFF 		bl	DoVelocityValidation
 1468              	.LVL238:
 465:..\source/calmotor.c ****             return CAL_COMPLETE;
 1469              		.loc 1 465 0
 1470 00dc 0F48     		ldr	r0, .L120+40
 1471 00de 2146     		mov	r1, r4
 1472 00e0 0B22     		movs	r2, #11
ARM GAS  C:\Users\Tim\AppData\Local\Temp\ccfMsRPN.s 			page 38


 1473 00e2 0123     		movs	r3, #1
 1474 00e4 FFF7FEFF 		bl	DoVelocityValidation
 1475              	.LVL239:
 466:..\source/calmotor.c ****             break;
 1476              		.loc 1 466 0
 1477 00e8 0120     		movs	r0, #1
 1478 00ea 00E0     		b	.L114
 1479              	.LVL240:
 1480              	.L118:
 470:..\source/calmotor.c **** }
 1481              		.loc 1 470 0
 1482 00ec 0020     		movs	r0, #0
 1483              	.LVL241:
 1484              	.L114:
 471:..\source/calmotor.c **** 
 1485              		.loc 1 471 0
 1486 00ee 02B0     		add	sp, sp, #8
 1487              		.cfi_def_cfa_offset 24
 1488              		@ sp needed
 1489 00f0 BDE8F081 		pop	{r4, r5, r6, r7, r8, pc}
 1490              	.LVL242:
 1491              	.L121:
 1492              		.align	2
 1493              	.L120:
 1494 00f4 00000000 		.word	debug_control_enabled
 1495 00f8 F4000000 		.word	.LC7
 1496 00fc 00000000 		.word	.LANCHOR0
 1497 0100 10010000 		.word	.LC8
 1498 0104 2C010000 		.word	.LC9
 1499 0108 48010000 		.word	.LC10
 1500 010c 68010000 		.word	.LC11
 1501 0110 78010000 		.word	.LC12
 1502 0114 00000000 		.word	.LANCHOR1
 1503 0118 88010000 		.word	.LC13
 1504 011c 98010000 		.word	.LC14
 1505              		.cfi_endproc
 1506              	.LFE76:
 1507              		.size	Update, .-Update
 1508              		.section	.text.Init,"ax",%progbits
 1509              		.align	2
 1510              		.thumb
 1511              		.thumb_func
 1512              		.type	Init, %function
 1513              	Init:
 1514              	.LFB74:
 390:..\source/calmotor.c ****     params = params;
 1515              		.loc 1 390 0
 1516              		.cfi_startproc
 1517              		@ args = 0, pretend = 0, frame = 0
 1518              		@ frame_needed = 0, uses_anonymous_args = 0
 1519              	.LVL243:
 1520 0000 08B5     		push	{r3, lr}
 1521              		.cfi_def_cfa_offset 8
 1522              		.cfi_offset 3, -8
 1523              		.cfi_offset 14, -4
 392:..\source/calmotor.c ****     {
 1524              		.loc 1 392 0
ARM GAS  C:\Users\Tim\AppData\Local\Temp\ccfMsRPN.s 			page 39


 1525 0002 10B1     		cbz	r0, .L124
 1526 0004 0128     		cmp	r0, #1
 1527 0006 07D0     		beq	.L125
 1528 0008 0EE0     		b	.L123
 1529              	.L124:
 395:..\source/calmotor.c ****             Pid_Enable(FALSE);
 1530              		.loc 1 395 0
 1531 000a 0848     		ldr	r0, .L127
 1532              	.LVL244:
 1533 000c FFF7FEFF 		bl	Ser_PutString
 1534              	.LVL245:
 396:..\source/calmotor.c ****             break;
 1535              		.loc 1 396 0
 1536 0010 0020     		movs	r0, #0
 1537 0012 FFF7FEFF 		bl	Pid_Enable
 1538              	.LVL246:
 397:..\source/calmotor.c ****             
 1539              		.loc 1 397 0
 1540 0016 07E0     		b	.L123
 1541              	.LVL247:
 1542              	.L125:
 400:..\source/calmotor.c ****             Pid_Enable(FALSE);
 1543              		.loc 1 400 0
 1544 0018 0548     		ldr	r0, .L127+4
 1545              	.LVL248:
 1546 001a FFF7FEFF 		bl	Ser_PutString
 1547              	.LVL249:
 401:..\source/calmotor.c ****             CalculateValidationValues();
 1548              		.loc 1 401 0
 1549 001e 0020     		movs	r0, #0
 1550 0020 FFF7FEFF 		bl	Pid_Enable
 1551              	.LVL250:
 402:..\source/calmotor.c ****             break;
 1552              		.loc 1 402 0
 1553 0024 FFF7FEFF 		bl	CalculateValidationValues
 1554              	.LVL251:
 1555              	.L123:
 407:..\source/calmotor.c **** 
 1556              		.loc 1 407 0
 1557 0028 0020     		movs	r0, #0
 1558 002a 08BD     		pop	{r3, pc}
 1559              	.L128:
 1560              		.align	2
 1561              	.L127:
 1562 002c A8010000 		.word	.LC15
 1563 0030 CC010000 		.word	.LC16
 1564              		.cfi_endproc
 1565              	.LFE74:
 1566              		.size	Init, .-Init
 1567              		.section	.text.CalMotor_Init,"ax",%progbits
 1568              		.align	2
 1569              		.global	CalMotor_Init
 1570              		.thumb
 1571              		.thumb_func
 1572              		.type	CalMotor_Init, %function
 1573              	CalMotor_Init:
 1574              	.LFB79:
ARM GAS  C:\Users\Tim\AppData\Local\Temp\ccfMsRPN.s 			page 40


 505:..\source/calmotor.c **** 
 506:..\source/calmotor.c **** void CalMotor_Init()
 507:..\source/calmotor.c **** {
 1575              		.loc 1 507 0
 1576              		.cfi_startproc
 1577              		@ args = 0, pretend = 0, frame = 0
 1578              		@ frame_needed = 0, uses_anonymous_args = 0
 1579              		@ link register save eliminated.
 508:..\source/calmotor.c ****     WHEEL_DIR_TO_CAL_DATA[WHEEL_LEFT][DIR_FORWARD] = (CAL_DATA_TYPE *) &p_cal_eeprom->left_motor_fw
 1580              		.loc 1 508 0
 1581 0000 0A4B     		ldr	r3, .L130
 1582 0002 1B68     		ldr	r3, [r3]
 1583 0004 03F14801 		add	r1, r3, #72
 1584 0008 094A     		ldr	r2, .L130+4
 1585 000a 1160     		str	r1, [r2]
 509:..\source/calmotor.c ****     WHEEL_DIR_TO_CAL_DATA[WHEEL_LEFT][DIR_BACKWARD] = (CAL_DATA_TYPE *) &p_cal_eeprom->left_motor_b
 1586              		.loc 1 509 0
 1587 000c 03F5C471 		add	r1, r3, #392
 1588 0010 5160     		str	r1, [r2, #4]
 510:..\source/calmotor.c ****     WHEEL_DIR_TO_CAL_DATA[WHEEL_RIGHT][DIR_FORWARD] = (CAL_DATA_TYPE *) &p_cal_eeprom->right_motor_
 1589              		.loc 1 510 0
 1590 0012 03F53271 		add	r1, r3, #712
 1591 0016 9160     		str	r1, [r2, #8]
 511:..\source/calmotor.c ****     WHEEL_DIR_TO_CAL_DATA[WHEEL_RIGHT][DIR_BACKWARD] = (CAL_DATA_TYPE *) &p_cal_eeprom->right_motor
 1592              		.loc 1 511 0
 1593 0018 03F58163 		add	r3, r3, #1032
 1594 001c D360     		str	r3, [r2, #12]
 512:..\source/calmotor.c ****     
 513:..\source/calmotor.c ****     CalMotor_Calibration = &motor_calibration;
 1595              		.loc 1 513 0
 1596 001e 054B     		ldr	r3, .L130+8
 1597 0020 054A     		ldr	r2, .L130+12
 1598 0022 1360     		str	r3, [r2]
 514:..\source/calmotor.c ****     CalMotor_Validation = &motor_calibration;    
 1599              		.loc 1 514 0
 1600 0024 054A     		ldr	r2, .L130+16
 1601 0026 1360     		str	r3, [r2]
 1602 0028 7047     		bx	lr
 1603              	.L131:
 1604 002a 00BF     		.align	2
 1605              	.L130:
 1606 002c 00000000 		.word	p_cal_eeprom
 1607 0030 00000000 		.word	WHEEL_DIR_TO_CAL_DATA
 1608 0034 2C000000 		.word	.LANCHOR1+44
 1609 0038 00000000 		.word	CalMotor_Calibration
 1610 003c 00000000 		.word	CalMotor_Validation
 1611              		.cfi_endproc
 1612              	.LFE79:
 1613              		.size	CalMotor_Init, .-CalMotor_Init
 1614              		.comm	formatted_string,256,4
 1615              		.comm	debug_control_enabled,2,2
 1616              		.comm	CalMotor_Validation,4,4
 1617              		.comm	CalMotor_Calibration,4,4
 1618              		.comm	WHEEL_DIR_TO_CAL_DATA,16,4
 1619              		.comm	Cal_RightTarget,4,4
 1620              		.comm	Cal_LeftTarget,4,4
 1621              		.comm	p_cal_eeprom,4,4
ARM GAS  C:\Users\Tim\AppData\Local\Temp\ccfMsRPN.s 			page 41


 1622              		.data
 1623              		.align	2
 1624              		.set	.LANCHOR1,. + 0
 1625              		.type	bwd_cps_validate, %object
 1626              		.size	bwd_cps_validate, 44
 1627              	bwd_cps_validate:
 1628 0000 00000080 		.word	-2147483648
 1629 0004 00000080 		.word	-2147483648
 1630 0008 00000080 		.word	-2147483648
 1631 000c 00000080 		.word	-2147483648
 1632 0010 00000080 		.word	-2147483648
 1633 0014 00000080 		.word	-2147483648
 1634 0018 00000080 		.word	-2147483648
 1635 001c 00000080 		.word	-2147483648
 1636 0020 00000080 		.word	-2147483648
 1637 0024 00000080 		.word	-2147483648
 1638 0028 00000080 		.word	-2147483648
 1639              		.type	motor_calibration, %object
 1640              		.size	motor_calibration, 28
 1641              	motor_calibration:
 1642 002c 00       		.byte	0
 1643 002d 00       		.byte	0
 1644 002e 0000     		.space	2
 1645 0030 00000000 		.word	0
 1646 0034 00000000 		.word	Init
 1647 0038 00000000 		.word	Start
 1648 003c 00000000 		.word	Update
 1649 0040 00000000 		.word	Stop
 1650 0044 00000000 		.word	Results
 1651              		.section	.rodata.str1.4,"aMS",%progbits,1
 1652              		.align	2
 1653              	.LC0:
 1654 0000 4D6F746F 		.ascii	"Motor calibration complete\015\012\000"
 1654      72206361 
 1654      6C696272 
 1654      6174696F 
 1654      6E20636F 
 1655 001d 000000   		.space	3
 1656              	.LC1:
 1657 0020 4D6F746F 		.ascii	"Motor validation complete\015\012\000"
 1657      72207661 
 1657      6C696461 
 1657      74696F6E 
 1657      20636F6D 
 1658              	.LC2:
 1659 003c 0D0A5065 		.ascii	"\015\012Performing motor calibration\015\012\000"
 1659      72666F72 
 1659      6D696E67 
 1659      206D6F74 
 1659      6F722063 
 1660 005d 000000   		.space	3
 1661              	.LC3:
 1662 0060 0D0A5065 		.ascii	"\015\012Performing motor validation\015\012\000"
 1662      72666F72 
 1662      6D696E67 
 1662      206D6F74 
 1662      6F722076 
ARM GAS  C:\Users\Tim\AppData\Local\Temp\ccfMsRPN.s 			page 42


 1663              	.LC4:
 1664 0080 0D0A5072 		.ascii	"\015\012Printing motor calibration results\015\012\000"
 1664      696E7469 
 1664      6E67206D 
 1664      6F746F72 
 1664      2063616C 
 1665 00a7 00       		.space	1
 1666              	.LC5:
 1667 00a8 0D0A5072 		.ascii	"\015\012Printing motor validation results\015\012\000"
 1667      696E7469 
 1667      6E67206D 
 1667      6F746F72 
 1667      2076616C 
 1668 00ce 0000     		.space	2
 1669              	.LC6:
 1670 00d0 2573202D 		.ascii	"%s - cps: %s, mps: %s, pwm: %d\015\012\000"
 1670      20637073 
 1670      3A202573 
 1670      2C206D70 
 1670      733A2025 
 1671 00f1 000000   		.space	3
 1672              	.LC7:
 1673 00f4 4C656674 		.ascii	"Left-Forward Calibration\015\012\000"
 1673      2D466F72 
 1673      77617264 
 1673      2043616C 
 1673      69627261 
 1674 010f 00       		.space	1
 1675              	.LC8:
 1676 0110 4C656674 		.ascii	"Left-Backward Calibration\015\012\000"
 1676      2D426163 
 1676      6B776172 
 1676      64204361 
 1676      6C696272 
 1677              	.LC9:
 1678 012c 52696768 		.ascii	"Right-Forward Calibration\015\012\000"
 1678      742D466F 
 1678      72776172 
 1678      64204361 
 1678      6C696272 
 1679              	.LC10:
 1680 0148 52696768 		.ascii	"Right-Backward Calibration\015\012\000"
 1680      742D4261 
 1680      636B7761 
 1680      72642043 
 1680      616C6962 
 1681 0165 000000   		.space	3
 1682              	.LC11:
 1683 0168 6C656674 		.ascii	"left-forward\000"
 1683      2D666F72 
 1683      77617264 
 1683      00
 1684 0175 000000   		.space	3
 1685              	.LC12:
 1686 0178 72696768 		.ascii	"right-forward\000"
 1686      742D666F 
 1686      72776172 
ARM GAS  C:\Users\Tim\AppData\Local\Temp\ccfMsRPN.s 			page 43


 1686      6400
 1687 0186 0000     		.space	2
 1688              	.LC13:
 1689 0188 6C656674 		.ascii	"left-backward\000"
 1689      2D626163 
 1689      6B776172 
 1689      6400
 1690 0196 0000     		.space	2
 1691              	.LC14:
 1692 0198 72696768 		.ascii	"right-backward\000"
 1692      742D6261 
 1692      636B7761 
 1692      726400
 1693 01a7 00       		.space	1
 1694              	.LC15:
 1695 01a8 0D0A496E 		.ascii	"\015\012Initialize motor calibration\015\012\000"
 1695      69746961 
 1695      6C697A65 
 1695      206D6F74 
 1695      6F722063 
 1696 01c9 000000   		.space	3
 1697              	.LC16:
 1698 01cc 0D0A496E 		.ascii	"\015\012Initialize motor validation\015\012\000"
 1698      69746961 
 1698      6C697A65 
 1698      206D6F74 
 1698      6F722076 
 1699              		.bss
 1700              		.align	2
 1701              		.set	.LANCHOR0,. + 0
 1702              		.type	fwd_cps_validate, %object
 1703              		.size	fwd_cps_validate, 44
 1704              	fwd_cps_validate:
 1705 0000 00000000 		.space	44
 1705      00000000 
 1705      00000000 
 1705      00000000 
 1705      00000000 
 1706              		.type	cps_sum, %object
 1707              		.size	cps_sum, 204
 1708              	cps_sum:
 1709 002c 00000000 		.space	204
 1709      00000000 
 1709      00000000 
 1709      00000000 
 1709      00000000 
 1710              		.type	cal_data, %object
 1711              		.size	cal_data, 320
 1712              	cal_data:
 1713 00f8 00000000 		.space	320
 1713      00000000 
 1713      00000000 
 1713      00000000 
 1713      00000000 
 1714              		.type	cps_samples, %object
 1715              		.size	cps_samples, 204
 1716              	cps_samples:
ARM GAS  C:\Users\Tim\AppData\Local\Temp\ccfMsRPN.s 			page 44


 1717 0238 00000000 		.space	204
 1717      00000000 
 1717      00000000 
 1717      00000000 
 1717      00000000 
 1718              		.type	pwm_samples, %object
 1719              		.size	pwm_samples, 102
 1720              	pwm_samples:
 1721 0304 00000000 		.space	102
 1721      00000000 
 1721      00000000 
 1721      00000000 
 1721      00000000 
 1722 036a 0000     		.text
 1723              	.Letext0:
 1724              		.file 2 "c:\\program files (x86)\\cypress\\psoc creator\\3.3\\psoc creator\\import\\gnu\\arm\\4.9.
 1725              		.file 3 "c:\\program files (x86)\\cypress\\psoc creator\\3.3\\psoc creator\\import\\gnu\\arm\\4.9.
 1726              		.file 4 "Generated_Source\\PSoC5/cytypes.h"
 1727              		.file 5 "..\\source\\config.h"
 1728              		.file 6 "..\\source\\calstore.h"
 1729              		.file 7 "..\\source\\cal.h"
 1730              		.file 8 "..\\source\\motor.h"
 1731              		.file 9 "..\\source\\encoder.h"
 1732              		.file 10 "Generated_Source\\PSoC5/core_cm3.h"
 1733              		.file 11 "..\\source\\calmotor.h"
 1734              		.file 12 "..\\source\\debug.h"
 1735              		.file 13 "..\\source\\serial.h"
 1736              		.file 14 "Generated_Source\\PSoC5/CyLib.h"
 1737              		.file 15 "..\\source\\nvstore.h"
 1738              		.file 16 "..\\source\\utils.h"
 1739              		.file 17 "c:\\program files (x86)\\cypress\\psoc creator\\3.3\\psoc creator\\import\\gnu\\arm\\4.9
 1740              		.file 18 "..\\source\\time.h"
 1741              		.file 19 "..\\source\\pid.h"