ARM GAS  C:\Users\tslator\AppData\Local\Temp\ccgwGkXa.s 			page 1


   1              		.syntax unified
   2              		.cpu cortex-m3
   3              		.fpu softvfp
   4              		.eabi_attribute 20, 1
   5              		.eabi_attribute 21, 1
   6              		.eabi_attribute 23, 3
   7              		.eabi_attribute 24, 1
   8              		.eabi_attribute 25, 1
   9              		.eabi_attribute 26, 1
  10              		.eabi_attribute 30, 1
  11              		.eabi_attribute 34, 1
  12              		.eabi_attribute 18, 4
  13              		.thumb
  14              		.file	"calpid.c"
  15              		.text
  16              	.Ltext0:
  17              		.cfi_sections	.debug_frame
  18              		.global	__aeabi_i2f
  19              		.global	__aeabi_f2d
  20              		.global	__aeabi_dmul
  21              		.global	__aeabi_d2f
  22              		.section	.text.GetStepVelocity,"ax",%progbits
  23              		.align	2
  24              		.thumb
  25              		.thumb_func
  26              		.type	GetStepVelocity, %function
  27              	GetStepVelocity:
  28              	.LFB65:
  29              		.file 1 "..\\source\\calpid.c"
   1:..\source/calpid.c **** /* ========================================
   2:..\source/calpid.c ****  *
   3:..\source/calpid.c ****  * Copyright YOUR COMPANY, THE YEAR
   4:..\source/calpid.c ****  * All Rights Reserved
   5:..\source/calpid.c ****  * UNPUBLISHED, LICENSED SOFTWARE.
   6:..\source/calpid.c ****  *
   7:..\source/calpid.c ****  * CONFIDENTIAL AND PROPRIETARY INFORMATION
   8:..\source/calpid.c ****  * WHICH IS THE PROPERTY OF your company.
   9:..\source/calpid.c ****  *
  10:..\source/calpid.c ****  * ========================================
  11:..\source/calpid.c **** */
  12:..\source/calpid.c **** 
  13:..\source/calpid.c **** 
  14:..\source/calpid.c **** /*-------------------------------------------------------------------------------------------------
  15:..\source/calpid.c ****  * Includes
  16:..\source/calpid.c ****  *-------------------------------------------------------------------------------------------------
  17:..\source/calpid.c **** #include <stdio.h>
  18:..\source/calpid.c **** #include "config.h"
  19:..\source/calpid.c **** #include "calpid.h"
  20:..\source/calpid.c **** #include "cal.h"
  21:..\source/calpid.c **** #include "serial.h"
  22:..\source/calpid.c **** #include "nvstore.h"
  23:..\source/calpid.c **** #include "pid.h"
  24:..\source/calpid.c **** #include "utils.h"
  25:..\source/calpid.c **** #include "encoder.h"
  26:..\source/calpid.c **** #include "time.h"
  27:..\source/calpid.c **** #include "motor.h"
  28:..\source/calpid.c **** #include "debug.h"
ARM GAS  C:\Users\tslator\AppData\Local\Temp\ccgwGkXa.s 			page 2


  29:..\source/calpid.c **** #include "control.h"
  30:..\source/calpid.c **** #include "odom.h"
  31:..\source/calpid.c **** 
  32:..\source/calpid.c **** /*-------------------------------------------------------------------------------------------------
  33:..\source/calpid.c ****  * Includes
  34:..\source/calpid.c ****  *-------------------------------------------------------------------------------------------------
  35:..\source/calpid.c **** #define STEP_VELOCITY_PERCENT  (0.2)    // 20% of maximum velocity
  36:..\source/calpid.c **** #define MAX_NUM_VELOCITIES     (7)
  37:..\source/calpid.c **** 
  38:..\source/calpid.c **** /*-------------------------------------------------------------------------------------------------
  39:..\source/calpid.c ****  * Variables
  40:..\source/calpid.c ****  *-------------------------------------------------------------------------------------------------
  41:..\source/calpid.c **** static uint32 start_time;
  42:..\source/calpid.c **** static uint16 old_debug_control_enabled;
  43:..\source/calpid.c **** 
  44:..\source/calpid.c **** static CAL_PID_PARAMS left_pid_params = {"left", PID_TYPE_LEFT, DIR_FORWARD, 5000};
  45:..\source/calpid.c **** static CAL_PID_PARAMS right_pid_params = {"right", PID_TYPE_RIGHT, DIR_FORWARD, 5000};
  46:..\source/calpid.c **** 
  47:..\source/calpid.c **** static uint8 Init(CAL_STAGE_TYPE stage, void *params);
  48:..\source/calpid.c **** static uint8 Start(CAL_STAGE_TYPE stage, void *params);
  49:..\source/calpid.c **** static uint8 Update(CAL_STAGE_TYPE stage, void *params);
  50:..\source/calpid.c **** static uint8 Stop(CAL_STAGE_TYPE stage, void *params);
  51:..\source/calpid.c **** static uint8 Results(CAL_STAGE_TYPE stage, void *params);
  52:..\source/calpid.c **** 
  53:..\source/calpid.c **** static CALIBRATION_TYPE left_pid_calibration = {CAL_INIT_STATE,
  54:..\source/calpid.c ****                                                 CAL_CALIBRATE_STAGE,
  55:..\source/calpid.c ****                                                 &left_pid_params,
  56:..\source/calpid.c ****                                                 Init,
  57:..\source/calpid.c ****                                                 Start,
  58:..\source/calpid.c ****                                                 Update,
  59:..\source/calpid.c ****                                                 Stop,
  60:..\source/calpid.c ****                                                 Results};
  61:..\source/calpid.c **** 
  62:..\source/calpid.c **** static CALIBRATION_TYPE right_pid_calibration = {CAL_INIT_STATE,
  63:..\source/calpid.c ****                                                  CAL_CALIBRATE_STAGE,
  64:..\source/calpid.c ****                                                  &right_pid_params,
  65:..\source/calpid.c ****                                                  Init,
  66:..\source/calpid.c ****                                                  Start,
  67:..\source/calpid.c ****                                                  Update,
  68:..\source/calpid.c ****                                                  Stop,
  69:..\source/calpid.c ****                                                  Results};
  70:..\source/calpid.c **** 
  71:..\source/calpid.c **** 
  72:..\source/calpid.c **** static float velocities[MAX_NUM_VELOCITIES] = {0.0, 0.2, 0.5, 0.7, 0.5, 0.2, 0.0};
  73:..\source/calpid.c **** static uint8 vel_index = 0;
  74:..\source/calpid.c **** 
  75:..\source/calpid.c **** 
  76:..\source/calpid.c **** /*-------------------------------------------------------------------------------------------------
  77:..\source/calpid.c ****  * Functions
  78:..\source/calpid.c ****  *-------------------------------------------------------------------------------------------------
  79:..\source/calpid.c **** 
  80:..\source/calpid.c **** 
  81:..\source/calpid.c **** /*-------------------------------------------------------------------------------------------------
  82:..\source/calpid.c ****  * Name: StoreLeftGains/StoreRightGains
  83:..\source/calpid.c ****  * Description: Stores the specified gain values into the EEPROM for the left PID. 
  84:..\source/calpid.c ****  * Parameters: gains - array of float values corresponding to Kp, Ki, Kd.
  85:..\source/calpid.c ****  * Return: None
ARM GAS  C:\Users\tslator\AppData\Local\Temp\ccgwGkXa.s 			page 3


  86:..\source/calpid.c ****  * 
  87:..\source/calpid.c ****  *-------------------------------------------------------------------------------------------------
  88:..\source/calpid.c **** static void StoreLeftGains(float *gains)
  89:..\source/calpid.c **** {
  90:..\source/calpid.c ****     Nvstore_WriteFloat(gains[0], (uint16) NVSTORE_CAL_EEPROM_ADDR_TO_OFFSET(&p_cal_eeprom->left_gai
  91:..\source/calpid.c ****     Nvstore_WriteFloat(gains[1], (uint16) NVSTORE_CAL_EEPROM_ADDR_TO_OFFSET(&p_cal_eeprom->left_gai
  92:..\source/calpid.c ****     Nvstore_WriteFloat(gains[2], (uint16) NVSTORE_CAL_EEPROM_ADDR_TO_OFFSET(&p_cal_eeprom->left_gai
  93:..\source/calpid.c **** }
  94:..\source/calpid.c **** 
  95:..\source/calpid.c **** static void StoreRightGains(float *gains)
  96:..\source/calpid.c **** {
  97:..\source/calpid.c ****     Nvstore_WriteFloat(gains[0], (uint16) NVSTORE_CAL_EEPROM_ADDR_TO_OFFSET(&p_cal_eeprom->right_ga
  98:..\source/calpid.c ****     Nvstore_WriteFloat(gains[1], (uint16) NVSTORE_CAL_EEPROM_ADDR_TO_OFFSET(&p_cal_eeprom->right_ga
  99:..\source/calpid.c ****     Nvstore_WriteFloat(gains[2], (uint16) NVSTORE_CAL_EEPROM_ADDR_TO_OFFSET(&p_cal_eeprom->right_ga
 100:..\source/calpid.c **** }
 101:..\source/calpid.c **** 
 102:..\source/calpid.c **** /*-------------------------------------------------------------------------------------------------
 103:..\source/calpid.c ****  * Name: GetStepVelocity
 104:..\source/calpid.c ****  * Description: Calculates a step velocity at the percent based on the calibration motor values. 
 105:..\source/calpid.c ****  * Parameters: None
 106:..\source/calpid.c ****  * Return: float - velocity (meter/second)
 107:..\source/calpid.c ****  * 
 108:..\source/calpid.c ****  *-------------------------------------------------------------------------------------------------
 109:..\source/calpid.c **** static float GetStepVelocity()
 110:..\source/calpid.c **** /* The step input velocity is 80% of maximum wheel velocity.
 111:..\source/calpid.c ****    Maximum wheel velocity is determined by wheel calibration.  We take the min of all maximums, e.g
 112:..\source/calpid.c ****    left backward max, right forward max, right backward max.
 113:..\source/calpid.c ****    Resutling velocity must be in m/s.
 114:..\source/calpid.c ****  */
 115:..\source/calpid.c **** {
  30              		.loc 1 115 0
  31              		.cfi_startproc
  32              		@ args = 0, pretend = 0, frame = 0
  33              		@ frame_needed = 0, uses_anonymous_args = 0
  34 0000 38B5     		push	{r3, r4, r5, lr}
  35              		.cfi_def_cfa_offset 16
  36              		.cfi_offset 3, -16
  37              		.cfi_offset 4, -12
  38              		.cfi_offset 5, -8
  39              		.cfi_offset 14, -4
 116:..\source/calpid.c ****     static int32 left_fwd_max;
 117:..\source/calpid.c ****     static int32 left_bwd_max;
 118:..\source/calpid.c ****     static int32 right_fwd_max;
 119:..\source/calpid.c ****     static int32 right_bwd_max;
 120:..\source/calpid.c ****     static int32 left_max;
 121:..\source/calpid.c ****     static int32 right_max;
 122:..\source/calpid.c ****     static int32 max_cps;
 123:..\source/calpid.c ****     static float mps;
 124:..\source/calpid.c **** 
 125:..\source/calpid.c ****     left_fwd_max = abs(p_cal_eeprom->left_motor_fwd.cps_max/p_cal_eeprom->left_motor_fwd.cps_scale)
  40              		.loc 1 125 0
  41 0002 434B     		ldr	r3, .L11+16
  42 0004 1B68     		ldr	r3, [r3]
  43 0006 DA6C     		ldr	r2, [r3, #76]
  44 0008 196D     		ldr	r1, [r3, #80]
  45 000a 92FBF1F2 		sdiv	r2, r2, r1
  46 000e 002A     		cmp	r2, #0
ARM GAS  C:\Users\tslator\AppData\Local\Temp\ccgwGkXa.s 			page 4


  47 0010 05DA     		bge	.L2
  48              		.loc 1 125 0 is_stmt 0 discriminator 1
  49 0012 DA6C     		ldr	r2, [r3, #76]
  50 0014 5242     		negs	r2, r2
  51 0016 186D     		ldr	r0, [r3, #80]
  52 0018 92FBF0F0 		sdiv	r0, r2, r0
  53 001c 03E0     		b	.L3
  54              	.L2:
  55              		.loc 1 125 0 discriminator 2
  56 001e D86C     		ldr	r0, [r3, #76]
  57 0020 1A6D     		ldr	r2, [r3, #80]
  58 0022 90FBF2F0 		sdiv	r0, r0, r2
  59              	.L3:
  60              		.loc 1 125 0 discriminator 4
  61 0026 3B4A     		ldr	r2, .L11+20
  62 0028 1060     		str	r0, [r2]
 126:..\source/calpid.c ****     left_bwd_max = abs(p_cal_eeprom->left_motor_bwd.cps_min/p_cal_eeprom->left_motor_bwd.cps_scale)
  63              		.loc 1 126 0 is_stmt 1 discriminator 4
  64 002a D3F88821 		ldr	r2, [r3, #392]
  65 002e D3F89011 		ldr	r1, [r3, #400]
  66 0032 92FBF1F2 		sdiv	r2, r2, r1
  67 0036 002A     		cmp	r2, #0
  68 0038 07DA     		bge	.L4
  69              		.loc 1 126 0 is_stmt 0 discriminator 1
  70 003a D3F88821 		ldr	r2, [r3, #392]
  71 003e 5242     		negs	r2, r2
  72 0040 D3F89011 		ldr	r1, [r3, #400]
  73 0044 92FBF1F1 		sdiv	r1, r2, r1
  74 0048 05E0     		b	.L5
  75              	.L4:
  76              		.loc 1 126 0 discriminator 2
  77 004a D3F88811 		ldr	r1, [r3, #392]
  78 004e D3F89021 		ldr	r2, [r3, #400]
  79 0052 91FBF2F1 		sdiv	r1, r1, r2
  80              	.L5:
  81              		.loc 1 126 0 discriminator 4
  82 0056 2F4A     		ldr	r2, .L11+20
  83 0058 5160     		str	r1, [r2, #4]
 127:..\source/calpid.c ****     right_fwd_max = abs(p_cal_eeprom->right_motor_fwd.cps_max/p_cal_eeprom->right_motor_fwd.cps_sca
  84              		.loc 1 127 0 is_stmt 1 discriminator 4
  85 005a D3F8CC22 		ldr	r2, [r3, #716]
  86 005e D3F8D042 		ldr	r4, [r3, #720]
  87 0062 92FBF4F2 		sdiv	r2, r2, r4
  88 0066 002A     		cmp	r2, #0
  89 0068 07DA     		bge	.L6
  90              		.loc 1 127 0 is_stmt 0 discriminator 1
  91 006a D3F8CC52 		ldr	r5, [r3, #716]
  92 006e 6A42     		negs	r2, r5
  93 0070 D3F8D052 		ldr	r5, [r3, #720]
  94 0074 92FBF5F5 		sdiv	r5, r2, r5
  95 0078 05E0     		b	.L7
  96              	.L6:
  97              		.loc 1 127 0 discriminator 2
  98 007a D3F8CC52 		ldr	r5, [r3, #716]
  99 007e D3F8D022 		ldr	r2, [r3, #720]
 100 0082 95FBF2F5 		sdiv	r5, r5, r2
 101              	.L7:
ARM GAS  C:\Users\tslator\AppData\Local\Temp\ccgwGkXa.s 			page 5


 102              		.loc 1 127 0 discriminator 4
 103 0086 234A     		ldr	r2, .L11+20
 104 0088 9560     		str	r5, [r2, #8]
 128:..\source/calpid.c ****     right_bwd_max = abs(p_cal_eeprom->right_motor_bwd.cps_min/p_cal_eeprom->right_motor_bwd.cps_sca
 105              		.loc 1 128 0 is_stmt 1 discriminator 4
 106 008a D3F80824 		ldr	r2, [r3, #1032]
 107 008e D3F81044 		ldr	r4, [r3, #1040]
 108 0092 92FBF4F2 		sdiv	r2, r2, r4
 109 0096 002A     		cmp	r2, #0
 110 0098 07DA     		bge	.L8
 111              		.loc 1 128 0 is_stmt 0 discriminator 1
 112 009a D3F80824 		ldr	r2, [r3, #1032]
 113 009e 5242     		negs	r2, r2
 114 00a0 D3F81034 		ldr	r3, [r3, #1040]
 115 00a4 92FBF3F3 		sdiv	r3, r2, r3
 116 00a8 05E0     		b	.L9
 117              	.L8:
 118              		.loc 1 128 0 discriminator 2
 119 00aa D3F80824 		ldr	r2, [r3, #1032]
 120 00ae D3F81034 		ldr	r3, [r3, #1040]
 121 00b2 92FBF3F3 		sdiv	r3, r2, r3
 122              	.L9:
 123              		.loc 1 128 0 discriminator 4
 124 00b6 174C     		ldr	r4, .L11+20
 125 00b8 E360     		str	r3, [r4, #12]
 129:..\source/calpid.c ****     
 130:..\source/calpid.c ****     left_max = min(left_fwd_max, left_bwd_max);
 126              		.loc 1 130 0 is_stmt 1 discriminator 4
 127 00ba 0246     		mov	r2, r0
 128 00bc 8842     		cmp	r0, r1
 129 00be A8BF     		it	ge
 130 00c0 0A46     		movge	r2, r1
 131 00c2 2261     		str	r2, [r4, #16]
 131:..\source/calpid.c ****     right_max = min(right_fwd_max, right_bwd_max);
 132              		.loc 1 131 0 discriminator 4
 133 00c4 AB42     		cmp	r3, r5
 134 00c6 A8BF     		it	ge
 135 00c8 2B46     		movge	r3, r5
 136 00ca 6361     		str	r3, [r4, #20]
 132:..\source/calpid.c ****     
 133:..\source/calpid.c ****     max_cps = min(left_max, right_max);
 137              		.loc 1 133 0 discriminator 4
 138 00cc 9A42     		cmp	r2, r3
 139 00ce A8BF     		it	ge
 140 00d0 1A46     		movge	r2, r3
 141 00d2 1046     		mov	r0, r2
 142 00d4 A261     		str	r2, [r4, #24]
 134:..\source/calpid.c ****     
 135:..\source/calpid.c ****     mps = (float) max_cps * METER_PER_COUNT * STEP_VELOCITY_PERCENT;
 143              		.loc 1 135 0 discriminator 4
 144 00d6 FFF7FEFF 		bl	__aeabi_i2f
 145              	.LVL0:
 146 00da FFF7FEFF 		bl	__aeabi_f2d
 147              	.LVL1:
 148 00de 08A3     		adr	r3, .L11
 149 00e0 D3E90023 		ldrd	r2, [r3]
 150 00e4 FFF7FEFF 		bl	__aeabi_dmul
ARM GAS  C:\Users\tslator\AppData\Local\Temp\ccgwGkXa.s 			page 6


 151              	.LVL2:
 152 00e8 07A3     		adr	r3, .L11+8
 153 00ea D3E90023 		ldrd	r2, [r3]
 154 00ee FFF7FEFF 		bl	__aeabi_dmul
 155              	.LVL3:
 156 00f2 FFF7FEFF 		bl	__aeabi_d2f
 157              	.LVL4:
 158 00f6 E061     		str	r0, [r4, #28]	@ float
 136:..\source/calpid.c ****     
 137:..\source/calpid.c ****     return mps;
 138:..\source/calpid.c **** }
 159              		.loc 1 138 0 discriminator 4
 160 00f8 38BD     		pop	{r3, r4, r5, pc}
 161              	.L12:
 162 00fa 00BFAFF3 		.align	3
 162      0080
 163              	.L11:
 164 0100 4C2438F2 		.word	-231201716
 165 0104 92602F3F 		.word	1060069522
 166 0108 9A999999 		.word	-1717986918
 167 010c 9999C93F 		.word	1070176665
 168 0110 00000000 		.word	p_cal_eeprom
 169 0114 00000000 		.word	.LANCHOR0
 170              		.cfi_endproc
 171              	.LFE65:
 172              		.size	GetStepVelocity, .-GetStepVelocity
 173              		.section	.text.ResetPidValidationVelocity,"ax",%progbits
 174              		.align	2
 175              		.thumb
 176              		.thumb_func
 177              		.type	ResetPidValidationVelocity, %function
 178              	ResetPidValidationVelocity:
 179              	.LFB66:
 139:..\source/calpid.c **** 
 140:..\source/calpid.c **** /*-------------------------------------------------------------------------------------------------
 141:..\source/calpid.c ****  * Name: ResetPidValidationVelocity
 142:..\source/calpid.c ****  * Description: Resets the index for the validation velocities. 
 143:..\source/calpid.c ****  * Parameters: None
 144:..\source/calpid.c ****  * Return: float - velocity (meter/second)
 145:..\source/calpid.c ****  * 
 146:..\source/calpid.c ****  *-------------------------------------------------------------------------------------------------
 147:..\source/calpid.c **** static void ResetPidValidationVelocity()
 148:..\source/calpid.c **** {
 180              		.loc 1 148 0
 181              		.cfi_startproc
 182              		@ args = 0, pretend = 0, frame = 0
 183              		@ frame_needed = 0, uses_anonymous_args = 0
 184              		@ link register save eliminated.
 149:..\source/calpid.c ****     vel_index = 0;
 185              		.loc 1 149 0
 186 0000 0022     		movs	r2, #0
 187 0002 024B     		ldr	r3, .L14
 188 0004 83F82020 		strb	r2, [r3, #32]
 189 0008 7047     		bx	lr
 190              	.L15:
 191 000a 00BF     		.align	2
 192              	.L14:
ARM GAS  C:\Users\tslator\AppData\Local\Temp\ccgwGkXa.s 			page 7


 193 000c 00000000 		.word	.LANCHOR0
 194              		.cfi_endproc
 195              	.LFE66:
 196              		.size	ResetPidValidationVelocity, .-ResetPidValidationVelocity
 197              		.section	.text.GetNextValidationVelocity,"ax",%progbits
 198              		.align	2
 199              		.thumb
 200              		.thumb_func
 201              		.type	GetNextValidationVelocity, %function
 202              	GetNextValidationVelocity:
 203              	.LFB67:
 150:..\source/calpid.c **** }
 151:..\source/calpid.c **** 
 152:..\source/calpid.c **** /*-------------------------------------------------------------------------------------------------
 153:..\source/calpid.c ****  * Name: GetNextValidationVelocity
 154:..\source/calpid.c ****  * Description: Returns the next validation velocity from the array. 
 155:..\source/calpid.c ****  * Parameters: dir - specifies whether the validation is in the forward or backward direction
 156:..\source/calpid.c ****  * Return: float - velocity (meter/second)
 157:..\source/calpid.c ****  * 
 158:..\source/calpid.c ****  *-------------------------------------------------------------------------------------------------
 159:..\source/calpid.c **** static float GetNextValidationVelocity(DIR_TYPE dir)
 160:..\source/calpid.c **** {
 204              		.loc 1 160 0
 205              		.cfi_startproc
 206              		@ args = 0, pretend = 0, frame = 0
 207              		@ frame_needed = 0, uses_anonymous_args = 0
 208              		@ link register save eliminated.
 209              	.LVL5:
 161:..\source/calpid.c ****     float value;
 162:..\source/calpid.c **** 
 163:..\source/calpid.c ****     switch( dir )
 210              		.loc 1 163 0
 211 0000 10B1     		cbz	r0, .L18
 212 0002 0128     		cmp	r0, #1
 213 0004 07D0     		beq	.L19
 214 0006 0FE0     		b	.L21
 215              	.L18:
 164:..\source/calpid.c ****     {
 165:..\source/calpid.c ****         case DIR_FORWARD:
 166:..\source/calpid.c ****             value = velocities[vel_index];
 216              		.loc 1 166 0
 217 0008 0B4B     		ldr	r3, .L22
 218 000a 93F82020 		ldrb	r2, [r3, #32]	@ zero_extendqisi2
 219 000e 0B4B     		ldr	r3, .L22+4
 220 0010 53F82200 		ldr	r0, [r3, r2, lsl #2]	@ float
 221              	.LVL6:
 167:..\source/calpid.c ****             break;
 222              		.loc 1 167 0
 223 0014 09E0     		b	.L17
 224              	.LVL7:
 225              	.L19:
 168:..\source/calpid.c ****     
 169:..\source/calpid.c ****         case DIR_BACKWARD:
 170:..\source/calpid.c ****             value = -velocities[vel_index];
 226              		.loc 1 170 0
 227 0016 084B     		ldr	r3, .L22
 228 0018 93F82020 		ldrb	r2, [r3, #32]	@ zero_extendqisi2
ARM GAS  C:\Users\tslator\AppData\Local\Temp\ccgwGkXa.s 			page 8


 229 001c 074B     		ldr	r3, .L22+4
 230 001e 53F82200 		ldr	r0, [r3, r2, lsl #2]	@ float
 231              	.LVL8:
 232 0022 00F10040 		add	r0, r0, #-2147483648
 233              	.LVL9:
 171:..\source/calpid.c ****             break;
 234              		.loc 1 171 0
 235 0026 00E0     		b	.L17
 236              	.LVL10:
 237              	.L21:
 172:..\source/calpid.c **** 
 173:..\source/calpid.c ****         default:
 174:..\source/calpid.c ****             value = 0;
 238              		.loc 1 174 0
 239 0028 0020     		movs	r0, #0
 240              	.LVL11:
 241              	.L17:
 175:..\source/calpid.c ****             break;
 176:..\source/calpid.c ****     }
 177:..\source/calpid.c **** 
 178:..\source/calpid.c ****     vel_index++;
 242              		.loc 1 178 0
 243 002a 034A     		ldr	r2, .L22
 244 002c 92F82030 		ldrb	r3, [r2, #32]	@ zero_extendqisi2
 245 0030 0133     		adds	r3, r3, #1
 246 0032 82F82030 		strb	r3, [r2, #32]
 179:..\source/calpid.c **** 
 180:..\source/calpid.c ****     return value;
 181:..\source/calpid.c **** }
 247              		.loc 1 181 0
 248 0036 7047     		bx	lr
 249              	.L23:
 250              		.align	2
 251              	.L22:
 252 0038 00000000 		.word	.LANCHOR0
 253 003c 00000000 		.word	.LANCHOR1
 254              		.cfi_endproc
 255              	.LFE67:
 256              		.size	GetNextValidationVelocity, .-GetNextValidationVelocity
 257              		.section	.text.Results,"ax",%progbits
 258              		.align	2
 259              		.thumb
 260              		.thumb_func
 261              		.type	Results, %function
 262              	Results:
 263              	.LFB73:
 182:..\source/calpid.c **** 
 183:..\source/calpid.c **** /*-------------------------------------------------------------------------------------------------
 184:..\source/calpid.c ****  * Name: SetNextValidationVelocity
 185:..\source/calpid.c ****  * Description: Gets and sets the next validation velocity.
 186:..\source/calpid.c ****  * Parameters: p_pid_params - pointer to PID params
 187:..\source/calpid.c ****  * Return: 0 if all the velocities have been used; otherwise 1.
 188:..\source/calpid.c ****  * 
 189:..\source/calpid.c ****  *-------------------------------------------------------------------------------------------------
 190:..\source/calpid.c **** static uint8 SetNextValidationVelocity(CAL_PID_PARAMS *p_pid_params)
 191:..\source/calpid.c **** {
 192:..\source/calpid.c ****     char velocity_str[10];
ARM GAS  C:\Users\tslator\AppData\Local\Temp\ccgwGkXa.s 			page 9


 193:..\source/calpid.c ****     char outbuf[64];
 194:..\source/calpid.c ****     
 195:..\source/calpid.c ****     float velocity = GetNextValidationVelocity(p_pid_params->direction);
 196:..\source/calpid.c ****     switch (p_pid_params->pid_type)
 197:..\source/calpid.c ****     {
 198:..\source/calpid.c ****         case PID_TYPE_LEFT:
 199:..\source/calpid.c ****             Cal_SetLeftRightVelocity(velocity, 0);
 200:..\source/calpid.c ****             break;
 201:..\source/calpid.c **** 
 202:..\source/calpid.c ****         case PID_TYPE_RIGHT:
 203:..\source/calpid.c ****             Cal_SetLeftRightVelocity(0, velocity);
 204:..\source/calpid.c ****             break;
 205:..\source/calpid.c ****     }
 206:..\source/calpid.c ****     
 207:..\source/calpid.c ****     ftoa(velocity, velocity_str, 3);
 208:..\source/calpid.c ****     sprintf(outbuf, "Speed: %s\r\n", velocity_str);
 209:..\source/calpid.c ****     Ser_PutString(outbuf);
 210:..\source/calpid.c ****     
 211:..\source/calpid.c ****     return vel_index < MAX_NUM_VELOCITIES ? 1 : 0;
 212:..\source/calpid.c **** }
 213:..\source/calpid.c **** 
 214:..\source/calpid.c **** /*-------------------------------------------------------------------------------------------------
 215:..\source/calpid.c ****  * Calibration Interface Routines
 216:..\source/calpid.c ****  *-------------------------------------------------------------------------------------------------
 217:..\source/calpid.c **** 
 218:..\source/calpid.c **** /*-------------------------------------------------------------------------------------------------
 219:..\source/calpid.c ****  * Name: Init
 220:..\source/calpid.c ****  * Description: Calibration/Validation interface Init function.  Performs initialization for Linear
 221:..\source/calpid.c ****  *              Validation.
 222:..\source/calpid.c ****  * Parameters: stage - the calibration/validation stage 
 223:..\source/calpid.c ****  *             params - PID calibration/validation parameters, e.g. direction, run time, etc. 
 224:..\source/calpid.c ****  * Return: uint8 - CAL_OK
 225:..\source/calpid.c ****  * 
 226:..\source/calpid.c ****  *-------------------------------------------------------------------------------------------------
 227:..\source/calpid.c **** static uint8 Init(CAL_STAGE_TYPE stage, void *params)
 228:..\source/calpid.c **** {
 229:..\source/calpid.c ****     CAL_PID_PARAMS *p_pid_params = (CAL_PID_PARAMS *)params;
 230:..\source/calpid.c ****     char banner[64];
 231:..\source/calpid.c ****     
 232:..\source/calpid.c ****     
 233:..\source/calpid.c ****     switch (stage)
 234:..\source/calpid.c ****     {
 235:..\source/calpid.c ****         case CAL_CALIBRATE_STAGE:
 236:..\source/calpid.c ****             sprintf(banner, "\r\n%s PID calibration\r\n", p_pid_params->name);
 237:..\source/calpid.c ****             Ser_PutString(banner);
 238:..\source/calpid.c ****             Cal_SetLeftRightVelocity(0, 0);
 239:..\source/calpid.c ****             Pid_SetLeftRightTarget(Cal_LeftTarget, Cal_RightTarget);
 240:..\source/calpid.c **** 
 241:..\source/calpid.c ****             old_debug_control_enabled = debug_control_enabled;
 242:..\source/calpid.c **** 
 243:..\source/calpid.c ****             switch (p_pid_params->pid_type)
 244:..\source/calpid.c ****             {
 245:..\source/calpid.c ****                 case PID_TYPE_LEFT:
 246:..\source/calpid.c ****                     debug_control_enabled = DEBUG_LEFT_PID_ENABLE_BIT;// | DEBUG_LEFT_ENCODER_ENABL
 247:..\source/calpid.c ****                     break;
 248:..\source/calpid.c ****                     
 249:..\source/calpid.c ****                 case PID_TYPE_RIGHT:
ARM GAS  C:\Users\tslator\AppData\Local\Temp\ccgwGkXa.s 			page 10


 250:..\source/calpid.c ****                     debug_control_enabled = DEBUG_RIGHT_PID_ENABLE_BIT;// | DEBUG_RIGHT_ENCODER_ENA
 251:..\source/calpid.c ****                     break;
 252:..\source/calpid.c ****             }        
 253:..\source/calpid.c ****             break;
 254:..\source/calpid.c ****             
 255:..\source/calpid.c ****         case CAL_VALIDATE_STAGE:
 256:..\source/calpid.c ****             sprintf(banner, "\r\n%s PID validation\r\n", p_pid_params->name);
 257:..\source/calpid.c ****             Ser_PutString(banner);
 258:..\source/calpid.c ****             
 259:..\source/calpid.c ****             old_debug_control_enabled = debug_control_enabled;
 260:..\source/calpid.c ****             
 261:..\source/calpid.c ****             Cal_SetLeftRightVelocity(0, 0);
 262:..\source/calpid.c ****             Pid_SetLeftRightTarget(Cal_LeftTarget, Cal_RightTarget);
 263:..\source/calpid.c ****             ResetPidValidationVelocity();
 264:..\source/calpid.c **** 
 265:..\source/calpid.c ****             switch (p_pid_params->pid_type)
 266:..\source/calpid.c ****             {
 267:..\source/calpid.c ****                 case PID_TYPE_LEFT:
 268:..\source/calpid.c ****                     debug_control_enabled = DEBUG_LEFT_PID_ENABLE_BIT | DEBUG_LEFT_ENCODER_ENABLE_B
 269:..\source/calpid.c ****                     break;
 270:..\source/calpid.c ****                 
 271:..\source/calpid.c ****                 case PID_TYPE_RIGHT:
 272:..\source/calpid.c ****                     debug_control_enabled = DEBUG_RIGHT_PID_ENABLE_BIT | DEBUG_RIGHT_ENCODER_ENABLE
 273:..\source/calpid.c ****                     break;
 274:..\source/calpid.c ****             }
 275:..\source/calpid.c ****             break;
 276:..\source/calpid.c ****     }
 277:..\source/calpid.c ****     return CAL_OK;
 278:..\source/calpid.c **** }
 279:..\source/calpid.c **** 
 280:..\source/calpid.c **** /*-------------------------------------------------------------------------------------------------
 281:..\source/calpid.c ****  * Name: Start
 282:..\source/calpid.c ****  * Description: Calibration/Validation interface Start function.  Starts PID Calibration/Validation
 283:..\source/calpid.c ****  * Parameters: stage - the calibration/validation stage 
 284:..\source/calpid.c ****  *             params - PID validation parameters. 
 285:..\source/calpid.c ****  * Return: uint8 - CAL_OK
 286:..\source/calpid.c ****  * 
 287:..\source/calpid.c ****  *-------------------------------------------------------------------------------------------------
 288:..\source/calpid.c **** static uint8 Start(CAL_STAGE_TYPE stage, void *params)
 289:..\source/calpid.c **** {
 290:..\source/calpid.c ****     float gains[3];       
 291:..\source/calpid.c ****     CAL_PID_PARAMS *p_pid_params = (CAL_PID_PARAMS *) params;
 292:..\source/calpid.c ****     
 293:..\source/calpid.c ****     switch (stage)
 294:..\source/calpid.c ****     {
 295:..\source/calpid.c ****         case CAL_CALIBRATE_STAGE:
 296:..\source/calpid.c ****             Ser_PutString("\r\nEnter proportional gain: ");
 297:..\source/calpid.c ****             gains[0] = Cal_ReadResponse();
 298:..\source/calpid.c ****             Ser_PutString("\r\nEnter integral gain: ");
 299:..\source/calpid.c ****             gains[1] = Cal_ReadResponse();
 300:..\source/calpid.c ****             Ser_PutString("\r\nEnter derivative gain: ");
 301:..\source/calpid.c ****             gains[2] = Cal_ReadResponse();
 302:..\source/calpid.c ****             Ser_PutString("\r\n");
 303:..\source/calpid.c ****             
 304:..\source/calpid.c ****             Pid_Enable(TRUE);            
 305:..\source/calpid.c ****             Encoder_Reset();
 306:..\source/calpid.c ****             Pid_Reset();
ARM GAS  C:\Users\tslator\AppData\Local\Temp\ccgwGkXa.s 			page 11


 307:..\source/calpid.c ****             Odom_Reset();
 308:..\source/calpid.c ****             
 309:..\source/calpid.c ****             float step_velocity = GetStepVelocity();
 310:..\source/calpid.c **** 
 311:..\source/calpid.c ****             switch (p_pid_params->pid_type)
 312:..\source/calpid.c ****             {
 313:..\source/calpid.c ****                 case PID_TYPE_LEFT:
 314:..\source/calpid.c ****                     Pid_LeftSetGains(gains[0], gains[1], gains[2]);
 315:..\source/calpid.c ****                     Cal_SetLeftRightVelocity(step_velocity, 0);
 316:..\source/calpid.c ****                     break;
 317:..\source/calpid.c ****                     
 318:..\source/calpid.c ****                 case PID_TYPE_RIGHT:
 319:..\source/calpid.c ****                     Pid_RightSetGains(gains[0], gains[1], gains[2]);
 320:..\source/calpid.c ****                     Cal_SetLeftRightVelocity(0, step_velocity);
 321:..\source/calpid.c ****                     break;                    
 322:..\source/calpid.c ****             }
 323:..\source/calpid.c ****                     
 324:..\source/calpid.c ****             Ser_PutString("\r\nCalibrating ");
 325:..\source/calpid.c ****             Ser_PutString("\r\n");
 326:..\source/calpid.c ****             start_time = millis();
 327:..\source/calpid.c ****             
 328:..\source/calpid.c ****             break;
 329:..\source/calpid.c **** 
 330:..\source/calpid.c ****             
 331:..\source/calpid.c ****         case CAL_VALIDATE_STAGE:
 332:..\source/calpid.c ****             Pid_Enable(TRUE);            
 333:..\source/calpid.c ****             Encoder_Reset();
 334:..\source/calpid.c ****             Pid_Reset();
 335:..\source/calpid.c ****             Odom_Reset();
 336:..\source/calpid.c **** 
 337:..\source/calpid.c ****             Ser_PutString("\r\nValidating ");
 338:..\source/calpid.c ****             Ser_PutString("\r\n");
 339:..\source/calpid.c ****             start_time = millis();
 340:..\source/calpid.c ****             
 341:..\source/calpid.c ****             SetNextValidationVelocity(p_pid_params);
 342:..\source/calpid.c **** 
 343:..\source/calpid.c ****             break;
 344:..\source/calpid.c **** 
 345:..\source/calpid.c ****     }
 346:..\source/calpid.c **** 
 347:..\source/calpid.c ****     return CAL_OK;
 348:..\source/calpid.c **** }
 349:..\source/calpid.c **** 
 350:..\source/calpid.c **** /*-------------------------------------------------------------------------------------------------
 351:..\source/calpid.c ****  * Name: Update
 352:..\source/calpid.c ****  * Description: Calibration/Validation interface Update function.  Called periodically to evaluate 
 353:..\source/calpid.c ****  *              the termination condition.
 354:..\source/calpid.c ****  * Parameters: stage - the calibration/validation stage 
 355:..\source/calpid.c ****  *             params - PID calibration/validation parameters, e.g. direction, run time, etc. 
 356:..\source/calpid.c ****  * Return: uint8 - CAL_OK, CAL_COMPLETE
 357:..\source/calpid.c ****  * 
 358:..\source/calpid.c ****  *-------------------------------------------------------------------------------------------------
 359:..\source/calpid.c **** static uint8 Update(CAL_STAGE_TYPE stage, void *params)
 360:..\source/calpid.c **** {
 361:..\source/calpid.c ****     CAL_PID_PARAMS * p_pid_params = (CAL_PID_PARAMS *) params;
 362:..\source/calpid.c ****         
 363:..\source/calpid.c ****     switch (stage)
ARM GAS  C:\Users\tslator\AppData\Local\Temp\ccgwGkXa.s 			page 12


 364:..\source/calpid.c ****     {
 365:..\source/calpid.c ****         case CAL_CALIBRATE_STAGE:
 366:..\source/calpid.c **** 
 367:..\source/calpid.c ****             if (millis() - start_time < p_pid_params->run_time)
 368:..\source/calpid.c ****             {
 369:..\source/calpid.c ****                 return CAL_OK;
 370:..\source/calpid.c ****             }
 371:..\source/calpid.c ****             break;
 372:..\source/calpid.c **** 
 373:..\source/calpid.c ****         case CAL_VALIDATE_STAGE:
 374:..\source/calpid.c ****             /* Assume we have an array of validation velocities that we want to run through.
 375:..\source/calpid.c ****                We would use update to measure the time and advance through the array
 376:..\source/calpid.c ****              */
 377:..\source/calpid.c ****             if (millis() - start_time < p_pid_params->run_time)
 378:..\source/calpid.c ****             {
 379:..\source/calpid.c ****                 return CAL_OK;    
 380:..\source/calpid.c ****             }
 381:..\source/calpid.c ****             start_time = millis();
 382:..\source/calpid.c ****             uint8 result = SetNextValidationVelocity(p_pid_params);
 383:..\source/calpid.c ****             if (!result)
 384:..\source/calpid.c ****             {
 385:..\source/calpid.c ****                 return CAL_COMPLETE;
 386:..\source/calpid.c ****             }
 387:..\source/calpid.c ****             
 388:..\source/calpid.c ****             return CAL_OK;
 389:..\source/calpid.c ****             break;
 390:..\source/calpid.c ****     }
 391:..\source/calpid.c **** 
 392:..\source/calpid.c ****     return CAL_COMPLETE;
 393:..\source/calpid.c **** }
 394:..\source/calpid.c **** 
 395:..\source/calpid.c **** /*-------------------------------------------------------------------------------------------------
 396:..\source/calpid.c ****  * Name: Stop
 397:..\source/calpid.c ****  * Description: Calibration/Validation interface Stop function.  Called to stop validation.
 398:..\source/calpid.c ****  * Parameters: stage - the calibration/validation stage 
 399:..\source/calpid.c ****  *             params - PID calibration/validation parameters, e.g. direction, run time, etc. 
 400:..\source/calpid.c ****  * Return: uint8 - CAL_OK
 401:..\source/calpid.c ****  * 
 402:..\source/calpid.c ****  *-------------------------------------------------------------------------------------------------
 403:..\source/calpid.c **** static uint8 Stop(CAL_STAGE_TYPE stage, void *params)
 404:..\source/calpid.c **** {
 405:..\source/calpid.c ****     char output[64];
 406:..\source/calpid.c ****     CAL_PID_PARAMS *p_pid_params = (CAL_PID_PARAMS *)params;
 407:..\source/calpid.c ****     float gains[3];
 408:..\source/calpid.c **** 
 409:..\source/calpid.c ****     Cal_SetLeftRightVelocity(0, 0);
 410:..\source/calpid.c **** 
 411:..\source/calpid.c ****     switch (stage)
 412:..\source/calpid.c ****     {
 413:..\source/calpid.c ****         case CAL_CALIBRATE_STAGE:
 414:..\source/calpid.c **** 
 415:..\source/calpid.c ****             switch (p_pid_params->pid_type)
 416:..\source/calpid.c ****             {
 417:..\source/calpid.c ****                 case PID_TYPE_LEFT:
 418:..\source/calpid.c ****                     Pid_LeftGetGains(&gains[0], &gains[1], &gains[2]);
 419:..\source/calpid.c ****                     StoreLeftGains(gains);
 420:..\source/calpid.c ****                     break;
ARM GAS  C:\Users\tslator\AppData\Local\Temp\ccgwGkXa.s 			page 13


 421:..\source/calpid.c ****                     
 422:..\source/calpid.c ****                 case PID_TYPE_RIGHT:
 423:..\source/calpid.c ****                     Pid_RightGetGains(&gains[0], &gains[1], &gains[2]);
 424:..\source/calpid.c ****                     StoreRightGains(gains);
 425:..\source/calpid.c ****                     break;
 426:..\source/calpid.c ****             }
 427:..\source/calpid.c **** 
 428:..\source/calpid.c ****             Pid_RestoreLeftRightTarget();
 429:..\source/calpid.c ****             sprintf(output, "\r\n%s PID calibration complete\r\n", p_pid_params->name);
 430:..\source/calpid.c ****             Ser_PutString(output);
 431:..\source/calpid.c ****             break;
 432:..\source/calpid.c ****             
 433:..\source/calpid.c ****         case CAL_VALIDATE_STAGE:
 434:..\source/calpid.c ****             sprintf(output, "\r\n%s PID validation complete\r\n", p_pid_params->name);
 435:..\source/calpid.c ****             Ser_PutString(output);
 436:..\source/calpid.c ****             break;
 437:..\source/calpid.c ****     }
 438:..\source/calpid.c ****             
 439:..\source/calpid.c ****     debug_control_enabled = old_debug_control_enabled;    
 440:..\source/calpid.c **** 
 441:..\source/calpid.c ****     return CAL_OK;
 442:..\source/calpid.c **** }
 443:..\source/calpid.c **** 
 444:..\source/calpid.c **** /*-------------------------------------------------------------------------------------------------
 445:..\source/calpid.c ****  * Name: Results
 446:..\source/calpid.c ****  * Description: Calibration/Validation interface Results function.  Called to display calibration/ 
 447:..\source/calpid.c ****  *              validation results. 
 448:..\source/calpid.c ****  * Parameters: stage - the calibration/validation stage 
 449:..\source/calpid.c ****  *             params - PID calibration/validation parameters, e.g. direction, run time, etc. 
 450:..\source/calpid.c ****  * Return: uint8 - CAL_OK
 451:..\source/calpid.c ****  * 
 452:..\source/calpid.c ****  *-------------------------------------------------------------------------------------------------
 453:..\source/calpid.c **** static uint8 Results(CAL_STAGE_TYPE stage, void *params)
 454:..\source/calpid.c **** {
 264              		.loc 1 454 0
 265              		.cfi_startproc
 266              		@ args = 0, pretend = 0, frame = 16
 267              		@ frame_needed = 0, uses_anonymous_args = 0
 268              	.LVL12:
 269 0000 10B5     		push	{r4, lr}
 270              		.cfi_def_cfa_offset 8
 271              		.cfi_offset 4, -8
 272              		.cfi_offset 14, -4
 273 0002 84B0     		sub	sp, sp, #16
 274              		.cfi_def_cfa_offset 24
 275              	.LVL13:
 455:..\source/calpid.c ****     float gains[3];
 456:..\source/calpid.c ****     CAL_PID_PARAMS *p_pid_params = (CAL_PID_PARAMS *)params;
 457:..\source/calpid.c ****     
 458:..\source/calpid.c ****     switch (stage)
 276              		.loc 1 458 0
 277 0004 10B1     		cbz	r0, .L26
 278 0006 0128     		cmp	r0, #1
 279 0008 1DD0     		beq	.L27
 280 000a 1FE0     		b	.L25
 281              	.L26:
 282 000c 0C46     		mov	r4, r1
ARM GAS  C:\Users\tslator\AppData\Local\Temp\ccgwGkXa.s 			page 14


 283              	.LVL14:
 459:..\source/calpid.c ****     {
 460:..\source/calpid.c ****         case CAL_CALIBRATE_STAGE:
 461:..\source/calpid.c **** 
 462:..\source/calpid.c ****             Ser_PutString("\r\nPrinting PID calibration results\r\n");
 284              		.loc 1 462 0
 285 000e 1148     		ldr	r0, .L31
 286              	.LVL15:
 287 0010 FFF7FEFF 		bl	Ser_PutString
 288              	.LVL16:
 463:..\source/calpid.c ****     
 464:..\source/calpid.c ****             switch (p_pid_params->pid_type)
 289              		.loc 1 464 0
 290 0014 A379     		ldrb	r3, [r4, #6]	@ zero_extendqisi2
 291 0016 13B1     		cbz	r3, .L28
 292 0018 012B     		cmp	r3, #1
 293 001a 0AD0     		beq	.L29
 294 001c 16E0     		b	.L25
 295              	.L28:
 465:..\source/calpid.c ****             {
 466:..\source/calpid.c ****                 case PID_TYPE_LEFT:
 467:..\source/calpid.c ****                     Pid_LeftGetGains(&gains[0], &gains[1], &gains[2]);
 296              		.loc 1 467 0
 297 001e 01A8     		add	r0, sp, #4
 298 0020 02A9     		add	r1, sp, #8
 299 0022 03AA     		add	r2, sp, #12
 300 0024 FFF7FEFF 		bl	Pid_LeftGetGains
 301              	.LVL17:
 468:..\source/calpid.c ****                     Cal_PrintGains("Left PID", gains);
 302              		.loc 1 468 0
 303 0028 0B48     		ldr	r0, .L31+4
 304 002a 01A9     		add	r1, sp, #4
 305 002c FFF7FEFF 		bl	Cal_PrintGains
 306              	.LVL18:
 469:..\source/calpid.c ****                     break;
 307              		.loc 1 469 0
 308 0030 0CE0     		b	.L25
 309              	.L29:
 470:..\source/calpid.c ****                 
 471:..\source/calpid.c ****                 case PID_TYPE_RIGHT:
 472:..\source/calpid.c ****                     Pid_RightGetGains(&gains[0], &gains[1], &gains[2]);
 310              		.loc 1 472 0
 311 0032 01A8     		add	r0, sp, #4
 312 0034 02A9     		add	r1, sp, #8
 313 0036 03AA     		add	r2, sp, #12
 314 0038 FFF7FEFF 		bl	Pid_RightGetGains
 315              	.LVL19:
 473:..\source/calpid.c ****                     Cal_PrintGains("Right PID", gains);
 316              		.loc 1 473 0
 317 003c 0748     		ldr	r0, .L31+8
 318 003e 01A9     		add	r1, sp, #4
 319 0040 FFF7FEFF 		bl	Cal_PrintGains
 320              	.LVL20:
 474:..\source/calpid.c ****                     break;
 321              		.loc 1 474 0
 322 0044 02E0     		b	.L25
 323              	.LVL21:
ARM GAS  C:\Users\tslator\AppData\Local\Temp\ccgwGkXa.s 			page 15


 324              	.L27:
 475:..\source/calpid.c ****             }
 476:..\source/calpid.c ****             break;
 477:..\source/calpid.c ****             
 478:..\source/calpid.c ****         case CAL_VALIDATE_STAGE:
 479:..\source/calpid.c ****             Ser_PutString("\r\nPrinting PID validation results\r\n");
 325              		.loc 1 479 0
 326 0046 0648     		ldr	r0, .L31+12
 327              	.LVL22:
 328 0048 FFF7FEFF 		bl	Ser_PutString
 329              	.LVL23:
 330              	.L25:
 480:..\source/calpid.c ****             break;
 481:..\source/calpid.c ****     }
 482:..\source/calpid.c ****         
 483:..\source/calpid.c ****     return CAL_OK;
 484:..\source/calpid.c **** }
 331              		.loc 1 484 0
 332 004c 0020     		movs	r0, #0
 333 004e 04B0     		add	sp, sp, #16
 334              		.cfi_def_cfa_offset 8
 335              		@ sp needed
 336 0050 10BD     		pop	{r4, pc}
 337              	.L32:
 338 0052 00BF     		.align	2
 339              	.L31:
 340 0054 00000000 		.word	.LC0
 341 0058 28000000 		.word	.LC1
 342 005c 34000000 		.word	.LC2
 343 0060 40000000 		.word	.LC3
 344              		.cfi_endproc
 345              	.LFE73:
 346              		.size	Results, .-Results
 347              		.section	.text.StoreLeftGains,"ax",%progbits
 348              		.align	2
 349              		.thumb
 350              		.thumb_func
 351              		.type	StoreLeftGains, %function
 352              	StoreLeftGains:
 353              	.LFB63:
  89:..\source/calpid.c ****     Nvstore_WriteFloat(gains[0], (uint16) NVSTORE_CAL_EEPROM_ADDR_TO_OFFSET(&p_cal_eeprom->left_gai
 354              		.loc 1 89 0
 355              		.cfi_startproc
 356              		@ args = 0, pretend = 0, frame = 0
 357              		@ frame_needed = 0, uses_anonymous_args = 0
 358              	.LVL24:
 359 0000 38B5     		push	{r3, r4, r5, lr}
 360              		.cfi_def_cfa_offset 16
 361              		.cfi_offset 3, -16
 362              		.cfi_offset 4, -12
 363              		.cfi_offset 5, -8
 364              		.cfi_offset 14, -4
 365 0002 0446     		mov	r4, r0
  90:..\source/calpid.c ****     Nvstore_WriteFloat(gains[1], (uint16) NVSTORE_CAL_EEPROM_ADDR_TO_OFFSET(&p_cal_eeprom->left_gai
 366              		.loc 1 90 0
 367 0004 0C4D     		ldr	r5, .L35
 368 0006 2968     		ldr	r1, [r5]
ARM GAS  C:\Users\tslator\AppData\Local\Temp\ccgwGkXa.s 			page 16


 369 0008 A1F5FF41 		sub	r1, r1, #32640
 370 000c 7839     		subs	r1, r1, #120
 371 000e 0068     		ldr	r0, [r0]	@ float
 372              	.LVL25:
 373 0010 89B2     		uxth	r1, r1
 374 0012 FFF7FEFF 		bl	Nvstore_WriteFloat
 375              	.LVL26:
  91:..\source/calpid.c ****     Nvstore_WriteFloat(gains[2], (uint16) NVSTORE_CAL_EEPROM_ADDR_TO_OFFSET(&p_cal_eeprom->left_gai
 376              		.loc 1 91 0
 377 0016 2968     		ldr	r1, [r5]
 378 0018 A1F5FF41 		sub	r1, r1, #32640
 379 001c 7439     		subs	r1, r1, #116
 380 001e 6068     		ldr	r0, [r4, #4]	@ float
 381 0020 89B2     		uxth	r1, r1
 382 0022 FFF7FEFF 		bl	Nvstore_WriteFloat
 383              	.LVL27:
  92:..\source/calpid.c **** }
 384              		.loc 1 92 0
 385 0026 2968     		ldr	r1, [r5]
 386 0028 A1F5FF41 		sub	r1, r1, #32640
 387 002c 7039     		subs	r1, r1, #112
 388 002e A068     		ldr	r0, [r4, #8]	@ float
 389 0030 89B2     		uxth	r1, r1
 390 0032 FFF7FEFF 		bl	Nvstore_WriteFloat
 391              	.LVL28:
 392 0036 38BD     		pop	{r3, r4, r5, pc}
 393              	.LVL29:
 394              	.L36:
 395              		.align	2
 396              	.L35:
 397 0038 00000000 		.word	p_cal_eeprom
 398              		.cfi_endproc
 399              	.LFE63:
 400              		.size	StoreLeftGains, .-StoreLeftGains
 401              		.section	.text.StoreRightGains,"ax",%progbits
 402              		.align	2
 403              		.thumb
 404              		.thumb_func
 405              		.type	StoreRightGains, %function
 406              	StoreRightGains:
 407              	.LFB64:
  96:..\source/calpid.c ****     Nvstore_WriteFloat(gains[0], (uint16) NVSTORE_CAL_EEPROM_ADDR_TO_OFFSET(&p_cal_eeprom->right_ga
 408              		.loc 1 96 0
 409              		.cfi_startproc
 410              		@ args = 0, pretend = 0, frame = 0
 411              		@ frame_needed = 0, uses_anonymous_args = 0
 412              	.LVL30:
 413 0000 38B5     		push	{r3, r4, r5, lr}
 414              		.cfi_def_cfa_offset 16
 415              		.cfi_offset 3, -16
 416              		.cfi_offset 4, -12
 417              		.cfi_offset 5, -8
 418              		.cfi_offset 14, -4
 419 0002 0446     		mov	r4, r0
  97:..\source/calpid.c ****     Nvstore_WriteFloat(gains[1], (uint16) NVSTORE_CAL_EEPROM_ADDR_TO_OFFSET(&p_cal_eeprom->right_ga
 420              		.loc 1 97 0
 421 0004 0C4D     		ldr	r5, .L39
ARM GAS  C:\Users\tslator\AppData\Local\Temp\ccgwGkXa.s 			page 17


 422 0006 2968     		ldr	r1, [r5]
 423 0008 A1F5FF41 		sub	r1, r1, #32640
 424 000c 6839     		subs	r1, r1, #104
 425 000e 0068     		ldr	r0, [r0]	@ float
 426              	.LVL31:
 427 0010 89B2     		uxth	r1, r1
 428 0012 FFF7FEFF 		bl	Nvstore_WriteFloat
 429              	.LVL32:
  98:..\source/calpid.c ****     Nvstore_WriteFloat(gains[2], (uint16) NVSTORE_CAL_EEPROM_ADDR_TO_OFFSET(&p_cal_eeprom->right_ga
 430              		.loc 1 98 0
 431 0016 2968     		ldr	r1, [r5]
 432 0018 A1F5FF41 		sub	r1, r1, #32640
 433 001c 6439     		subs	r1, r1, #100
 434 001e 6068     		ldr	r0, [r4, #4]	@ float
 435 0020 89B2     		uxth	r1, r1
 436 0022 FFF7FEFF 		bl	Nvstore_WriteFloat
 437              	.LVL33:
  99:..\source/calpid.c **** }
 438              		.loc 1 99 0
 439 0026 2968     		ldr	r1, [r5]
 440 0028 A1F5FF41 		sub	r1, r1, #32640
 441 002c 6039     		subs	r1, r1, #96
 442 002e A068     		ldr	r0, [r4, #8]	@ float
 443 0030 89B2     		uxth	r1, r1
 444 0032 FFF7FEFF 		bl	Nvstore_WriteFloat
 445              	.LVL34:
 446 0036 38BD     		pop	{r3, r4, r5, pc}
 447              	.LVL35:
 448              	.L40:
 449              		.align	2
 450              	.L39:
 451 0038 00000000 		.word	p_cal_eeprom
 452              		.cfi_endproc
 453              	.LFE64:
 454              		.size	StoreRightGains, .-StoreRightGains
 455              		.section	.text.Stop,"ax",%progbits
 456              		.align	2
 457              		.thumb
 458              		.thumb_func
 459              		.type	Stop, %function
 460              	Stop:
 461              	.LFB72:
 404:..\source/calpid.c ****     char output[64];
 462              		.loc 1 404 0
 463              		.cfi_startproc
 464              		@ args = 0, pretend = 0, frame = 80
 465              		@ frame_needed = 0, uses_anonymous_args = 0
 466              	.LVL36:
 467 0000 30B5     		push	{r4, r5, lr}
 468              		.cfi_def_cfa_offset 12
 469              		.cfi_offset 4, -12
 470              		.cfi_offset 5, -8
 471              		.cfi_offset 14, -4
 472 0002 95B0     		sub	sp, sp, #84
 473              		.cfi_def_cfa_offset 96
 474 0004 0446     		mov	r4, r0
 475 0006 0D46     		mov	r5, r1
ARM GAS  C:\Users\tslator\AppData\Local\Temp\ccgwGkXa.s 			page 18


 476              	.LVL37:
 409:..\source/calpid.c **** 
 477              		.loc 1 409 0
 478 0008 0021     		movs	r1, #0
 479              	.LVL38:
 480 000a 0846     		mov	r0, r1
 481              	.LVL39:
 482 000c FFF7FEFF 		bl	Cal_SetLeftRightVelocity
 483              	.LVL40:
 411:..\source/calpid.c ****     {
 484              		.loc 1 411 0
 485 0010 14B1     		cbz	r4, .L43
 486 0012 012C     		cmp	r4, #1
 487 0014 21D0     		beq	.L44
 488 0016 28E0     		b	.L42
 489              	.L43:
 415:..\source/calpid.c ****             {
 490              		.loc 1 415 0
 491 0018 AB79     		ldrb	r3, [r5, #6]	@ zero_extendqisi2
 492 001a 13B1     		cbz	r3, .L46
 493 001c 012B     		cmp	r3, #1
 494 001e 09D0     		beq	.L47
 495 0020 10E0     		b	.L45
 496              	.L46:
 418:..\source/calpid.c ****                     StoreLeftGains(gains);
 497              		.loc 1 418 0
 498 0022 01A8     		add	r0, sp, #4
 499 0024 02A9     		add	r1, sp, #8
 500 0026 03AA     		add	r2, sp, #12
 501 0028 FFF7FEFF 		bl	Pid_LeftGetGains
 502              	.LVL41:
 419:..\source/calpid.c ****                     break;
 503              		.loc 1 419 0
 504 002c 01A8     		add	r0, sp, #4
 505 002e FFF7FEFF 		bl	StoreLeftGains
 506              	.LVL42:
 420:..\source/calpid.c ****                     
 507              		.loc 1 420 0
 508 0032 07E0     		b	.L45
 509              	.L47:
 423:..\source/calpid.c ****                     StoreRightGains(gains);
 510              		.loc 1 423 0
 511 0034 01A8     		add	r0, sp, #4
 512 0036 02A9     		add	r1, sp, #8
 513 0038 03AA     		add	r2, sp, #12
 514 003a FFF7FEFF 		bl	Pid_RightGetGains
 515              	.LVL43:
 424:..\source/calpid.c ****                     break;
 516              		.loc 1 424 0
 517 003e 01A8     		add	r0, sp, #4
 518 0040 FFF7FEFF 		bl	StoreRightGains
 519              	.LVL44:
 520              	.L45:
 428:..\source/calpid.c ****             sprintf(output, "\r\n%s PID calibration complete\r\n", p_pid_params->name);
 521              		.loc 1 428 0
 522 0044 FFF7FEFF 		bl	Pid_RestoreLeftRightTarget
 523              	.LVL45:
ARM GAS  C:\Users\tslator\AppData\Local\Temp\ccgwGkXa.s 			page 19


 429:..\source/calpid.c ****             Ser_PutString(output);
 524              		.loc 1 429 0
 525 0048 04A8     		add	r0, sp, #16
 526 004a 0B49     		ldr	r1, .L49
 527 004c 2A46     		mov	r2, r5
 528 004e FFF7FEFF 		bl	sprintf
 529              	.LVL46:
 430:..\source/calpid.c ****             break;
 530              		.loc 1 430 0
 531 0052 04A8     		add	r0, sp, #16
 532 0054 FFF7FEFF 		bl	Ser_PutString
 533              	.LVL47:
 431:..\source/calpid.c ****             
 534              		.loc 1 431 0
 535 0058 07E0     		b	.L42
 536              	.L44:
 434:..\source/calpid.c ****             Ser_PutString(output);
 537              		.loc 1 434 0
 538 005a 04A8     		add	r0, sp, #16
 539 005c 0749     		ldr	r1, .L49+4
 540 005e 2A46     		mov	r2, r5
 541 0060 FFF7FEFF 		bl	sprintf
 542              	.LVL48:
 435:..\source/calpid.c ****             break;
 543              		.loc 1 435 0
 544 0064 04A8     		add	r0, sp, #16
 545 0066 FFF7FEFF 		bl	Ser_PutString
 546              	.LVL49:
 547              	.L42:
 439:..\source/calpid.c **** 
 548              		.loc 1 439 0
 549 006a 054B     		ldr	r3, .L49+8
 550 006c 5A8C     		ldrh	r2, [r3, #34]
 551 006e 054B     		ldr	r3, .L49+12
 552 0070 1A80     		strh	r2, [r3]	@ movhi
 442:..\source/calpid.c **** 
 553              		.loc 1 442 0
 554 0072 0020     		movs	r0, #0
 555 0074 15B0     		add	sp, sp, #84
 556              		.cfi_def_cfa_offset 12
 557              		@ sp needed
 558 0076 30BD     		pop	{r4, r5, pc}
 559              	.LVL50:
 560              	.L50:
 561              		.align	2
 562              	.L49:
 563 0078 64000000 		.word	.LC4
 564 007c 84000000 		.word	.LC5
 565 0080 00000000 		.word	.LANCHOR0
 566 0084 00000000 		.word	debug_control_enabled
 567              		.cfi_endproc
 568              	.LFE72:
 569              		.size	Stop, .-Stop
 570              		.section	.text.SetNextValidationVelocity,"ax",%progbits
 571              		.align	2
 572              		.thumb
 573              		.thumb_func
ARM GAS  C:\Users\tslator\AppData\Local\Temp\ccgwGkXa.s 			page 20


 574              		.type	SetNextValidationVelocity, %function
 575              	SetNextValidationVelocity:
 576              	.LFB68:
 191:..\source/calpid.c ****     char velocity_str[10];
 577              		.loc 1 191 0
 578              		.cfi_startproc
 579              		@ args = 0, pretend = 0, frame = 80
 580              		@ frame_needed = 0, uses_anonymous_args = 0
 581              	.LVL51:
 582 0000 30B5     		push	{r4, r5, lr}
 583              		.cfi_def_cfa_offset 12
 584              		.cfi_offset 4, -12
 585              		.cfi_offset 5, -8
 586              		.cfi_offset 14, -4
 587 0002 95B0     		sub	sp, sp, #84
 588              		.cfi_def_cfa_offset 96
 589 0004 0446     		mov	r4, r0
 195:..\source/calpid.c ****     switch (p_pid_params->pid_type)
 590              		.loc 1 195 0
 591 0006 C079     		ldrb	r0, [r0, #7]	@ zero_extendqisi2
 592              	.LVL52:
 593 0008 FFF7FEFF 		bl	GetNextValidationVelocity
 594              	.LVL53:
 595 000c 0546     		mov	r5, r0
 596              	.LVL54:
 196:..\source/calpid.c ****     {
 597              		.loc 1 196 0
 598 000e A379     		ldrb	r3, [r4, #6]	@ zero_extendqisi2
 599 0010 13B1     		cbz	r3, .L53
 600 0012 012B     		cmp	r3, #1
 601 0014 04D0     		beq	.L54
 602 0016 07E0     		b	.L52
 603              	.L53:
 199:..\source/calpid.c ****             break;
 604              		.loc 1 199 0
 605 0018 0021     		movs	r1, #0
 606 001a FFF7FEFF 		bl	Cal_SetLeftRightVelocity
 607              	.LVL55:
 200:..\source/calpid.c **** 
 608              		.loc 1 200 0
 609 001e 03E0     		b	.L52
 610              	.LVL56:
 611              	.L54:
 203:..\source/calpid.c ****             break;
 612              		.loc 1 203 0
 613 0020 0020     		movs	r0, #0
 614              	.LVL57:
 615 0022 2946     		mov	r1, r5
 616 0024 FFF7FEFF 		bl	Cal_SetLeftRightVelocity
 617              	.LVL58:
 618              	.L52:
 207:..\source/calpid.c ****     sprintf(outbuf, "Speed: %s\r\n", velocity_str);
 619              		.loc 1 207 0
 620 0028 2846     		mov	r0, r5
 621 002a 11A9     		add	r1, sp, #68
 622 002c 0322     		movs	r2, #3
 623 002e FFF7FEFF 		bl	ftoa
ARM GAS  C:\Users\tslator\AppData\Local\Temp\ccgwGkXa.s 			page 21


 624              	.LVL59:
 208:..\source/calpid.c ****     Ser_PutString(outbuf);
 625              		.loc 1 208 0
 626 0032 01A8     		add	r0, sp, #4
 627 0034 0749     		ldr	r1, .L56
 628 0036 11AA     		add	r2, sp, #68
 629 0038 FFF7FEFF 		bl	sprintf
 630              	.LVL60:
 209:..\source/calpid.c ****     
 631              		.loc 1 209 0
 632 003c 01A8     		add	r0, sp, #4
 633 003e FFF7FEFF 		bl	Ser_PutString
 634              	.LVL61:
 211:..\source/calpid.c **** }
 635              		.loc 1 211 0
 636 0042 054B     		ldr	r3, .L56+4
 637 0044 93F82000 		ldrb	r0, [r3, #32]	@ zero_extendqisi2
 212:..\source/calpid.c **** 
 638              		.loc 1 212 0
 639 0048 0628     		cmp	r0, #6
 640 004a 8CBF     		ite	hi
 641 004c 0020     		movhi	r0, #0
 642 004e 0120     		movls	r0, #1
 643 0050 15B0     		add	sp, sp, #84
 644              		.cfi_def_cfa_offset 12
 645              		@ sp needed
 646 0052 30BD     		pop	{r4, r5, pc}
 647              	.LVL62:
 648              	.L57:
 649              		.align	2
 650              	.L56:
 651 0054 A4000000 		.word	.LC6
 652 0058 00000000 		.word	.LANCHOR0
 653              		.cfi_endproc
 654              	.LFE68:
 655              		.size	SetNextValidationVelocity, .-SetNextValidationVelocity
 656              		.section	.text.Update,"ax",%progbits
 657              		.align	2
 658              		.thumb
 659              		.thumb_func
 660              		.type	Update, %function
 661              	Update:
 662              	.LFB71:
 360:..\source/calpid.c ****     CAL_PID_PARAMS * p_pid_params = (CAL_PID_PARAMS *) params;
 663              		.loc 1 360 0
 664              		.cfi_startproc
 665              		@ args = 0, pretend = 0, frame = 0
 666              		@ frame_needed = 0, uses_anonymous_args = 0
 667              	.LVL63:
 668 0000 10B5     		push	{r4, lr}
 669              		.cfi_def_cfa_offset 8
 670              		.cfi_offset 4, -8
 671              		.cfi_offset 14, -4
 672 0002 0C46     		mov	r4, r1
 673              	.LVL64:
 363:..\source/calpid.c ****     {
 674              		.loc 1 363 0
ARM GAS  C:\Users\tslator\AppData\Local\Temp\ccgwGkXa.s 			page 22


 675 0004 10B1     		cbz	r0, .L60
 676 0006 0128     		cmp	r0, #1
 677 0008 0AD0     		beq	.L61
 678 000a 1BE0     		b	.L66
 679              	.L60:
 680              	.LBB2:
 367:..\source/calpid.c ****             {
 681              		.loc 1 367 0
 682 000c FFF7FEFF 		bl	millis
 683              	.LVL65:
 684 0010 104B     		ldr	r3, .L68
 685 0012 5B6A     		ldr	r3, [r3, #36]
 686 0014 C01A     		subs	r0, r0, r3
 687 0016 A368     		ldr	r3, [r4, #8]
 688 0018 9842     		cmp	r0, r3
 689 001a 15D2     		bcs	.L63
 369:..\source/calpid.c ****             }
 690              		.loc 1 369 0
 691 001c 0020     		movs	r0, #0
 692 001e 10BD     		pop	{r4, pc}
 693              	.LVL66:
 694              	.L61:
 377:..\source/calpid.c ****             {
 695              		.loc 1 377 0
 696 0020 FFF7FEFF 		bl	millis
 697              	.LVL67:
 698 0024 0B4B     		ldr	r3, .L68
 699 0026 5B6A     		ldr	r3, [r3, #36]
 700 0028 C01A     		subs	r0, r0, r3
 701 002a A368     		ldr	r3, [r4, #8]
 702 002c 9842     		cmp	r0, r3
 703 002e 0DD3     		bcc	.L64
 381:..\source/calpid.c ****             uint8 result = SetNextValidationVelocity(p_pid_params);
 704              		.loc 1 381 0
 705 0030 FFF7FEFF 		bl	millis
 706              	.LVL68:
 707 0034 074B     		ldr	r3, .L68
 708 0036 5862     		str	r0, [r3, #36]
 382:..\source/calpid.c ****             if (!result)
 709              		.loc 1 382 0
 710 0038 2046     		mov	r0, r4
 711 003a FFF7FEFF 		bl	SetNextValidationVelocity
 712              	.LVL69:
 383:..\source/calpid.c ****             {
 713              		.loc 1 383 0
 714 003e 38B9     		cbnz	r0, .L65
 385:..\source/calpid.c ****             }
 715              		.loc 1 385 0
 716 0040 0120     		movs	r0, #1
 717              	.LVL70:
 718 0042 10BD     		pop	{r4, pc}
 719              	.LVL71:
 720              	.L66:
 721              	.LBE2:
 392:..\source/calpid.c **** }
 722              		.loc 1 392 0
 723 0044 0120     		movs	r0, #1
ARM GAS  C:\Users\tslator\AppData\Local\Temp\ccgwGkXa.s 			page 23


 724              	.LVL72:
 725 0046 10BD     		pop	{r4, pc}
 726              	.LVL73:
 727              	.L63:
 728 0048 0120     		movs	r0, #1
 729 004a 10BD     		pop	{r4, pc}
 730              	.LVL74:
 731              	.L64:
 732              	.LBB3:
 379:..\source/calpid.c ****             }
 733              		.loc 1 379 0
 734 004c 0020     		movs	r0, #0
 735 004e 10BD     		pop	{r4, pc}
 736              	.LVL75:
 737              	.L65:
 388:..\source/calpid.c ****             break;
 738              		.loc 1 388 0
 739 0050 0020     		movs	r0, #0
 740              	.LVL76:
 741              	.LBE3:
 393:..\source/calpid.c **** 
 742              		.loc 1 393 0
 743 0052 10BD     		pop	{r4, pc}
 744              	.LVL77:
 745              	.L69:
 746              		.align	2
 747              	.L68:
 748 0054 00000000 		.word	.LANCHOR0
 749              		.cfi_endproc
 750              	.LFE71:
 751              		.size	Update, .-Update
 752              		.section	.text.Start,"ax",%progbits
 753              		.align	2
 754              		.thumb
 755              		.thumb_func
 756              		.type	Start, %function
 757              	Start:
 758              	.LFB70:
 289:..\source/calpid.c ****     float gains[3];       
 759              		.loc 1 289 0
 760              		.cfi_startproc
 761              		@ args = 0, pretend = 0, frame = 0
 762              		@ frame_needed = 0, uses_anonymous_args = 0
 763              	.LVL78:
 764 0000 2DE9F041 		push	{r4, r5, r6, r7, r8, lr}
 765              		.cfi_def_cfa_offset 24
 766              		.cfi_offset 4, -24
 767              		.cfi_offset 5, -20
 768              		.cfi_offset 6, -16
 769              		.cfi_offset 7, -12
 770              		.cfi_offset 8, -8
 771              		.cfi_offset 14, -4
 772 0004 0C46     		mov	r4, r1
 773              	.LVL79:
 293:..\source/calpid.c ****     {
 774              		.loc 1 293 0
 775 0006 10B1     		cbz	r0, .L72
ARM GAS  C:\Users\tslator\AppData\Local\Temp\ccgwGkXa.s 			page 24


 776 0008 0128     		cmp	r0, #1
 777 000a 44D0     		beq	.L73
 778 000c 59E0     		b	.L71
 779              	.L72:
 780              	.LBB4:
 296:..\source/calpid.c ****             gains[0] = Cal_ReadResponse();
 781              		.loc 1 296 0
 782 000e 2E48     		ldr	r0, .L78
 783              	.LVL80:
 784 0010 FFF7FEFF 		bl	Ser_PutString
 785              	.LVL81:
 297:..\source/calpid.c ****             Ser_PutString("\r\nEnter integral gain: ");
 786              		.loc 1 297 0
 787 0014 FFF7FEFF 		bl	Cal_ReadResponse
 788              	.LVL82:
 789 0018 8046     		mov	r8, r0
 298:..\source/calpid.c ****             gains[1] = Cal_ReadResponse();
 790              		.loc 1 298 0
 791 001a 2C48     		ldr	r0, .L78+4
 792 001c FFF7FEFF 		bl	Ser_PutString
 793              	.LVL83:
 299:..\source/calpid.c ****             Ser_PutString("\r\nEnter derivative gain: ");
 794              		.loc 1 299 0
 795 0020 FFF7FEFF 		bl	Cal_ReadResponse
 796              	.LVL84:
 797 0024 0746     		mov	r7, r0
 300:..\source/calpid.c ****             gains[2] = Cal_ReadResponse();
 798              		.loc 1 300 0
 799 0026 2A48     		ldr	r0, .L78+8
 800 0028 FFF7FEFF 		bl	Ser_PutString
 801              	.LVL85:
 301:..\source/calpid.c ****             Ser_PutString("\r\n");
 802              		.loc 1 301 0
 803 002c FFF7FEFF 		bl	Cal_ReadResponse
 804              	.LVL86:
 805 0030 0646     		mov	r6, r0
 302:..\source/calpid.c ****             
 806              		.loc 1 302 0
 807 0032 2848     		ldr	r0, .L78+12
 808 0034 FFF7FEFF 		bl	Ser_PutString
 809              	.LVL87:
 304:..\source/calpid.c ****             Encoder_Reset();
 810              		.loc 1 304 0
 811 0038 0120     		movs	r0, #1
 812 003a FFF7FEFF 		bl	Pid_Enable
 813              	.LVL88:
 305:..\source/calpid.c ****             Pid_Reset();
 814              		.loc 1 305 0
 815 003e FFF7FEFF 		bl	Encoder_Reset
 816              	.LVL89:
 306:..\source/calpid.c ****             Odom_Reset();
 817              		.loc 1 306 0
 818 0042 FFF7FEFF 		bl	Pid_Reset
 819              	.LVL90:
 307:..\source/calpid.c ****             
 820              		.loc 1 307 0
 821 0046 FFF7FEFF 		bl	Odom_Reset
ARM GAS  C:\Users\tslator\AppData\Local\Temp\ccgwGkXa.s 			page 25


 822              	.LVL91:
 309:..\source/calpid.c **** 
 823              		.loc 1 309 0
 824 004a FFF7FEFF 		bl	GetStepVelocity
 825              	.LVL92:
 826 004e 0546     		mov	r5, r0
 827              	.LVL93:
 311:..\source/calpid.c ****             {
 828              		.loc 1 311 0
 829 0050 A379     		ldrb	r3, [r4, #6]	@ zero_extendqisi2
 830 0052 13B1     		cbz	r3, .L75
 831 0054 012B     		cmp	r3, #1
 832 0056 0AD0     		beq	.L76
 833 0058 12E0     		b	.L74
 834              	.L75:
 314:..\source/calpid.c ****                     Cal_SetLeftRightVelocity(step_velocity, 0);
 835              		.loc 1 314 0
 836 005a 4046     		mov	r0, r8
 837              	.LVL94:
 838 005c 3946     		mov	r1, r7
 839 005e 3246     		mov	r2, r6
 840 0060 FFF7FEFF 		bl	Pid_LeftSetGains
 841              	.LVL95:
 315:..\source/calpid.c ****                     break;
 842              		.loc 1 315 0
 843 0064 2846     		mov	r0, r5
 844 0066 0021     		movs	r1, #0
 845 0068 FFF7FEFF 		bl	Cal_SetLeftRightVelocity
 846              	.LVL96:
 316:..\source/calpid.c ****                     
 847              		.loc 1 316 0
 848 006c 08E0     		b	.L74
 849              	.LVL97:
 850              	.L76:
 319:..\source/calpid.c ****                     Cal_SetLeftRightVelocity(0, step_velocity);
 851              		.loc 1 319 0
 852 006e 4046     		mov	r0, r8
 853              	.LVL98:
 854 0070 3946     		mov	r1, r7
 855 0072 3246     		mov	r2, r6
 856 0074 FFF7FEFF 		bl	Pid_RightSetGains
 857              	.LVL99:
 320:..\source/calpid.c ****                     break;                    
 858              		.loc 1 320 0
 859 0078 0020     		movs	r0, #0
 860 007a 2946     		mov	r1, r5
 861 007c FFF7FEFF 		bl	Cal_SetLeftRightVelocity
 862              	.LVL100:
 863              	.L74:
 324:..\source/calpid.c ****             Ser_PutString("\r\n");
 864              		.loc 1 324 0
 865 0080 1548     		ldr	r0, .L78+16
 866 0082 FFF7FEFF 		bl	Ser_PutString
 867              	.LVL101:
 325:..\source/calpid.c ****             start_time = millis();
 868              		.loc 1 325 0
 869 0086 1348     		ldr	r0, .L78+12
ARM GAS  C:\Users\tslator\AppData\Local\Temp\ccgwGkXa.s 			page 26


 870 0088 FFF7FEFF 		bl	Ser_PutString
 871              	.LVL102:
 326:..\source/calpid.c ****             
 872              		.loc 1 326 0
 873 008c FFF7FEFF 		bl	millis
 874              	.LVL103:
 875 0090 124B     		ldr	r3, .L78+20
 876 0092 5862     		str	r0, [r3, #36]
 328:..\source/calpid.c **** 
 877              		.loc 1 328 0
 878 0094 15E0     		b	.L71
 879              	.LVL104:
 880              	.L73:
 332:..\source/calpid.c ****             Encoder_Reset();
 881              		.loc 1 332 0
 882 0096 0120     		movs	r0, #1
 883              	.LVL105:
 884 0098 FFF7FEFF 		bl	Pid_Enable
 885              	.LVL106:
 333:..\source/calpid.c ****             Pid_Reset();
 886              		.loc 1 333 0
 887 009c FFF7FEFF 		bl	Encoder_Reset
 888              	.LVL107:
 334:..\source/calpid.c ****             Odom_Reset();
 889              		.loc 1 334 0
 890 00a0 FFF7FEFF 		bl	Pid_Reset
 891              	.LVL108:
 335:..\source/calpid.c **** 
 892              		.loc 1 335 0
 893 00a4 FFF7FEFF 		bl	Odom_Reset
 894              	.LVL109:
 337:..\source/calpid.c ****             Ser_PutString("\r\n");
 895              		.loc 1 337 0
 896 00a8 0D48     		ldr	r0, .L78+24
 897 00aa FFF7FEFF 		bl	Ser_PutString
 898              	.LVL110:
 338:..\source/calpid.c ****             start_time = millis();
 899              		.loc 1 338 0
 900 00ae 0948     		ldr	r0, .L78+12
 901 00b0 FFF7FEFF 		bl	Ser_PutString
 902              	.LVL111:
 339:..\source/calpid.c ****             
 903              		.loc 1 339 0
 904 00b4 FFF7FEFF 		bl	millis
 905              	.LVL112:
 906 00b8 084B     		ldr	r3, .L78+20
 907 00ba 5862     		str	r0, [r3, #36]
 341:..\source/calpid.c **** 
 908              		.loc 1 341 0
 909 00bc 2046     		mov	r0, r4
 910 00be FFF7FEFF 		bl	SetNextValidationVelocity
 911              	.LVL113:
 912              	.L71:
 913              	.LBE4:
 348:..\source/calpid.c **** 
 914              		.loc 1 348 0
 915 00c2 0020     		movs	r0, #0
ARM GAS  C:\Users\tslator\AppData\Local\Temp\ccgwGkXa.s 			page 27


 916 00c4 BDE8F081 		pop	{r4, r5, r6, r7, r8, pc}
 917              	.LVL114:
 918              	.L79:
 919              		.align	2
 920              	.L78:
 921 00c8 B0000000 		.word	.LC7
 922 00cc CC000000 		.word	.LC8
 923 00d0 E4000000 		.word	.LC9
 924 00d4 00010000 		.word	.LC10
 925 00d8 04010000 		.word	.LC11
 926 00dc 00000000 		.word	.LANCHOR0
 927 00e0 14010000 		.word	.LC12
 928              		.cfi_endproc
 929              	.LFE70:
 930              		.size	Start, .-Start
 931              		.section	.text.Init,"ax",%progbits
 932              		.align	2
 933              		.thumb
 934              		.thumb_func
 935              		.type	Init, %function
 936              	Init:
 937              	.LFB69:
 228:..\source/calpid.c ****     CAL_PID_PARAMS *p_pid_params = (CAL_PID_PARAMS *)params;
 938              		.loc 1 228 0
 939              		.cfi_startproc
 940              		@ args = 0, pretend = 0, frame = 64
 941              		@ frame_needed = 0, uses_anonymous_args = 0
 942              	.LVL115:
 943 0000 10B5     		push	{r4, lr}
 944              		.cfi_def_cfa_offset 8
 945              		.cfi_offset 4, -8
 946              		.cfi_offset 14, -4
 947 0002 90B0     		sub	sp, sp, #64
 948              		.cfi_def_cfa_offset 72
 949 0004 0C46     		mov	r4, r1
 950              	.LVL116:
 233:..\source/calpid.c ****     {
 951              		.loc 1 233 0
 952 0006 10B1     		cbz	r0, .L82
 953 0008 0128     		cmp	r0, #1
 954 000a 23D0     		beq	.L83
 955 000c 46E0     		b	.L81
 956              	.L82:
 236:..\source/calpid.c ****             Ser_PutString(banner);
 957              		.loc 1 236 0
 958 000e 6846     		mov	r0, sp
 959              	.LVL117:
 960 0010 2449     		ldr	r1, .L89
 961              	.LVL118:
 962 0012 2246     		mov	r2, r4
 963 0014 FFF7FEFF 		bl	sprintf
 964              	.LVL119:
 237:..\source/calpid.c ****             Cal_SetLeftRightVelocity(0, 0);
 965              		.loc 1 237 0
 966 0018 6846     		mov	r0, sp
 967 001a FFF7FEFF 		bl	Ser_PutString
 968              	.LVL120:
ARM GAS  C:\Users\tslator\AppData\Local\Temp\ccgwGkXa.s 			page 28


 238:..\source/calpid.c ****             Pid_SetLeftRightTarget(Cal_LeftTarget, Cal_RightTarget);
 969              		.loc 1 238 0
 970 001e 0021     		movs	r1, #0
 971 0020 0846     		mov	r0, r1
 972 0022 FFF7FEFF 		bl	Cal_SetLeftRightVelocity
 973              	.LVL121:
 239:..\source/calpid.c **** 
 974              		.loc 1 239 0
 975 0026 204B     		ldr	r3, .L89+4
 976 0028 1868     		ldr	r0, [r3]
 977 002a 204B     		ldr	r3, .L89+8
 978 002c 1968     		ldr	r1, [r3]
 979 002e FFF7FEFF 		bl	Pid_SetLeftRightTarget
 980              	.LVL122:
 241:..\source/calpid.c **** 
 981              		.loc 1 241 0
 982 0032 1F4B     		ldr	r3, .L89+12
 983 0034 1A88     		ldrh	r2, [r3]
 984 0036 1F4B     		ldr	r3, .L89+16
 985 0038 5A84     		strh	r2, [r3, #34]	@ movhi
 243:..\source/calpid.c ****             {
 986              		.loc 1 243 0
 987 003a A379     		ldrb	r3, [r4, #6]	@ zero_extendqisi2
 988 003c 13B1     		cbz	r3, .L84
 989 003e 012B     		cmp	r3, #1
 990 0040 04D0     		beq	.L85
 991 0042 2BE0     		b	.L81
 992              	.L84:
 246:..\source/calpid.c ****                     break;
 993              		.loc 1 246 0
 994 0044 0422     		movs	r2, #4
 995 0046 1A4B     		ldr	r3, .L89+12
 996 0048 1A80     		strh	r2, [r3]	@ movhi
 247:..\source/calpid.c ****                     
 997              		.loc 1 247 0
 998 004a 27E0     		b	.L81
 999              	.L85:
 250:..\source/calpid.c ****                     break;
 1000              		.loc 1 250 0
 1001 004c 0822     		movs	r2, #8
 1002 004e 184B     		ldr	r3, .L89+12
 1003 0050 1A80     		strh	r2, [r3]	@ movhi
 251:..\source/calpid.c ****             }        
 1004              		.loc 1 251 0
 1005 0052 23E0     		b	.L81
 1006              	.LVL123:
 1007              	.L83:
 256:..\source/calpid.c ****             Ser_PutString(banner);
 1008              		.loc 1 256 0
 1009 0054 6846     		mov	r0, sp
 1010              	.LVL124:
 1011 0056 1849     		ldr	r1, .L89+20
 1012              	.LVL125:
 1013 0058 2246     		mov	r2, r4
 1014 005a FFF7FEFF 		bl	sprintf
 1015              	.LVL126:
 257:..\source/calpid.c ****             
ARM GAS  C:\Users\tslator\AppData\Local\Temp\ccgwGkXa.s 			page 29


 1016              		.loc 1 257 0
 1017 005e 6846     		mov	r0, sp
 1018 0060 FFF7FEFF 		bl	Ser_PutString
 1019              	.LVL127:
 259:..\source/calpid.c ****             
 1020              		.loc 1 259 0
 1021 0064 124B     		ldr	r3, .L89+12
 1022 0066 1A88     		ldrh	r2, [r3]
 1023 0068 124B     		ldr	r3, .L89+16
 1024 006a 5A84     		strh	r2, [r3, #34]	@ movhi
 261:..\source/calpid.c ****             Pid_SetLeftRightTarget(Cal_LeftTarget, Cal_RightTarget);
 1025              		.loc 1 261 0
 1026 006c 0021     		movs	r1, #0
 1027 006e 0846     		mov	r0, r1
 1028 0070 FFF7FEFF 		bl	Cal_SetLeftRightVelocity
 1029              	.LVL128:
 262:..\source/calpid.c ****             ResetPidValidationVelocity();
 1030              		.loc 1 262 0
 1031 0074 0C4B     		ldr	r3, .L89+4
 1032 0076 1868     		ldr	r0, [r3]
 1033 0078 0C4B     		ldr	r3, .L89+8
 1034 007a 1968     		ldr	r1, [r3]
 1035 007c FFF7FEFF 		bl	Pid_SetLeftRightTarget
 1036              	.LVL129:
 263:..\source/calpid.c **** 
 1037              		.loc 1 263 0
 1038 0080 FFF7FEFF 		bl	ResetPidValidationVelocity
 1039              	.LVL130:
 265:..\source/calpid.c ****             {
 1040              		.loc 1 265 0
 1041 0084 A379     		ldrb	r3, [r4, #6]	@ zero_extendqisi2
 1042 0086 13B1     		cbz	r3, .L86
 1043 0088 012B     		cmp	r3, #1
 1044 008a 04D0     		beq	.L87
 1045 008c 06E0     		b	.L81
 1046              	.L86:
 268:..\source/calpid.c ****                     break;
 1047              		.loc 1 268 0
 1048 008e 0522     		movs	r2, #5
 1049 0090 074B     		ldr	r3, .L89+12
 1050 0092 1A80     		strh	r2, [r3]	@ movhi
 269:..\source/calpid.c ****                 
 1051              		.loc 1 269 0
 1052 0094 02E0     		b	.L81
 1053              	.L87:
 272:..\source/calpid.c ****                     break;
 1054              		.loc 1 272 0
 1055 0096 0A22     		movs	r2, #10
 1056 0098 054B     		ldr	r3, .L89+12
 1057 009a 1A80     		strh	r2, [r3]	@ movhi
 1058              	.L81:
 278:..\source/calpid.c **** 
 1059              		.loc 1 278 0
 1060 009c 0020     		movs	r0, #0
 1061 009e 10B0     		add	sp, sp, #64
 1062              		.cfi_def_cfa_offset 8
 1063              		@ sp needed
ARM GAS  C:\Users\tslator\AppData\Local\Temp\ccgwGkXa.s 			page 30


 1064 00a0 10BD     		pop	{r4, pc}
 1065              	.LVL131:
 1066              	.L90:
 1067 00a2 00BF     		.align	2
 1068              	.L89:
 1069 00a4 24010000 		.word	.LC13
 1070 00a8 00000000 		.word	Cal_LeftTarget
 1071 00ac 00000000 		.word	Cal_RightTarget
 1072 00b0 00000000 		.word	debug_control_enabled
 1073 00b4 00000000 		.word	.LANCHOR0
 1074 00b8 3C010000 		.word	.LC14
 1075              		.cfi_endproc
 1076              	.LFE69:
 1077              		.size	Init, .-Init
 1078              		.section	.text.CalPid_Init,"ax",%progbits
 1079              		.align	2
 1080              		.global	CalPid_Init
 1081              		.thumb
 1082              		.thumb_func
 1083              		.type	CalPid_Init, %function
 1084              	CalPid_Init:
 1085              	.LFB74:
 485:..\source/calpid.c **** 
 486:..\source/calpid.c **** /*-------------------------------------------------------------------------------------------------
 487:..\source/calpid.c ****  * Module Interface Routines
 488:..\source/calpid.c ****  *-------------------------------------------------------------------------------------------------
 489:..\source/calpid.c **** 
 490:..\source/calpid.c **** /*-------------------------------------------------------------------------------------------------
 491:..\source/calpid.c ****  * Name: CalPid_Init
 492:..\source/calpid.c ****  * Description: Initializes the PID calibration module 
 493:..\source/calpid.c ****  * Parameters: None 
 494:..\source/calpid.c ****  * Return: None
 495:..\source/calpid.c ****  * 
 496:..\source/calpid.c ****  *-------------------------------------------------------------------------------------------------
 497:..\source/calpid.c **** void CalPid_Init()
 498:..\source/calpid.c **** {
 1086              		.loc 1 498 0
 1087              		.cfi_startproc
 1088              		@ args = 0, pretend = 0, frame = 0
 1089              		@ frame_needed = 0, uses_anonymous_args = 0
 1090              		@ link register save eliminated.
 499:..\source/calpid.c ****     CalPid_LeftCalibration = &left_pid_calibration;
 1091              		.loc 1 499 0
 1092 0000 054B     		ldr	r3, .L92
 1093 0002 064A     		ldr	r2, .L92+4
 1094 0004 1360     		str	r3, [r2]
 500:..\source/calpid.c ****     CalPid_RightCalibration = &right_pid_calibration;
 1095              		.loc 1 500 0
 1096 0006 03F11C02 		add	r2, r3, #28
 1097 000a 0549     		ldr	r1, .L92+8
 1098 000c 0A60     		str	r2, [r1]
 501:..\source/calpid.c ****     CalPid_LeftValidation = &left_pid_calibration;
 1099              		.loc 1 501 0
 1100 000e 0549     		ldr	r1, .L92+12
 1101 0010 0B60     		str	r3, [r1]
 502:..\source/calpid.c ****     CalPid_RightValidation = &right_pid_calibration;
 1102              		.loc 1 502 0
ARM GAS  C:\Users\tslator\AppData\Local\Temp\ccgwGkXa.s 			page 31


 1103 0012 054B     		ldr	r3, .L92+16
 1104 0014 1A60     		str	r2, [r3]
 1105 0016 7047     		bx	lr
 1106              	.L93:
 1107              		.align	2
 1108              	.L92:
 1109 0018 00000000 		.word	.LANCHOR2
 1110 001c 00000000 		.word	CalPid_LeftCalibration
 1111 0020 00000000 		.word	CalPid_RightCalibration
 1112 0024 00000000 		.word	CalPid_LeftValidation
 1113 0028 00000000 		.word	CalPid_RightValidation
 1114              		.cfi_endproc
 1115              	.LFE74:
 1116              		.size	CalPid_Init, .-CalPid_Init
 1117              		.comm	debug_control_enabled,2,2
 1118              		.comm	formatted_string,256,4
 1119              		.comm	CalPid_RightValidation,4,4
 1120              		.comm	CalPid_LeftValidation,4,4
 1121              		.comm	CalPid_RightCalibration,4,4
 1122              		.comm	CalPid_LeftCalibration,4,4
 1123              		.comm	Cal_RightTarget,4,4
 1124              		.comm	Cal_LeftTarget,4,4
 1125              		.comm	p_cal_eeprom,4,4
 1126              		.section	.rodata
 1127              		.align	2
 1128              		.set	.LANCHOR1,. + 0
 1129              		.type	velocities, %object
 1130              		.size	velocities, 28
 1131              	velocities:
 1132 0000 00000000 		.word	0
 1133 0004 CDCC4C3E 		.word	1045220557
 1134 0008 0000003F 		.word	1056964608
 1135 000c 3333333F 		.word	1060320051
 1136 0010 0000003F 		.word	1056964608
 1137 0014 CDCC4C3E 		.word	1045220557
 1138 0018 00000000 		.word	0
 1139              		.data
 1140              		.align	2
 1141              		.set	.LANCHOR2,. + 0
 1142              		.type	left_pid_calibration, %object
 1143              		.size	left_pid_calibration, 28
 1144              	left_pid_calibration:
 1145 0000 00       		.byte	0
 1146 0001 00       		.byte	0
 1147 0002 0000     		.space	2
 1148 0004 44000000 		.word	left_pid_params
 1149 0008 00000000 		.word	Init
 1150 000c 00000000 		.word	Start
 1151 0010 00000000 		.word	Update
 1152 0014 00000000 		.word	Stop
 1153 0018 00000000 		.word	Results
 1154              		.type	right_pid_calibration, %object
 1155              		.size	right_pid_calibration, 28
 1156              	right_pid_calibration:
 1157 001c 00       		.byte	0
 1158 001d 00       		.byte	0
 1159 001e 0000     		.space	2
ARM GAS  C:\Users\tslator\AppData\Local\Temp\ccgwGkXa.s 			page 32


 1160 0020 38000000 		.word	right_pid_params
 1161 0024 00000000 		.word	Init
 1162 0028 00000000 		.word	Start
 1163 002c 00000000 		.word	Update
 1164 0030 00000000 		.word	Stop
 1165 0034 00000000 		.word	Results
 1166              		.type	right_pid_params, %object
 1167              		.size	right_pid_params, 12
 1168              	right_pid_params:
 1169 0038 72696768 		.ascii	"right\000"
 1169      7400
 1170 003e 01       		.byte	1
 1171 003f 00       		.byte	0
 1172 0040 88130000 		.word	5000
 1173              		.type	left_pid_params, %object
 1174              		.size	left_pid_params, 12
 1175              	left_pid_params:
 1176 0044 6C656674 		.ascii	"left\000"
 1176      00
 1177 0049 00       		.space	1
 1178 004a 00       		.byte	0
 1179 004b 00       		.byte	0
 1180 004c 88130000 		.word	5000
 1181              		.section	.rodata.str1.4,"aMS",%progbits,1
 1182              		.align	2
 1183              	.LC0:
 1184 0000 0D0A5072 		.ascii	"\015\012Printing PID calibration results\015\012\000"
 1184      696E7469 
 1184      6E672050 
 1184      49442063 
 1184      616C6962 
 1185 0025 000000   		.space	3
 1186              	.LC1:
 1187 0028 4C656674 		.ascii	"Left PID\000"
 1187      20504944 
 1187      00
 1188 0031 000000   		.space	3
 1189              	.LC2:
 1190 0034 52696768 		.ascii	"Right PID\000"
 1190      74205049 
 1190      4400
 1191 003e 0000     		.space	2
 1192              	.LC3:
 1193 0040 0D0A5072 		.ascii	"\015\012Printing PID validation results\015\012\000"
 1193      696E7469 
 1193      6E672050 
 1193      49442076 
 1193      616C6964 
 1194              	.LC4:
 1195 0064 0D0A2573 		.ascii	"\015\012%s PID calibration complete\015\012\000"
 1195      20504944 
 1195      2063616C 
 1195      69627261 
 1195      74696F6E 
 1196              	.LC5:
 1197 0084 0D0A2573 		.ascii	"\015\012%s PID validation complete\015\012\000"
 1197      20504944 
ARM GAS  C:\Users\tslator\AppData\Local\Temp\ccgwGkXa.s 			page 33


 1197      2076616C 
 1197      69646174 
 1197      696F6E20 
 1198 00a3 00       		.space	1
 1199              	.LC6:
 1200 00a4 53706565 		.ascii	"Speed: %s\015\012\000"
 1200      643A2025 
 1200      730D0A00 
 1201              	.LC7:
 1202 00b0 0D0A456E 		.ascii	"\015\012Enter proportional gain: \000"
 1202      74657220 
 1202      70726F70 
 1202      6F727469 
 1202      6F6E616C 
 1203              	.LC8:
 1204 00cc 0D0A456E 		.ascii	"\015\012Enter integral gain: \000"
 1204      74657220 
 1204      696E7465 
 1204      6772616C 
 1204      20676169 
 1205              	.LC9:
 1206 00e4 0D0A456E 		.ascii	"\015\012Enter derivative gain: \000"
 1206      74657220 
 1206      64657269 
 1206      76617469 
 1206      76652067 
 1207 00fe 0000     		.space	2
 1208              	.LC10:
 1209 0100 0D0A00   		.ascii	"\015\012\000"
 1210 0103 00       		.space	1
 1211              	.LC11:
 1212 0104 0D0A4361 		.ascii	"\015\012Calibrating \000"
 1212      6C696272 
 1212      6174696E 
 1212      672000
 1213 0113 00       		.space	1
 1214              	.LC12:
 1215 0114 0D0A5661 		.ascii	"\015\012Validating \000"
 1215      6C696461 
 1215      74696E67 
 1215      2000
 1216 0122 0000     		.space	2
 1217              	.LC13:
 1218 0124 0D0A2573 		.ascii	"\015\012%s PID calibration\015\012\000"
 1218      20504944 
 1218      2063616C 
 1218      69627261 
 1218      74696F6E 
 1219 013b 00       		.space	1
 1220              	.LC14:
 1221 013c 0D0A2573 		.ascii	"\015\012%s PID validation\015\012\000"
 1221      20504944 
 1221      2076616C 
 1221      69646174 
 1221      696F6E0D 
 1222 0152 0000     		.bss
 1223              		.align	2
ARM GAS  C:\Users\tslator\AppData\Local\Temp\ccgwGkXa.s 			page 34


 1224              		.set	.LANCHOR0,. + 0
 1225              		.type	left_fwd_max.7550, %object
 1226              		.size	left_fwd_max.7550, 4
 1227              	left_fwd_max.7550:
 1228 0000 00000000 		.space	4
 1229              		.type	left_bwd_max.7551, %object
 1230              		.size	left_bwd_max.7551, 4
 1231              	left_bwd_max.7551:
 1232 0004 00000000 		.space	4
 1233              		.type	right_fwd_max.7552, %object
 1234              		.size	right_fwd_max.7552, 4
 1235              	right_fwd_max.7552:
 1236 0008 00000000 		.space	4
 1237              		.type	right_bwd_max.7553, %object
 1238              		.size	right_bwd_max.7553, 4
 1239              	right_bwd_max.7553:
 1240 000c 00000000 		.space	4
 1241              		.type	left_max.7554, %object
 1242              		.size	left_max.7554, 4
 1243              	left_max.7554:
 1244 0010 00000000 		.space	4
 1245              		.type	right_max.7555, %object
 1246              		.size	right_max.7555, 4
 1247              	right_max.7555:
 1248 0014 00000000 		.space	4
 1249              		.type	max_cps.7556, %object
 1250              		.size	max_cps.7556, 4
 1251              	max_cps.7556:
 1252 0018 00000000 		.space	4
 1253              		.type	mps.7557, %object
 1254              		.size	mps.7557, 4
 1255              	mps.7557:
 1256 001c 00000000 		.space	4
 1257              		.type	vel_index, %object
 1258              		.size	vel_index, 1
 1259              	vel_index:
 1260 0020 00       		.space	1
 1261 0021 00       		.space	1
 1262              		.type	old_debug_control_enabled, %object
 1263              		.size	old_debug_control_enabled, 2
 1264              	old_debug_control_enabled:
 1265 0022 0000     		.space	2
 1266              		.type	start_time, %object
 1267              		.size	start_time, 4
 1268              	start_time:
 1269 0024 00000000 		.space	4
 1270              		.text
 1271              	.Letext0:
 1272              		.file 2 "c:\\program files (x86)\\cypress\\psoc creator\\3.3\\psoc creator\\import\\gnu\\arm\\4.9.
 1273              		.file 3 "c:\\program files (x86)\\cypress\\psoc creator\\3.3\\psoc creator\\import\\gnu\\arm\\4.9.
 1274              		.file 4 "Generated_Source\\PSoC5/cytypes.h"
 1275              		.file 5 "..\\source\\config.h"
 1276              		.file 6 "..\\source\\calstore.h"
 1277              		.file 7 "..\\source\\cal.h"
 1278              		.file 8 "..\\source\\calpid.h"
 1279              		.file 9 "Generated_Source\\PSoC5/core_cm3.h"
 1280              		.file 10 "..\\source\\debug.h"
ARM GAS  C:\Users\tslator\AppData\Local\Temp\ccgwGkXa.s 			page 35


 1281              		.file 11 "..\\source\\serial.h"
 1282              		.file 12 "..\\source\\pid.h"
 1283              		.file 13 "..\\source\\nvstore.h"
 1284              		.file 14 "..\\source\\utils.h"
 1285              		.file 15 "..\\source\\time.h"
 1286              		.file 16 "..\\source\\encoder.h"
 1287              		.file 17 "..\\source\\odom.h"
 1288              		.file 18 "c:\\program files (x86)\\cypress\\psoc creator\\3.3\\psoc creator\\import\\gnu\\arm\\4.9