ARM GAS  C:\Users\Tim\AppData\Local\Temp\cc81SQ7k.s 			page 1


   1              		.syntax unified
   2              		.cpu cortex-m3
   3              		.fpu softvfp
   4              		.eabi_attribute 20, 1
   5              		.eabi_attribute 21, 1
   6              		.eabi_attribute 23, 3
   7              		.eabi_attribute 24, 1
   8              		.eabi_attribute 25, 1
   9              		.eabi_attribute 26, 1
  10              		.eabi_attribute 30, 1
  11              		.eabi_attribute 34, 1
  12              		.eabi_attribute 18, 4
  13              		.thumb
  14              		.file	"control.c"
  15              		.text
  16              	.Ltext0:
  17              		.cfi_sections	.debug_frame
  18              		.global	__aeabi_fcmplt
  19              		.section	.text.CalculateLeftRightSpeed,"ax",%progbits
  20              		.align	2
  21              		.thumb
  22              		.thumb_func
  23              		.type	CalculateLeftRightSpeed, %function
  24              	CalculateLeftRightSpeed:
  25              	.LFB63:
  26              		.file 1 "..\\source\\control.c"
   1:..\source/control.c **** /* ========================================
   2:..\source/control.c ****  *
   3:..\source/control.c ****  * Copyright YOUR COMPANY, THE YEAR
   4:..\source/control.c ****  * All Rights Reserved
   5:..\source/control.c ****  * UNPUBLISHED, LICENSED SOFTWARE.
   6:..\source/control.c ****  *
   7:..\source/control.c ****  * CONFIDENTIAL AND PROPRIETARY INFORMATION
   8:..\source/control.c ****  * WHICH IS THE PROPERTY OF your company.
   9:..\source/control.c ****  *
  10:..\source/control.c ****  * ========================================
  11:..\source/control.c **** */
  12:..\source/control.c **** 
  13:..\source/control.c **** #include "control.h"
  14:..\source/control.c **** #include "i2c.h"
  15:..\source/control.c **** #include "motor.h"
  16:..\source/control.c **** #include "cal.h"
  17:..\source/control.c **** #include "odom.h"
  18:..\source/control.c **** #include "time.h"
  19:..\source/control.c **** #include "utils.h"
  20:..\source/control.c **** #include "debug.h"
  21:..\source/control.c **** #include "pid_controller.h"
  22:..\source/control.c **** 
  23:..\source/control.c **** /* The purpose of this module is to handle control changes to the system.
  24:..\source/control.c ****  */
  25:..\source/control.c **** 
  26:..\source/control.c **** #define LEFT_RIGHT_CALC_MS  SAMPLE_TIME_MS(CONTROL_RATE)
  27:..\source/control.c **** 
  28:..\source/control.c **** static float left_cmd_velocity;
  29:..\source/control.c **** static float right_cmd_velocity;
  30:..\source/control.c **** #ifdef CLIFF_SENSORS    
  31:..\source/control.c **** static uint8 front_cliff_detect;
ARM GAS  C:\Users\Tim\AppData\Local\Temp\cc81SQ7k.s 			page 2


  32:..\source/control.c **** static uint8 rear_cliff_detect;
  33:..\source/control.c **** #endif
  34:..\source/control.c **** 
  35:..\source/control.c **** static PIDControl angular_pid;
  36:..\source/control.c **** static uint32 delta_angular_time;
  37:..\source/control.c **** static uint32 last_angular_time;
  38:..\source/control.c **** 
  39:..\source/control.c **** static void CalculateLeftRightSpeed()
  40:..\source/control.c **** /* Calculate the left/right wheel speed from the commanded linear/angular velocity
  41:..\source/control.c ****  */
  42:..\source/control.c **** {
  27              		.loc 1 42 0
  28              		.cfi_startproc
  29              		@ args = 0, pretend = 0, frame = 8
  30              		@ frame_needed = 0, uses_anonymous_args = 0
  31 0000 10B5     		push	{r4, lr}
  32              		.cfi_def_cfa_offset 8
  33              		.cfi_offset 4, -8
  34              		.cfi_offset 14, -4
  35 0002 82B0     		sub	sp, sp, #8
  36              		.cfi_def_cfa_offset 16
  43:..\source/control.c ****     float linear;
  44:..\source/control.c ****     float angular;
  45:..\source/control.c **** 
  46:..\source/control.c ****     I2c_ReadCmdVelocity(&linear, &angular);
  37              		.loc 1 46 0
  38 0004 01A8     		add	r0, sp, #4
  39 0006 6946     		mov	r1, sp
  40 0008 FFF7FEFF 		bl	I2c_ReadCmdVelocity
  41              	.LVL0:
  47:..\source/control.c **** 
  48:..\source/control.c ****     /* Implement a PID using odometry as feedback
  49:..\source/control.c **** 
  50:..\source/control.c ****         Initialize Control PID:
  51:..\source/control.c ****             control_pid = {0, 0, 0, 0, 0, 0, 0, 0, 0, 0, 0, 0, 0, 0, DIRECT, AUTOMATIC}
  52:..\source/control.c ****             PIDInit(&control_pid, 0, 0, 0, PID_SAMPLE_TIME_SEC, PID_MIN, PID_MAX, AUTOMATIC, DIRECT
  53:..\source/control.c **** 
  54:..\source/control.c ****         Process Control PID:
  55:..\source/control.c ****             Get measured linear, angular velocity from odometry
  56:..\source/control.c ****             Get commanded linear, angular velocity
  57:..\source/control.c ****             Compute PID
  58:..\source/control.c ****             Convert linear, angular to left, right velocity
  59:..\source/control.c ****     
  60:..\source/control.c ****         PIDSetpointSet(&control_pid, abs(angular));
  61:..\source/control.c ****         meas_angular = Odom_GetAngularVelocity()
  62:..\source/control.c ****         PIDInputSet(&control_pid, abs(meas_angular));
  63:..\source/control.c ****         
  64:..\source/control.c ****         if (PIDCompute(&control_pid))
  65:..\source/control.c ****             Convert linear/angular to left/right velocity
  66:..\source/control.c ****     
  67:..\source/control.c ****     
  68:..\source/control.c ****         Commanded Angular Velocity      Meas Angular Velocity       Error           Output
  69:..\source/control.c ****                    0.0                          0.001               0.001           -0.001 -> left/
  70:..\source/control.c ****     
  71:..\source/control.c ****      */
  72:..\source/control.c ****     
  73:..\source/control.c ****     delta_angular_time = millis() - last_angular_time;
ARM GAS  C:\Users\Tim\AppData\Local\Temp\cc81SQ7k.s 			page 3


  42              		.loc 1 73 0
  43 000c FFF7FEFF 		bl	millis
  44              	.LVL1:
  45 0010 1B4A     		ldr	r2, .L13
  46 0012 1368     		ldr	r3, [r2]
  47 0014 C01A     		subs	r0, r0, r3
  48 0016 5060     		str	r0, [r2, #4]
  74:..\source/control.c ****     if (delta_angular_time >= 20)
  49              		.loc 1 74 0
  50 0018 1328     		cmp	r0, #19
  51 001a 2ED9     		bls	.L1
  52              	.LBB2:
  75:..\source/control.c ****     {
  76:..\source/control.c ****         last_angular_time = millis();
  53              		.loc 1 76 0
  54 001c FFF7FEFF 		bl	millis
  55              	.LVL2:
  56 0020 174B     		ldr	r3, .L13
  57 0022 1860     		str	r0, [r3]
  77:..\source/control.c ****         
  78:..\source/control.c ****         //dir = tgt_speed > 0 ? 1 : -1;
  79:..\source/control.c ****         
  80:..\source/control.c ****         PIDSetpointSet(&angular_pid, abs(angular));
  58              		.loc 1 80 0
  59 0024 009C     		ldr	r4, [sp]	@ float
  60 0026 2046     		mov	r0, r4
  61 0028 0021     		movs	r1, #0
  62 002a FFF7FEFF 		bl	__aeabi_fcmplt
  63              	.LVL3:
  64 002e 08B1     		cbz	r0, .L3
  65              		.loc 1 80 0 is_stmt 0 discriminator 1
  66 0030 04F10044 		add	r4, r4, #-2147483648
  67              	.L3:
  68              		.loc 1 80 0 discriminator 4
  69 0034 1348     		ldr	r0, .L13+4
  70 0036 2146     		mov	r1, r4
  71 0038 FFF7FEFF 		bl	PIDSetpointSet
  72              	.LVL4:
  81:..\source/control.c ****         float meas_angular = Odom_GetAngularVelocity();
  73              		.loc 1 81 0 is_stmt 1 discriminator 4
  74 003c FFF7FEFF 		bl	Odom_GetAngularVelocity
  75              	.LVL5:
  76 0040 0446     		mov	r4, r0
  77              	.LVL6:
  82:..\source/control.c ****         PIDInputSet(&angular_pid, abs(meas_angular));
  78              		.loc 1 82 0 discriminator 4
  79 0042 0021     		movs	r1, #0
  80 0044 FFF7FEFF 		bl	__aeabi_fcmplt
  81              	.LVL7:
  82 0048 10B1     		cbz	r0, .L11
  83              		.loc 1 82 0 is_stmt 0 discriminator 1
  84 004a 04F10041 		add	r1, r4, #-2147483648
  85 004e 00E0     		b	.L5
  86              	.L11:
  87              		.loc 1 82 0
  88 0050 2146     		mov	r1, r4
  89              	.L5:
ARM GAS  C:\Users\Tim\AppData\Local\Temp\cc81SQ7k.s 			page 4


  90              		.loc 1 82 0 discriminator 4
  91 0052 0C4C     		ldr	r4, .L13+4
  92              	.LVL8:
  93 0054 2046     		mov	r0, r4
  94 0056 FFF7FEFF 		bl	PIDInputSet
  95              	.LVL9:
  83:..\source/control.c ****         
  84:..\source/control.c ****         if (PIDCompute(&angular_pid))
  96              		.loc 1 84 0 is_stmt 1 discriminator 4
  97 005a 2046     		mov	r0, r4
  98 005c FFF7FEFF 		bl	PIDCompute
  99              	.LVL10:
 100 0060 18B1     		cbz	r0, .L7
  85:..\source/control.c ****         {
  86:..\source/control.c ****             angular = angular_pid.output;// * dir);
 101              		.loc 1 86 0
 102 0062 A4F10803 		sub	r3, r4, #8
 103 0066 1B69     		ldr	r3, [r3, #16]	@ float
 104 0068 0093     		str	r3, [sp]	@ float
 105              	.L7:
  87:..\source/control.c ****         }
  88:..\source/control.c ****         
  89:..\source/control.c ****         ConvertLinearAngularToDifferential(linear, angular, &left_cmd_velocity, &right_cmd_velocity
 106              		.loc 1 89 0
 107 006a 054B     		ldr	r3, .L13
 108 006c 0198     		ldr	r0, [sp, #4]	@ float
 109 006e 0099     		ldr	r1, [sp]	@ float
 110 0070 03F14402 		add	r2, r3, #68
 111 0074 4833     		adds	r3, r3, #72
 112 0076 FFF7FEFF 		bl	ConvertLinearAngularToDifferential
 113              	.LVL11:
 114              	.L1:
 115              	.LBE2:
  90:..\source/control.c ****     }
  91:..\source/control.c **** }
 116              		.loc 1 91 0
 117 007a 02B0     		add	sp, sp, #8
 118              		.cfi_def_cfa_offset 8
 119              		@ sp needed
 120 007c 10BD     		pop	{r4, pc}
 121              	.L14:
 122 007e 00BF     		.align	2
 123              	.L13:
 124 0080 00000000 		.word	.LANCHOR0
 125 0084 08000000 		.word	.LANCHOR0+8
 126              		.cfi_endproc
 127              	.LFE63:
 128              		.size	CalculateLeftRightSpeed, .-CalculateLeftRightSpeed
 129              		.section	.text.Control_Init,"ax",%progbits
 130              		.align	2
 131              		.global	Control_Init
 132              		.thumb
 133              		.thumb_func
 134              		.type	Control_Init, %function
 135              	Control_Init:
 136              	.LFB64:
  92:..\source/control.c **** 
ARM GAS  C:\Users\Tim\AppData\Local\Temp\cc81SQ7k.s 			page 5


  93:..\source/control.c **** void Control_Init()
  94:..\source/control.c **** {
 137              		.loc 1 94 0
 138              		.cfi_startproc
 139              		@ args = 0, pretend = 0, frame = 0
 140              		@ frame_needed = 0, uses_anonymous_args = 0
 141              		@ link register save eliminated.
 142 0000 7047     		bx	lr
 143              		.cfi_endproc
 144              	.LFE64:
 145              		.size	Control_Init, .-Control_Init
 146 0002 00BF     		.section	.text.Control_Start,"ax",%progbits
 147              		.align	2
 148              		.global	Control_Start
 149              		.thumb
 150              		.thumb_func
 151              		.type	Control_Start, %function
 152              	Control_Start:
 153              	.LFB65:
  95:..\source/control.c **** }
  96:..\source/control.c **** 
  97:..\source/control.c **** void Control_Start()
  98:..\source/control.c **** {    
 154              		.loc 1 98 0
 155              		.cfi_startproc
 156              		@ args = 0, pretend = 0, frame = 0
 157              		@ frame_needed = 0, uses_anonymous_args = 0
 158              		.loc 1 98 0
 159 0000 00B5     		push	{lr}
 160              		.cfi_def_cfa_offset 4
 161              		.cfi_offset 14, -4
 162 0002 87B0     		sub	sp, sp, #28
 163              		.cfi_def_cfa_offset 32
  99:..\source/control.c ****     PIDInit(&angular_pid, 0.2, 0.0, 0.0, 0.05, 0, 1.0, AUTOMATIC, DIRECT);
 164              		.loc 1 99 0
 165 0004 0023     		movs	r3, #0
 166 0006 094A     		ldr	r2, .L18
 167 0008 0092     		str	r2, [sp]	@ float
 168 000a 0193     		str	r3, [sp, #4]	@ float
 169 000c 4FF07E52 		mov	r2, #1065353216
 170 0010 0292     		str	r2, [sp, #8]	@ float
 171 0012 0122     		movs	r2, #1
 172 0014 0392     		str	r2, [sp, #12]
 173 0016 0022     		movs	r2, #0
 174 0018 0492     		str	r2, [sp, #16]
 175 001a 0548     		ldr	r0, .L18+4
 176 001c 0549     		ldr	r1, .L18+8
 177 001e 1A46     		mov	r2, r3
 178 0020 FFF7FEFF 		bl	PIDInit
 179              	.LVL12:
 100:..\source/control.c **** }
 180              		.loc 1 100 0
 181 0024 07B0     		add	sp, sp, #28
 182              		.cfi_def_cfa_offset 4
 183              		@ sp needed
 184 0026 5DF804FB 		ldr	pc, [sp], #4
 185              	.L19:
ARM GAS  C:\Users\Tim\AppData\Local\Temp\cc81SQ7k.s 			page 6


 186 002a 00BF     		.align	2
 187              	.L18:
 188 002c CDCC4C3D 		.word	1028443341
 189 0030 08000000 		.word	.LANCHOR0+8
 190 0034 CDCC4C3E 		.word	1045220557
 191              		.cfi_endproc
 192              	.LFE65:
 193              		.size	Control_Start, .-Control_Start
 194              		.section	.text.Control_Update,"ax",%progbits
 195              		.align	2
 196              		.global	Control_Update
 197              		.thumb
 198              		.thumb_func
 199              		.type	Control_Update, %function
 200              	Control_Update:
 201              	.LFB66:
 101:..\source/control.c **** 
 102:..\source/control.c **** void Control_Update()
 103:..\source/control.c **** {
 202              		.loc 1 103 0
 203              		.cfi_startproc
 204              		@ args = 0, pretend = 0, frame = 0
 205              		@ frame_needed = 0, uses_anonymous_args = 0
 206 0000 10B5     		push	{r4, lr}
 207              		.cfi_def_cfa_offset 8
 208              		.cfi_offset 4, -8
 209              		.cfi_offset 14, -4
 104:..\source/control.c ****     uint16 control = I2c_ReadDeviceControl();
 210              		.loc 1 104 0
 211 0002 FFF7FEFF 		bl	I2c_ReadDeviceControl
 212              	.LVL13:
 213 0006 0446     		mov	r4, r0
 214              	.LVL14:
 105:..\source/control.c ****     if (control & CONTROL_DISABLE_MOTOR_BIT)
 215              		.loc 1 105 0
 216 0008 10F0010F 		tst	r0, #1
 217 000c 01D0     		beq	.L21
 106:..\source/control.c ****     {
 107:..\source/control.c ****         Motor_Stop();
 218              		.loc 1 107 0
 219 000e FFF7FEFF 		bl	Motor_Stop
 220              	.LVL15:
 221              	.L21:
 108:..\source/control.c ****     }
 109:..\source/control.c ****     
 110:..\source/control.c ****     if (control & CONTROL_CLEAR_ODOMETRY_BIT)
 222              		.loc 1 110 0
 223 0012 04F00204 		and	r4, r4, #2
 224 0016 A4B2     		uxth	r4, r4
 225 0018 0CB1     		cbz	r4, .L22
 111:..\source/control.c ****     {
 112:..\source/control.c ****         Odom_Reset();
 226              		.loc 1 112 0
 227 001a FFF7FEFF 		bl	Odom_Reset
 228              	.LVL16:
 229              	.L22:
 113:..\source/control.c ****     }
ARM GAS  C:\Users\Tim\AppData\Local\Temp\cc81SQ7k.s 			page 7


 114:..\source/control.c **** 
 115:..\source/control.c ****     I2c_ReadDebugControl();
 230              		.loc 1 115 0
 231 001e FFF7FEFF 		bl	I2c_ReadDebugControl
 232              	.LVL17:
 116:..\source/control.c ****     
 117:..\source/control.c ****     /* Check if calibration is requested */
 118:..\source/control.c ****     Cal_CheckRequest();
 233              		.loc 1 118 0
 234 0022 FFF7FEFF 		bl	Cal_CheckRequest
 235              	.LVL18:
 119:..\source/control.c ****     
 120:..\source/control.c ****     CalculateLeftRightSpeed();   
 236              		.loc 1 120 0
 237 0026 FFF7FEFF 		bl	CalculateLeftRightSpeed
 238              	.LVL19:
 239 002a 10BD     		pop	{r4, pc}
 240              		.cfi_endproc
 241              	.LFE66:
 242              		.size	Control_Update, .-Control_Update
 243              		.section	.text.Control_LeftGetCmdVelocity,"ax",%progbits
 244              		.align	2
 245              		.global	Control_LeftGetCmdVelocity
 246              		.thumb
 247              		.thumb_func
 248              		.type	Control_LeftGetCmdVelocity, %function
 249              	Control_LeftGetCmdVelocity:
 250              	.LFB67:
 121:..\source/control.c **** }
 122:..\source/control.c **** 
 123:..\source/control.c **** float Control_LeftGetCmdVelocity()
 124:..\source/control.c **** {
 251              		.loc 1 124 0
 252              		.cfi_startproc
 253              		@ args = 0, pretend = 0, frame = 0
 254              		@ frame_needed = 0, uses_anonymous_args = 0
 255              		@ link register save eliminated.
 125:..\source/control.c ****     return left_cmd_velocity;
 126:..\source/control.c **** }
 256              		.loc 1 126 0
 257 0000 014B     		ldr	r3, .L25
 258 0002 586C     		ldr	r0, [r3, #68]	@ float
 259 0004 7047     		bx	lr
 260              	.L26:
 261 0006 00BF     		.align	2
 262              	.L25:
 263 0008 00000000 		.word	.LANCHOR0
 264              		.cfi_endproc
 265              	.LFE67:
 266              		.size	Control_LeftGetCmdVelocity, .-Control_LeftGetCmdVelocity
 267              		.section	.text.Control_RightGetCmdVelocity,"ax",%progbits
 268              		.align	2
 269              		.global	Control_RightGetCmdVelocity
 270              		.thumb
 271              		.thumb_func
 272              		.type	Control_RightGetCmdVelocity, %function
 273              	Control_RightGetCmdVelocity:
ARM GAS  C:\Users\Tim\AppData\Local\Temp\cc81SQ7k.s 			page 8


 274              	.LFB68:
 127:..\source/control.c **** 
 128:..\source/control.c **** float Control_RightGetCmdVelocity()
 129:..\source/control.c **** {
 275              		.loc 1 129 0
 276              		.cfi_startproc
 277              		@ args = 0, pretend = 0, frame = 0
 278              		@ frame_needed = 0, uses_anonymous_args = 0
 279              		@ link register save eliminated.
 130:..\source/control.c ****     return right_cmd_velocity;
 131:..\source/control.c **** }
 280              		.loc 1 131 0
 281 0000 014B     		ldr	r3, .L28
 282 0002 986C     		ldr	r0, [r3, #72]	@ float
 283 0004 7047     		bx	lr
 284              	.L29:
 285 0006 00BF     		.align	2
 286              	.L28:
 287 0008 00000000 		.word	.LANCHOR0
 288              		.cfi_endproc
 289              	.LFE68:
 290              		.size	Control_RightGetCmdVelocity, .-Control_RightGetCmdVelocity
 291              		.comm	formatted_string,256,4
 292              		.comm	debug_control_enabled,2,2
 293              		.comm	p_cal_eeprom,4,4
 294              		.bss
 295              		.align	2
 296              		.set	.LANCHOR0,. + 0
 297              		.type	last_angular_time, %object
 298              		.size	last_angular_time, 4
 299              	last_angular_time:
 300 0000 00000000 		.space	4
 301              		.type	delta_angular_time, %object
 302              		.size	delta_angular_time, 4
 303              	delta_angular_time:
 304 0004 00000000 		.space	4
 305              		.type	angular_pid, %object
 306              		.size	angular_pid, 60
 307              	angular_pid:
 308 0008 00000000 		.space	60
 308      00000000 
 308      00000000 
 308      00000000 
 308      00000000 
 309              		.type	left_cmd_velocity, %object
 310              		.size	left_cmd_velocity, 4
 311              	left_cmd_velocity:
 312 0044 00000000 		.space	4
 313              		.type	right_cmd_velocity, %object
 314              		.size	right_cmd_velocity, 4
 315              	right_cmd_velocity:
 316 0048 00000000 		.space	4
 317              		.text
 318              	.Letext0:
 319              		.file 2 "c:\\program files (x86)\\cypress\\psoc creator\\3.3\\psoc creator\\import\\gnu\\arm\\4.9.
 320              		.file 3 "c:\\program files (x86)\\cypress\\psoc creator\\3.3\\psoc creator\\import\\gnu\\arm\\4.9.
 321              		.file 4 "Generated_Source\\PSoC5/cytypes.h"
ARM GAS  C:\Users\Tim\AppData\Local\Temp\cc81SQ7k.s 			page 9


 322              		.file 5 "..\\source\\cal.h"
 323              		.file 6 "..\\source\\pid_controller.h"
 324              		.file 7 "Generated_Source\\PSoC5/core_cm3.h"
 325              		.file 8 "..\\source\\debug.h"
 326              		.file 9 "..\\source\\time.h"
 327              		.file 10 "..\\source\\odom.h"
 328              		.file 11 "..\\source\\utils.h"
 329              		.file 12 "..\\source\\i2c.h"
 330              		.file 13 "..\\source\\motor.h"