ARM GAS  C:\Users\Tim\AppData\Local\Temp\cciSpwkc.s 			page 1


   1              		.syntax unified
   2              		.cpu cortex-m3
   3              		.fpu softvfp
   4              		.eabi_attribute 20, 1
   5              		.eabi_attribute 21, 1
   6              		.eabi_attribute 23, 3
   7              		.eabi_attribute 24, 1
   8              		.eabi_attribute 25, 1
   9              		.eabi_attribute 26, 1
  10              		.eabi_attribute 30, 1
  11              		.eabi_attribute 34, 1
  12              		.eabi_attribute 18, 4
  13              		.thumb
  14              		.file	"cyfitter_cfg.c"
  15              		.text
  16              	.Ltext0:
  17              		.cfi_sections	.debug_frame
  18              		.section	.text.CyClockStartupError,"ax",%progbits
  19              		.align	2
  20              		.thumb
  21              		.thumb_func
  22              		.type	CyClockStartupError, %function
  23              	CyClockStartupError:
  24              	.LFB3:
  25              		.file 1 ".\\Generated_Source\\PSoC5\\cyfitter_cfg.c"
   1:.\Generated_Source\PSoC5/cyfitter_cfg.c **** /*******************************************************************************
   2:.\Generated_Source\PSoC5/cyfitter_cfg.c **** * File Name: cyfitter_cfg.c
   3:.\Generated_Source\PSoC5/cyfitter_cfg.c **** * 
   4:.\Generated_Source\PSoC5/cyfitter_cfg.c **** * PSoC Creator  3.3 CP2
   5:.\Generated_Source\PSoC5/cyfitter_cfg.c **** *
   6:.\Generated_Source\PSoC5/cyfitter_cfg.c **** * Description:
   7:.\Generated_Source\PSoC5/cyfitter_cfg.c **** * This file contains device initialization code.
   8:.\Generated_Source\PSoC5/cyfitter_cfg.c **** * Except for the user defined sections in CyClockStartupError(), this file should not be modified.
   9:.\Generated_Source\PSoC5/cyfitter_cfg.c **** * This file is automatically generated by PSoC Creator.
  10:.\Generated_Source\PSoC5/cyfitter_cfg.c **** *
  11:.\Generated_Source\PSoC5/cyfitter_cfg.c **** ********************************************************************************
  12:.\Generated_Source\PSoC5/cyfitter_cfg.c **** * Copyright (c) 2007-2015 Cypress Semiconductor.  All rights reserved.
  13:.\Generated_Source\PSoC5/cyfitter_cfg.c **** * You may use this file only in accordance with the license, terms, conditions, 
  14:.\Generated_Source\PSoC5/cyfitter_cfg.c **** * disclaimers, and limitations in the end user license agreement accompanying 
  15:.\Generated_Source\PSoC5/cyfitter_cfg.c **** * the software package with which this file was provided.
  16:.\Generated_Source\PSoC5/cyfitter_cfg.c **** ********************************************************************************/
  17:.\Generated_Source\PSoC5/cyfitter_cfg.c **** 
  18:.\Generated_Source\PSoC5/cyfitter_cfg.c **** #include <string.h>
  19:.\Generated_Source\PSoC5/cyfitter_cfg.c **** #include "cytypes.h"
  20:.\Generated_Source\PSoC5/cyfitter_cfg.c **** #include "cydevice_trm.h"
  21:.\Generated_Source\PSoC5/cyfitter_cfg.c **** #include "cyfitter.h"
  22:.\Generated_Source\PSoC5/cyfitter_cfg.c **** #include "CyLib.h"
  23:.\Generated_Source\PSoC5/cyfitter_cfg.c **** #include "cyfitter_cfg.h"
  24:.\Generated_Source\PSoC5/cyfitter_cfg.c **** 
  25:.\Generated_Source\PSoC5/cyfitter_cfg.c **** #define CY_NEED_CYCLOCKSTARTUPERROR 1
  26:.\Generated_Source\PSoC5/cyfitter_cfg.c **** 
  27:.\Generated_Source\PSoC5/cyfitter_cfg.c **** 
  28:.\Generated_Source\PSoC5/cyfitter_cfg.c **** #if defined(__GNUC__) || defined(__ARMCC_VERSION)
  29:.\Generated_Source\PSoC5/cyfitter_cfg.c ****     #define CYPACKED 
  30:.\Generated_Source\PSoC5/cyfitter_cfg.c ****     #define CYPACKED_ATTR __attribute__ ((packed))
  31:.\Generated_Source\PSoC5/cyfitter_cfg.c ****     #define CYALIGNED __attribute__ ((aligned))
  32:.\Generated_Source\PSoC5/cyfitter_cfg.c ****     #define CY_CFG_UNUSED __attribute__ ((unused))
ARM GAS  C:\Users\Tim\AppData\Local\Temp\cciSpwkc.s 			page 2


  33:.\Generated_Source\PSoC5/cyfitter_cfg.c ****     #ifndef CY_CFG_SECTION
  34:.\Generated_Source\PSoC5/cyfitter_cfg.c ****         #define CY_CFG_SECTION __attribute__ ((section(".psocinit")))
  35:.\Generated_Source\PSoC5/cyfitter_cfg.c ****     #endif
  36:.\Generated_Source\PSoC5/cyfitter_cfg.c ****     
  37:.\Generated_Source\PSoC5/cyfitter_cfg.c ****     #if defined(__ARMCC_VERSION)
  38:.\Generated_Source\PSoC5/cyfitter_cfg.c ****         #define CY_CFG_MEMORY_BARRIER() __memory_changed()
  39:.\Generated_Source\PSoC5/cyfitter_cfg.c ****     #else
  40:.\Generated_Source\PSoC5/cyfitter_cfg.c ****         #define CY_CFG_MEMORY_BARRIER() __sync_synchronize()
  41:.\Generated_Source\PSoC5/cyfitter_cfg.c ****     #endif
  42:.\Generated_Source\PSoC5/cyfitter_cfg.c ****     
  43:.\Generated_Source\PSoC5/cyfitter_cfg.c **** #elif defined(__ICCARM__)
  44:.\Generated_Source\PSoC5/cyfitter_cfg.c ****     #include <intrinsics.h>
  45:.\Generated_Source\PSoC5/cyfitter_cfg.c **** 
  46:.\Generated_Source\PSoC5/cyfitter_cfg.c ****     #define CYPACKED __packed
  47:.\Generated_Source\PSoC5/cyfitter_cfg.c ****     #define CYPACKED_ATTR 
  48:.\Generated_Source\PSoC5/cyfitter_cfg.c ****     #define CYALIGNED _Pragma("data_alignment=4")
  49:.\Generated_Source\PSoC5/cyfitter_cfg.c ****     #define CY_CFG_UNUSED _Pragma("diag_suppress=Pe177")
  50:.\Generated_Source\PSoC5/cyfitter_cfg.c ****     #define CY_CFG_SECTION _Pragma("location=\".psocinit\"")
  51:.\Generated_Source\PSoC5/cyfitter_cfg.c ****     
  52:.\Generated_Source\PSoC5/cyfitter_cfg.c ****     #define CY_CFG_MEMORY_BARRIER() __DMB()
  53:.\Generated_Source\PSoC5/cyfitter_cfg.c ****     
  54:.\Generated_Source\PSoC5/cyfitter_cfg.c **** #else
  55:.\Generated_Source\PSoC5/cyfitter_cfg.c ****     #error Unsupported toolchain
  56:.\Generated_Source\PSoC5/cyfitter_cfg.c **** #endif
  57:.\Generated_Source\PSoC5/cyfitter_cfg.c **** 
  58:.\Generated_Source\PSoC5/cyfitter_cfg.c **** 
  59:.\Generated_Source\PSoC5/cyfitter_cfg.c **** CY_CFG_UNUSED
  60:.\Generated_Source\PSoC5/cyfitter_cfg.c **** static void CYMEMZERO(void *s, size_t n);
  61:.\Generated_Source\PSoC5/cyfitter_cfg.c **** CY_CFG_UNUSED
  62:.\Generated_Source\PSoC5/cyfitter_cfg.c **** static void CYMEMZERO(void *s, size_t n)
  63:.\Generated_Source\PSoC5/cyfitter_cfg.c **** {
  64:.\Generated_Source\PSoC5/cyfitter_cfg.c **** 	(void)memset(s, 0, n);
  65:.\Generated_Source\PSoC5/cyfitter_cfg.c **** }
  66:.\Generated_Source\PSoC5/cyfitter_cfg.c **** CY_CFG_UNUSED
  67:.\Generated_Source\PSoC5/cyfitter_cfg.c **** static void CYCONFIGCPY(void *dest, const void *src, size_t n);
  68:.\Generated_Source\PSoC5/cyfitter_cfg.c **** CY_CFG_UNUSED
  69:.\Generated_Source\PSoC5/cyfitter_cfg.c **** static void CYCONFIGCPY(void *dest, const void *src, size_t n)
  70:.\Generated_Source\PSoC5/cyfitter_cfg.c **** {
  71:.\Generated_Source\PSoC5/cyfitter_cfg.c **** 	(void)memcpy(dest, src, n);
  72:.\Generated_Source\PSoC5/cyfitter_cfg.c **** }
  73:.\Generated_Source\PSoC5/cyfitter_cfg.c **** CY_CFG_UNUSED
  74:.\Generated_Source\PSoC5/cyfitter_cfg.c **** static void CYCONFIGCPYCODE(void *dest, const void *src, size_t n);
  75:.\Generated_Source\PSoC5/cyfitter_cfg.c **** CY_CFG_UNUSED
  76:.\Generated_Source\PSoC5/cyfitter_cfg.c **** static void CYCONFIGCPYCODE(void *dest, const void *src, size_t n)
  77:.\Generated_Source\PSoC5/cyfitter_cfg.c **** {
  78:.\Generated_Source\PSoC5/cyfitter_cfg.c **** 	(void)memcpy(dest, src, n);
  79:.\Generated_Source\PSoC5/cyfitter_cfg.c **** }
  80:.\Generated_Source\PSoC5/cyfitter_cfg.c **** 
  81:.\Generated_Source\PSoC5/cyfitter_cfg.c **** 
  82:.\Generated_Source\PSoC5/cyfitter_cfg.c **** 
  83:.\Generated_Source\PSoC5/cyfitter_cfg.c **** /* Clock startup error codes                                                   */
  84:.\Generated_Source\PSoC5/cyfitter_cfg.c **** #define CYCLOCKSTART_NO_ERROR    0u
  85:.\Generated_Source\PSoC5/cyfitter_cfg.c **** #define CYCLOCKSTART_XTAL_ERROR  1u
  86:.\Generated_Source\PSoC5/cyfitter_cfg.c **** #define CYCLOCKSTART_32KHZ_ERROR 2u
  87:.\Generated_Source\PSoC5/cyfitter_cfg.c **** #define CYCLOCKSTART_PLL_ERROR   3u
  88:.\Generated_Source\PSoC5/cyfitter_cfg.c **** 
  89:.\Generated_Source\PSoC5/cyfitter_cfg.c **** #ifdef CY_NEED_CYCLOCKSTARTUPERROR
ARM GAS  C:\Users\Tim\AppData\Local\Temp\cciSpwkc.s 			page 3


  90:.\Generated_Source\PSoC5/cyfitter_cfg.c **** /*******************************************************************************
  91:.\Generated_Source\PSoC5/cyfitter_cfg.c **** * Function Name: CyClockStartupError
  92:.\Generated_Source\PSoC5/cyfitter_cfg.c **** ********************************************************************************
  93:.\Generated_Source\PSoC5/cyfitter_cfg.c **** * Summary:
  94:.\Generated_Source\PSoC5/cyfitter_cfg.c **** *  If an error is encountered during clock configuration (crystal startup error,
  95:.\Generated_Source\PSoC5/cyfitter_cfg.c **** *  PLL lock error, etc.), the system will end up here.  Unless reimplemented by
  96:.\Generated_Source\PSoC5/cyfitter_cfg.c **** *  the customer, this function will stop in an infinite loop.
  97:.\Generated_Source\PSoC5/cyfitter_cfg.c **** *
  98:.\Generated_Source\PSoC5/cyfitter_cfg.c **** * Parameters:
  99:.\Generated_Source\PSoC5/cyfitter_cfg.c **** *   void
 100:.\Generated_Source\PSoC5/cyfitter_cfg.c **** *
 101:.\Generated_Source\PSoC5/cyfitter_cfg.c **** * Return:
 102:.\Generated_Source\PSoC5/cyfitter_cfg.c **** *   void
 103:.\Generated_Source\PSoC5/cyfitter_cfg.c **** *
 104:.\Generated_Source\PSoC5/cyfitter_cfg.c **** *******************************************************************************/
 105:.\Generated_Source\PSoC5/cyfitter_cfg.c **** CY_CFG_UNUSED
 106:.\Generated_Source\PSoC5/cyfitter_cfg.c **** static void CyClockStartupError(uint8 errorCode);
 107:.\Generated_Source\PSoC5/cyfitter_cfg.c **** CY_CFG_UNUSED
 108:.\Generated_Source\PSoC5/cyfitter_cfg.c **** static void CyClockStartupError(uint8 errorCode)
 109:.\Generated_Source\PSoC5/cyfitter_cfg.c **** {
  26              		.loc 1 109 0
  27              		.cfi_startproc
  28              		@ Volatile: function does not return.
  29              		@ args = 0, pretend = 0, frame = 0
  30              		@ frame_needed = 0, uses_anonymous_args = 0
  31              		@ link register save eliminated.
  32              	.LVL0:
  33              	.L2:
 110:.\Generated_Source\PSoC5/cyfitter_cfg.c ****     /* To remove the compiler warning if errorCode not used.                */
 111:.\Generated_Source\PSoC5/cyfitter_cfg.c ****     errorCode = errorCode;
 112:.\Generated_Source\PSoC5/cyfitter_cfg.c **** 
 113:.\Generated_Source\PSoC5/cyfitter_cfg.c ****     /* `#START CyClockStartupError` */
 114:.\Generated_Source\PSoC5/cyfitter_cfg.c **** 
 115:.\Generated_Source\PSoC5/cyfitter_cfg.c ****     /* If we have a clock startup error (bad MHz crystal, PLL lock, etc.),  */
 116:.\Generated_Source\PSoC5/cyfitter_cfg.c ****     /* we will end up here to allow the customer to implement something to  */
 117:.\Generated_Source\PSoC5/cyfitter_cfg.c ****     /* deal with the clock condition.                                       */
 118:.\Generated_Source\PSoC5/cyfitter_cfg.c **** 
 119:.\Generated_Source\PSoC5/cyfitter_cfg.c ****     /* `#END` */
 120:.\Generated_Source\PSoC5/cyfitter_cfg.c **** 
 121:.\Generated_Source\PSoC5/cyfitter_cfg.c ****     /* If nothing else, stop here since the clocks have not started         */
 122:.\Generated_Source\PSoC5/cyfitter_cfg.c ****     /* correctly.                                                           */
 123:.\Generated_Source\PSoC5/cyfitter_cfg.c ****     while(1) {}
  34              		.loc 1 123 0 discriminator 1
  35 0000 FEE7     		b	.L2
  36              		.cfi_endproc
  37              	.LFE3:
  38              		.size	CyClockStartupError, .-CyClockStartupError
  39 0002 00BF     		.section	.text.cfg_write_bytes32,"ax",%progbits
  40              		.align	2
  41              		.thumb
  42              		.thumb_func
  43              		.type	cfg_write_bytes32, %function
  44              	cfg_write_bytes32:
  45              	.LFB4:
 124:.\Generated_Source\PSoC5/cyfitter_cfg.c **** }
 125:.\Generated_Source\PSoC5/cyfitter_cfg.c **** #endif
 126:.\Generated_Source\PSoC5/cyfitter_cfg.c **** 
ARM GAS  C:\Users\Tim\AppData\Local\Temp\cciSpwkc.s 			page 4


 127:.\Generated_Source\PSoC5/cyfitter_cfg.c **** #define CY_CFG_BASE_ADDR_COUNT 42u
 128:.\Generated_Source\PSoC5/cyfitter_cfg.c **** CYPACKED typedef struct
 129:.\Generated_Source\PSoC5/cyfitter_cfg.c **** {
 130:.\Generated_Source\PSoC5/cyfitter_cfg.c **** 	uint8 offset;
 131:.\Generated_Source\PSoC5/cyfitter_cfg.c **** 	uint8 value;
 132:.\Generated_Source\PSoC5/cyfitter_cfg.c **** } CYPACKED_ATTR cy_cfg_addrvalue_t;
 133:.\Generated_Source\PSoC5/cyfitter_cfg.c **** 
 134:.\Generated_Source\PSoC5/cyfitter_cfg.c **** #define cy_cfg_addr_table ((const uint32 CYFAR *)0x48000000u)
 135:.\Generated_Source\PSoC5/cyfitter_cfg.c **** #define cy_cfg_data_table ((const cy_cfg_addrvalue_t CYFAR *)0x480000A8u)
 136:.\Generated_Source\PSoC5/cyfitter_cfg.c **** 
 137:.\Generated_Source\PSoC5/cyfitter_cfg.c **** /* IOPORT_2 Address: CYDEV_PRTDSI_PRT2_BASE Size (bytes): 7 */
 138:.\Generated_Source\PSoC5/cyfitter_cfg.c **** #define BS_IOPORT_2_VAL ((const uint8 CYFAR *)0x48001238u)
 139:.\Generated_Source\PSoC5/cyfitter_cfg.c **** 
 140:.\Generated_Source\PSoC5/cyfitter_cfg.c **** /* UCFG_BCTL0 Address: CYREG_BCTL0_MDCLK_EN Size (bytes): 16 */
 141:.\Generated_Source\PSoC5/cyfitter_cfg.c **** #define BS_UCFG_BCTL0_VAL ((const uint8 CYFAR *)0x48001240u)
 142:.\Generated_Source\PSoC5/cyfitter_cfg.c **** 
 143:.\Generated_Source\PSoC5/cyfitter_cfg.c **** /* IOPINS0_0 Address: CYREG_PRT0_DM0 Size (bytes): 8 */
 144:.\Generated_Source\PSoC5/cyfitter_cfg.c **** #define BS_IOPINS0_0_VAL ((const uint8 CYFAR *)0x48001250u)
 145:.\Generated_Source\PSoC5/cyfitter_cfg.c **** 
 146:.\Generated_Source\PSoC5/cyfitter_cfg.c **** /* IOPINS0_7 Address: CYREG_PRT12_DM0 Size (bytes): 8 */
 147:.\Generated_Source\PSoC5/cyfitter_cfg.c **** #define BS_IOPINS0_7_VAL ((const uint8 CYFAR *)0x48001258u)
 148:.\Generated_Source\PSoC5/cyfitter_cfg.c **** 
 149:.\Generated_Source\PSoC5/cyfitter_cfg.c **** /* IOPINS0_8 Address: CYREG_PRT15_DM0 Size (bytes): 8 */
 150:.\Generated_Source\PSoC5/cyfitter_cfg.c **** #define BS_IOPINS0_8_VAL ((const uint8 CYFAR *)0x48001260u)
 151:.\Generated_Source\PSoC5/cyfitter_cfg.c **** 
 152:.\Generated_Source\PSoC5/cyfitter_cfg.c **** /* IOPINS0_1 Address: CYREG_PRT1_DM0 Size (bytes): 8 */
 153:.\Generated_Source\PSoC5/cyfitter_cfg.c **** #define BS_IOPINS0_1_VAL ((const uint8 CYFAR *)0x48001268u)
 154:.\Generated_Source\PSoC5/cyfitter_cfg.c **** 
 155:.\Generated_Source\PSoC5/cyfitter_cfg.c **** /* IOPINS0_2 Address: CYREG_PRT2_DR Size (bytes): 10 */
 156:.\Generated_Source\PSoC5/cyfitter_cfg.c **** #define BS_IOPINS0_2_VAL ((const uint8 CYFAR *)0x48001270u)
 157:.\Generated_Source\PSoC5/cyfitter_cfg.c **** 
 158:.\Generated_Source\PSoC5/cyfitter_cfg.c **** /* IOPINS0_3 Address: CYREG_PRT3_DM0 Size (bytes): 8 */
 159:.\Generated_Source\PSoC5/cyfitter_cfg.c **** #define BS_IOPINS0_3_VAL ((const uint8 CYFAR *)0x4800127Cu)
 160:.\Generated_Source\PSoC5/cyfitter_cfg.c **** 
 161:.\Generated_Source\PSoC5/cyfitter_cfg.c **** /* IOPINS0_4 Address: CYREG_PRT4_DM0 Size (bytes): 8 */
 162:.\Generated_Source\PSoC5/cyfitter_cfg.c **** #define BS_IOPINS0_4_VAL ((const uint8 CYFAR *)0x48001284u)
 163:.\Generated_Source\PSoC5/cyfitter_cfg.c **** 
 164:.\Generated_Source\PSoC5/cyfitter_cfg.c **** /* IOPINS0_5 Address: CYREG_PRT5_DM0 Size (bytes): 8 */
 165:.\Generated_Source\PSoC5/cyfitter_cfg.c **** #define BS_IOPINS0_5_VAL ((const uint8 CYFAR *)0x4800128Cu)
 166:.\Generated_Source\PSoC5/cyfitter_cfg.c **** 
 167:.\Generated_Source\PSoC5/cyfitter_cfg.c **** /* IOPINS0_6 Address: CYREG_PRT6_DM0 Size (bytes): 8 */
 168:.\Generated_Source\PSoC5/cyfitter_cfg.c **** #define BS_IOPINS0_6_VAL ((const uint8 CYFAR *)0x48001294u)
 169:.\Generated_Source\PSoC5/cyfitter_cfg.c **** 
 170:.\Generated_Source\PSoC5/cyfitter_cfg.c **** 
 171:.\Generated_Source\PSoC5/cyfitter_cfg.c **** /*******************************************************************************
 172:.\Generated_Source\PSoC5/cyfitter_cfg.c **** * Function Name: cfg_write_bytes32
 173:.\Generated_Source\PSoC5/cyfitter_cfg.c **** ********************************************************************************
 174:.\Generated_Source\PSoC5/cyfitter_cfg.c **** * Summary:
 175:.\Generated_Source\PSoC5/cyfitter_cfg.c **** *  This function is used for setting up the chip configuration areas that
 176:.\Generated_Source\PSoC5/cyfitter_cfg.c **** *  contain relatively sparse data.
 177:.\Generated_Source\PSoC5/cyfitter_cfg.c **** *
 178:.\Generated_Source\PSoC5/cyfitter_cfg.c **** * Parameters:
 179:.\Generated_Source\PSoC5/cyfitter_cfg.c **** *   void
 180:.\Generated_Source\PSoC5/cyfitter_cfg.c **** *
 181:.\Generated_Source\PSoC5/cyfitter_cfg.c **** * Return:
 182:.\Generated_Source\PSoC5/cyfitter_cfg.c **** *   void
 183:.\Generated_Source\PSoC5/cyfitter_cfg.c **** *
ARM GAS  C:\Users\Tim\AppData\Local\Temp\cciSpwkc.s 			page 5


 184:.\Generated_Source\PSoC5/cyfitter_cfg.c **** *******************************************************************************/
 185:.\Generated_Source\PSoC5/cyfitter_cfg.c **** static void cfg_write_bytes32(const uint32 addr_table[], const cy_cfg_addrvalue_t data_table[]);
 186:.\Generated_Source\PSoC5/cyfitter_cfg.c **** static void cfg_write_bytes32(const uint32 addr_table[], const cy_cfg_addrvalue_t data_table[])
 187:.\Generated_Source\PSoC5/cyfitter_cfg.c **** {
  46              		.loc 1 187 0
  47              		.cfi_startproc
  48              		@ args = 0, pretend = 0, frame = 0
  49              		@ frame_needed = 0, uses_anonymous_args = 0
  50              		@ link register save eliminated.
  51              	.LVL1:
  52 0000 F0B4     		push	{r4, r5, r6, r7}
  53              		.cfi_def_cfa_offset 16
  54              		.cfi_offset 4, -16
  55              		.cfi_offset 5, -12
  56              		.cfi_offset 6, -8
  57              		.cfi_offset 7, -4
  58              	.LVL2:
 188:.\Generated_Source\PSoC5/cyfitter_cfg.c **** 	/* For 32-bit little-endian architectures */
 189:.\Generated_Source\PSoC5/cyfitter_cfg.c **** 	uint32 i, j = 0u;
  59              		.loc 1 189 0
  60 0002 0022     		movs	r2, #0
 190:.\Generated_Source\PSoC5/cyfitter_cfg.c **** 	for (i = 0u; i < CY_CFG_BASE_ADDR_COUNT; i++)
  61              		.loc 1 190 0
  62 0004 1746     		mov	r7, r2
  63 0006 11E0     		b	.L4
  64              	.LVL3:
  65              	.L7:
  66              	.LBB2:
 191:.\Generated_Source\PSoC5/cyfitter_cfg.c **** 	{
 192:.\Generated_Source\PSoC5/cyfitter_cfg.c **** 		uint32 baseAddr = addr_table[i];
  67              		.loc 1 192 0
  68 0008 50F82760 		ldr	r6, [r0, r7, lsl #2]
  69              	.LVL4:
 193:.\Generated_Source\PSoC5/cyfitter_cfg.c **** 		uint8 count = (uint8)baseAddr;
  70              		.loc 1 193 0
  71 000c F3B2     		uxtb	r3, r6
  72              	.LVL5:
 194:.\Generated_Source\PSoC5/cyfitter_cfg.c **** 		baseAddr &= 0xFFFFFF00u;
  73              		.loc 1 194 0
  74 000e 26F0FF06 		bic	r6, r6, #255
  75              	.LVL6:
 195:.\Generated_Source\PSoC5/cyfitter_cfg.c **** 		while (count != 0u)
  76              		.loc 1 195 0
  77 0012 08E0     		b	.L5
  78              	.L6:
 196:.\Generated_Source\PSoC5/cyfitter_cfg.c **** 		{
 197:.\Generated_Source\PSoC5/cyfitter_cfg.c **** 			CY_SET_XTND_REG8((void CYFAR *)(baseAddr + data_table[j].offset), data_table[j].value);
  79              		.loc 1 197 0
  80 0014 01EB4205 		add	r5, r1, r2, lsl #1
  81 0018 11F81240 		ldrb	r4, [r1, r2, lsl #1]	@ zero_extendqisi2
  82 001c 6D78     		ldrb	r5, [r5, #1]	@ zero_extendqisi2
  83 001e A555     		strb	r5, [r4, r6]
 198:.\Generated_Source\PSoC5/cyfitter_cfg.c **** 			j++;
  84              		.loc 1 198 0
  85 0020 0132     		adds	r2, r2, #1
  86              	.LVL7:
 199:.\Generated_Source\PSoC5/cyfitter_cfg.c **** 			count--;
ARM GAS  C:\Users\Tim\AppData\Local\Temp\cciSpwkc.s 			page 6


  87              		.loc 1 199 0
  88 0022 013B     		subs	r3, r3, #1
  89              	.LVL8:
  90 0024 DBB2     		uxtb	r3, r3
  91              	.LVL9:
  92              	.L5:
 195:.\Generated_Source\PSoC5/cyfitter_cfg.c **** 		{
  93              		.loc 1 195 0
  94 0026 002B     		cmp	r3, #0
  95 0028 F4D1     		bne	.L6
  96              	.LBE2:
 190:.\Generated_Source\PSoC5/cyfitter_cfg.c **** 	{
  97              		.loc 1 190 0 discriminator 2
  98 002a 0137     		adds	r7, r7, #1
  99              	.LVL10:
 100              	.L4:
 190:.\Generated_Source\PSoC5/cyfitter_cfg.c **** 	{
 101              		.loc 1 190 0 is_stmt 0 discriminator 1
 102 002c 292F     		cmp	r7, #41
 103 002e EBD9     		bls	.L7
 200:.\Generated_Source\PSoC5/cyfitter_cfg.c **** 		}
 201:.\Generated_Source\PSoC5/cyfitter_cfg.c **** 	}
 202:.\Generated_Source\PSoC5/cyfitter_cfg.c **** }
 104              		.loc 1 202 0 is_stmt 1
 105 0030 F0BC     		pop	{r4, r5, r6, r7}
 106              		.cfi_restore 7
 107              		.cfi_restore 6
 108              		.cfi_restore 5
 109              		.cfi_restore 4
 110              		.cfi_def_cfa_offset 0
 111              	.LVL11:
 112 0032 7047     		bx	lr
 113              		.cfi_endproc
 114              	.LFE4:
 115              		.size	cfg_write_bytes32, .-cfg_write_bytes32
 116              		.section	.text.AnalogSetDefault,"ax",%progbits
 117              		.align	2
 118              		.thumb
 119              		.thumb_func
 120              		.type	AnalogSetDefault, %function
 121              	AnalogSetDefault:
 122              	.LFB6:
 203:.\Generated_Source\PSoC5/cyfitter_cfg.c **** 
 204:.\Generated_Source\PSoC5/cyfitter_cfg.c **** /*******************************************************************************
 205:.\Generated_Source\PSoC5/cyfitter_cfg.c **** * Function Name: ClockSetup
 206:.\Generated_Source\PSoC5/cyfitter_cfg.c **** ********************************************************************************
 207:.\Generated_Source\PSoC5/cyfitter_cfg.c **** *
 208:.\Generated_Source\PSoC5/cyfitter_cfg.c **** * Summary:
 209:.\Generated_Source\PSoC5/cyfitter_cfg.c **** *  Performs the initialization of all of the clocks in the device based on the
 210:.\Generated_Source\PSoC5/cyfitter_cfg.c **** *  settings in the Clock tab of the DWR.  This includes enabling the requested
 211:.\Generated_Source\PSoC5/cyfitter_cfg.c **** *  clocks and setting the necessary dividers to produce the desired frequency. 
 212:.\Generated_Source\PSoC5/cyfitter_cfg.c **** *
 213:.\Generated_Source\PSoC5/cyfitter_cfg.c **** * Parameters:
 214:.\Generated_Source\PSoC5/cyfitter_cfg.c **** *  void
 215:.\Generated_Source\PSoC5/cyfitter_cfg.c **** *
 216:.\Generated_Source\PSoC5/cyfitter_cfg.c **** * Return:
 217:.\Generated_Source\PSoC5/cyfitter_cfg.c **** *  void
ARM GAS  C:\Users\Tim\AppData\Local\Temp\cciSpwkc.s 			page 7


 218:.\Generated_Source\PSoC5/cyfitter_cfg.c **** *
 219:.\Generated_Source\PSoC5/cyfitter_cfg.c **** *******************************************************************************/
 220:.\Generated_Source\PSoC5/cyfitter_cfg.c **** static void ClockSetup(void);
 221:.\Generated_Source\PSoC5/cyfitter_cfg.c **** static void ClockSetup(void)
 222:.\Generated_Source\PSoC5/cyfitter_cfg.c **** {
 223:.\Generated_Source\PSoC5/cyfitter_cfg.c **** 	uint32 timeout;
 224:.\Generated_Source\PSoC5/cyfitter_cfg.c **** 	uint8 pllLock;
 225:.\Generated_Source\PSoC5/cyfitter_cfg.c **** 
 226:.\Generated_Source\PSoC5/cyfitter_cfg.c **** 
 227:.\Generated_Source\PSoC5/cyfitter_cfg.c **** 	/* Configure Digital Clocks based on settings from Clock DWR */
 228:.\Generated_Source\PSoC5/cyfitter_cfg.c **** 	CY_SET_XTND_REG16((void CYFAR *)(CYREG_CLKDIST_DCFG0_CFG0), 0x0001u);
 229:.\Generated_Source\PSoC5/cyfitter_cfg.c **** 	CY_SET_XTND_REG8((void CYFAR *)(CYREG_CLKDIST_DCFG0_CFG0 + 0x2u), 0x18u);
 230:.\Generated_Source\PSoC5/cyfitter_cfg.c **** 	CY_SET_XTND_REG16((void CYFAR *)(CYREG_CLKDIST_DCFG1_CFG0), 0x0001u);
 231:.\Generated_Source\PSoC5/cyfitter_cfg.c **** 	CY_SET_XTND_REG8((void CYFAR *)(CYREG_CLKDIST_DCFG1_CFG0 + 0x2u), 0x18u);
 232:.\Generated_Source\PSoC5/cyfitter_cfg.c **** 	CY_SET_XTND_REG16((void CYFAR *)(CYREG_CLKDIST_DCFG2_CFG0), 0x000Eu);
 233:.\Generated_Source\PSoC5/cyfitter_cfg.c **** 	CY_SET_XTND_REG8((void CYFAR *)(CYREG_CLKDIST_DCFG2_CFG0 + 0x2u), 0x18u);
 234:.\Generated_Source\PSoC5/cyfitter_cfg.c **** 	CY_SET_XTND_REG16((void CYFAR *)(CYREG_CLKDIST_DCFG3_CFG0), 0x000Eu);
 235:.\Generated_Source\PSoC5/cyfitter_cfg.c **** 	CY_SET_XTND_REG8((void CYFAR *)(CYREG_CLKDIST_DCFG3_CFG0 + 0x2u), 0x18u);
 236:.\Generated_Source\PSoC5/cyfitter_cfg.c **** 	CY_SET_XTND_REG16((void CYFAR *)(CYREG_CLKDIST_DCFG4_CFG0), 0x0017u);
 237:.\Generated_Source\PSoC5/cyfitter_cfg.c **** 	CY_SET_XTND_REG8((void CYFAR *)(CYREG_CLKDIST_DCFG4_CFG0 + 0x2u), 0x18u);
 238:.\Generated_Source\PSoC5/cyfitter_cfg.c **** 	CY_SET_XTND_REG16((void CYFAR *)(CYREG_CLKDIST_DCFG5_CFG0), 0x0017u);
 239:.\Generated_Source\PSoC5/cyfitter_cfg.c **** 	CY_SET_XTND_REG8((void CYFAR *)(CYREG_CLKDIST_DCFG5_CFG0 + 0x2u), 0x18u);
 240:.\Generated_Source\PSoC5/cyfitter_cfg.c **** 	CY_SET_XTND_REG16((void CYFAR *)(CYREG_CLKDIST_DCFG6_CFG0), 0x0017u);
 241:.\Generated_Source\PSoC5/cyfitter_cfg.c **** 	CY_SET_XTND_REG8((void CYFAR *)(CYREG_CLKDIST_DCFG6_CFG0 + 0x2u), 0x18u);
 242:.\Generated_Source\PSoC5/cyfitter_cfg.c **** 	CY_SET_XTND_REG16((void CYFAR *)(CYREG_CLKDIST_DCFG7_CFG0), 0x0019u);
 243:.\Generated_Source\PSoC5/cyfitter_cfg.c **** 	CY_SET_XTND_REG8((void CYFAR *)(CYREG_CLKDIST_DCFG7_CFG0 + 0x2u), 0x18u);
 244:.\Generated_Source\PSoC5/cyfitter_cfg.c **** 
 245:.\Generated_Source\PSoC5/cyfitter_cfg.c **** 	/* Configure ILO based on settings from Clock DWR */
 246:.\Generated_Source\PSoC5/cyfitter_cfg.c **** 	CY_SET_XTND_REG8((void CYFAR *)(CYREG_SLOWCLK_ILO_CR0), 0x02u);
 247:.\Generated_Source\PSoC5/cyfitter_cfg.c **** 	CY_SET_XTND_REG8((void CYFAR *)(CYREG_CLKDIST_CR), 0x08u);
 248:.\Generated_Source\PSoC5/cyfitter_cfg.c **** 
 249:.\Generated_Source\PSoC5/cyfitter_cfg.c **** 	/* Configure IMO based on settings from Clock DWR */
 250:.\Generated_Source\PSoC5/cyfitter_cfg.c **** 	CY_SET_XTND_REG8((void CYFAR *)(CYREG_FASTCLK_IMO_CR), 0x03u);
 251:.\Generated_Source\PSoC5/cyfitter_cfg.c **** 	CY_SET_XTND_REG8((void CYFAR *)(CYREG_IMO_TR1), (CY_GET_XTND_REG8((void CYFAR *)CYREG_FLSHID_CUST_
 252:.\Generated_Source\PSoC5/cyfitter_cfg.c **** 
 253:.\Generated_Source\PSoC5/cyfitter_cfg.c **** 	/* Configure PLL based on settings from Clock DWR */
 254:.\Generated_Source\PSoC5/cyfitter_cfg.c **** 	CY_SET_XTND_REG16((void CYFAR *)(CYREG_FASTCLK_PLL_P), 0x0008u);
 255:.\Generated_Source\PSoC5/cyfitter_cfg.c **** 	CY_SET_XTND_REG16((void CYFAR *)(CYREG_FASTCLK_PLL_CFG0), 0x1251u);
 256:.\Generated_Source\PSoC5/cyfitter_cfg.c **** 	/* Wait up to 250us for the PLL to lock */
 257:.\Generated_Source\PSoC5/cyfitter_cfg.c **** 	pllLock = 0u;
 258:.\Generated_Source\PSoC5/cyfitter_cfg.c **** 	for (timeout = 250u / 10u; (timeout > 0u) && (pllLock != 0x03u); timeout--)
 259:.\Generated_Source\PSoC5/cyfitter_cfg.c **** 	{ 
 260:.\Generated_Source\PSoC5/cyfitter_cfg.c **** 		pllLock = 0x03u & ((uint8)((uint8)pllLock << 1) | ((CY_GET_XTND_REG8((void CYFAR *)CYREG_FASTCLK_
 261:.\Generated_Source\PSoC5/cyfitter_cfg.c **** 		CyDelayCycles(10u * 48u); /* Delay 10us based on 48MHz clock */
 262:.\Generated_Source\PSoC5/cyfitter_cfg.c **** 	}
 263:.\Generated_Source\PSoC5/cyfitter_cfg.c **** 	/* If we ran out of time the PLL didn't lock so go to the error function */
 264:.\Generated_Source\PSoC5/cyfitter_cfg.c **** 	if (timeout == 0u)
 265:.\Generated_Source\PSoC5/cyfitter_cfg.c **** 	{
 266:.\Generated_Source\PSoC5/cyfitter_cfg.c **** 		CyClockStartupError(CYCLOCKSTART_PLL_ERROR);
 267:.\Generated_Source\PSoC5/cyfitter_cfg.c **** 	}
 268:.\Generated_Source\PSoC5/cyfitter_cfg.c **** 
 269:.\Generated_Source\PSoC5/cyfitter_cfg.c **** 	/* Configure Bus/Master Clock based on settings from Clock DWR */
 270:.\Generated_Source\PSoC5/cyfitter_cfg.c **** 	CY_SET_XTND_REG16((void CYFAR *)(CYREG_CLKDIST_MSTR0), 0x0100u);
 271:.\Generated_Source\PSoC5/cyfitter_cfg.c **** 	CY_SET_XTND_REG8((void CYFAR *)(CYREG_CLKDIST_MSTR0), 0x07u);
 272:.\Generated_Source\PSoC5/cyfitter_cfg.c **** 	CY_SET_XTND_REG8((void CYFAR *)(CYREG_CLKDIST_BCFG0), 0x00u);
 273:.\Generated_Source\PSoC5/cyfitter_cfg.c **** 	CY_SET_XTND_REG8((void CYFAR *)(CYREG_CLKDIST_BCFG2), 0x48u);
 274:.\Generated_Source\PSoC5/cyfitter_cfg.c **** 	CY_SET_XTND_REG8((void CYFAR *)(CYREG_CLKDIST_MSTR0), 0x00u);
ARM GAS  C:\Users\Tim\AppData\Local\Temp\cciSpwkc.s 			page 8


 275:.\Generated_Source\PSoC5/cyfitter_cfg.c **** 	CY_SET_XTND_REG8((void CYFAR *)(CYREG_CLKDIST_LD), 0x02u);
 276:.\Generated_Source\PSoC5/cyfitter_cfg.c **** 
 277:.\Generated_Source\PSoC5/cyfitter_cfg.c **** 	CY_SET_XTND_REG8((void CYFAR *)(CYREG_PM_ACT_CFG2), ((CY_GET_XTND_REG8((void CYFAR *)CYREG_PM_ACT_
 278:.\Generated_Source\PSoC5/cyfitter_cfg.c **** }
 279:.\Generated_Source\PSoC5/cyfitter_cfg.c **** 
 280:.\Generated_Source\PSoC5/cyfitter_cfg.c **** 
 281:.\Generated_Source\PSoC5/cyfitter_cfg.c **** /* Analog API Functions */
 282:.\Generated_Source\PSoC5/cyfitter_cfg.c **** 
 283:.\Generated_Source\PSoC5/cyfitter_cfg.c **** 
 284:.\Generated_Source\PSoC5/cyfitter_cfg.c **** /*******************************************************************************
 285:.\Generated_Source\PSoC5/cyfitter_cfg.c **** * Function Name: AnalogSetDefault
 286:.\Generated_Source\PSoC5/cyfitter_cfg.c **** ********************************************************************************
 287:.\Generated_Source\PSoC5/cyfitter_cfg.c **** *
 288:.\Generated_Source\PSoC5/cyfitter_cfg.c **** * Summary:
 289:.\Generated_Source\PSoC5/cyfitter_cfg.c **** *  Sets up the analog portions of the chip to default values based on chip
 290:.\Generated_Source\PSoC5/cyfitter_cfg.c **** *  configuration options from the project.
 291:.\Generated_Source\PSoC5/cyfitter_cfg.c **** *
 292:.\Generated_Source\PSoC5/cyfitter_cfg.c **** * Parameters:
 293:.\Generated_Source\PSoC5/cyfitter_cfg.c **** *  void
 294:.\Generated_Source\PSoC5/cyfitter_cfg.c **** *
 295:.\Generated_Source\PSoC5/cyfitter_cfg.c **** * Return:
 296:.\Generated_Source\PSoC5/cyfitter_cfg.c **** *  void
 297:.\Generated_Source\PSoC5/cyfitter_cfg.c **** *
 298:.\Generated_Source\PSoC5/cyfitter_cfg.c **** *******************************************************************************/
 299:.\Generated_Source\PSoC5/cyfitter_cfg.c **** static void AnalogSetDefault(void);
 300:.\Generated_Source\PSoC5/cyfitter_cfg.c **** static void AnalogSetDefault(void)
 301:.\Generated_Source\PSoC5/cyfitter_cfg.c **** {
 123              		.loc 1 301 0
 124              		.cfi_startproc
 125              		@ args = 0, pretend = 0, frame = 0
 126              		@ frame_needed = 0, uses_anonymous_args = 0
 127              		@ link register save eliminated.
 128 0000 70B4     		push	{r4, r5, r6}
 129              		.cfi_def_cfa_offset 12
 130              		.cfi_offset 4, -12
 131              		.cfi_offset 5, -8
 132              		.cfi_offset 6, -4
 302:.\Generated_Source\PSoC5/cyfitter_cfg.c **** 	uint8 bg_xover_inl_trim = CY_GET_XTND_REG8((void CYFAR *)(CYREG_FLSHID_MFG_CFG_BG_XOVER_INL_TRIM +
 133              		.loc 1 302 0
 134 0002 164B     		ldr	r3, .L11
 135 0004 1B78     		ldrb	r3, [r3]	@ zero_extendqisi2
 136 0006 DBB2     		uxtb	r3, r3
 137              	.LVL12:
 303:.\Generated_Source\PSoC5/cyfitter_cfg.c **** 	uint8 cr4 = CY_GET_XTND_REG8((void CYFAR *)(CYREG_RESET_CR4));
 138              		.loc 1 303 0
 139 0008 1548     		ldr	r0, .L11+4
 140 000a 0278     		ldrb	r2, [r0]	@ zero_extendqisi2
 141 000c D2B2     		uxtb	r2, r2
 142              	.LVL13:
 304:.\Generated_Source\PSoC5/cyfitter_cfg.c **** 	uint8 cr5 = CY_GET_XTND_REG8((void CYFAR *)(CYREG_RESET_CR5));
 143              		.loc 1 304 0
 144 000e 154C     		ldr	r4, .L11+8
 145 0010 2178     		ldrb	r1, [r4]	@ zero_extendqisi2
 146 0012 C9B2     		uxtb	r1, r1
 147              	.LVL14:
 305:.\Generated_Source\PSoC5/cyfitter_cfg.c **** 	CY_SET_XTND_REG8((void CYFAR *)(CYREG_BG_DFT0), (bg_xover_inl_trim & 0x07u));
 148              		.loc 1 305 0
ARM GAS  C:\Users\Tim\AppData\Local\Temp\cciSpwkc.s 			page 9


 149 0014 03F00706 		and	r6, r3, #7
 150 0018 134D     		ldr	r5, .L11+12
 151 001a 2E70     		strb	r6, [r5]
 306:.\Generated_Source\PSoC5/cyfitter_cfg.c **** 	CY_SET_XTND_REG8((void CYFAR *)(CYREG_BG_DFT1), ((bg_xover_inl_trim >> 4) & 0x0Fu));
 152              		.loc 1 306 0
 153 001c 1B09     		lsrs	r3, r3, #4
 154              	.LVL15:
 155 001e 0135     		adds	r5, r5, #1
 156 0020 2B70     		strb	r3, [r5]
 307:.\Generated_Source\PSoC5/cyfitter_cfg.c **** 	/* Disable PRES while setting up SAR voltage reference */
 308:.\Generated_Source\PSoC5/cyfitter_cfg.c **** 	CY_SET_XTND_REG8((void CYFAR *)(CYREG_RESET_CR4), (cr4 | 0x03u));
 157              		.loc 1 308 0
 158 0022 42F00303 		orr	r3, r2, #3
 159 0026 0370     		strb	r3, [r0]
 309:.\Generated_Source\PSoC5/cyfitter_cfg.c **** 	CY_SET_XTND_REG8((void CYFAR *)(CYREG_RESET_CR5), (cr5 | 0x03u));
 160              		.loc 1 309 0
 161 0028 41F00303 		orr	r3, r1, #3
 162 002c 2370     		strb	r3, [r4]
 310:.\Generated_Source\PSoC5/cyfitter_cfg.c **** 	CY_SET_XTND_REG8((void CYFAR *)CYREG_SAR0_CSR1, 0x80u);
 163              		.loc 1 310 0
 164 002e 8023     		movs	r3, #128
 165 0030 9235     		adds	r5, r5, #146
 166 0032 2B70     		strb	r3, [r5]
 311:.\Generated_Source\PSoC5/cyfitter_cfg.c **** 	CY_SET_XTND_REG8((void CYFAR *)CYREG_SAR1_CSR1, 0x80u);
 167              		.loc 1 311 0
 168 0034 0835     		adds	r5, r5, #8
 169 0036 2B70     		strb	r3, [r5]
 312:.\Generated_Source\PSoC5/cyfitter_cfg.c **** 	CY_SET_XTND_REG8((void CYFAR *)CYREG_SAR0_SW0, 0xF0u);
 170              		.loc 1 312 0
 171 0038 F025     		movs	r5, #240
 172 003a 0C4B     		ldr	r3, .L11+16
 173 003c 1D70     		strb	r5, [r3]
 313:.\Generated_Source\PSoC5/cyfitter_cfg.c **** 	CY_SET_XTND_REG8((void CYFAR *)CYREG_SAR0_SW3, 0x20u);
 174              		.loc 1 313 0
 175 003e 2023     		movs	r3, #32
 176 0040 0B4E     		ldr	r6, .L11+20
 177 0042 3370     		strb	r3, [r6]
 314:.\Generated_Source\PSoC5/cyfitter_cfg.c **** 	CY_SET_XTND_REG8((void CYFAR *)CYREG_SAR1_SW0, 0xF0u);
 178              		.loc 1 314 0
 179 0044 0536     		adds	r6, r6, #5
 180 0046 3570     		strb	r5, [r6]
 315:.\Generated_Source\PSoC5/cyfitter_cfg.c **** 	CY_SET_XTND_REG8((void CYFAR *)CYREG_SAR1_SW3, 0x20u);
 181              		.loc 1 315 0
 182 0048 0A4D     		ldr	r5, .L11+24
 183 004a 2B70     		strb	r3, [r5]
 316:.\Generated_Source\PSoC5/cyfitter_cfg.c **** 	CY_SET_XTND_REG8((void CYFAR *)(CYREG_RESET_CR5), (cr5));
 184              		.loc 1 316 0
 185 004c 2170     		strb	r1, [r4]
 317:.\Generated_Source\PSoC5/cyfitter_cfg.c **** 	CY_SET_XTND_REG8((void CYFAR *)(CYREG_RESET_CR4), (cr4));
 186              		.loc 1 317 0
 187 004e 0270     		strb	r2, [r0]
 318:.\Generated_Source\PSoC5/cyfitter_cfg.c **** 	CY_SET_XTND_REG8((void CYFAR *)CYREG_PUMP_CR0, 0x44u);
 188              		.loc 1 318 0
 189 0050 4422     		movs	r2, #68
 190              	.LVL16:
 191 0052 094B     		ldr	r3, .L11+28
 192 0054 1A70     		strb	r2, [r3]
ARM GAS  C:\Users\Tim\AppData\Local\Temp\cciSpwkc.s 			page 10


 193              	.LVL17:
 319:.\Generated_Source\PSoC5/cyfitter_cfg.c **** }
 194              		.loc 1 319 0
 195 0056 70BC     		pop	{r4, r5, r6}
 196              		.cfi_restore 6
 197              		.cfi_restore 5
 198              		.cfi_restore 4
 199              		.cfi_def_cfa_offset 0
 200 0058 7047     		bx	lr
 201              	.L12:
 202 005a 00BF     		.align	2
 203              	.L11:
 204 005c CF010049 		.word	1224737231
 205 0060 F8460040 		.word	1073759992
 206 0064 F9460040 		.word	1073759993
 207 0068 6E580040 		.word	1073764462
 208 006c 205B0040 		.word	1073765152
 209 0070 235B0040 		.word	1073765155
 210 0074 2B5B0040 		.word	1073765163
 211 0078 76580040 		.word	1073764470
 212              		.cfi_endproc
 213              	.LFE6:
 214              		.size	AnalogSetDefault, .-AnalogSetDefault
 215              		.section	.text.CYMEMZERO,"ax",%progbits
 216              		.align	2
 217              		.thumb
 218              		.thumb_func
 219              		.type	CYMEMZERO, %function
 220              	CYMEMZERO:
 221              	.LFB0:
  63:.\Generated_Source\PSoC5/cyfitter_cfg.c **** 	(void)memset(s, 0, n);
 222              		.loc 1 63 0
 223              		.cfi_startproc
 224              		@ args = 0, pretend = 0, frame = 0
 225              		@ frame_needed = 0, uses_anonymous_args = 0
 226              	.LVL18:
 227 0000 08B5     		push	{r3, lr}
 228              		.cfi_def_cfa_offset 8
 229              		.cfi_offset 3, -8
 230              		.cfi_offset 14, -4
 231 0002 0A46     		mov	r2, r1
  64:.\Generated_Source\PSoC5/cyfitter_cfg.c **** }
 232              		.loc 1 64 0
 233 0004 0021     		movs	r1, #0
 234              	.LVL19:
 235 0006 FFF7FEFF 		bl	memset
 236              	.LVL20:
 237 000a 08BD     		pop	{r3, pc}
 238              		.cfi_endproc
 239              	.LFE0:
 240              		.size	CYMEMZERO, .-CYMEMZERO
 241              		.section	.text.ClockSetup,"ax",%progbits
 242              		.align	2
 243              		.thumb
 244              		.thumb_func
 245              		.type	ClockSetup, %function
 246              	ClockSetup:
ARM GAS  C:\Users\Tim\AppData\Local\Temp\cciSpwkc.s 			page 11


 247              	.LFB5:
 222:.\Generated_Source\PSoC5/cyfitter_cfg.c **** 	uint32 timeout;
 248              		.loc 1 222 0
 249              		.cfi_startproc
 250              		@ args = 0, pretend = 0, frame = 0
 251              		@ frame_needed = 0, uses_anonymous_args = 0
 252 0000 38B5     		push	{r3, r4, r5, lr}
 253              		.cfi_def_cfa_offset 16
 254              		.cfi_offset 3, -16
 255              		.cfi_offset 4, -12
 256              		.cfi_offset 5, -8
 257              		.cfi_offset 14, -4
 228:.\Generated_Source\PSoC5/cyfitter_cfg.c **** 	CY_SET_XTND_REG8((void CYFAR *)(CYREG_CLKDIST_DCFG0_CFG0 + 0x2u), 0x18u);
 258              		.loc 1 228 0
 259 0002 0122     		movs	r2, #1
 260 0004 324B     		ldr	r3, .L21
 261 0006 1A80     		strh	r2, [r3]	@ movhi
 229:.\Generated_Source\PSoC5/cyfitter_cfg.c **** 	CY_SET_XTND_REG16((void CYFAR *)(CYREG_CLKDIST_DCFG1_CFG0), 0x0001u);
 262              		.loc 1 229 0
 263 0008 1823     		movs	r3, #24
 264 000a 3249     		ldr	r1, .L21+4
 265 000c 0B70     		strb	r3, [r1]
 230:.\Generated_Source\PSoC5/cyfitter_cfg.c **** 	CY_SET_XTND_REG8((void CYFAR *)(CYREG_CLKDIST_DCFG1_CFG0 + 0x2u), 0x18u);
 266              		.loc 1 230 0
 267 000e 0231     		adds	r1, r1, #2
 268 0010 0A80     		strh	r2, [r1]	@ movhi
 231:.\Generated_Source\PSoC5/cyfitter_cfg.c **** 	CY_SET_XTND_REG16((void CYFAR *)(CYREG_CLKDIST_DCFG2_CFG0), 0x000Eu);
 269              		.loc 1 231 0
 270 0012 314A     		ldr	r2, .L21+8
 271 0014 1370     		strb	r3, [r2]
 232:.\Generated_Source\PSoC5/cyfitter_cfg.c **** 	CY_SET_XTND_REG8((void CYFAR *)(CYREG_CLKDIST_DCFG2_CFG0 + 0x2u), 0x18u);
 272              		.loc 1 232 0
 273 0016 0E22     		movs	r2, #14
 274 0018 0431     		adds	r1, r1, #4
 275 001a 0A80     		strh	r2, [r1]	@ movhi
 233:.\Generated_Source\PSoC5/cyfitter_cfg.c **** 	CY_SET_XTND_REG16((void CYFAR *)(CYREG_CLKDIST_DCFG3_CFG0), 0x000Eu);
 276              		.loc 1 233 0
 277 001c 0231     		adds	r1, r1, #2
 278 001e 0B70     		strb	r3, [r1]
 234:.\Generated_Source\PSoC5/cyfitter_cfg.c **** 	CY_SET_XTND_REG8((void CYFAR *)(CYREG_CLKDIST_DCFG3_CFG0 + 0x2u), 0x18u);
 279              		.loc 1 234 0
 280 0020 0231     		adds	r1, r1, #2
 281 0022 0A80     		strh	r2, [r1]	@ movhi
 235:.\Generated_Source\PSoC5/cyfitter_cfg.c **** 	CY_SET_XTND_REG16((void CYFAR *)(CYREG_CLKDIST_DCFG4_CFG0), 0x0017u);
 282              		.loc 1 235 0
 283 0024 2D4A     		ldr	r2, .L21+12
 284 0026 1370     		strb	r3, [r2]
 236:.\Generated_Source\PSoC5/cyfitter_cfg.c **** 	CY_SET_XTND_REG8((void CYFAR *)(CYREG_CLKDIST_DCFG4_CFG0 + 0x2u), 0x18u);
 285              		.loc 1 236 0
 286 0028 1722     		movs	r2, #23
 287 002a 0431     		adds	r1, r1, #4
 288 002c 0A80     		strh	r2, [r1]	@ movhi
 237:.\Generated_Source\PSoC5/cyfitter_cfg.c **** 	CY_SET_XTND_REG16((void CYFAR *)(CYREG_CLKDIST_DCFG5_CFG0), 0x0017u);
 289              		.loc 1 237 0
 290 002e 0231     		adds	r1, r1, #2
 291 0030 0B70     		strb	r3, [r1]
 238:.\Generated_Source\PSoC5/cyfitter_cfg.c **** 	CY_SET_XTND_REG8((void CYFAR *)(CYREG_CLKDIST_DCFG5_CFG0 + 0x2u), 0x18u);
ARM GAS  C:\Users\Tim\AppData\Local\Temp\cciSpwkc.s 			page 12


 292              		.loc 1 238 0
 293 0032 0231     		adds	r1, r1, #2
 294 0034 0A80     		strh	r2, [r1]	@ movhi
 239:.\Generated_Source\PSoC5/cyfitter_cfg.c **** 	CY_SET_XTND_REG16((void CYFAR *)(CYREG_CLKDIST_DCFG6_CFG0), 0x0017u);
 295              		.loc 1 239 0
 296 0036 0231     		adds	r1, r1, #2
 297 0038 0B70     		strb	r3, [r1]
 240:.\Generated_Source\PSoC5/cyfitter_cfg.c **** 	CY_SET_XTND_REG8((void CYFAR *)(CYREG_CLKDIST_DCFG6_CFG0 + 0x2u), 0x18u);
 298              		.loc 1 240 0
 299 003a 0231     		adds	r1, r1, #2
 300 003c 0A80     		strh	r2, [r1]	@ movhi
 241:.\Generated_Source\PSoC5/cyfitter_cfg.c **** 	CY_SET_XTND_REG16((void CYFAR *)(CYREG_CLKDIST_DCFG7_CFG0), 0x0019u);
 301              		.loc 1 241 0
 302 003e 284A     		ldr	r2, .L21+16
 303 0040 1370     		strb	r3, [r2]
 242:.\Generated_Source\PSoC5/cyfitter_cfg.c **** 	CY_SET_XTND_REG8((void CYFAR *)(CYREG_CLKDIST_DCFG7_CFG0 + 0x2u), 0x18u);
 304              		.loc 1 242 0
 305 0042 1925     		movs	r5, #25
 306 0044 0232     		adds	r2, r2, #2
 307 0046 1580     		strh	r5, [r2]	@ movhi
 243:.\Generated_Source\PSoC5/cyfitter_cfg.c **** 
 308              		.loc 1 243 0
 309 0048 0232     		adds	r2, r2, #2
 310 004a 1370     		strb	r3, [r2]
 246:.\Generated_Source\PSoC5/cyfitter_cfg.c **** 	CY_SET_XTND_REG8((void CYFAR *)(CYREG_CLKDIST_CR), 0x08u);
 311              		.loc 1 246 0
 312 004c 0222     		movs	r2, #2
 313 004e 254B     		ldr	r3, .L21+20
 314 0050 1A70     		strb	r2, [r3]
 247:.\Generated_Source\PSoC5/cyfitter_cfg.c **** 
 315              		.loc 1 247 0
 316 0052 0822     		movs	r2, #8
 317 0054 4FF04023 		mov	r3, #1073758208
 318 0058 1A70     		strb	r2, [r3]
 250:.\Generated_Source\PSoC5/cyfitter_cfg.c **** 	CY_SET_XTND_REG8((void CYFAR *)(CYREG_IMO_TR1), (CY_GET_XTND_REG8((void CYFAR *)CYREG_FLSHID_CUST_
 319              		.loc 1 250 0
 320 005a 0321     		movs	r1, #3
 321 005c 03F50073 		add	r3, r3, #512
 322 0060 1970     		strb	r1, [r3]
 251:.\Generated_Source\PSoC5/cyfitter_cfg.c **** 
 323              		.loc 1 251 0
 324 0062 214B     		ldr	r3, .L21+24
 325 0064 1B78     		ldrb	r3, [r3]	@ zero_extendqisi2
 326 0066 DBB2     		uxtb	r3, r3
 327 0068 2049     		ldr	r1, .L21+28
 328 006a 0B70     		strb	r3, [r1]
 254:.\Generated_Source\PSoC5/cyfitter_cfg.c **** 	CY_SET_XTND_REG16((void CYFAR *)(CYREG_FASTCLK_PLL_CFG0), 0x1251u);
 329              		.loc 1 254 0
 330 006c 204B     		ldr	r3, .L21+32
 331 006e 1A80     		strh	r2, [r3]	@ movhi
 255:.\Generated_Source\PSoC5/cyfitter_cfg.c **** 	/* Wait up to 250us for the PLL to lock */
 332              		.loc 1 255 0
 333 0070 41F25122 		movw	r2, #4689
 334 0074 023B     		subs	r3, r3, #2
 335 0076 1A80     		strh	r2, [r3]	@ movhi
 336              	.LVL21:
 257:.\Generated_Source\PSoC5/cyfitter_cfg.c **** 	for (timeout = 250u / 10u; (timeout > 0u) && (pllLock != 0x03u); timeout--)
ARM GAS  C:\Users\Tim\AppData\Local\Temp\cciSpwkc.s 			page 13


 337              		.loc 1 257 0
 338 0078 0024     		movs	r4, #0
 258:.\Generated_Source\PSoC5/cyfitter_cfg.c **** 	{ 
 339              		.loc 1 258 0
 340 007a 0CE0     		b	.L16
 341              	.LVL22:
 342              	.L18:
 260:.\Generated_Source\PSoC5/cyfitter_cfg.c **** 		CyDelayCycles(10u * 48u); /* Delay 10us based on 48MHz clock */
 343              		.loc 1 260 0 discriminator 4
 344 007c 1D4B     		ldr	r3, .L21+36
 345 007e 1B78     		ldrb	r3, [r3]	@ zero_extendqisi2
 346 0080 03F00103 		and	r3, r3, #1
 347 0084 43EA4404 		orr	r4, r3, r4, lsl #1
 348              	.LVL23:
 349 0088 04F00304 		and	r4, r4, #3
 350              	.LVL24:
 261:.\Generated_Source\PSoC5/cyfitter_cfg.c **** 	}
 351              		.loc 1 261 0 discriminator 4
 352 008c 4FF4F070 		mov	r0, #480
 353 0090 FFF7FEFF 		bl	CyDelayCycles
 354              	.LVL25:
 258:.\Generated_Source\PSoC5/cyfitter_cfg.c **** 	{ 
 355              		.loc 1 258 0 discriminator 4
 356 0094 013D     		subs	r5, r5, #1
 357              	.LVL26:
 358              	.L16:
 258:.\Generated_Source\PSoC5/cyfitter_cfg.c **** 	{ 
 359              		.loc 1 258 0 is_stmt 0 discriminator 1
 360 0096 0DB1     		cbz	r5, .L17
 258:.\Generated_Source\PSoC5/cyfitter_cfg.c **** 	{ 
 361              		.loc 1 258 0 discriminator 3
 362 0098 032C     		cmp	r4, #3
 363 009a EFD1     		bne	.L18
 364              	.L17:
 264:.\Generated_Source\PSoC5/cyfitter_cfg.c **** 	{
 365              		.loc 1 264 0 is_stmt 1
 366 009c 15B9     		cbnz	r5, .L19
 266:.\Generated_Source\PSoC5/cyfitter_cfg.c **** 	}
 367              		.loc 1 266 0
 368 009e 0320     		movs	r0, #3
 369 00a0 FFF7FEFF 		bl	CyClockStartupError
 370              	.LVL27:
 371              	.L19:
 270:.\Generated_Source\PSoC5/cyfitter_cfg.c **** 	CY_SET_XTND_REG8((void CYFAR *)(CYREG_CLKDIST_MSTR0), 0x07u);
 372              		.loc 1 270 0
 373 00a4 144B     		ldr	r3, .L21+40
 374 00a6 4FF48072 		mov	r2, #256
 375 00aa 1A80     		strh	r2, [r3]	@ movhi
 271:.\Generated_Source\PSoC5/cyfitter_cfg.c **** 	CY_SET_XTND_REG8((void CYFAR *)(CYREG_CLKDIST_BCFG0), 0x00u);
 376              		.loc 1 271 0
 377 00ac 0722     		movs	r2, #7
 378 00ae 1A70     		strb	r2, [r3]
 272:.\Generated_Source\PSoC5/cyfitter_cfg.c **** 	CY_SET_XTND_REG8((void CYFAR *)(CYREG_CLKDIST_BCFG2), 0x48u);
 379              		.loc 1 272 0
 380 00b0 0022     		movs	r2, #0
 381 00b2 1249     		ldr	r1, .L21+44
 382 00b4 0A70     		strb	r2, [r1]
ARM GAS  C:\Users\Tim\AppData\Local\Temp\cciSpwkc.s 			page 14


 273:.\Generated_Source\PSoC5/cyfitter_cfg.c **** 	CY_SET_XTND_REG8((void CYFAR *)(CYREG_CLKDIST_MSTR0), 0x00u);
 383              		.loc 1 273 0
 384 00b6 4820     		movs	r0, #72
 385 00b8 0231     		adds	r1, r1, #2
 386 00ba 0870     		strb	r0, [r1]
 274:.\Generated_Source\PSoC5/cyfitter_cfg.c **** 	CY_SET_XTND_REG8((void CYFAR *)(CYREG_CLKDIST_LD), 0x02u);
 387              		.loc 1 274 0
 388 00bc 1A70     		strb	r2, [r3]
 275:.\Generated_Source\PSoC5/cyfitter_cfg.c **** 
 389              		.loc 1 275 0
 390 00be 0222     		movs	r2, #2
 391 00c0 033B     		subs	r3, r3, #3
 392 00c2 1A70     		strb	r2, [r3]
 277:.\Generated_Source\PSoC5/cyfitter_cfg.c **** }
 393              		.loc 1 277 0
 394 00c4 03F2A133 		addw	r3, r3, #929
 395 00c8 1A78     		ldrb	r2, [r3]	@ zero_extendqisi2
 396 00ca FF22     		movs	r2, #255
 397 00cc 1A70     		strb	r2, [r3]
 398 00ce 38BD     		pop	{r3, r4, r5, pc}
 399              	.LVL28:
 400              	.L22:
 401              		.align	2
 402              	.L21:
 403 00d0 80400040 		.word	1073758336
 404 00d4 82400040 		.word	1073758338
 405 00d8 86400040 		.word	1073758342
 406 00dc 8E400040 		.word	1073758350
 407 00e0 9A400040 		.word	1073758362
 408 00e4 00430040 		.word	1073758976
 409 00e8 08010049 		.word	1224737032
 410 00ec A1460040 		.word	1073759905
 411 00f0 22420040 		.word	1073758754
 412 00f4 25420040 		.word	1073758757
 413 00f8 04400040 		.word	1073758212
 414 00fc 06400040 		.word	1073758214
 415              		.cfi_endproc
 416              	.LFE5:
 417              		.size	ClockSetup, .-ClockSetup
 418              		.section	.text.CYCONFIGCPY,"ax",%progbits
 419              		.align	2
 420              		.thumb
 421              		.thumb_func
 422              		.type	CYCONFIGCPY, %function
 423              	CYCONFIGCPY:
 424              	.LFB1:
  70:.\Generated_Source\PSoC5/cyfitter_cfg.c **** 	(void)memcpy(dest, src, n);
 425              		.loc 1 70 0
 426              		.cfi_startproc
 427              		@ args = 0, pretend = 0, frame = 0
 428              		@ frame_needed = 0, uses_anonymous_args = 0
 429              	.LVL29:
 430 0000 08B5     		push	{r3, lr}
 431              		.cfi_def_cfa_offset 8
 432              		.cfi_offset 3, -8
 433              		.cfi_offset 14, -4
  71:.\Generated_Source\PSoC5/cyfitter_cfg.c **** }
ARM GAS  C:\Users\Tim\AppData\Local\Temp\cciSpwkc.s 			page 15


 434              		.loc 1 71 0
 435 0002 FFF7FEFF 		bl	memcpy
 436              	.LVL30:
 437 0006 08BD     		pop	{r3, pc}
 438              		.cfi_endproc
 439              	.LFE1:
 440              		.size	CYCONFIGCPY, .-CYCONFIGCPY
 441              		.section	.text.SetAnalogRoutingPumps,"ax",%progbits
 442              		.align	2
 443              		.global	SetAnalogRoutingPumps
 444              		.thumb
 445              		.thumb_func
 446              		.type	SetAnalogRoutingPumps, %function
 447              	SetAnalogRoutingPumps:
 448              	.LFB7:
 320:.\Generated_Source\PSoC5/cyfitter_cfg.c **** 
 321:.\Generated_Source\PSoC5/cyfitter_cfg.c **** 
 322:.\Generated_Source\PSoC5/cyfitter_cfg.c **** /*******************************************************************************
 323:.\Generated_Source\PSoC5/cyfitter_cfg.c **** * Function Name: SetAnalogRoutingPumps
 324:.\Generated_Source\PSoC5/cyfitter_cfg.c **** ********************************************************************************
 325:.\Generated_Source\PSoC5/cyfitter_cfg.c **** *
 326:.\Generated_Source\PSoC5/cyfitter_cfg.c **** * Summary:
 327:.\Generated_Source\PSoC5/cyfitter_cfg.c **** * Enables or disables the analog pumps feeding analog routing switches.
 328:.\Generated_Source\PSoC5/cyfitter_cfg.c **** * Intended to be called at startup, based on the Vdda system configuration;
 329:.\Generated_Source\PSoC5/cyfitter_cfg.c **** * may be called during operation when the user informs us that the Vdda voltage
 330:.\Generated_Source\PSoC5/cyfitter_cfg.c **** * crossed the pump threshold.
 331:.\Generated_Source\PSoC5/cyfitter_cfg.c **** *
 332:.\Generated_Source\PSoC5/cyfitter_cfg.c **** * Parameters:
 333:.\Generated_Source\PSoC5/cyfitter_cfg.c **** *  enabled - 1 to enable the pumps, 0 to disable the pumps
 334:.\Generated_Source\PSoC5/cyfitter_cfg.c **** *
 335:.\Generated_Source\PSoC5/cyfitter_cfg.c **** * Return:
 336:.\Generated_Source\PSoC5/cyfitter_cfg.c **** *  void
 337:.\Generated_Source\PSoC5/cyfitter_cfg.c **** *
 338:.\Generated_Source\PSoC5/cyfitter_cfg.c **** *******************************************************************************/
 339:.\Generated_Source\PSoC5/cyfitter_cfg.c **** void SetAnalogRoutingPumps(uint8 enabled)
 340:.\Generated_Source\PSoC5/cyfitter_cfg.c **** {
 449              		.loc 1 340 0
 450              		.cfi_startproc
 451              		@ args = 0, pretend = 0, frame = 0
 452              		@ frame_needed = 0, uses_anonymous_args = 0
 453              		@ link register save eliminated.
 454              	.LVL31:
 341:.\Generated_Source\PSoC5/cyfitter_cfg.c **** 	uint8 regValue = CY_GET_XTND_REG8((void CYFAR *)CYREG_PUMP_CR0);
 455              		.loc 1 341 0
 456 0000 054B     		ldr	r3, .L28
 457 0002 1B78     		ldrb	r3, [r3]	@ zero_extendqisi2
 458 0004 DBB2     		uxtb	r3, r3
 459              	.LVL32:
 342:.\Generated_Source\PSoC5/cyfitter_cfg.c **** 	if (enabled != 0u)
 460              		.loc 1 342 0
 461 0006 10B1     		cbz	r0, .L26
 343:.\Generated_Source\PSoC5/cyfitter_cfg.c **** 	{
 344:.\Generated_Source\PSoC5/cyfitter_cfg.c **** 		regValue |= 0x22u;
 462              		.loc 1 344 0
 463 0008 43F02203 		orr	r3, r3, #34
 464              	.LVL33:
 465 000c 01E0     		b	.L27
ARM GAS  C:\Users\Tim\AppData\Local\Temp\cciSpwkc.s 			page 16


 466              	.L26:
 345:.\Generated_Source\PSoC5/cyfitter_cfg.c **** 	}
 346:.\Generated_Source\PSoC5/cyfitter_cfg.c **** 	else
 347:.\Generated_Source\PSoC5/cyfitter_cfg.c **** 	{
 348:.\Generated_Source\PSoC5/cyfitter_cfg.c **** 		regValue &= (uint8)~0x22u;
 467              		.loc 1 348 0
 468 000e 03F0DD03 		and	r3, r3, #221
 469              	.LVL34:
 470              	.L27:
 349:.\Generated_Source\PSoC5/cyfitter_cfg.c **** 	}
 350:.\Generated_Source\PSoC5/cyfitter_cfg.c **** 	CY_SET_XTND_REG8((void CYFAR *)CYREG_PUMP_CR0, regValue);
 471              		.loc 1 350 0
 472 0012 014A     		ldr	r2, .L28
 473 0014 1370     		strb	r3, [r2]
 474 0016 7047     		bx	lr
 475              	.L29:
 476              		.align	2
 477              	.L28:
 478 0018 76580040 		.word	1073764470
 479              		.cfi_endproc
 480              	.LFE7:
 481              		.size	SetAnalogRoutingPumps, .-SetAnalogRoutingPumps
 482              		.section	.text.Front_AMuxSeq_DisconnectAll,"ax",%progbits
 483              		.align	2
 484              		.global	Front_AMuxSeq_DisconnectAll
 485              		.thumb
 486              		.thumb_func
 487              		.type	Front_AMuxSeq_DisconnectAll, %function
 488              	Front_AMuxSeq_DisconnectAll:
 489              	.LFB8:
 351:.\Generated_Source\PSoC5/cyfitter_cfg.c **** }
 352:.\Generated_Source\PSoC5/cyfitter_cfg.c **** 
 353:.\Generated_Source\PSoC5/cyfitter_cfg.c **** #define CY_AMUX_UNUSED CYREG_BOOST_SR
 354:.\Generated_Source\PSoC5/cyfitter_cfg.c **** int8 Front_AMuxSeq_curChannel = -1;
 355:.\Generated_Source\PSoC5/cyfitter_cfg.c **** 
 356:.\Generated_Source\PSoC5/cyfitter_cfg.c **** void Front_AMuxSeq_DisconnectAll(void)
 357:.\Generated_Source\PSoC5/cyfitter_cfg.c **** {
 490              		.loc 1 357 0
 491              		.cfi_startproc
 492              		@ args = 0, pretend = 0, frame = 0
 493              		@ frame_needed = 0, uses_anonymous_args = 0
 494              		@ link register save eliminated.
 358:.\Generated_Source\PSoC5/cyfitter_cfg.c **** 	Front_AMuxSeq_curChannel = -1;
 495              		.loc 1 358 0
 496 0000 FF22     		movs	r2, #255
 497 0002 034B     		ldr	r3, .L31
 498 0004 1A70     		strb	r2, [r3]
 359:.\Generated_Source\PSoC5/cyfitter_cfg.c **** 	CY_SET_REG8((void CYXDATA *)CYREG_PRT3_AG, 0x00u);
 499              		.loc 1 359 0
 500 0006 0022     		movs	r2, #0
 501 0008 024B     		ldr	r3, .L31+4
 502 000a 1A70     		strb	r2, [r3]
 503 000c 7047     		bx	lr
 504              	.L32:
 505 000e 00BF     		.align	2
 506              	.L31:
 507 0010 00000000 		.word	.LANCHOR0
ARM GAS  C:\Users\Tim\AppData\Local\Temp\cciSpwkc.s 			page 17


 508 0014 3D510040 		.word	1073762621
 509              		.cfi_endproc
 510              	.LFE8:
 511              		.size	Front_AMuxSeq_DisconnectAll, .-Front_AMuxSeq_DisconnectAll
 512              		.section	.text.Front_AMuxSeq_Next,"ax",%progbits
 513              		.align	2
 514              		.global	Front_AMuxSeq_Next
 515              		.thumb
 516              		.thumb_func
 517              		.type	Front_AMuxSeq_Next, %function
 518              	Front_AMuxSeq_Next:
 519              	.LFB9:
 360:.\Generated_Source\PSoC5/cyfitter_cfg.c **** }
 361:.\Generated_Source\PSoC5/cyfitter_cfg.c **** 
 362:.\Generated_Source\PSoC5/cyfitter_cfg.c **** #if defined(__C51__) || defined(__CX51__)
 363:.\Generated_Source\PSoC5/cyfitter_cfg.c ****     #pragma OT(5, SPEED)
 364:.\Generated_Source\PSoC5/cyfitter_cfg.c **** #endif
 365:.\Generated_Source\PSoC5/cyfitter_cfg.c **** void Front_AMuxSeq_Next(void)
 366:.\Generated_Source\PSoC5/cyfitter_cfg.c **** {
 520              		.loc 1 366 0
 521              		.cfi_startproc
 522              		@ args = 0, pretend = 0, frame = 0
 523              		@ frame_needed = 0, uses_anonymous_args = 0
 524              		@ link register save eliminated.
 367:.\Generated_Source\PSoC5/cyfitter_cfg.c **** 	Front_AMuxSeq_curChannel++;
 525              		.loc 1 367 0
 526 0000 184A     		ldr	r2, .L45
 527 0002 1378     		ldrb	r3, [r2]	@ zero_extendqisi2
 528 0004 0133     		adds	r3, r3, #1
 529 0006 DBB2     		uxtb	r3, r3
 530 0008 1370     		strb	r3, [r2]
 368:.\Generated_Source\PSoC5/cyfitter_cfg.c **** 	switch (Front_AMuxSeq_curChannel)
 531              		.loc 1 368 0
 532 000a 5BB2     		sxtb	r3, r3
 533 000c 072B     		cmp	r3, #7
 534 000e 05D8     		bhi	.L34
 535 0010 DFE803F0 		tbb	[pc, r3]
 536              	.L36:
 537 0014 07       		.byte	(.L35-.L36)/2
 538 0015 0B       		.byte	(.L37-.L36)/2
 539 0016 0F       		.byte	(.L38-.L36)/2
 540 0017 13       		.byte	(.L39-.L36)/2
 541 0018 17       		.byte	(.L40-.L36)/2
 542 0019 1B       		.byte	(.L41-.L36)/2
 543 001a 1F       		.byte	(.L42-.L36)/2
 544 001b 23       		.byte	(.L43-.L36)/2
 545              		.p2align 1
 546              	.L34:
 369:.\Generated_Source\PSoC5/cyfitter_cfg.c **** 	{
 370:.\Generated_Source\PSoC5/cyfitter_cfg.c **** 	case 8:
 371:.\Generated_Source\PSoC5/cyfitter_cfg.c **** 	default:
 372:.\Generated_Source\PSoC5/cyfitter_cfg.c **** 		Front_AMuxSeq_curChannel = 0;
 547              		.loc 1 372 0
 548 001c 0022     		movs	r2, #0
 549 001e 114B     		ldr	r3, .L45
 550 0020 1A70     		strb	r2, [r3]
 551              	.L35:
ARM GAS  C:\Users\Tim\AppData\Local\Temp\cciSpwkc.s 			page 18


 373:.\Generated_Source\PSoC5/cyfitter_cfg.c **** 	case 0:
 374:.\Generated_Source\PSoC5/cyfitter_cfg.c **** 		CY_SET_REG8((void CYXDATA *)CYREG_PRT3_AG, 0x01u);
 552              		.loc 1 374 0
 553 0022 0122     		movs	r2, #1
 554 0024 104B     		ldr	r3, .L45+4
 555 0026 1A70     		strb	r2, [r3]
 375:.\Generated_Source\PSoC5/cyfitter_cfg.c **** 		break;
 556              		.loc 1 375 0
 557 0028 7047     		bx	lr
 558              	.L37:
 376:.\Generated_Source\PSoC5/cyfitter_cfg.c **** 	case 1:
 377:.\Generated_Source\PSoC5/cyfitter_cfg.c **** 		CY_SET_REG8((void CYXDATA *)CYREG_PRT3_AG, 0x02u);
 559              		.loc 1 377 0
 560 002a 0222     		movs	r2, #2
 561 002c 0E4B     		ldr	r3, .L45+4
 562 002e 1A70     		strb	r2, [r3]
 378:.\Generated_Source\PSoC5/cyfitter_cfg.c **** 		break;
 563              		.loc 1 378 0
 564 0030 7047     		bx	lr
 565              	.L38:
 379:.\Generated_Source\PSoC5/cyfitter_cfg.c **** 	case 2:
 380:.\Generated_Source\PSoC5/cyfitter_cfg.c **** 		CY_SET_REG8((void CYXDATA *)CYREG_PRT3_AG, 0x04u);
 566              		.loc 1 380 0
 567 0032 0422     		movs	r2, #4
 568 0034 0C4B     		ldr	r3, .L45+4
 569 0036 1A70     		strb	r2, [r3]
 381:.\Generated_Source\PSoC5/cyfitter_cfg.c **** 		break;
 570              		.loc 1 381 0
 571 0038 7047     		bx	lr
 572              	.L39:
 382:.\Generated_Source\PSoC5/cyfitter_cfg.c **** 	case 3:
 383:.\Generated_Source\PSoC5/cyfitter_cfg.c **** 		CY_SET_REG8((void CYXDATA *)CYREG_PRT3_AG, 0x08u);
 573              		.loc 1 383 0
 574 003a 0822     		movs	r2, #8
 575 003c 0A4B     		ldr	r3, .L45+4
 576 003e 1A70     		strb	r2, [r3]
 384:.\Generated_Source\PSoC5/cyfitter_cfg.c **** 		break;
 577              		.loc 1 384 0
 578 0040 7047     		bx	lr
 579              	.L40:
 385:.\Generated_Source\PSoC5/cyfitter_cfg.c **** 	case 4:
 386:.\Generated_Source\PSoC5/cyfitter_cfg.c **** 		CY_SET_REG8((void CYXDATA *)CYREG_PRT3_AG, 0x10u);
 580              		.loc 1 386 0
 581 0042 1022     		movs	r2, #16
 582 0044 084B     		ldr	r3, .L45+4
 583 0046 1A70     		strb	r2, [r3]
 387:.\Generated_Source\PSoC5/cyfitter_cfg.c **** 		break;
 584              		.loc 1 387 0
 585 0048 7047     		bx	lr
 586              	.L41:
 388:.\Generated_Source\PSoC5/cyfitter_cfg.c **** 	case 5:
 389:.\Generated_Source\PSoC5/cyfitter_cfg.c **** 		CY_SET_REG8((void CYXDATA *)CYREG_PRT3_AG, 0x20u);
 587              		.loc 1 389 0
 588 004a 2022     		movs	r2, #32
 589 004c 064B     		ldr	r3, .L45+4
 590 004e 1A70     		strb	r2, [r3]
 390:.\Generated_Source\PSoC5/cyfitter_cfg.c **** 		break;
ARM GAS  C:\Users\Tim\AppData\Local\Temp\cciSpwkc.s 			page 19


 591              		.loc 1 390 0
 592 0050 7047     		bx	lr
 593              	.L42:
 391:.\Generated_Source\PSoC5/cyfitter_cfg.c **** 	case 6:
 392:.\Generated_Source\PSoC5/cyfitter_cfg.c **** 		CY_SET_REG8((void CYXDATA *)CYREG_PRT3_AG, 0x40u);
 594              		.loc 1 392 0
 595 0052 4022     		movs	r2, #64
 596 0054 044B     		ldr	r3, .L45+4
 597 0056 1A70     		strb	r2, [r3]
 393:.\Generated_Source\PSoC5/cyfitter_cfg.c **** 		break;
 598              		.loc 1 393 0
 599 0058 7047     		bx	lr
 600              	.L43:
 394:.\Generated_Source\PSoC5/cyfitter_cfg.c **** 	case 7:
 395:.\Generated_Source\PSoC5/cyfitter_cfg.c **** 		CY_SET_REG8((void CYXDATA *)CYREG_PRT3_AG, 0x80u);
 601              		.loc 1 395 0
 602 005a 8022     		movs	r2, #128
 603 005c 024B     		ldr	r3, .L45+4
 604 005e 1A70     		strb	r2, [r3]
 605 0060 7047     		bx	lr
 606              	.L46:
 607 0062 00BF     		.align	2
 608              	.L45:
 609 0064 00000000 		.word	.LANCHOR0
 610 0068 3D510040 		.word	1073762621
 611              		.cfi_endproc
 612              	.LFE9:
 613              		.size	Front_AMuxSeq_Next, .-Front_AMuxSeq_Next
 614              		.section	.text.Rear_AMuxSeq_DisconnectAll,"ax",%progbits
 615              		.align	2
 616              		.global	Rear_AMuxSeq_DisconnectAll
 617              		.thumb
 618              		.thumb_func
 619              		.type	Rear_AMuxSeq_DisconnectAll, %function
 620              	Rear_AMuxSeq_DisconnectAll:
 621              	.LFB10:
 396:.\Generated_Source\PSoC5/cyfitter_cfg.c **** 		break;
 397:.\Generated_Source\PSoC5/cyfitter_cfg.c **** 	}
 398:.\Generated_Source\PSoC5/cyfitter_cfg.c **** }
 399:.\Generated_Source\PSoC5/cyfitter_cfg.c **** 
 400:.\Generated_Source\PSoC5/cyfitter_cfg.c **** int8 Rear_AMuxSeq_curChannel = -1;
 401:.\Generated_Source\PSoC5/cyfitter_cfg.c **** 
 402:.\Generated_Source\PSoC5/cyfitter_cfg.c **** void Rear_AMuxSeq_DisconnectAll(void)
 403:.\Generated_Source\PSoC5/cyfitter_cfg.c **** {
 622              		.loc 1 403 0
 623              		.cfi_startproc
 624              		@ args = 0, pretend = 0, frame = 0
 625              		@ frame_needed = 0, uses_anonymous_args = 0
 626              		@ link register save eliminated.
 404:.\Generated_Source\PSoC5/cyfitter_cfg.c **** 	Rear_AMuxSeq_curChannel = -1;
 627              		.loc 1 404 0
 628 0000 FF22     		movs	r2, #255
 629 0002 034B     		ldr	r3, .L48
 630 0004 5A70     		strb	r2, [r3, #1]
 405:.\Generated_Source\PSoC5/cyfitter_cfg.c **** 	CY_SET_REG8((void CYXDATA *)CYREG_PRT0_AG, 0x00u);
 631              		.loc 1 405 0
 632 0006 0022     		movs	r2, #0
ARM GAS  C:\Users\Tim\AppData\Local\Temp\cciSpwkc.s 			page 20


 633 0008 024B     		ldr	r3, .L48+4
 634 000a 1A70     		strb	r2, [r3]
 635 000c 7047     		bx	lr
 636              	.L49:
 637 000e 00BF     		.align	2
 638              	.L48:
 639 0010 00000000 		.word	.LANCHOR0
 640 0014 0D510040 		.word	1073762573
 641              		.cfi_endproc
 642              	.LFE10:
 643              		.size	Rear_AMuxSeq_DisconnectAll, .-Rear_AMuxSeq_DisconnectAll
 644              		.section	.text.Rear_AMuxSeq_Next,"ax",%progbits
 645              		.align	2
 646              		.global	Rear_AMuxSeq_Next
 647              		.thumb
 648              		.thumb_func
 649              		.type	Rear_AMuxSeq_Next, %function
 650              	Rear_AMuxSeq_Next:
 651              	.LFB11:
 406:.\Generated_Source\PSoC5/cyfitter_cfg.c **** }
 407:.\Generated_Source\PSoC5/cyfitter_cfg.c **** 
 408:.\Generated_Source\PSoC5/cyfitter_cfg.c **** #if defined(__C51__) || defined(__CX51__)
 409:.\Generated_Source\PSoC5/cyfitter_cfg.c ****     #pragma OT(5, SPEED)
 410:.\Generated_Source\PSoC5/cyfitter_cfg.c **** #endif
 411:.\Generated_Source\PSoC5/cyfitter_cfg.c **** void Rear_AMuxSeq_Next(void)
 412:.\Generated_Source\PSoC5/cyfitter_cfg.c **** {
 652              		.loc 1 412 0
 653              		.cfi_startproc
 654              		@ args = 0, pretend = 0, frame = 0
 655              		@ frame_needed = 0, uses_anonymous_args = 0
 656              		@ link register save eliminated.
 413:.\Generated_Source\PSoC5/cyfitter_cfg.c **** 	Rear_AMuxSeq_curChannel++;
 657              		.loc 1 413 0
 658 0000 184A     		ldr	r2, .L62
 659 0002 5378     		ldrb	r3, [r2, #1]	@ zero_extendqisi2
 660 0004 0133     		adds	r3, r3, #1
 661 0006 DBB2     		uxtb	r3, r3
 662 0008 5370     		strb	r3, [r2, #1]
 414:.\Generated_Source\PSoC5/cyfitter_cfg.c **** 	switch (Rear_AMuxSeq_curChannel)
 663              		.loc 1 414 0
 664 000a 5BB2     		sxtb	r3, r3
 665 000c 072B     		cmp	r3, #7
 666 000e 05D8     		bhi	.L51
 667 0010 DFE803F0 		tbb	[pc, r3]
 668              	.L53:
 669 0014 07       		.byte	(.L52-.L53)/2
 670 0015 0B       		.byte	(.L54-.L53)/2
 671 0016 0F       		.byte	(.L55-.L53)/2
 672 0017 13       		.byte	(.L56-.L53)/2
 673 0018 17       		.byte	(.L57-.L53)/2
 674 0019 1B       		.byte	(.L58-.L53)/2
 675 001a 1F       		.byte	(.L59-.L53)/2
 676 001b 23       		.byte	(.L60-.L53)/2
 677              		.p2align 1
 678              	.L51:
 415:.\Generated_Source\PSoC5/cyfitter_cfg.c **** 	{
 416:.\Generated_Source\PSoC5/cyfitter_cfg.c **** 	case 8:
ARM GAS  C:\Users\Tim\AppData\Local\Temp\cciSpwkc.s 			page 21


 417:.\Generated_Source\PSoC5/cyfitter_cfg.c **** 	default:
 418:.\Generated_Source\PSoC5/cyfitter_cfg.c **** 		Rear_AMuxSeq_curChannel = 0;
 679              		.loc 1 418 0
 680 001c 0022     		movs	r2, #0
 681 001e 114B     		ldr	r3, .L62
 682 0020 5A70     		strb	r2, [r3, #1]
 683              	.L52:
 419:.\Generated_Source\PSoC5/cyfitter_cfg.c **** 	case 0:
 420:.\Generated_Source\PSoC5/cyfitter_cfg.c **** 		CY_SET_REG8((void CYXDATA *)CYREG_PRT0_AG, 0x01u);
 684              		.loc 1 420 0
 685 0022 0122     		movs	r2, #1
 686 0024 104B     		ldr	r3, .L62+4
 687 0026 1A70     		strb	r2, [r3]
 421:.\Generated_Source\PSoC5/cyfitter_cfg.c **** 		break;
 688              		.loc 1 421 0
 689 0028 7047     		bx	lr
 690              	.L54:
 422:.\Generated_Source\PSoC5/cyfitter_cfg.c **** 	case 1:
 423:.\Generated_Source\PSoC5/cyfitter_cfg.c **** 		CY_SET_REG8((void CYXDATA *)CYREG_PRT0_AG, 0x02u);
 691              		.loc 1 423 0
 692 002a 0222     		movs	r2, #2
 693 002c 0E4B     		ldr	r3, .L62+4
 694 002e 1A70     		strb	r2, [r3]
 424:.\Generated_Source\PSoC5/cyfitter_cfg.c **** 		break;
 695              		.loc 1 424 0
 696 0030 7047     		bx	lr
 697              	.L55:
 425:.\Generated_Source\PSoC5/cyfitter_cfg.c **** 	case 2:
 426:.\Generated_Source\PSoC5/cyfitter_cfg.c **** 		CY_SET_REG8((void CYXDATA *)CYREG_PRT0_AG, 0x04u);
 698              		.loc 1 426 0
 699 0032 0422     		movs	r2, #4
 700 0034 0C4B     		ldr	r3, .L62+4
 701 0036 1A70     		strb	r2, [r3]
 427:.\Generated_Source\PSoC5/cyfitter_cfg.c **** 		break;
 702              		.loc 1 427 0
 703 0038 7047     		bx	lr
 704              	.L56:
 428:.\Generated_Source\PSoC5/cyfitter_cfg.c **** 	case 3:
 429:.\Generated_Source\PSoC5/cyfitter_cfg.c **** 		CY_SET_REG8((void CYXDATA *)CYREG_PRT0_AG, 0x08u);
 705              		.loc 1 429 0
 706 003a 0822     		movs	r2, #8
 707 003c 0A4B     		ldr	r3, .L62+4
 708 003e 1A70     		strb	r2, [r3]
 430:.\Generated_Source\PSoC5/cyfitter_cfg.c **** 		break;
 709              		.loc 1 430 0
 710 0040 7047     		bx	lr
 711              	.L57:
 431:.\Generated_Source\PSoC5/cyfitter_cfg.c **** 	case 4:
 432:.\Generated_Source\PSoC5/cyfitter_cfg.c **** 		CY_SET_REG8((void CYXDATA *)CYREG_PRT0_AG, 0x10u);
 712              		.loc 1 432 0
 713 0042 1022     		movs	r2, #16
 714 0044 084B     		ldr	r3, .L62+4
 715 0046 1A70     		strb	r2, [r3]
 433:.\Generated_Source\PSoC5/cyfitter_cfg.c **** 		break;
 716              		.loc 1 433 0
 717 0048 7047     		bx	lr
 718              	.L58:
ARM GAS  C:\Users\Tim\AppData\Local\Temp\cciSpwkc.s 			page 22


 434:.\Generated_Source\PSoC5/cyfitter_cfg.c **** 	case 5:
 435:.\Generated_Source\PSoC5/cyfitter_cfg.c **** 		CY_SET_REG8((void CYXDATA *)CYREG_PRT0_AG, 0x20u);
 719              		.loc 1 435 0
 720 004a 2022     		movs	r2, #32
 721 004c 064B     		ldr	r3, .L62+4
 722 004e 1A70     		strb	r2, [r3]
 436:.\Generated_Source\PSoC5/cyfitter_cfg.c **** 		break;
 723              		.loc 1 436 0
 724 0050 7047     		bx	lr
 725              	.L59:
 437:.\Generated_Source\PSoC5/cyfitter_cfg.c **** 	case 6:
 438:.\Generated_Source\PSoC5/cyfitter_cfg.c **** 		CY_SET_REG8((void CYXDATA *)CYREG_PRT0_AG, 0x40u);
 726              		.loc 1 438 0
 727 0052 4022     		movs	r2, #64
 728 0054 044B     		ldr	r3, .L62+4
 729 0056 1A70     		strb	r2, [r3]
 439:.\Generated_Source\PSoC5/cyfitter_cfg.c **** 		break;
 730              		.loc 1 439 0
 731 0058 7047     		bx	lr
 732              	.L60:
 440:.\Generated_Source\PSoC5/cyfitter_cfg.c **** 	case 7:
 441:.\Generated_Source\PSoC5/cyfitter_cfg.c **** 		CY_SET_REG8((void CYXDATA *)CYREG_PRT0_AG, 0x80u);
 733              		.loc 1 441 0
 734 005a 8022     		movs	r2, #128
 735 005c 024B     		ldr	r3, .L62+4
 736 005e 1A70     		strb	r2, [r3]
 737 0060 7047     		bx	lr
 738              	.L63:
 739 0062 00BF     		.align	2
 740              	.L62:
 741 0064 00000000 		.word	.LANCHOR0
 742 0068 0D510040 		.word	1073762573
 743              		.cfi_endproc
 744              	.LFE11:
 745              		.size	Rear_AMuxSeq_Next, .-Rear_AMuxSeq_Next
 746              		.section	.text.cyfitter_cfg,"ax",%progbits
 747              		.align	2
 748              		.global	cyfitter_cfg
 749              		.thumb
 750              		.thumb_func
 751              		.type	cyfitter_cfg, %function
 752              	cyfitter_cfg:
 753              	.LFB12:
 442:.\Generated_Source\PSoC5/cyfitter_cfg.c **** 		break;
 443:.\Generated_Source\PSoC5/cyfitter_cfg.c **** 	}
 444:.\Generated_Source\PSoC5/cyfitter_cfg.c **** }
 445:.\Generated_Source\PSoC5/cyfitter_cfg.c **** 
 446:.\Generated_Source\PSoC5/cyfitter_cfg.c **** 
 447:.\Generated_Source\PSoC5/cyfitter_cfg.c **** 
 448:.\Generated_Source\PSoC5/cyfitter_cfg.c **** /*******************************************************************************
 449:.\Generated_Source\PSoC5/cyfitter_cfg.c **** * Function Name: cyfitter_cfg
 450:.\Generated_Source\PSoC5/cyfitter_cfg.c **** ********************************************************************************
 451:.\Generated_Source\PSoC5/cyfitter_cfg.c **** * Summary:
 452:.\Generated_Source\PSoC5/cyfitter_cfg.c **** *  This function is called by the start-up code for the selected device. It
 453:.\Generated_Source\PSoC5/cyfitter_cfg.c **** *  performs all of the necessary device configuration based on the design
 454:.\Generated_Source\PSoC5/cyfitter_cfg.c **** *  settings.  This includes settings from the Design Wide Resources (DWR) such
 455:.\Generated_Source\PSoC5/cyfitter_cfg.c **** *  as Clocks and Pins as well as any component configuration that is necessary.
ARM GAS  C:\Users\Tim\AppData\Local\Temp\cciSpwkc.s 			page 23


 456:.\Generated_Source\PSoC5/cyfitter_cfg.c **** *
 457:.\Generated_Source\PSoC5/cyfitter_cfg.c **** * Parameters:  
 458:.\Generated_Source\PSoC5/cyfitter_cfg.c **** *   void
 459:.\Generated_Source\PSoC5/cyfitter_cfg.c **** *
 460:.\Generated_Source\PSoC5/cyfitter_cfg.c **** * Return:
 461:.\Generated_Source\PSoC5/cyfitter_cfg.c **** *   void
 462:.\Generated_Source\PSoC5/cyfitter_cfg.c **** *
 463:.\Generated_Source\PSoC5/cyfitter_cfg.c **** *******************************************************************************/
 464:.\Generated_Source\PSoC5/cyfitter_cfg.c **** 
 465:.\Generated_Source\PSoC5/cyfitter_cfg.c **** void cyfitter_cfg(void)
 466:.\Generated_Source\PSoC5/cyfitter_cfg.c **** {
 754              		.loc 1 466 0
 755              		.cfi_startproc
 756              		@ args = 0, pretend = 0, frame = 0
 757              		@ frame_needed = 0, uses_anonymous_args = 0
 758 0000 38B5     		push	{r3, r4, r5, lr}
 759              		.cfi_def_cfa_offset 16
 760              		.cfi_offset 3, -16
 761              		.cfi_offset 4, -12
 762              		.cfi_offset 5, -8
 763              		.cfi_offset 14, -4
 467:.\Generated_Source\PSoC5/cyfitter_cfg.c **** #ifdef CYGlobalIntDisable
 468:.\Generated_Source\PSoC5/cyfitter_cfg.c **** 	/* Disable interrupts by default. Let user enable if/when they want. */
 469:.\Generated_Source\PSoC5/cyfitter_cfg.c **** 	CYGlobalIntDisable
 764              		.loc 1 469 0
 765              	@ 469 ".\Generated_Source\PSoC5\cyfitter_cfg.c" 1
 766 0002 72B6     		CPSID   i
 767              	@ 0 "" 2
 470:.\Generated_Source\PSoC5/cyfitter_cfg.c **** #endif
 471:.\Generated_Source\PSoC5/cyfitter_cfg.c **** 
 472:.\Generated_Source\PSoC5/cyfitter_cfg.c **** 	/* Enable/Disable Debug functionality based on settings from System DWR */
 473:.\Generated_Source\PSoC5/cyfitter_cfg.c **** 	CY_SET_XTND_REG8((void CYFAR *)CYREG_MLOGIC_DEBUG, (CY_GET_XTND_REG8((void CYFAR *)CYREG_MLOGIC_DE
 768              		.loc 1 473 0
 769              		.thumb
 770 0004 4A4A     		ldr	r2, .L70
 771 0006 1378     		ldrb	r3, [r2]	@ zero_extendqisi2
 772 0008 43F00403 		orr	r3, r3, #4
 773 000c 1370     		strb	r3, [r2]
 774              	.LVL35:
 775              	.LBB3:
 474:.\Generated_Source\PSoC5/cyfitter_cfg.c **** 
 475:.\Generated_Source\PSoC5/cyfitter_cfg.c **** 	{
 476:.\Generated_Source\PSoC5/cyfitter_cfg.c **** 
 477:.\Generated_Source\PSoC5/cyfitter_cfg.c **** 		CYPACKED typedef struct {
 478:.\Generated_Source\PSoC5/cyfitter_cfg.c **** 			void CYFAR *address;
 479:.\Generated_Source\PSoC5/cyfitter_cfg.c **** 			uint16 size;
 480:.\Generated_Source\PSoC5/cyfitter_cfg.c **** 		} CYPACKED_ATTR cfg_memset_t;
 481:.\Generated_Source\PSoC5/cyfitter_cfg.c **** 
 482:.\Generated_Source\PSoC5/cyfitter_cfg.c **** 
 483:.\Generated_Source\PSoC5/cyfitter_cfg.c **** 		CYPACKED typedef struct {
 484:.\Generated_Source\PSoC5/cyfitter_cfg.c **** 			void CYFAR *dest;
 485:.\Generated_Source\PSoC5/cyfitter_cfg.c **** 			const void CYFAR *src;
 486:.\Generated_Source\PSoC5/cyfitter_cfg.c **** 			uint16 size;
 487:.\Generated_Source\PSoC5/cyfitter_cfg.c **** 		} CYPACKED_ATTR cfg_memcpy_t;
 488:.\Generated_Source\PSoC5/cyfitter_cfg.c **** 
 489:.\Generated_Source\PSoC5/cyfitter_cfg.c **** 		static const cfg_memset_t CYCODE cfg_memset_list [] = {
 490:.\Generated_Source\PSoC5/cyfitter_cfg.c **** 			/* address, size */
ARM GAS  C:\Users\Tim\AppData\Local\Temp\cciSpwkc.s 			page 24


 491:.\Generated_Source\PSoC5/cyfitter_cfg.c **** 			{(void CYFAR *)(CYREG_I2C_XCFG), 25u},
 492:.\Generated_Source\PSoC5/cyfitter_cfg.c **** 			{(void CYFAR *)(CYDEV_UCFG_B0_P0_U0_BASE), 4096u},
 493:.\Generated_Source\PSoC5/cyfitter_cfg.c **** 			{(void CYFAR *)(CYDEV_UCFG_B1_P2_U0_BASE), 2048u},
 494:.\Generated_Source\PSoC5/cyfitter_cfg.c **** 			{(void CYFAR *)(CYDEV_UCFG_DSI0_BASE), 2560u},
 495:.\Generated_Source\PSoC5/cyfitter_cfg.c **** 			{(void CYFAR *)(CYDEV_UCFG_DSI12_BASE), 512u},
 496:.\Generated_Source\PSoC5/cyfitter_cfg.c **** 			{(void CYFAR *)(CYREG_BCTL1_MDCLK_EN), 16u},
 497:.\Generated_Source\PSoC5/cyfitter_cfg.c **** 		};
 498:.\Generated_Source\PSoC5/cyfitter_cfg.c **** 
 499:.\Generated_Source\PSoC5/cyfitter_cfg.c **** 		static const cfg_memcpy_t CYCODE cfg_memcpy_list [] = {
 500:.\Generated_Source\PSoC5/cyfitter_cfg.c **** 			/* dest, src, size */
 501:.\Generated_Source\PSoC5/cyfitter_cfg.c **** 			{(void CYFAR *)(CYDEV_PRTDSI_PRT2_BASE), BS_IOPORT_2_VAL, 7u},
 502:.\Generated_Source\PSoC5/cyfitter_cfg.c **** 			{(void CYFAR *)(CYREG_BCTL0_MDCLK_EN), BS_UCFG_BCTL0_VAL, 16u},
 503:.\Generated_Source\PSoC5/cyfitter_cfg.c **** 		};
 504:.\Generated_Source\PSoC5/cyfitter_cfg.c **** 
 505:.\Generated_Source\PSoC5/cyfitter_cfg.c **** 		uint8 CYDATA i;
 506:.\Generated_Source\PSoC5/cyfitter_cfg.c **** 
 507:.\Generated_Source\PSoC5/cyfitter_cfg.c **** 		/* Zero out critical memory blocks before beginning configuration */
 508:.\Generated_Source\PSoC5/cyfitter_cfg.c **** 		for (i = 0u; i < (sizeof(cfg_memset_list)/sizeof(cfg_memset_list[0])); i++)
 776              		.loc 1 508 0
 777 000e 0024     		movs	r4, #0
 778 0010 0CE0     		b	.L65
 779              	.LVL36:
 780              	.L66:
 781              	.LBB4:
 509:.\Generated_Source\PSoC5/cyfitter_cfg.c **** 		{
 510:.\Generated_Source\PSoC5/cyfitter_cfg.c **** 			const cfg_memset_t CYCODE * CYDATA ms = &cfg_memset_list[i];
 511:.\Generated_Source\PSoC5/cyfitter_cfg.c **** 			CYMEMZERO(ms->address, (size_t)(uint32)(ms->size));
 782              		.loc 1 511 0 discriminator 3
 783 0012 4849     		ldr	r1, .L70+4
 784 0014 6300     		lsls	r3, r4, #1
 785 0016 1A19     		adds	r2, r3, r4
 786 0018 5200     		lsls	r2, r2, #1
 787 001a 0A44     		add	r2, r2, r1
 788 001c 2344     		add	r3, r3, r4
 789 001e 5B00     		lsls	r3, r3, #1
 790 0020 C858     		ldr	r0, [r1, r3]	@ unaligned
 791 0022 9188     		ldrh	r1, [r2, #4]
 792 0024 FFF7FEFF 		bl	CYMEMZERO
 793              	.LVL37:
 794              	.LBE4:
 508:.\Generated_Source\PSoC5/cyfitter_cfg.c **** 		{
 795              		.loc 1 508 0 discriminator 3
 796 0028 0134     		adds	r4, r4, #1
 797              	.LVL38:
 798 002a E4B2     		uxtb	r4, r4
 799              	.LVL39:
 800              	.L65:
 508:.\Generated_Source\PSoC5/cyfitter_cfg.c **** 		{
 801              		.loc 1 508 0 is_stmt 0 discriminator 1
 802 002c 052C     		cmp	r4, #5
 803 002e F0D9     		bls	.L66
 804 0030 0024     		movs	r4, #0
 805              	.LVL40:
 806 0032 0FE0     		b	.L67
 807              	.LVL41:
 808              	.L68:
 809              	.LBB5:
ARM GAS  C:\Users\Tim\AppData\Local\Temp\cciSpwkc.s 			page 25


 512:.\Generated_Source\PSoC5/cyfitter_cfg.c **** 		}
 513:.\Generated_Source\PSoC5/cyfitter_cfg.c **** 
 514:.\Generated_Source\PSoC5/cyfitter_cfg.c **** 		/* Copy device configuration data into registers */
 515:.\Generated_Source\PSoC5/cyfitter_cfg.c **** 		for (i = 0u; i < (sizeof(cfg_memcpy_list)/sizeof(cfg_memcpy_list[0])); i++)
 516:.\Generated_Source\PSoC5/cyfitter_cfg.c **** 		{
 517:.\Generated_Source\PSoC5/cyfitter_cfg.c **** 			const cfg_memcpy_t CYCODE * CYDATA mc = &cfg_memcpy_list[i];
 518:.\Generated_Source\PSoC5/cyfitter_cfg.c **** 			void * CYDATA destPtr = mc->dest;
 810              		.loc 1 518 0 is_stmt 1 discriminator 3
 811 0034 3F49     		ldr	r1, .L70+4
 812 0036 A300     		lsls	r3, r4, #2
 813 0038 1A19     		adds	r2, r3, r4
 814 003a 5200     		lsls	r2, r2, #1
 815 003c 0A44     		add	r2, r2, r1
 816 003e 52F8240F 		ldr	r0, [r2, #36]!	@ unaligned
 817              	.LVL42:
 519:.\Generated_Source\PSoC5/cyfitter_cfg.c **** 			const void * CYDATA srcPtr = mc->src;
 520:.\Generated_Source\PSoC5/cyfitter_cfg.c **** 			uint16 CYDATA numBytes = mc->size;
 818              		.loc 1 520 0 discriminator 3
 819 0042 2344     		add	r3, r3, r4
 820 0044 5B00     		lsls	r3, r3, #1
 821 0046 0B44     		add	r3, r3, r1
 822              	.LVL43:
 521:.\Generated_Source\PSoC5/cyfitter_cfg.c **** 			CYCONFIGCPY(destPtr, srcPtr, numBytes);
 823              		.loc 1 521 0 discriminator 3
 824 0048 5168     		ldr	r1, [r2, #4]	@ unaligned
 825              	.LVL44:
 826 004a 9A8D     		ldrh	r2, [r3, #44]
 827 004c FFF7FEFF 		bl	CYCONFIGCPY
 828              	.LVL45:
 829              	.LBE5:
 515:.\Generated_Source\PSoC5/cyfitter_cfg.c **** 		{
 830              		.loc 1 515 0 discriminator 3
 831 0050 0134     		adds	r4, r4, #1
 832              	.LVL46:
 833 0052 E4B2     		uxtb	r4, r4
 834              	.LVL47:
 835              	.L67:
 515:.\Generated_Source\PSoC5/cyfitter_cfg.c **** 		{
 836              		.loc 1 515 0 is_stmt 0 discriminator 1
 837 0054 012C     		cmp	r4, #1
 838 0056 EDD9     		bls	.L68
 522:.\Generated_Source\PSoC5/cyfitter_cfg.c **** 		}
 523:.\Generated_Source\PSoC5/cyfitter_cfg.c **** 
 524:.\Generated_Source\PSoC5/cyfitter_cfg.c **** 		cfg_write_bytes32(cy_cfg_addr_table, cy_cfg_data_table);
 839              		.loc 1 524 0 is_stmt 1
 840 0058 4FF09040 		mov	r0, #1207959552
 841 005c 3649     		ldr	r1, .L70+8
 842 005e FFF7FEFF 		bl	cfg_write_bytes32
 843              	.LVL48:
 525:.\Generated_Source\PSoC5/cyfitter_cfg.c **** 
 526:.\Generated_Source\PSoC5/cyfitter_cfg.c **** 		/* Enable digital routing */
 527:.\Generated_Source\PSoC5/cyfitter_cfg.c **** 		CY_SET_XTND_REG8((void CYFAR *)CYREG_BCTL0_BANK_CTL, CY_GET_XTND_REG8((void CYFAR *)CYREG_BCTL0_B
 844              		.loc 1 527 0
 845 0062 364A     		ldr	r2, .L70+12
 846 0064 1378     		ldrb	r3, [r2]	@ zero_extendqisi2
 847 0066 43F00203 		orr	r3, r3, #2
 848 006a 1370     		strb	r3, [r2]
ARM GAS  C:\Users\Tim\AppData\Local\Temp\cciSpwkc.s 			page 26


 528:.\Generated_Source\PSoC5/cyfitter_cfg.c **** 		CY_SET_XTND_REG8((void CYFAR *)CYREG_BCTL1_BANK_CTL, CY_GET_XTND_REG8((void CYFAR *)CYREG_BCTL1_B
 849              		.loc 1 528 0
 850 006c 1032     		adds	r2, r2, #16
 851 006e 1378     		ldrb	r3, [r2]	@ zero_extendqisi2
 852 0070 43F00203 		orr	r3, r3, #2
 853 0074 1370     		strb	r3, [r2]
 529:.\Generated_Source\PSoC5/cyfitter_cfg.c **** 
 530:.\Generated_Source\PSoC5/cyfitter_cfg.c **** 		/* Enable UDB array */
 531:.\Generated_Source\PSoC5/cyfitter_cfg.c **** 		CY_SET_XTND_REG8((void CYFAR *)CYREG_PM_ACT_CFG0, CY_GET_XTND_REG8((void CYFAR *)CYREG_PM_ACT_CFG
 854              		.loc 1 531 0
 855 0076 324C     		ldr	r4, .L70+16
 856              	.LVL49:
 857 0078 2378     		ldrb	r3, [r4]	@ zero_extendqisi2
 858 007a 43F04003 		orr	r3, r3, #64
 859 007e 2370     		strb	r3, [r4]
 532:.\Generated_Source\PSoC5/cyfitter_cfg.c **** 		CY_SET_XTND_REG8((void CYFAR *)CYREG_PM_AVAIL_CR2, CY_GET_XTND_REG8((void CYFAR *)CYREG_PM_AVAIL_
 860              		.loc 1 532 0
 861 0080 A2F58632 		sub	r2, r2, #68608
 862 0084 513A     		subs	r2, r2, #81
 863 0086 1378     		ldrb	r3, [r2]	@ zero_extendqisi2
 864 0088 43F01003 		orr	r3, r3, #16
 865 008c 1370     		strb	r3, [r2]
 866              	.LBE3:
 533:.\Generated_Source\PSoC5/cyfitter_cfg.c **** 	}
 534:.\Generated_Source\PSoC5/cyfitter_cfg.c **** 
 535:.\Generated_Source\PSoC5/cyfitter_cfg.c **** 
 536:.\Generated_Source\PSoC5/cyfitter_cfg.c **** 	/* Perform second pass device configuration. These items must be configured in specific order afte
 537:.\Generated_Source\PSoC5/cyfitter_cfg.c **** 	CYCONFIGCPY((void CYFAR *)(CYREG_PRT0_DM0), (const void CYFAR *)(BS_IOPINS0_0_VAL), 8u);
 867              		.loc 1 537 0
 868 008e 2D48     		ldr	r0, .L70+20
 869 0090 2D49     		ldr	r1, .L70+24
 870 0092 0822     		movs	r2, #8
 871 0094 FFF7FEFF 		bl	CYCONFIGCPY
 872              	.LVL50:
 538:.\Generated_Source\PSoC5/cyfitter_cfg.c **** 	CYCONFIGCPY((void CYFAR *)(CYREG_PRT12_DM0), (const void CYFAR *)(BS_IOPINS0_7_VAL), 8u);
 873              		.loc 1 538 0
 874 0098 2C48     		ldr	r0, .L70+28
 875 009a 2D49     		ldr	r1, .L70+32
 876 009c 0822     		movs	r2, #8
 877 009e FFF7FEFF 		bl	CYCONFIGCPY
 878              	.LVL51:
 539:.\Generated_Source\PSoC5/cyfitter_cfg.c **** 	CYCONFIGCPY((void CYFAR *)(CYREG_PRT15_DM0), (const void CYFAR *)(BS_IOPINS0_8_VAL), 8u);
 879              		.loc 1 539 0
 880 00a2 2C48     		ldr	r0, .L70+36
 881 00a4 2C49     		ldr	r1, .L70+40
 882 00a6 0822     		movs	r2, #8
 883 00a8 FFF7FEFF 		bl	CYCONFIGCPY
 884              	.LVL52:
 540:.\Generated_Source\PSoC5/cyfitter_cfg.c **** 	CYCONFIGCPY((void CYFAR *)(CYREG_PRT1_DM0), (const void CYFAR *)(BS_IOPINS0_1_VAL), 8u);
 885              		.loc 1 540 0
 886 00ac 2B48     		ldr	r0, .L70+44
 887 00ae 2C49     		ldr	r1, .L70+48
 888 00b0 0822     		movs	r2, #8
 889 00b2 FFF7FEFF 		bl	CYCONFIGCPY
 890              	.LVL53:
 541:.\Generated_Source\PSoC5/cyfitter_cfg.c **** 	CYCONFIGCPY((void CYFAR *)(CYREG_PRT2_DR), (const void CYFAR *)(BS_IOPINS0_2_VAL), 10u);
 891              		.loc 1 541 0
ARM GAS  C:\Users\Tim\AppData\Local\Temp\cciSpwkc.s 			page 27


 892 00b6 2B48     		ldr	r0, .L70+52
 893 00b8 2B49     		ldr	r1, .L70+56
 894 00ba 0A22     		movs	r2, #10
 895 00bc FFF7FEFF 		bl	CYCONFIGCPY
 896              	.LVL54:
 542:.\Generated_Source\PSoC5/cyfitter_cfg.c **** 	CYCONFIGCPY((void CYFAR *)(CYREG_PRT3_DM0), (const void CYFAR *)(BS_IOPINS0_3_VAL), 8u);
 897              		.loc 1 542 0
 898 00c0 2A48     		ldr	r0, .L70+60
 899 00c2 2B49     		ldr	r1, .L70+64
 900 00c4 0822     		movs	r2, #8
 901 00c6 FFF7FEFF 		bl	CYCONFIGCPY
 902              	.LVL55:
 543:.\Generated_Source\PSoC5/cyfitter_cfg.c **** 	CYCONFIGCPY((void CYFAR *)(CYREG_PRT4_DM0), (const void CYFAR *)(BS_IOPINS0_4_VAL), 8u);
 903              		.loc 1 543 0
 904 00ca 2A48     		ldr	r0, .L70+68
 905 00cc 2A49     		ldr	r1, .L70+72
 906 00ce 0822     		movs	r2, #8
 907 00d0 FFF7FEFF 		bl	CYCONFIGCPY
 908              	.LVL56:
 544:.\Generated_Source\PSoC5/cyfitter_cfg.c **** 	CYCONFIGCPY((void CYFAR *)(CYREG_PRT5_DM0), (const void CYFAR *)(BS_IOPINS0_5_VAL), 8u);
 909              		.loc 1 544 0
 910 00d4 2948     		ldr	r0, .L70+76
 911 00d6 2A49     		ldr	r1, .L70+80
 912 00d8 0822     		movs	r2, #8
 913 00da FFF7FEFF 		bl	CYCONFIGCPY
 914              	.LVL57:
 545:.\Generated_Source\PSoC5/cyfitter_cfg.c **** 	CYCONFIGCPY((void CYFAR *)(CYREG_PRT6_DM0), (const void CYFAR *)(BS_IOPINS0_6_VAL), 8u);
 915              		.loc 1 545 0
 916 00de 2948     		ldr	r0, .L70+84
 917 00e0 2949     		ldr	r1, .L70+88
 918 00e2 0822     		movs	r2, #8
 919 00e4 FFF7FEFF 		bl	CYCONFIGCPY
 920              	.LVL58:
 546:.\Generated_Source\PSoC5/cyfitter_cfg.c **** 	CY_SET_XTND_REG8((void CYFAR *)(CYREG_B0_P6_U0_CFG27), 0x44u);
 921              		.loc 1 546 0
 922 00e8 4423     		movs	r3, #68
 923 00ea 284A     		ldr	r2, .L70+92
 924 00ec 1370     		strb	r3, [r2]
 547:.\Generated_Source\PSoC5/cyfitter_cfg.c **** 	CY_SET_XTND_REG8((void CYFAR *)(CYREG_B1_P2_U0_CFG27), 0xC4u);
 925              		.loc 1 547 0
 926 00ee C421     		movs	r1, #196
 927 00f0 02F50062 		add	r2, r2, #2048
 928 00f4 1170     		strb	r1, [r2]
 548:.\Generated_Source\PSoC5/cyfitter_cfg.c **** 	CY_SET_XTND_REG8((void CYFAR *)(CYREG_B1_P5_U1_CFG27), 0x44u);
 929              		.loc 1 548 0
 930 00f6 02F5D062 		add	r2, r2, #1664
 931 00fa 1370     		strb	r3, [r2]
 549:.\Generated_Source\PSoC5/cyfitter_cfg.c **** 	/* Switch Boost to the precision bandgap reference from its internal reference */
 550:.\Generated_Source\PSoC5/cyfitter_cfg.c **** 	CY_SET_REG8((void CYXDATA *)CYREG_BOOST_CR2, (CY_GET_REG8((void CYXDATA *)CYREG_BOOST_CR2) | 0x08u
 932              		.loc 1 550 0
 933 00fc A2F55742 		sub	r2, r2, #55040
 934 0100 B93A     		subs	r2, r2, #185
 935 0102 1378     		ldrb	r3, [r2]	@ zero_extendqisi2
 936 0104 43F00803 		orr	r3, r3, #8
 937 0108 1370     		strb	r3, [r2]
 551:.\Generated_Source\PSoC5/cyfitter_cfg.c **** 
 552:.\Generated_Source\PSoC5/cyfitter_cfg.c **** 	/* Set Flash Cycles based on max possible frequency in case a glitch occurs during ClockSetup(). *
ARM GAS  C:\Users\Tim\AppData\Local\Temp\cciSpwkc.s 			page 28


 553:.\Generated_Source\PSoC5/cyfitter_cfg.c **** 	CY_SET_XTND_REG8((void CYFAR *)(CYREG_CACHE_CC_CTL), (((CYDEV_INSTRUCT_CACHE_ENABLED) != 0) ? 0x61
 938              		.loc 1 553 0
 939 010a 214D     		ldr	r5, .L70+96
 940 010c 6123     		movs	r3, #97
 941 010e 2B70     		strb	r3, [r5]
 554:.\Generated_Source\PSoC5/cyfitter_cfg.c **** 	/* Setup clocks based on selections from Clock DWR */
 555:.\Generated_Source\PSoC5/cyfitter_cfg.c **** 	ClockSetup();
 942              		.loc 1 555 0
 943 0110 FFF7FEFF 		bl	ClockSetup
 944              	.LVL59:
 556:.\Generated_Source\PSoC5/cyfitter_cfg.c **** 	/* Set Flash Cycles based on newly configured 24.00MHz Bus Clock. */
 557:.\Generated_Source\PSoC5/cyfitter_cfg.c **** 	CY_SET_XTND_REG8((void CYFAR *)(CYREG_CACHE_CC_CTL), (((CYDEV_INSTRUCT_CACHE_ENABLED) != 0) ? 0x81
 945              		.loc 1 557 0
 946 0114 8123     		movs	r3, #129
 947 0116 2B70     		strb	r3, [r5]
 558:.\Generated_Source\PSoC5/cyfitter_cfg.c **** 	CY_SET_XTND_REG8((void CYFAR *)(CYREG_PANTHER_WAITPIPE), 0x01u);
 948              		.loc 1 558 0
 949 0118 0122     		movs	r2, #1
 950 011a 1E4B     		ldr	r3, .L70+100
 951 011c 1A70     		strb	r2, [r3]
 559:.\Generated_Source\PSoC5/cyfitter_cfg.c **** 
 560:.\Generated_Source\PSoC5/cyfitter_cfg.c **** 	/* Perform basic analog initialization to defaults */
 561:.\Generated_Source\PSoC5/cyfitter_cfg.c **** 	AnalogSetDefault();
 952              		.loc 1 561 0
 953 011e FFF7FEFF 		bl	AnalogSetDefault
 954              	.LVL60:
 562:.\Generated_Source\PSoC5/cyfitter_cfg.c **** 
 563:.\Generated_Source\PSoC5/cyfitter_cfg.c **** 	/* Configure alternate active mode */
 564:.\Generated_Source\PSoC5/cyfitter_cfg.c **** 	CYCONFIGCPY((void CYFAR *)CYDEV_PM_STBY_BASE, (const void CYFAR *)CYDEV_PM_ACT_BASE, 14u);
 955              		.loc 1 564 0
 956 0122 1D48     		ldr	r0, .L70+104
 957 0124 2146     		mov	r1, r4
 958 0126 0E22     		movs	r2, #14
 959 0128 FFF7FEFF 		bl	CYCONFIGCPY
 960              	.LVL61:
 961 012c 38BD     		pop	{r3, r4, r5, pc}
 962              	.L71:
 963 012e 00BF     		.align	2
 964              	.L70:
 965 0130 E8460040 		.word	1073759976
 966 0134 00000000 		.word	.LANCHOR1
 967 0138 A8000048 		.word	1207959720
 968 013c 03500140 		.word	1073827843
 969 0140 A0430040 		.word	1073759136
 970 0144 02510040 		.word	1073762562
 971 0148 50120048 		.word	1207964240
 972 014c C2510040 		.word	1073762754
 973 0150 58120048 		.word	1207964248
 974 0154 F2510040 		.word	1073762802
 975 0158 60120048 		.word	1207964256
 976 015c 12510040 		.word	1073762578
 977 0160 68120048 		.word	1207964264
 978 0164 20510040 		.word	1073762592
 979 0168 70120048 		.word	1207964272
 980 016c 32510040 		.word	1073762610
 981 0170 7C120048 		.word	1207964284
 982 0174 42510040 		.word	1073762626
ARM GAS  C:\Users\Tim\AppData\Local\Temp\cciSpwkc.s 			page 29


 983 0178 84120048 		.word	1207964292
 984 017c 52510040 		.word	1073762642
 985 0180 8C120048 		.word	1207964300
 986 0184 62510040 		.word	1073762658
 987 0188 94120048 		.word	1207964308
 988 018c 5B0C0140 		.word	1073810523
 989 0190 00480040 		.word	1073760256
 990 0194 04000840 		.word	1074266116
 991 0198 B0430040 		.word	1073759152
 992              		.cfi_endproc
 993              	.LFE12:
 994              		.size	cyfitter_cfg, .-cyfitter_cfg
 995              		.global	Rear_AMuxSeq_curChannel
 996              		.global	Front_AMuxSeq_curChannel
 997              		.section	.rodata
 998              		.align	2
 999              		.set	.LANCHOR1,. + 0
 1000              		.type	cfg_memset_list.4933, %object
 1001              		.size	cfg_memset_list.4933, 36
 1002              	cfg_memset_list.4933:
 1003 0000 C8490040 		.word	1073760712
 1004 0004 1900     		.short	25
 1005 0006 00000140 		.4byte	1073807360
 1006 000a 0010     		.short	4096
 1007 000c 00140140 		.word	1073812480
 1008 0010 0008     		.short	2048
 1009 0012 00400140 		.4byte	1073823744
 1010 0016 000A     		.short	2560
 1011 0018 004C0140 		.word	1073826816
 1012 001c 0002     		.short	512
 1013 001e 10500140 		.4byte	1073827856
 1014 0022 1000     		.short	16
 1015              		.type	cfg_memcpy_list.4934, %object
 1016              		.size	cfg_memcpy_list.4934, 20
 1017              	cfg_memcpy_list.4934:
 1018 0024 10520040 		.word	1073762832
 1019 0028 38120048 		.word	1207964216
 1020 002c 0700     		.short	7
 1021 002e 00500140 		.4byte	1073827840
 1022 0032 40120048 		.4byte	1207964224
 1023 0036 1000     		.short	16
 1024              		.data
 1025              		.set	.LANCHOR0,. + 0
 1026              		.type	Front_AMuxSeq_curChannel, %object
 1027              		.size	Front_AMuxSeq_curChannel, 1
 1028              	Front_AMuxSeq_curChannel:
 1029 0000 FF       		.byte	-1
 1030              		.type	Rear_AMuxSeq_curChannel, %object
 1031              		.size	Rear_AMuxSeq_curChannel, 1
 1032              	Rear_AMuxSeq_curChannel:
 1033 0001 FF       		.byte	-1
 1034              		.text
 1035              	.Letext0:
 1036              		.file 2 "c:\\program files (x86)\\cypress\\psoc creator\\3.3\\psoc creator\\import\\gnu\\arm\\4.9.
 1037              		.file 3 ".\\Generated_Source\\PSoC5\\cytypes.h"
 1038              		.file 4 ".\\Generated_Source\\PSoC5\\CyLib.h"