ARM GAS  C:\Users\Tim\AppData\Local\Temp\ccGcLsFO.s 			page 1


   1              		.syntax unified
   2              		.cpu cortex-m3
   3              		.fpu softvfp
   4              		.eabi_attribute 20, 1
   5              		.eabi_attribute 21, 1
   6              		.eabi_attribute 23, 3
   7              		.eabi_attribute 24, 1
   8              		.eabi_attribute 25, 1
   9              		.eabi_attribute 26, 1
  10              		.eabi_attribute 30, 1
  11              		.eabi_attribute 34, 1
  12              		.eabi_attribute 18, 4
  13              		.thumb
  14              		.file	"diag.c"
  15              		.text
  16              	.Ltext0:
  17              		.cfi_sections	.debug_frame
  18              		.section	.text.Diag_Init,"ax",%progbits
  19              		.align	2
  20              		.global	Diag_Init
  21              		.thumb
  22              		.thumb_func
  23              		.type	Diag_Init, %function
  24              	Diag_Init:
  25              	.LFB63:
  26              		.file 1 "..\\source\\diag.c"
   1:..\source/diag.c **** /* ========================================
   2:..\source/diag.c ****  *
   3:..\source/diag.c ****  * Copyright YOUR COMPANY, THE YEAR
   4:..\source/diag.c ****  * All Rights Reserved
   5:..\source/diag.c ****  * UNPUBLISHED, LICENSED SOFTWARE.
   6:..\source/diag.c ****  *
   7:..\source/diag.c ****  * CONFIDENTIAL AND PROPRIETARY INFORMATION
   8:..\source/diag.c ****  * WHICH IS THE PROPERTY OF your company.
   9:..\source/diag.c ****  *
  10:..\source/diag.c ****  * ========================================
  11:..\source/diag.c **** */
  12:..\source/diag.c **** 
  13:..\source/diag.c **** #include "diag.h"
  14:..\source/diag.c **** #include "time.h"
  15:..\source/diag.c **** #include "i2c.h"
  16:..\source/diag.c **** 
  17:..\source/diag.c **** #define HEARTBEAT_PERIOD (1000)
  18:..\source/diag.c **** 
  19:..\source/diag.c **** static uint32 last_heartbeat_time;
  20:..\source/diag.c **** static uint32 heartbeat;
  21:..\source/diag.c **** 
  22:..\source/diag.c **** void Diag_Init()
  23:..\source/diag.c **** {
  27              		.loc 1 23 0
  28              		.cfi_startproc
  29              		@ args = 0, pretend = 0, frame = 0
  30              		@ frame_needed = 0, uses_anonymous_args = 0
  31 0000 08B5     		push	{r3, lr}
  32              		.cfi_def_cfa_offset 8
  33              		.cfi_offset 3, -8
  34              		.cfi_offset 14, -4
ARM GAS  C:\Users\Tim\AppData\Local\Temp\ccGcLsFO.s 			page 2


  24:..\source/diag.c ****     Mainloop_Pin_Write(0);
  35              		.loc 1 24 0
  36 0002 0020     		movs	r0, #0
  37 0004 FFF7FEFF 		bl	Mainloop_Pin_Write
  38              	.LVL0:
  39 0008 08BD     		pop	{r3, pc}
  40              		.cfi_endproc
  41              	.LFE63:
  42              		.size	Diag_Init, .-Diag_Init
  43 000a 00BF     		.section	.text.Diag_Start,"ax",%progbits
  44              		.align	2
  45              		.global	Diag_Start
  46              		.thumb
  47              		.thumb_func
  48              		.type	Diag_Start, %function
  49              	Diag_Start:
  50              	.LFB64:
  25:..\source/diag.c **** }
  26:..\source/diag.c **** 
  27:..\source/diag.c **** void Diag_Start()
  28:..\source/diag.c **** {
  51              		.loc 1 28 0
  52              		.cfi_startproc
  53              		@ args = 0, pretend = 0, frame = 0
  54              		@ frame_needed = 0, uses_anonymous_args = 0
  55              		@ link register save eliminated.
  56 0000 7047     		bx	lr
  57              		.cfi_endproc
  58              	.LFE64:
  59              		.size	Diag_Start, .-Diag_Start
  60 0002 00BF     		.section	.text.Diag_Update,"ax",%progbits
  61              		.align	2
  62              		.global	Diag_Update
  63              		.thumb
  64              		.thumb_func
  65              		.type	Diag_Update, %function
  66              	Diag_Update:
  67              	.LFB65:
  29:..\source/diag.c **** 
  30:..\source/diag.c **** }
  31:..\source/diag.c **** 
  32:..\source/diag.c **** void Diag_Update()
  33:..\source/diag.c **** {
  68              		.loc 1 33 0
  69              		.cfi_startproc
  70              		@ args = 0, pretend = 0, frame = 0
  71              		@ frame_needed = 0, uses_anonymous_args = 0
  72              		.loc 1 33 0
  73 0000 08B5     		push	{r3, lr}
  74              		.cfi_def_cfa_offset 8
  75              		.cfi_offset 3, -8
  76              		.cfi_offset 14, -4
  34:..\source/diag.c ****     uint32 now;
  35:..\source/diag.c ****     
  36:..\source/diag.c ****     now = millis();
  77              		.loc 1 36 0
  78 0002 FFF7FEFF 		bl	millis
ARM GAS  C:\Users\Tim\AppData\Local\Temp\ccGcLsFO.s 			page 3


  79              	.LVL1:
  80 0006 08BD     		pop	{r3, pc}
  81              		.cfi_endproc
  82              	.LFE65:
  83              		.size	Diag_Update, .-Diag_Update
  84              		.text
  85              	.Letext0:
  86              		.file 2 "c:\\program files (x86)\\cypress\\psoc creator\\3.3\\psoc creator\\import\\gnu\\arm\\4.9.
  87              		.file 3 "c:\\program files (x86)\\cypress\\psoc creator\\3.3\\psoc creator\\import\\gnu\\arm\\4.9.
  88              		.file 4 "Generated_Source\\PSoC5/cytypes.h"
  89              		.file 5 "Generated_Source\\PSoC5/core_cm3.h"
  90              		.file 6 "Generated_Source\\PSoC5/Mainloop_Pin.h"
  91              		.file 7 "..\\source\\time.h"