ARM GAS  C:\Users\Tim\AppData\Local\Temp\ccuVT0vi.s 			page 1


   1              		.syntax unified
   2              		.cpu cortex-m3
   3              		.fpu softvfp
   4              		.eabi_attribute 20, 1
   5              		.eabi_attribute 21, 1
   6              		.eabi_attribute 23, 3
   7              		.eabi_attribute 24, 1
   8              		.eabi_attribute 25, 1
   9              		.eabi_attribute 26, 1
  10              		.eabi_attribute 30, 1
  11              		.eabi_attribute 34, 1
  12              		.eabi_attribute 18, 4
  13              		.thumb
  14              		.file	"encoder.c"
  15              		.text
  16              	.Ltext0:
  17              		.cfi_sections	.debug_frame
  18              		.global	__aeabi_i2f
  19              		.global	__aeabi_fmul
  20              		.global	__aeabi_ui2f
  21              		.global	__aeabi_fdiv
  22              		.global	__aeabi_f2d
  23              		.global	__aeabi_dmul
  24              		.global	__aeabi_d2f
  25              		.global	__aeabi_ddiv
  26              		.global	__aeabi_dadd
  27              		.section	.text.Encoder_Sample,"ax",%progbits
  28              		.align	2
  29              		.thumb
  30              		.thumb_func
  31              		.type	Encoder_Sample, %function
  32              	Encoder_Sample:
  33              	.LFB64:
  34              		.file 1 "..\\source\\encoder.c"
   1:..\source/encoder.c **** /* ========================================
   2:..\source/encoder.c ****  *
   3:..\source/encoder.c ****  * Copyright YOUR COMPANY, THE YEAR
   4:..\source/encoder.c ****  * All Rights Reserved
   5:..\source/encoder.c ****  * UNPUBLISHED, LICENSED SOFTWARE.
   6:..\source/encoder.c ****  *
   7:..\source/encoder.c ****  * CONFIDENTIAL AND PROPRIETARY INFORMATION
   8:..\source/encoder.c ****  * WHICH IS THE PROPERTY OF your company.
   9:..\source/encoder.c ****  *
  10:..\source/encoder.c ****  * ========================================
  11:..\source/encoder.c **** */
  12:..\source/encoder.c **** 
  13:..\source/encoder.c **** #include <stdlib.h>
  14:..\source/encoder.c **** #include <stdio.h>
  15:..\source/encoder.c **** #include "config.h"
  16:..\source/encoder.c **** #include "encoder.h"
  17:..\source/encoder.c **** #include "utils.h"
  18:..\source/encoder.c **** #include "time.h"
  19:..\source/encoder.c **** #include "i2c.h"
  20:..\source/encoder.c **** #include "diag.h"
  21:..\source/encoder.c **** #include "debug.h"
  22:..\source/encoder.c **** 
  23:..\source/encoder.c **** #ifdef  LEFT_ENC_DUMP_ENABLED     
ARM GAS  C:\Users\Tim\AppData\Local\Temp\ccuVT0vi.s 			page 2


  24:..\source/encoder.c **** #define LEFT_DUMP_ENC(enc)  if (debug_control_enabled & DEBUG_LEFT_ENCODER_ENABLE_BIT) DumpEncoder(
  25:..\source/encoder.c **** #else
  26:..\source/encoder.c **** #define LEFT_DUMP_ENC(enc)
  27:..\source/encoder.c **** #endif    
  28:..\source/encoder.c **** 
  29:..\source/encoder.c **** #ifdef RIGHT_ENC_DUMP_ENABLED
  30:..\source/encoder.c **** #define RIGHT_DUMP_ENC(enc)  if (debug_control_enabled & DEBUG_RIGHT_ENCODER_ENABLE_BIT) DumpEncode
  31:..\source/encoder.c **** #else
  32:..\source/encoder.c **** #define RIGHT_DUMP_ENC(enc)
  33:..\source/encoder.c **** #endif
  34:..\source/encoder.c **** 
  35:..\source/encoder.c **** #ifdef ENC_UPDATE_DELTA_ENABLED
  36:..\source/encoder.c **** #define ENC_DEBUG_DELTA(delta) DEBUG_DELTA_TIME("enc", delta)
  37:..\source/encoder.c **** #else
  38:..\source/encoder.c **** #define ENC_DEBUG_DELTA(delta)
  39:..\source/encoder.c **** #endif    
  40:..\source/encoder.c **** 
  41:..\source/encoder.c **** #define ENC_SAMPLE_TIME_MS  SAMPLE_TIME_MS(ENC_SAMPLE_RATE)
  42:..\source/encoder.c **** #define ENC_SAMPLE_TIME_SEC SAMPLE_TIME_SEC(ENC_SAMPLE_RATE)
  43:..\source/encoder.c **** 
  44:..\source/encoder.c **** 
  45:..\source/encoder.c **** typedef int32 (*READ_ENCODER_COUNTER_TYPE)();
  46:..\source/encoder.c **** typedef void (*WRITE_ENCODER_COUNTER_TYPE)(int32);
  47:..\source/encoder.c **** typedef void (*WRITE_OUTPUT_TYPE)(int16 mmps);
  48:..\source/encoder.c **** 
  49:..\source/encoder.c **** typedef struct _encoder_tag
  50:..\source/encoder.c **** {
  51:..\source/encoder.c ****     char name[6];
  52:..\source/encoder.c ****     int32 count;
  53:..\source/encoder.c ****     int32 last_count;
  54:..\source/encoder.c ****     int32 delta_count;
  55:..\source/encoder.c ****     float avg_delta_count;
  56:..\source/encoder.c ****     float avg_cps;
  57:..\source/encoder.c ****     float avg_mps;
  58:..\source/encoder.c ****     float dist;
  59:..\source/encoder.c ****     MOVING_AVERAGE_FLOAT_TYPE delta_count_ma;
  60:..\source/encoder.c ****     MOVING_AVERAGE_FLOAT_TYPE avg_cps_ma;
  61:..\source/encoder.c ****     READ_ENCODER_COUNTER_TYPE read_counter;
  62:..\source/encoder.c ****     WRITE_ENCODER_COUNTER_TYPE write_counter;
  63:..\source/encoder.c **** } ENCODER_TYPE;
  64:..\source/encoder.c **** 
  65:..\source/encoder.c **** static ENCODER_TYPE left_enc = {
  66:..\source/encoder.c ****     /* name */              "left",
  67:..\source/encoder.c ****     /* count/speed */       0, 0, 0, 0, 0, 0,
  68:..\source/encoder.c ****     /* dist */              0.0,
  69:..\source/encoder.c ****     /* count ma */          {0, 0},
  70:..\source/encoder.c ****     /* cps ma */            {0, 0},
  71:..\source/encoder.c ****     /* get enc count */     Left_QuadDec_GetCounter,
  72:..\source/encoder.c ****     /* set enc count */     Left_QuadDec_SetCounter,
  73:..\source/encoder.c **** };
  74:..\source/encoder.c **** 
  75:..\source/encoder.c **** static ENCODER_TYPE right_enc = {
  76:..\source/encoder.c ****     /* name */              "right",
  77:..\source/encoder.c ****     /* count/speed */       0, 0, 0, 0, 0, 0,
  78:..\source/encoder.c ****     /* dist */              0.0,
  79:..\source/encoder.c ****     /* count ma */          {0, 0},
  80:..\source/encoder.c ****     /* cps ma */            {0, 0},
ARM GAS  C:\Users\Tim\AppData\Local\Temp\ccuVT0vi.s 			page 3


  81:..\source/encoder.c ****     /* get enc count */     Right_QuadDec_GetCounter,
  82:..\source/encoder.c ****     /* set enc count */     Right_QuadDec_SetCounter,
  83:..\source/encoder.c **** };
  84:..\source/encoder.c **** 
  85:..\source/encoder.c **** #if defined (LEFT_ENC_DUMP_ENABLED) || defined (RIGHT_ENC_DUMP_ENABLED)
  86:..\source/encoder.c **** static void DumpEncoder(ENCODER_TYPE *enc)
  87:..\source/encoder.c **** {
  88:..\source/encoder.c ****     char avg_cps_str[10];
  89:..\source/encoder.c ****     char avg_delta_count_str[10];
  90:..\source/encoder.c ****     char avg_mps_str[10];
  91:..\source/encoder.c ****     char dist_str[10];
  92:..\source/encoder.c ****     
  93:..\source/encoder.c ****     ftoa(enc->avg_cps, avg_cps_str, 3);
  94:..\source/encoder.c ****     ftoa(enc->avg_delta_count, avg_delta_count_str, 3);
  95:..\source/encoder.c ****     ftoa(enc->avg_mps, avg_mps_str, 3);
  96:..\source/encoder.c ****     ftoa(enc->dist, dist_str, 3);
  97:..\source/encoder.c ****     
  98:..\source/encoder.c ****     if (ENCODER_DEBUG_CONTROL_ENABLED)
  99:..\source/encoder.c ****     {
 100:..\source/encoder.c ****         DEBUG_PRINT_ARG("%s enc: %s %s %s %ld %s\r\n", enc->name, avg_cps_str, avg_mps_str, avg_del
 101:..\source/encoder.c ****     }
 102:..\source/encoder.c **** }
 103:..\source/encoder.c **** #endif
 104:..\source/encoder.c **** 
 105:..\source/encoder.c **** static void Encoder_Sample(ENCODER_TYPE *enc, uint32 delta_time)
 106:..\source/encoder.c **** {
  35              		.loc 1 106 0
  36              		.cfi_startproc
  37              		@ args = 0, pretend = 0, frame = 0
  38              		@ frame_needed = 0, uses_anonymous_args = 0
  39              	.LVL0:
  40 0000 F8B5     		push	{r3, r4, r5, r6, r7, lr}
  41              		.cfi_def_cfa_offset 24
  42              		.cfi_offset 3, -24
  43              		.cfi_offset 4, -20
  44              		.cfi_offset 5, -16
  45              		.cfi_offset 6, -12
  46              		.cfi_offset 7, -8
  47              		.cfi_offset 14, -4
  48 0002 0446     		mov	r4, r0
  49 0004 0E46     		mov	r6, r1
 107:..\source/encoder.c ****     enc->count = (int32) enc->read_counter();
  50              		.loc 1 107 0
  51 0006 436B     		ldr	r3, [r0, #52]
  52 0008 9847     		blx	r3
  53              	.LVL1:
  54 000a A060     		str	r0, [r4, #8]
 108:..\source/encoder.c ****     enc->delta_count = enc->count - enc->last_count;
  55              		.loc 1 108 0
  56 000c E368     		ldr	r3, [r4, #12]
  57 000e C31A     		subs	r3, r0, r3
  58 0010 2361     		str	r3, [r4, #16]
 109:..\source/encoder.c ****     enc->last_count = enc->count;
  59              		.loc 1 109 0
  60 0012 E060     		str	r0, [r4, #12]
 110:..\source/encoder.c ****     
 111:..\source/encoder.c ****     enc->avg_delta_count = MovingAverageFloat(&enc->delta_count_ma, enc->delta_count);
ARM GAS  C:\Users\Tim\AppData\Local\Temp\ccuVT0vi.s 			page 4


  61              		.loc 1 111 0
  62 0014 04F12405 		add	r5, r4, #36
  63 0018 1846     		mov	r0, r3
  64 001a FFF7FEFF 		bl	__aeabi_i2f
  65              	.LVL2:
  66 001e 0146     		mov	r1, r0
  67 0020 2846     		mov	r0, r5
  68 0022 FFF7FEFF 		bl	MovingAverageFloat
  69              	.LVL3:
  70 0026 6061     		str	r0, [r4, #20]	@ float
 112:..\source/encoder.c ****     
 113:..\source/encoder.c ****     float cps = ((enc->avg_delta_count * MS_IN_SEC) / (float) delta_time);
  71              		.loc 1 113 0
  72 0028 1D49     		ldr	r1, .L3+16
  73 002a FFF7FEFF 		bl	__aeabi_fmul
  74              	.LVL4:
  75 002e 0546     		mov	r5, r0
  76 0030 3046     		mov	r0, r6
  77 0032 FFF7FEFF 		bl	__aeabi_ui2f
  78              	.LVL5:
  79 0036 0146     		mov	r1, r0
  80 0038 2846     		mov	r0, r5
  81 003a FFF7FEFF 		bl	__aeabi_fdiv
  82              	.LVL6:
  83 003e 0146     		mov	r1, r0
  84              	.LVL7:
 114:..\source/encoder.c ****     
 115:..\source/encoder.c ****     enc->avg_cps = MovingAverageFloat(&enc->avg_cps_ma, cps);
  85              		.loc 1 115 0
  86 0040 04F12C00 		add	r0, r4, #44
  87              	.LVL8:
  88 0044 FFF7FEFF 		bl	MovingAverageFloat
  89              	.LVL9:
  90 0048 A061     		str	r0, [r4, #24]	@ float
 116:..\source/encoder.c ****     
 117:..\source/encoder.c ****     enc->avg_mps = enc->avg_cps * METER_PER_COUNT;
  91              		.loc 1 117 0
  92 004a FFF7FEFF 		bl	__aeabi_f2d
  93              	.LVL10:
  94 004e 10A3     		adr	r3, .L3
  95 0050 D3E90023 		ldrd	r2, [r3]
  96 0054 FFF7FEFF 		bl	__aeabi_dmul
  97              	.LVL11:
  98 0058 FFF7FEFF 		bl	__aeabi_d2f
  99              	.LVL12:
 100 005c E061     		str	r0, [r4, #28]	@ float
 118:..\source/encoder.c ****     
 119:..\source/encoder.c ****     enc->dist += PI_D * enc->avg_delta_count/COUNT_PER_REVOLUTION;
 101              		.loc 1 119 0
 102 005e 6069     		ldr	r0, [r4, #20]	@ float
 103 0060 FFF7FEFF 		bl	__aeabi_f2d
 104              	.LVL13:
 105 0064 0CA3     		adr	r3, .L3+8
 106 0066 D3E90023 		ldrd	r2, [r3]
 107 006a FFF7FEFF 		bl	__aeabi_dmul
 108              	.LVL14:
 109 006e 0022     		movs	r2, #0
ARM GAS  C:\Users\Tim\AppData\Local\Temp\ccuVT0vi.s 			page 5


 110 0070 0C4B     		ldr	r3, .L3+20
 111 0072 FFF7FEFF 		bl	__aeabi_ddiv
 112              	.LVL15:
 113 0076 0646     		mov	r6, r0
 114              	.LVL16:
 115 0078 0F46     		mov	r7, r1
 116 007a 206A     		ldr	r0, [r4, #32]	@ float
 117 007c FFF7FEFF 		bl	__aeabi_f2d
 118              	.LVL17:
 119 0080 3246     		mov	r2, r6
 120 0082 3B46     		mov	r3, r7
 121 0084 FFF7FEFF 		bl	__aeabi_dadd
 122              	.LVL18:
 123 0088 FFF7FEFF 		bl	__aeabi_d2f
 124              	.LVL19:
 125 008c 2062     		str	r0, [r4, #32]	@ float
 126 008e F8BD     		pop	{r3, r4, r5, r6, r7, pc}
 127              	.LVL20:
 128              	.L4:
 129              		.align	3
 130              	.L3:
 131 0090 4C2438F2 		.word	-231201716
 132 0094 92602F3F 		.word	1060069522
 133 0098 72D38A80 		.word	-2138385550
 134 009c 4FA4DE3F 		.word	1071555663
 135 00a0 00007A44 		.word	1148846080
 136 00a4 00409F40 		.word	1084178432
 137              		.cfi_endproc
 138              	.LFE64:
 139              		.size	Encoder_Sample, .-Encoder_Sample
 140              		.section	.text.DumpEncoder,"ax",%progbits
 141              		.align	2
 142              		.thumb
 143              		.thumb_func
 144              		.type	DumpEncoder, %function
 145              	DumpEncoder:
 146              	.LFB63:
  87:..\source/encoder.c ****     char avg_cps_str[10];
 147              		.loc 1 87 0
 148              		.cfi_startproc
 149              		@ args = 0, pretend = 0, frame = 48
 150              		@ frame_needed = 0, uses_anonymous_args = 0
 151              	.LVL21:
 152 0000 30B5     		push	{r4, r5, lr}
 153              		.cfi_def_cfa_offset 12
 154              		.cfi_offset 4, -12
 155              		.cfi_offset 5, -8
 156              		.cfi_offset 14, -4
 157 0002 93B0     		sub	sp, sp, #76
 158              		.cfi_def_cfa_offset 88
 159 0004 0446     		mov	r4, r0
  93:..\source/encoder.c ****     ftoa(enc->avg_delta_count, avg_delta_count_str, 3);
 160              		.loc 1 93 0
 161 0006 8069     		ldr	r0, [r0, #24]	@ float
 162              	.LVL22:
 163 0008 0FA9     		add	r1, sp, #60
 164 000a 0322     		movs	r2, #3
ARM GAS  C:\Users\Tim\AppData\Local\Temp\ccuVT0vi.s 			page 6


 165 000c FFF7FEFF 		bl	ftoa
 166              	.LVL23:
  94:..\source/encoder.c ****     ftoa(enc->avg_mps, avg_mps_str, 3);
 167              		.loc 1 94 0
 168 0010 6069     		ldr	r0, [r4, #20]	@ float
 169 0012 0CA9     		add	r1, sp, #48
 170 0014 0322     		movs	r2, #3
 171 0016 FFF7FEFF 		bl	ftoa
 172              	.LVL24:
  95:..\source/encoder.c ****     ftoa(enc->dist, dist_str, 3);
 173              		.loc 1 95 0
 174 001a E069     		ldr	r0, [r4, #28]	@ float
 175 001c 09A9     		add	r1, sp, #36
 176 001e 0322     		movs	r2, #3
 177 0020 FFF7FEFF 		bl	ftoa
 178              	.LVL25:
  96:..\source/encoder.c ****     
 179              		.loc 1 96 0
 180 0024 206A     		ldr	r0, [r4, #32]	@ float
 181 0026 06A9     		add	r1, sp, #24
 182 0028 0322     		movs	r2, #3
 183 002a FFF7FEFF 		bl	ftoa
 184              	.LVL26:
  98:..\source/encoder.c ****     {
 185              		.loc 1 98 0
 186 002e 0E4B     		ldr	r3, .L8
 187 0030 1B88     		ldrh	r3, [r3]
 188 0032 13F0030F 		tst	r3, #3
 189 0036 14D0     		beq	.L5
 100:..\source/encoder.c ****     }
 190              		.loc 1 100 0
 191 0038 0C4D     		ldr	r5, .L8+4
 192 003a 0FAB     		add	r3, sp, #60
 193 003c 0093     		str	r3, [sp]
 194 003e 09AB     		add	r3, sp, #36
 195 0040 0193     		str	r3, [sp, #4]
 196 0042 0CAB     		add	r3, sp, #48
 197 0044 0293     		str	r3, [sp, #8]
 198 0046 2369     		ldr	r3, [r4, #16]
 199 0048 0393     		str	r3, [sp, #12]
 200 004a 06AB     		add	r3, sp, #24
 201 004c 0493     		str	r3, [sp, #16]
 202 004e 2846     		mov	r0, r5
 203 0050 4FF48071 		mov	r1, #256
 204 0054 064A     		ldr	r2, .L8+8
 205 0056 2346     		mov	r3, r4
 206 0058 FFF7FEFF 		bl	snprintf
 207              	.LVL27:
 208 005c 2846     		mov	r0, r5
 209 005e FFF7FEFF 		bl	Ser_PutString
 210              	.LVL28:
 211              	.L5:
 102:..\source/encoder.c **** #endif
 212              		.loc 1 102 0
 213 0062 13B0     		add	sp, sp, #76
 214              		.cfi_def_cfa_offset 12
 215              		@ sp needed
ARM GAS  C:\Users\Tim\AppData\Local\Temp\ccuVT0vi.s 			page 7


 216 0064 30BD     		pop	{r4, r5, pc}
 217              	.LVL29:
 218              	.L9:
 219 0066 00BF     		.align	2
 220              	.L8:
 221 0068 00000000 		.word	debug_control_enabled
 222 006c 00000000 		.word	formatted_string
 223 0070 00000000 		.word	.LC0
 224              		.cfi_endproc
 225              	.LFE63:
 226              		.size	DumpEncoder, .-DumpEncoder
 227              		.section	.text.Encoder_Init,"ax",%progbits
 228              		.align	2
 229              		.global	Encoder_Init
 230              		.thumb
 231              		.thumb_func
 232              		.type	Encoder_Init, %function
 233              	Encoder_Init:
 234              	.LFB65:
 120:..\source/encoder.c **** }
 121:..\source/encoder.c **** 
 122:..\source/encoder.c **** void Encoder_Init()
 123:..\source/encoder.c **** {
 235              		.loc 1 123 0
 236              		.cfi_startproc
 237              		@ args = 0, pretend = 0, frame = 0
 238              		@ frame_needed = 0, uses_anonymous_args = 0
 239              		@ link register save eliminated.
 240 0000 10B4     		push	{r4}
 241              		.cfi_def_cfa_offset 4
 242              		.cfi_offset 4, -4
 124:..\source/encoder.c ****     left_enc.count = 0;
 243              		.loc 1 124 0
 244 0002 0F4B     		ldr	r3, .L12
 245 0004 0021     		movs	r1, #0
 246 0006 9960     		str	r1, [r3, #8]
 125:..\source/encoder.c ****     left_enc.last_count = 0;
 247              		.loc 1 125 0
 248 0008 D960     		str	r1, [r3, #12]
 126:..\source/encoder.c ****     left_enc.delta_count = 0;
 249              		.loc 1 126 0
 250 000a 1961     		str	r1, [r3, #16]
 127:..\source/encoder.c ****     left_enc.avg_delta_count = 0;
 251              		.loc 1 127 0
 252 000c 0022     		movs	r2, #0
 253 000e 5A61     		str	r2, [r3, #20]	@ float
 128:..\source/encoder.c ****     left_enc.dist = 0.0;
 254              		.loc 1 128 0
 255 0010 1A62     		str	r2, [r3, #32]	@ float
 129:..\source/encoder.c ****     left_enc.delta_count_ma.last = 0;
 256              		.loc 1 129 0
 257 0012 9A62     		str	r2, [r3, #40]	@ float
 130:..\source/encoder.c ****     left_enc.delta_count_ma.n = 3;
 258              		.loc 1 130 0
 259 0014 0B4C     		ldr	r4, .L12+4
 260 0016 5C62     		str	r4, [r3, #36]	@ float
 131:..\source/encoder.c ****     left_enc.avg_cps_ma.last = 0;
ARM GAS  C:\Users\Tim\AppData\Local\Temp\ccuVT0vi.s 			page 8


 261              		.loc 1 131 0
 262 0018 1A63     		str	r2, [r3, #48]	@ float
 132:..\source/encoder.c ****     left_enc.avg_cps_ma.n = 10;
 263              		.loc 1 132 0
 264 001a 0B48     		ldr	r0, .L12+8
 265 001c D862     		str	r0, [r3, #44]	@ float
 133:..\source/encoder.c ****     left_enc.avg_cps = 0;
 266              		.loc 1 133 0
 267 001e 9A61     		str	r2, [r3, #24]	@ float
 134:..\source/encoder.c ****     left_enc.avg_mps = 0;
 268              		.loc 1 134 0
 269 0020 DA61     		str	r2, [r3, #28]	@ float
 135:..\source/encoder.c ****     
 136:..\source/encoder.c ****     right_enc.count = 0;
 270              		.loc 1 136 0
 271 0022 5964     		str	r1, [r3, #68]
 137:..\source/encoder.c ****     right_enc.last_count = 0;
 272              		.loc 1 137 0
 273 0024 9964     		str	r1, [r3, #72]
 138:..\source/encoder.c ****     right_enc.delta_count = 0;
 274              		.loc 1 138 0
 275 0026 D964     		str	r1, [r3, #76]
 139:..\source/encoder.c ****     right_enc.avg_delta_count = 0;
 276              		.loc 1 139 0
 277 0028 1A65     		str	r2, [r3, #80]	@ float
 140:..\source/encoder.c ****     right_enc.dist = 0.0;
 278              		.loc 1 140 0
 279 002a DA65     		str	r2, [r3, #92]	@ float
 141:..\source/encoder.c ****     right_enc.delta_count_ma.last = 0;
 280              		.loc 1 141 0
 281 002c 5A66     		str	r2, [r3, #100]	@ float
 142:..\source/encoder.c ****     right_enc.delta_count_ma.n = 3;
 282              		.loc 1 142 0
 283 002e 1C66     		str	r4, [r3, #96]	@ float
 143:..\source/encoder.c ****     right_enc.avg_cps_ma.last = 0;
 284              		.loc 1 143 0
 285 0030 DA66     		str	r2, [r3, #108]	@ float
 144:..\source/encoder.c ****     right_enc.avg_cps_ma.n = 10;
 286              		.loc 1 144 0
 287 0032 9866     		str	r0, [r3, #104]	@ float
 145:..\source/encoder.c ****     right_enc.avg_cps = 0;
 288              		.loc 1 145 0
 289 0034 5A65     		str	r2, [r3, #84]	@ float
 146:..\source/encoder.c ****     right_enc.avg_mps = 0;
 290              		.loc 1 146 0
 291 0036 9A65     		str	r2, [r3, #88]	@ float
 147:..\source/encoder.c ****     
 148:..\source/encoder.c **** }
 292              		.loc 1 148 0
 293 0038 5DF8044B 		ldr	r4, [sp], #4
 294              		.cfi_restore 4
 295              		.cfi_def_cfa_offset 0
 296 003c 7047     		bx	lr
 297              	.L13:
 298 003e 00BF     		.align	2
 299              	.L12:
 300 0040 00000000 		.word	.LANCHOR0
ARM GAS  C:\Users\Tim\AppData\Local\Temp\ccuVT0vi.s 			page 9


 301 0044 00004040 		.word	1077936128
 302 0048 00002041 		.word	1092616192
 303              		.cfi_endproc
 304              	.LFE65:
 305              		.size	Encoder_Init, .-Encoder_Init
 306              		.section	.text.Encoder_Start,"ax",%progbits
 307              		.align	2
 308              		.global	Encoder_Start
 309              		.thumb
 310              		.thumb_func
 311              		.type	Encoder_Start, %function
 312              	Encoder_Start:
 313              	.LFB66:
 149:..\source/encoder.c **** 
 150:..\source/encoder.c **** void Encoder_Start()
 151:..\source/encoder.c **** {
 314              		.loc 1 151 0
 315              		.cfi_startproc
 316              		@ args = 0, pretend = 0, frame = 0
 317              		@ frame_needed = 0, uses_anonymous_args = 0
 318 0000 10B5     		push	{r4, lr}
 319              		.cfi_def_cfa_offset 8
 320              		.cfi_offset 4, -8
 321              		.cfi_offset 14, -4
 152:..\source/encoder.c ****     Left_QuadDec_Start();
 322              		.loc 1 152 0
 323 0002 FFF7FEFF 		bl	Left_QuadDec_Start
 324              	.LVL30:
 153:..\source/encoder.c ****     Right_QuadDec_Start();
 325              		.loc 1 153 0
 326 0006 FFF7FEFF 		bl	Right_QuadDec_Start
 327              	.LVL31:
 154:..\source/encoder.c ****     left_enc.write_counter(0);
 328              		.loc 1 154 0
 329 000a 044C     		ldr	r4, .L16
 330 000c A36B     		ldr	r3, [r4, #56]
 331 000e 0020     		movs	r0, #0
 332 0010 9847     		blx	r3
 333              	.LVL32:
 155:..\source/encoder.c ****     right_enc.write_counter(0);
 334              		.loc 1 155 0
 335 0012 636F     		ldr	r3, [r4, #116]
 336 0014 0020     		movs	r0, #0
 337 0016 9847     		blx	r3
 338              	.LVL33:
 339 0018 10BD     		pop	{r4, pc}
 340              	.L17:
 341 001a 00BF     		.align	2
 342              	.L16:
 343 001c 00000000 		.word	.LANCHOR0
 344              		.cfi_endproc
 345              	.LFE66:
 346              		.size	Encoder_Start, .-Encoder_Start
 347              		.global	__aeabi_ui2d
 348              		.global	__aeabi_dcmpge
 349              		.section	.text.Encoder_Update,"ax",%progbits
 350              		.align	2
ARM GAS  C:\Users\Tim\AppData\Local\Temp\ccuVT0vi.s 			page 10


 351              		.global	Encoder_Update
 352              		.thumb
 353              		.thumb_func
 354              		.type	Encoder_Update, %function
 355              	Encoder_Update:
 356              	.LFB67:
 156:..\source/encoder.c **** }
 157:..\source/encoder.c **** 
 158:..\source/encoder.c **** void Encoder_Update()
 159:..\source/encoder.c **** {
 357              		.loc 1 159 0
 358              		.cfi_startproc
 359              		@ args = 0, pretend = 0, frame = 0
 360              		@ frame_needed = 0, uses_anonymous_args = 0
 361 0000 38B5     		push	{r3, r4, r5, lr}
 362              		.cfi_def_cfa_offset 16
 363              		.cfi_offset 3, -16
 364              		.cfi_offset 4, -12
 365              		.cfi_offset 5, -8
 366              		.cfi_offset 14, -4
 160:..\source/encoder.c ****     static uint32 last_update_time = 0;
 161:..\source/encoder.c ****     static uint32 delta_time;
 162:..\source/encoder.c ****     static uint8 enc_sched_offset_applied = 0;
 163:..\source/encoder.c ****     
 164:..\source/encoder.c ****     delta_time = millis() - last_update_time;
 367              		.loc 1 164 0
 368 0002 FFF7FEFF 		bl	millis
 369              	.LVL34:
 370 0006 1A4A     		ldr	r2, .L25
 371 0008 1368     		ldr	r3, [r2]
 372 000a C01A     		subs	r0, r0, r3
 373 000c 5060     		str	r0, [r2, #4]
 165:..\source/encoder.c ****     ENC_DEBUG_DELTA(delta_time);
 166:..\source/encoder.c ****     if (delta_time >= ENC_SAMPLE_TIME_MS)
 374              		.loc 1 166 0
 375 000e FFF7FEFF 		bl	__aeabi_ui2d
 376              	.LVL35:
 377 0012 0022     		movs	r2, #0
 378 0014 174B     		ldr	r3, .L25+4
 379 0016 FFF7FEFF 		bl	__aeabi_dcmpge
 380              	.LVL36:
 381 001a 38B3     		cbz	r0, .L18
 167:..\source/encoder.c ****     {
 168:..\source/encoder.c ****         last_update_time = millis();
 382              		.loc 1 168 0
 383 001c FFF7FEFF 		bl	millis
 384              	.LVL37:
 385 0020 134B     		ldr	r3, .L25
 386 0022 1860     		str	r0, [r3]
 169:..\source/encoder.c ****         
 170:..\source/encoder.c ****         APPLY_SCHED_OFFSET(ENC_SCHED_OFFSET, enc_sched_offset_applied);
 387              		.loc 1 170 0
 388 0024 1B7A     		ldrb	r3, [r3, #8]	@ zero_extendqisi2
 389 0026 2BB9     		cbnz	r3, .L21
 390              		.loc 1 170 0 is_stmt 0 discriminator 1
 391 0028 0122     		movs	r2, #1
 392 002a 114B     		ldr	r3, .L25
ARM GAS  C:\Users\Tim\AppData\Local\Temp\ccuVT0vi.s 			page 11


 393 002c 1A72     		strb	r2, [r3, #8]
 394 002e 0720     		movs	r0, #7
 395 0030 FFF7FEFF 		bl	CyDelay
 396              	.LVL38:
 397              	.L21:
 171:..\source/encoder.c ****         
 172:..\source/encoder.c ****         Encoder_Sample(&left_enc, delta_time);
 398              		.loc 1 172 0 is_stmt 1
 399 0034 104D     		ldr	r5, .L25+8
 400 0036 0E4C     		ldr	r4, .L25
 401 0038 2846     		mov	r0, r5
 402 003a 6168     		ldr	r1, [r4, #4]
 403 003c FFF7FEFF 		bl	Encoder_Sample
 404              	.LVL39:
 173:..\source/encoder.c ****         Encoder_Sample(&right_enc, delta_time);
 405              		.loc 1 173 0
 406 0040 05F13C00 		add	r0, r5, #60
 407 0044 6168     		ldr	r1, [r4, #4]
 408 0046 FFF7FEFF 		bl	Encoder_Sample
 409              	.LVL40:
 174:..\source/encoder.c ****         LEFT_DUMP_ENC(&left_enc);
 410              		.loc 1 174 0
 411 004a 0C4B     		ldr	r3, .L25+12
 412 004c 1B88     		ldrh	r3, [r3]
 413 004e 13F0010F 		tst	r3, #1
 414 0052 02D0     		beq	.L22
 415              		.loc 1 174 0 is_stmt 0 discriminator 1
 416 0054 2846     		mov	r0, r5
 417 0056 FFF7FEFF 		bl	DumpEncoder
 418              	.LVL41:
 419              	.L22:
 175:..\source/encoder.c ****         RIGHT_DUMP_ENC(&right_enc);
 420              		.loc 1 175 0 is_stmt 1
 421 005a 084B     		ldr	r3, .L25+12
 422 005c 1B88     		ldrh	r3, [r3]
 423 005e 03F00203 		and	r3, r3, #2
 424 0062 9BB2     		uxth	r3, r3
 425 0064 13B1     		cbz	r3, .L18
 426              		.loc 1 175 0 is_stmt 0 discriminator 1
 427 0066 0648     		ldr	r0, .L25+16
 428 0068 FFF7FEFF 		bl	DumpEncoder
 429              	.LVL42:
 430              	.L18:
 431 006c 38BD     		pop	{r3, r4, r5, pc}
 432              	.L26:
 433 006e 00BF     		.align	2
 434              	.L25:
 435 0070 00000000 		.word	.LANCHOR1
 436 0074 00004940 		.word	1078525952
 437 0078 00000000 		.word	.LANCHOR0
 438 007c 00000000 		.word	debug_control_enabled
 439 0080 3C000000 		.word	.LANCHOR0+60
 440              		.cfi_endproc
 441              	.LFE67:
 442              		.size	Encoder_Update, .-Encoder_Update
 443              		.section	.text.Encoder_LeftGetCntsPerSec,"ax",%progbits
 444              		.align	2
ARM GAS  C:\Users\Tim\AppData\Local\Temp\ccuVT0vi.s 			page 12


 445              		.global	Encoder_LeftGetCntsPerSec
 446              		.thumb
 447              		.thumb_func
 448              		.type	Encoder_LeftGetCntsPerSec, %function
 449              	Encoder_LeftGetCntsPerSec:
 450              	.LFB68:
 176:..\source/encoder.c ****     }                    
 177:..\source/encoder.c **** }
 178:..\source/encoder.c **** 
 179:..\source/encoder.c **** float Encoder_LeftGetCntsPerSec()
 180:..\source/encoder.c **** {
 451              		.loc 1 180 0 is_stmt 1
 452              		.cfi_startproc
 453              		@ args = 0, pretend = 0, frame = 0
 454              		@ frame_needed = 0, uses_anonymous_args = 0
 455              		@ link register save eliminated.
 181:..\source/encoder.c ****     return left_enc.avg_cps;
 182:..\source/encoder.c **** }
 456              		.loc 1 182 0
 457 0000 014B     		ldr	r3, .L28
 458 0002 9869     		ldr	r0, [r3, #24]	@ float
 459 0004 7047     		bx	lr
 460              	.L29:
 461 0006 00BF     		.align	2
 462              	.L28:
 463 0008 00000000 		.word	.LANCHOR0
 464              		.cfi_endproc
 465              	.LFE68:
 466              		.size	Encoder_LeftGetCntsPerSec, .-Encoder_LeftGetCntsPerSec
 467              		.section	.text.Encoder_RightGetCntsPerSec,"ax",%progbits
 468              		.align	2
 469              		.global	Encoder_RightGetCntsPerSec
 470              		.thumb
 471              		.thumb_func
 472              		.type	Encoder_RightGetCntsPerSec, %function
 473              	Encoder_RightGetCntsPerSec:
 474              	.LFB69:
 183:..\source/encoder.c **** 
 184:..\source/encoder.c **** float Encoder_RightGetCntsPerSec()
 185:..\source/encoder.c **** {
 475              		.loc 1 185 0
 476              		.cfi_startproc
 477              		@ args = 0, pretend = 0, frame = 0
 478              		@ frame_needed = 0, uses_anonymous_args = 0
 479              		@ link register save eliminated.
 186:..\source/encoder.c ****     return right_enc.avg_cps;
 187:..\source/encoder.c **** }
 480              		.loc 1 187 0
 481 0000 014B     		ldr	r3, .L31
 482 0002 586D     		ldr	r0, [r3, #84]	@ float
 483 0004 7047     		bx	lr
 484              	.L32:
 485 0006 00BF     		.align	2
 486              	.L31:
 487 0008 00000000 		.word	.LANCHOR0
 488              		.cfi_endproc
 489              	.LFE69:
ARM GAS  C:\Users\Tim\AppData\Local\Temp\ccuVT0vi.s 			page 13


 490              		.size	Encoder_RightGetCntsPerSec, .-Encoder_RightGetCntsPerSec
 491              		.global	__aeabi_fadd
 492              		.section	.text.Encoder_GetCntsPerSec,"ax",%progbits
 493              		.align	2
 494              		.global	Encoder_GetCntsPerSec
 495              		.thumb
 496              		.thumb_func
 497              		.type	Encoder_GetCntsPerSec, %function
 498              	Encoder_GetCntsPerSec:
 499              	.LFB70:
 188:..\source/encoder.c **** 
 189:..\source/encoder.c **** float Encoder_GetCntsPerSec()
 190:..\source/encoder.c **** {
 500              		.loc 1 190 0
 501              		.cfi_startproc
 502              		@ args = 0, pretend = 0, frame = 0
 503              		@ frame_needed = 0, uses_anonymous_args = 0
 504 0000 08B5     		push	{r3, lr}
 505              		.cfi_def_cfa_offset 8
 506              		.cfi_offset 3, -8
 507              		.cfi_offset 14, -4
 191:..\source/encoder.c ****     return (left_enc.avg_cps + right_enc.avg_cps) / 2;
 508              		.loc 1 191 0
 509 0002 054B     		ldr	r3, .L35
 510 0004 9869     		ldr	r0, [r3, #24]	@ float
 511 0006 596D     		ldr	r1, [r3, #84]	@ float
 512 0008 FFF7FEFF 		bl	__aeabi_fadd
 513              	.LVL43:
 514 000c 4FF07C51 		mov	r1, #1056964608
 515 0010 FFF7FEFF 		bl	__aeabi_fmul
 516              	.LVL44:
 192:..\source/encoder.c **** }
 517              		.loc 1 192 0
 518 0014 08BD     		pop	{r3, pc}
 519              	.L36:
 520 0016 00BF     		.align	2
 521              	.L35:
 522 0018 00000000 		.word	.LANCHOR0
 523              		.cfi_endproc
 524              	.LFE70:
 525              		.size	Encoder_GetCntsPerSec, .-Encoder_GetCntsPerSec
 526              		.section	.text.Encoder_LeftGetMeterPerSec,"ax",%progbits
 527              		.align	2
 528              		.global	Encoder_LeftGetMeterPerSec
 529              		.thumb
 530              		.thumb_func
 531              		.type	Encoder_LeftGetMeterPerSec, %function
 532              	Encoder_LeftGetMeterPerSec:
 533              	.LFB71:
 193:..\source/encoder.c **** 
 194:..\source/encoder.c **** float Encoder_LeftGetMeterPerSec()
 195:..\source/encoder.c **** {
 534              		.loc 1 195 0
 535              		.cfi_startproc
 536              		@ args = 0, pretend = 0, frame = 0
 537              		@ frame_needed = 0, uses_anonymous_args = 0
 538              		@ link register save eliminated.
ARM GAS  C:\Users\Tim\AppData\Local\Temp\ccuVT0vi.s 			page 14


 196:..\source/encoder.c ****     return left_enc.avg_mps;
 197:..\source/encoder.c **** }
 539              		.loc 1 197 0
 540 0000 014B     		ldr	r3, .L38
 541 0002 D869     		ldr	r0, [r3, #28]	@ float
 542 0004 7047     		bx	lr
 543              	.L39:
 544 0006 00BF     		.align	2
 545              	.L38:
 546 0008 00000000 		.word	.LANCHOR0
 547              		.cfi_endproc
 548              	.LFE71:
 549              		.size	Encoder_LeftGetMeterPerSec, .-Encoder_LeftGetMeterPerSec
 550              		.section	.text.Encoder_RightGetMeterPerSec,"ax",%progbits
 551              		.align	2
 552              		.global	Encoder_RightGetMeterPerSec
 553              		.thumb
 554              		.thumb_func
 555              		.type	Encoder_RightGetMeterPerSec, %function
 556              	Encoder_RightGetMeterPerSec:
 557              	.LFB72:
 198:..\source/encoder.c **** 
 199:..\source/encoder.c **** float Encoder_RightGetMeterPerSec()
 200:..\source/encoder.c **** {
 558              		.loc 1 200 0
 559              		.cfi_startproc
 560              		@ args = 0, pretend = 0, frame = 0
 561              		@ frame_needed = 0, uses_anonymous_args = 0
 562              		@ link register save eliminated.
 201:..\source/encoder.c ****     return right_enc.avg_mps;
 202:..\source/encoder.c **** }
 563              		.loc 1 202 0
 564 0000 014B     		ldr	r3, .L41
 565 0002 986D     		ldr	r0, [r3, #88]	@ float
 566 0004 7047     		bx	lr
 567              	.L42:
 568 0006 00BF     		.align	2
 569              	.L41:
 570 0008 00000000 		.word	.LANCHOR0
 571              		.cfi_endproc
 572              	.LFE72:
 573              		.size	Encoder_RightGetMeterPerSec, .-Encoder_RightGetMeterPerSec
 574              		.section	.text.Encoder_GetMeterPerSec,"ax",%progbits
 575              		.align	2
 576              		.global	Encoder_GetMeterPerSec
 577              		.thumb
 578              		.thumb_func
 579              		.type	Encoder_GetMeterPerSec, %function
 580              	Encoder_GetMeterPerSec:
 581              	.LFB73:
 203:..\source/encoder.c **** 
 204:..\source/encoder.c **** float Encoder_GetMeterPerSec()
 205:..\source/encoder.c **** {
 582              		.loc 1 205 0
 583              		.cfi_startproc
 584              		@ args = 0, pretend = 0, frame = 0
 585              		@ frame_needed = 0, uses_anonymous_args = 0
ARM GAS  C:\Users\Tim\AppData\Local\Temp\ccuVT0vi.s 			page 15


 586 0000 08B5     		push	{r3, lr}
 587              		.cfi_def_cfa_offset 8
 588              		.cfi_offset 3, -8
 589              		.cfi_offset 14, -4
 206:..\source/encoder.c ****     return (left_enc.avg_mps + right_enc.avg_mps) / 2;
 590              		.loc 1 206 0
 591 0002 054B     		ldr	r3, .L45
 592 0004 D869     		ldr	r0, [r3, #28]	@ float
 593 0006 996D     		ldr	r1, [r3, #88]	@ float
 594 0008 FFF7FEFF 		bl	__aeabi_fadd
 595              	.LVL45:
 596 000c 4FF07C51 		mov	r1, #1056964608
 597 0010 FFF7FEFF 		bl	__aeabi_fmul
 598              	.LVL46:
 207:..\source/encoder.c **** }
 599              		.loc 1 207 0
 600 0014 08BD     		pop	{r3, pc}
 601              	.L46:
 602 0016 00BF     		.align	2
 603              	.L45:
 604 0018 00000000 		.word	.LANCHOR0
 605              		.cfi_endproc
 606              	.LFE73:
 607              		.size	Encoder_GetMeterPerSec, .-Encoder_GetMeterPerSec
 608              		.section	.text.Encoder_LeftGetCount,"ax",%progbits
 609              		.align	2
 610              		.global	Encoder_LeftGetCount
 611              		.thumb
 612              		.thumb_func
 613              		.type	Encoder_LeftGetCount, %function
 614              	Encoder_LeftGetCount:
 615              	.LFB74:
 208:..\source/encoder.c **** 
 209:..\source/encoder.c **** int32 Encoder_LeftGetCount()
 210:..\source/encoder.c **** {
 616              		.loc 1 210 0
 617              		.cfi_startproc
 618              		@ args = 0, pretend = 0, frame = 0
 619              		@ frame_needed = 0, uses_anonymous_args = 0
 620 0000 08B5     		push	{r3, lr}
 621              		.cfi_def_cfa_offset 8
 622              		.cfi_offset 3, -8
 623              		.cfi_offset 14, -4
 211:..\source/encoder.c ****     return left_enc.read_counter();
 624              		.loc 1 211 0
 625 0002 024B     		ldr	r3, .L49
 626 0004 5B6B     		ldr	r3, [r3, #52]
 627 0006 9847     		blx	r3
 628              	.LVL47:
 212:..\source/encoder.c **** }
 629              		.loc 1 212 0
 630 0008 08BD     		pop	{r3, pc}
 631              	.L50:
 632 000a 00BF     		.align	2
 633              	.L49:
 634 000c 00000000 		.word	.LANCHOR0
 635              		.cfi_endproc
ARM GAS  C:\Users\Tim\AppData\Local\Temp\ccuVT0vi.s 			page 16


 636              	.LFE74:
 637              		.size	Encoder_LeftGetCount, .-Encoder_LeftGetCount
 638              		.section	.text.Encoder_RightGetCount,"ax",%progbits
 639              		.align	2
 640              		.global	Encoder_RightGetCount
 641              		.thumb
 642              		.thumb_func
 643              		.type	Encoder_RightGetCount, %function
 644              	Encoder_RightGetCount:
 645              	.LFB75:
 213:..\source/encoder.c **** 
 214:..\source/encoder.c **** int32 Encoder_RightGetCount()
 215:..\source/encoder.c **** {
 646              		.loc 1 215 0
 647              		.cfi_startproc
 648              		@ args = 0, pretend = 0, frame = 0
 649              		@ frame_needed = 0, uses_anonymous_args = 0
 650 0000 08B5     		push	{r3, lr}
 651              		.cfi_def_cfa_offset 8
 652              		.cfi_offset 3, -8
 653              		.cfi_offset 14, -4
 216:..\source/encoder.c ****     return right_enc.read_counter();
 654              		.loc 1 216 0
 655 0002 024B     		ldr	r3, .L53
 656 0004 1B6F     		ldr	r3, [r3, #112]
 657 0006 9847     		blx	r3
 658              	.LVL48:
 217:..\source/encoder.c **** }
 659              		.loc 1 217 0
 660 0008 08BD     		pop	{r3, pc}
 661              	.L54:
 662 000a 00BF     		.align	2
 663              	.L53:
 664 000c 00000000 		.word	.LANCHOR0
 665              		.cfi_endproc
 666              	.LFE75:
 667              		.size	Encoder_RightGetCount, .-Encoder_RightGetCount
 668              		.section	.text.Encoder_LeftGetDeltaCount,"ax",%progbits
 669              		.align	2
 670              		.global	Encoder_LeftGetDeltaCount
 671              		.thumb
 672              		.thumb_func
 673              		.type	Encoder_LeftGetDeltaCount, %function
 674              	Encoder_LeftGetDeltaCount:
 675              	.LFB76:
 218:..\source/encoder.c **** 
 219:..\source/encoder.c **** float Encoder_LeftGetDeltaCount()
 220:..\source/encoder.c **** {
 676              		.loc 1 220 0
 677              		.cfi_startproc
 678              		@ args = 0, pretend = 0, frame = 0
 679              		@ frame_needed = 0, uses_anonymous_args = 0
 680              		@ link register save eliminated.
 221:..\source/encoder.c ****     return left_enc.avg_delta_count;
 222:..\source/encoder.c **** }
 681              		.loc 1 222 0
 682 0000 014B     		ldr	r3, .L56
ARM GAS  C:\Users\Tim\AppData\Local\Temp\ccuVT0vi.s 			page 17


 683 0002 5869     		ldr	r0, [r3, #20]	@ float
 684 0004 7047     		bx	lr
 685              	.L57:
 686 0006 00BF     		.align	2
 687              	.L56:
 688 0008 00000000 		.word	.LANCHOR0
 689              		.cfi_endproc
 690              	.LFE76:
 691              		.size	Encoder_LeftGetDeltaCount, .-Encoder_LeftGetDeltaCount
 692              		.section	.text.Encoder_RightGetDeltaCount,"ax",%progbits
 693              		.align	2
 694              		.global	Encoder_RightGetDeltaCount
 695              		.thumb
 696              		.thumb_func
 697              		.type	Encoder_RightGetDeltaCount, %function
 698              	Encoder_RightGetDeltaCount:
 699              	.LFB77:
 223:..\source/encoder.c **** 
 224:..\source/encoder.c **** float Encoder_RightGetDeltaCount()
 225:..\source/encoder.c **** {
 700              		.loc 1 225 0
 701              		.cfi_startproc
 702              		@ args = 0, pretend = 0, frame = 0
 703              		@ frame_needed = 0, uses_anonymous_args = 0
 704              		@ link register save eliminated.
 226:..\source/encoder.c ****     return right_enc.avg_delta_count;
 227:..\source/encoder.c **** }
 705              		.loc 1 227 0
 706 0000 014B     		ldr	r3, .L59
 707 0002 186D     		ldr	r0, [r3, #80]	@ float
 708 0004 7047     		bx	lr
 709              	.L60:
 710 0006 00BF     		.align	2
 711              	.L59:
 712 0008 00000000 		.word	.LANCHOR0
 713              		.cfi_endproc
 714              	.LFE77:
 715              		.size	Encoder_RightGetDeltaCount, .-Encoder_RightGetDeltaCount
 716              		.section	.text.Encoder_LeftGetDist,"ax",%progbits
 717              		.align	2
 718              		.global	Encoder_LeftGetDist
 719              		.thumb
 720              		.thumb_func
 721              		.type	Encoder_LeftGetDist, %function
 722              	Encoder_LeftGetDist:
 723              	.LFB78:
 228:..\source/encoder.c **** 
 229:..\source/encoder.c **** float Encoder_LeftGetDist()
 230:..\source/encoder.c **** {
 724              		.loc 1 230 0
 725              		.cfi_startproc
 726              		@ args = 0, pretend = 0, frame = 0
 727              		@ frame_needed = 0, uses_anonymous_args = 0
 728              		@ link register save eliminated.
 231:..\source/encoder.c ****     return left_enc.dist;
 232:..\source/encoder.c **** }
 729              		.loc 1 232 0
ARM GAS  C:\Users\Tim\AppData\Local\Temp\ccuVT0vi.s 			page 18


 730 0000 014B     		ldr	r3, .L62
 731 0002 186A     		ldr	r0, [r3, #32]	@ float
 732 0004 7047     		bx	lr
 733              	.L63:
 734 0006 00BF     		.align	2
 735              	.L62:
 736 0008 00000000 		.word	.LANCHOR0
 737              		.cfi_endproc
 738              	.LFE78:
 739              		.size	Encoder_LeftGetDist, .-Encoder_LeftGetDist
 740              		.section	.text.Encoder_RightGetDist,"ax",%progbits
 741              		.align	2
 742              		.global	Encoder_RightGetDist
 743              		.thumb
 744              		.thumb_func
 745              		.type	Encoder_RightGetDist, %function
 746              	Encoder_RightGetDist:
 747              	.LFB79:
 233:..\source/encoder.c **** 
 234:..\source/encoder.c **** float Encoder_RightGetDist()
 235:..\source/encoder.c **** {
 748              		.loc 1 235 0
 749              		.cfi_startproc
 750              		@ args = 0, pretend = 0, frame = 0
 751              		@ frame_needed = 0, uses_anonymous_args = 0
 752              		@ link register save eliminated.
 236:..\source/encoder.c ****     return right_enc.dist;
 237:..\source/encoder.c **** }
 753              		.loc 1 237 0
 754 0000 014B     		ldr	r3, .L65
 755 0002 D86D     		ldr	r0, [r3, #92]	@ float
 756 0004 7047     		bx	lr
 757              	.L66:
 758 0006 00BF     		.align	2
 759              	.L65:
 760 0008 00000000 		.word	.LANCHOR0
 761              		.cfi_endproc
 762              	.LFE79:
 763              		.size	Encoder_RightGetDist, .-Encoder_RightGetDist
 764              		.section	.text.Encoder_GetDist,"ax",%progbits
 765              		.align	2
 766              		.global	Encoder_GetDist
 767              		.thumb
 768              		.thumb_func
 769              		.type	Encoder_GetDist, %function
 770              	Encoder_GetDist:
 771              	.LFB80:
 238:..\source/encoder.c **** 
 239:..\source/encoder.c **** float Encoder_GetDist()
 240:..\source/encoder.c **** {
 772              		.loc 1 240 0
 773              		.cfi_startproc
 774              		@ args = 0, pretend = 0, frame = 0
 775              		@ frame_needed = 0, uses_anonymous_args = 0
 776 0000 08B5     		push	{r3, lr}
 777              		.cfi_def_cfa_offset 8
 778              		.cfi_offset 3, -8
ARM GAS  C:\Users\Tim\AppData\Local\Temp\ccuVT0vi.s 			page 19


 779              		.cfi_offset 14, -4
 241:..\source/encoder.c ****     return (left_enc.dist + right_enc.dist) / 2;
 780              		.loc 1 241 0
 781 0002 054B     		ldr	r3, .L69
 782 0004 186A     		ldr	r0, [r3, #32]	@ float
 783 0006 D96D     		ldr	r1, [r3, #92]	@ float
 784 0008 FFF7FEFF 		bl	__aeabi_fadd
 785              	.LVL49:
 786 000c 4FF07C51 		mov	r1, #1056964608
 787 0010 FFF7FEFF 		bl	__aeabi_fmul
 788              	.LVL50:
 242:..\source/encoder.c **** }
 789              		.loc 1 242 0
 790 0014 08BD     		pop	{r3, pc}
 791              	.L70:
 792 0016 00BF     		.align	2
 793              	.L69:
 794 0018 00000000 		.word	.LANCHOR0
 795              		.cfi_endproc
 796              	.LFE80:
 797              		.size	Encoder_GetDist, .-Encoder_GetDist
 798              		.section	.text.Encoder_Reset,"ax",%progbits
 799              		.align	2
 800              		.global	Encoder_Reset
 801              		.thumb
 802              		.thumb_func
 803              		.type	Encoder_Reset, %function
 804              	Encoder_Reset:
 805              	.LFB81:
 243:..\source/encoder.c **** 
 244:..\source/encoder.c **** void Encoder_Reset()
 245:..\source/encoder.c **** {
 806              		.loc 1 245 0
 807              		.cfi_startproc
 808              		@ args = 0, pretend = 0, frame = 0
 809              		@ frame_needed = 0, uses_anonymous_args = 0
 810 0000 70B5     		push	{r4, r5, r6, lr}
 811              		.cfi_def_cfa_offset 16
 812              		.cfi_offset 4, -16
 813              		.cfi_offset 5, -12
 814              		.cfi_offset 6, -8
 815              		.cfi_offset 14, -4
 246:..\source/encoder.c ****     left_enc.write_counter(0);
 816              		.loc 1 246 0
 817 0002 154C     		ldr	r4, .L75
 818 0004 A36B     		ldr	r3, [r4, #56]
 819 0006 0020     		movs	r0, #0
 820 0008 9847     		blx	r3
 821              	.LVL51:
 247:..\source/encoder.c ****     left_enc.last_count = 0;
 822              		.loc 1 247 0
 823 000a 0026     		movs	r6, #0
 824 000c E660     		str	r6, [r4, #12]
 248:..\source/encoder.c ****     left_enc.delta_count = 0;
 825              		.loc 1 248 0
 826 000e 2661     		str	r6, [r4, #16]
 249:..\source/encoder.c ****     left_enc.avg_delta_count = 0;
ARM GAS  C:\Users\Tim\AppData\Local\Temp\ccuVT0vi.s 			page 20


 827              		.loc 1 249 0
 828 0010 0025     		movs	r5, #0
 829 0012 6561     		str	r5, [r4, #20]	@ float
 250:..\source/encoder.c ****     left_enc.delta_count_ma.last = 0;
 830              		.loc 1 250 0
 831 0014 A562     		str	r5, [r4, #40]	@ float
 251:..\source/encoder.c ****     left_enc.avg_cps = 0;
 832              		.loc 1 251 0
 833 0016 A561     		str	r5, [r4, #24]	@ float
 252:..\source/encoder.c ****     left_enc.avg_mps = 0;
 834              		.loc 1 252 0
 835 0018 E561     		str	r5, [r4, #28]	@ float
 253:..\source/encoder.c ****     left_enc.avg_cps_ma.last = 0;
 836              		.loc 1 253 0
 837 001a 2563     		str	r5, [r4, #48]	@ float
 254:..\source/encoder.c ****     left_enc.count = 0;
 838              		.loc 1 254 0
 839 001c A660     		str	r6, [r4, #8]
 255:..\source/encoder.c ****     
 256:..\source/encoder.c ****     right_enc.write_counter(0);
 840              		.loc 1 256 0
 841 001e 636F     		ldr	r3, [r4, #116]
 842 0020 3046     		mov	r0, r6
 843 0022 9847     		blx	r3
 844              	.LVL52:
 257:..\source/encoder.c ****     right_enc.last_count = 0;
 845              		.loc 1 257 0
 846 0024 A664     		str	r6, [r4, #72]
 258:..\source/encoder.c ****     right_enc.delta_count = 0;
 847              		.loc 1 258 0
 848 0026 E664     		str	r6, [r4, #76]
 259:..\source/encoder.c ****     right_enc.avg_delta_count = 0;
 849              		.loc 1 259 0
 850 0028 2565     		str	r5, [r4, #80]	@ float
 260:..\source/encoder.c ****     right_enc.delta_count_ma.last = 0;
 851              		.loc 1 260 0
 852 002a 6566     		str	r5, [r4, #100]	@ float
 261:..\source/encoder.c ****     right_enc.avg_cps = 0;
 853              		.loc 1 261 0
 854 002c 6565     		str	r5, [r4, #84]	@ float
 262:..\source/encoder.c ****     right_enc.avg_mps = 0;
 855              		.loc 1 262 0
 856 002e A565     		str	r5, [r4, #88]	@ float
 263:..\source/encoder.c ****     right_enc.avg_cps_ma.last = 0;
 857              		.loc 1 263 0
 858 0030 E566     		str	r5, [r4, #108]	@ float
 264:..\source/encoder.c ****     right_enc.count = 0;
 859              		.loc 1 264 0
 860 0032 6664     		str	r6, [r4, #68]
 265:..\source/encoder.c ****     
 266:..\source/encoder.c ****     LEFT_DUMP_ENC(&left_enc);
 861              		.loc 1 266 0
 862 0034 094B     		ldr	r3, .L75+4
 863 0036 1B88     		ldrh	r3, [r3]
 864 0038 13F0010F 		tst	r3, #1
 865 003c 02D0     		beq	.L72
 866              		.loc 1 266 0 is_stmt 0 discriminator 1
ARM GAS  C:\Users\Tim\AppData\Local\Temp\ccuVT0vi.s 			page 21


 867 003e 2046     		mov	r0, r4
 868 0040 FFF7FEFF 		bl	DumpEncoder
 869              	.LVL53:
 870              	.L72:
 267:..\source/encoder.c ****     RIGHT_DUMP_ENC(&right_enc);    
 871              		.loc 1 267 0 is_stmt 1
 872 0044 054B     		ldr	r3, .L75+4
 873 0046 1B88     		ldrh	r3, [r3]
 874 0048 03F00203 		and	r3, r3, #2
 875 004c 9BB2     		uxth	r3, r3
 876 004e 13B1     		cbz	r3, .L71
 877              		.loc 1 267 0 is_stmt 0 discriminator 1
 878 0050 0348     		ldr	r0, .L75+8
 879 0052 FFF7FEFF 		bl	DumpEncoder
 880              	.LVL54:
 881              	.L71:
 882 0056 70BD     		pop	{r4, r5, r6, pc}
 883              	.L76:
 884              		.align	2
 885              	.L75:
 886 0058 00000000 		.word	.LANCHOR0
 887 005c 00000000 		.word	debug_control_enabled
 888 0060 3C000000 		.word	.LANCHOR0+60
 889              		.cfi_endproc
 890              	.LFE81:
 891              		.size	Encoder_Reset, .-Encoder_Reset
 892              		.comm	formatted_string,256,4
 893              		.comm	debug_control_enabled,2,2
 894              		.data
 895              		.align	2
 896              		.set	.LANCHOR0,. + 0
 897              		.type	left_enc, %object
 898              		.size	left_enc, 60
 899              	left_enc:
 900 0000 6C656674 		.ascii	"left\000"
 900      00
 901 0005 00       		.space	1
 902 0006 0000     		.space	2
 903 0008 00000000 		.word	0
 904 000c 00000000 		.word	0
 905 0010 00000000 		.word	0
 906 0014 00000000 		.word	0
 907 0018 00000000 		.word	0
 908 001c 00000000 		.word	0
 909 0020 00000000 		.word	0
 910 0024 00000000 		.word	0
 911 0028 00000000 		.word	0
 912 002c 00000000 		.word	0
 913 0030 00000000 		.word	0
 914 0034 00000000 		.word	Left_QuadDec_GetCounter
 915 0038 00000000 		.word	Left_QuadDec_SetCounter
 916              		.type	right_enc, %object
 917              		.size	right_enc, 60
 918              	right_enc:
 919 003c 72696768 		.ascii	"right\000"
 919      7400
 920 0042 0000     		.space	2
ARM GAS  C:\Users\Tim\AppData\Local\Temp\ccuVT0vi.s 			page 22


 921 0044 00000000 		.word	0
 922 0048 00000000 		.word	0
 923 004c 00000000 		.word	0
 924 0050 00000000 		.word	0
 925 0054 00000000 		.word	0
 926 0058 00000000 		.word	0
 927 005c 00000000 		.word	0
 928 0060 00000000 		.word	0
 929 0064 00000000 		.word	0
 930 0068 00000000 		.word	0
 931 006c 00000000 		.word	0
 932 0070 00000000 		.word	Right_QuadDec_GetCounter
 933 0074 00000000 		.word	Right_QuadDec_SetCounter
 934              		.section	.rodata.str1.4,"aMS",%progbits,1
 935              		.align	2
 936              	.LC0:
 937 0000 25732065 		.ascii	"%s enc: %s %s %s %ld %s\015\012\000"
 937      6E633A20 
 937      25732025 
 937      73202573 
 937      20256C64 
 938 001a 0000     		.bss
 939              		.align	2
 940              		.set	.LANCHOR1,. + 0
 941              		.type	last_update_time.7825, %object
 942              		.size	last_update_time.7825, 4
 943              	last_update_time.7825:
 944 0000 00000000 		.space	4
 945              		.type	delta_time.7826, %object
 946              		.size	delta_time.7826, 4
 947              	delta_time.7826:
 948 0004 00000000 		.space	4
 949              		.type	enc_sched_offset_applied.7827, %object
 950              		.size	enc_sched_offset_applied.7827, 1
 951              	enc_sched_offset_applied.7827:
 952 0008 00       		.space	1
 953 0009 000000   		.text
 954              	.Letext0:
 955              		.file 2 "c:\\program files (x86)\\cypress\\psoc creator\\3.3\\psoc creator\\import\\gnu\\arm\\4.9.
 956              		.file 3 "c:\\program files (x86)\\cypress\\psoc creator\\3.3\\psoc creator\\import\\gnu\\arm\\4.9.
 957              		.file 4 "c:\\program files (x86)\\cypress\\psoc creator\\3.3\\psoc creator\\import\\gnu\\arm\\4.9.
 958              		.file 5 "Generated_Source\\PSoC5/cytypes.h"
 959              		.file 6 "..\\source\\utils.h"
 960              		.file 7 "Generated_Source\\PSoC5/core_cm3.h"
 961              		.file 8 "..\\source\\debug.h"
 962              		.file 9 "c:\\program files (x86)\\cypress\\psoc creator\\3.3\\psoc creator\\import\\gnu\\arm\\4.9.
 963              		.file 10 "..\\source\\serial.h"
 964              		.file 11 "Generated_Source\\PSoC5/Left_QuadDec.h"
 965              		.file 12 "Generated_Source\\PSoC5/Right_QuadDec.h"
 966              		.file 13 "..\\source\\time.h"
 967              		.file 14 "Generated_Source\\PSoC5/CyLib.h"