ARM GAS  C:\Users\Tim\AppData\Local\Temp\ccsA5uAx.s 			page 1


   1              		.syntax unified
   2              		.cpu cortex-m3
   3              		.fpu softvfp
   4              		.eabi_attribute 20, 1
   5              		.eabi_attribute 21, 1
   6              		.eabi_attribute 23, 3
   7              		.eabi_attribute 24, 1
   8              		.eabi_attribute 25, 1
   9              		.eabi_attribute 26, 1
  10              		.eabi_attribute 30, 1
  11              		.eabi_attribute 34, 1
  12              		.eabi_attribute 18, 4
  13              		.thumb
  14              		.file	"fisPWM.c"
  15              		.text
  16              	.Ltext0:
  17              		.cfi_sections	.debug_frame
  18              		.global	__aeabi_fcmple
  19              		.global	__aeabi_fcmplt
  20              		.global	__aeabi_fcmpeq
  21              		.global	__aeabi_fsub
  22              		.global	__aeabi_fdiv
  23              		.section	.text.fis_trapmf,"ax",%progbits
  24              		.align	2
  25              		.global	fis_trapmf
  26              		.thumb
  27              		.thumb_func
  28              		.type	fis_trapmf, %function
  29              	fis_trapmf:
  30              	.LFB63:
  31              		.file 1 "..\\source\\fisPWM.c"
   1:..\source/fisPWM.c **** //***********************************************************************
   2:..\source/fisPWM.c **** // Matlab .fis to arduino C converter v2.0.0.29032014                              
   3:..\source/fisPWM.c **** // - Karthik Nadig, USA                                                  
   4:..\source/fisPWM.c **** // Please report bugs to: karthiknadig@gmail.com                         
   5:..\source/fisPWM.c **** //***********************************************************************
   6:..\source/fisPWM.c **** 
   7:..\source/fisPWM.c **** #include "fis_header.h"
   8:..\source/fisPWM.c **** #include "utils.h"
   9:..\source/fisPWM.c **** 
  10:..\source/fisPWM.c **** // Number of inputs to the fuzzy inference system
  11:..\source/fisPWM.c **** const int fis_gcI = 2;
  12:..\source/fisPWM.c **** // Number of outputs to the fuzzy inference system
  13:..\source/fisPWM.c **** const int fis_gcO = 1;
  14:..\source/fisPWM.c **** // Number of rules to the fuzzy inference system
  15:..\source/fisPWM.c **** const int fis_gcR = 49;
  16:..\source/fisPWM.c **** 
  17:..\source/fisPWM.c **** //FIS_TYPE g_fisInput[fis_gcI];
  18:..\source/fisPWM.c **** float g_fisInput[2];
  19:..\source/fisPWM.c **** //FIS_TYPE g_fisOutput[fis_gcO];
  20:..\source/fisPWM.c **** float g_fisOutput[1];
  21:..\source/fisPWM.c **** 
  22:..\source/fisPWM.c **** 
  23:..\source/fisPWM.c **** //***********************************************************************
  24:..\source/fisPWM.c **** // Support functions for Fuzzy Inference System                          
  25:..\source/fisPWM.c **** //***********************************************************************
  26:..\source/fisPWM.c **** // Trapezoidal Member Function
ARM GAS  C:\Users\Tim\AppData\Local\Temp\ccsA5uAx.s 			page 2


  27:..\source/fisPWM.c **** FIS_TYPE fis_trapmf(FIS_TYPE x, FIS_TYPE* p)
  28:..\source/fisPWM.c **** {
  32              		.loc 1 28 0
  33              		.cfi_startproc
  34              		@ args = 0, pretend = 0, frame = 0
  35              		@ frame_needed = 0, uses_anonymous_args = 0
  36              	.LVL0:
  37 0000 2DE9F843 		push	{r3, r4, r5, r6, r7, r8, r9, lr}
  38              		.cfi_def_cfa_offset 32
  39              		.cfi_offset 3, -32
  40              		.cfi_offset 4, -28
  41              		.cfi_offset 5, -24
  42              		.cfi_offset 6, -20
  43              		.cfi_offset 7, -16
  44              		.cfi_offset 8, -12
  45              		.cfi_offset 9, -8
  46              		.cfi_offset 14, -4
  47 0004 0546     		mov	r5, r0
  29:..\source/fisPWM.c ****     FIS_TYPE a = p[0], b = p[1], c = p[2], d = p[3];
  48              		.loc 1 29 0
  49 0006 0F68     		ldr	r7, [r1]	@ float
  50              	.LVL1:
  51 0008 4C68     		ldr	r4, [r1, #4]	@ float
  52              	.LVL2:
  53 000a 8E68     		ldr	r6, [r1, #8]	@ float
  54              	.LVL3:
  55 000c D1F80C80 		ldr	r8, [r1, #12]	@ float
  56              	.LVL4:
  30:..\source/fisPWM.c ****     FIS_TYPE t1 = ((x <= c) ? 1 : ((d < x) ? 0 : ((c != d) ? ((d - x) / (d - c)) : 0)));
  57              		.loc 1 30 0
  58 0010 3146     		mov	r1, r6
  59              	.LVL5:
  60 0012 FFF7FEFF 		bl	__aeabi_fcmple
  61              	.LVL6:
  62 0016 E0B9     		cbnz	r0, .L12
  63              		.loc 1 30 0 is_stmt 0 discriminator 2
  64 0018 4046     		mov	r0, r8
  65 001a 2946     		mov	r1, r5
  66 001c FFF7FEFF 		bl	__aeabi_fcmplt
  67              	.LVL7:
  68 0020 A8B9     		cbnz	r0, .L13
  69              		.loc 1 30 0 discriminator 5
  70 0022 3046     		mov	r0, r6
  71 0024 4146     		mov	r1, r8
  72 0026 FFF7FEFF 		bl	__aeabi_fcmpeq
  73              	.LVL8:
  74 002a 68B9     		cbnz	r0, .L22
  75              		.loc 1 30 0 discriminator 7
  76 002c 4046     		mov	r0, r8
  77 002e 2946     		mov	r1, r5
  78 0030 FFF7FEFF 		bl	__aeabi_fsub
  79              	.LVL9:
  80 0034 8146     		mov	r9, r0
  81 0036 4046     		mov	r0, r8
  82 0038 3146     		mov	r1, r6
  83 003a FFF7FEFF 		bl	__aeabi_fsub
  84              	.LVL10:
ARM GAS  C:\Users\Tim\AppData\Local\Temp\ccsA5uAx.s 			page 3


  85 003e 0146     		mov	r1, r0
  86 0040 4846     		mov	r0, r9
  87 0042 FFF7FEFF 		bl	__aeabi_fdiv
  88              	.LVL11:
  89 0046 00E0     		b	.L4
  90              	.L22:
  91              		.loc 1 30 0
  92 0048 0020     		movs	r0, #0
  93              	.L4:
  94              		.loc 1 30 0 discriminator 10
  95 004a 0646     		mov	r6, r0
  96              	.LVL12:
  97 004c 03E0     		b	.L2
  98              	.LVL13:
  99              	.L13:
 100              		.loc 1 30 0
 101 004e 0026     		movs	r6, #0
 102              	.LVL14:
 103 0050 01E0     		b	.L2
 104              	.LVL15:
 105              	.L12:
 106 0052 4FF07E56 		mov	r6, #1065353216
 107              	.LVL16:
 108              	.L2:
  31:..\source/fisPWM.c ****     FIS_TYPE t2 = ((b <= x) ? 1 : ((x < a) ? 0 : ((a != b) ? ((x - a) / (b - a)) : 0)));
 109              		.loc 1 31 0 is_stmt 1 discriminator 12
 110 0056 2046     		mov	r0, r4
 111 0058 2946     		mov	r1, r5
 112 005a FFF7FEFF 		bl	__aeabi_fcmple
 113              	.LVL17:
 114 005e E0B9     		cbnz	r0, .L15
 115              		.loc 1 31 0 is_stmt 0 discriminator 2
 116 0060 2846     		mov	r0, r5
 117 0062 3946     		mov	r1, r7
 118 0064 FFF7FEFF 		bl	__aeabi_fcmplt
 119              	.LVL18:
 120 0068 A8B9     		cbnz	r0, .L16
 121              		.loc 1 31 0 discriminator 5
 122 006a 3846     		mov	r0, r7
 123 006c 2146     		mov	r1, r4
 124 006e FFF7FEFF 		bl	__aeabi_fcmpeq
 125              	.LVL19:
 126 0072 68B9     		cbnz	r0, .L23
 127              		.loc 1 31 0 discriminator 7
 128 0074 2846     		mov	r0, r5
 129 0076 3946     		mov	r1, r7
 130 0078 FFF7FEFF 		bl	__aeabi_fsub
 131              	.LVL20:
 132 007c 0546     		mov	r5, r0
 133              	.LVL21:
 134 007e 2046     		mov	r0, r4
 135 0080 3946     		mov	r1, r7
 136 0082 FFF7FEFF 		bl	__aeabi_fsub
 137              	.LVL22:
 138 0086 0146     		mov	r1, r0
 139 0088 2846     		mov	r0, r5
 140 008a FFF7FEFF 		bl	__aeabi_fdiv
ARM GAS  C:\Users\Tim\AppData\Local\Temp\ccsA5uAx.s 			page 4


 141              	.LVL23:
 142 008e 00E0     		b	.L8
 143              	.LVL24:
 144              	.L23:
 145              		.loc 1 31 0
 146 0090 0020     		movs	r0, #0
 147              	.LVL25:
 148              	.L8:
 149              		.loc 1 31 0 discriminator 10
 150 0092 0446     		mov	r4, r0
 151              	.LVL26:
 152 0094 03E0     		b	.L6
 153              	.LVL27:
 154              	.L16:
 155              		.loc 1 31 0
 156 0096 0024     		movs	r4, #0
 157              	.LVL28:
 158 0098 01E0     		b	.L6
 159              	.LVL29:
 160              	.L15:
 161 009a 4FF07E54 		mov	r4, #1065353216
 162              	.LVL30:
 163              	.L6:
  32:..\source/fisPWM.c ****     return (FIS_TYPE) min(t1, t2);
 164              		.loc 1 32 0 is_stmt 1 discriminator 12
 165 009e 3046     		mov	r0, r6
 166 00a0 2146     		mov	r1, r4
 167 00a2 FFF7FEFF 		bl	__aeabi_fcmplt
 168              	.LVL31:
 169 00a6 10B1     		cbz	r0, .L24
 170              		.loc 1 32 0 is_stmt 0
 171 00a8 3046     		mov	r0, r6
 172 00aa BDE8F883 		pop	{r3, r4, r5, r6, r7, r8, r9, pc}
 173              	.LVL32:
 174              	.L24:
 175 00ae 2046     		mov	r0, r4
  33:..\source/fisPWM.c **** }
 176              		.loc 1 33 0 is_stmt 1
 177 00b0 BDE8F883 		pop	{r3, r4, r5, r6, r7, r8, r9, pc}
 178              		.cfi_endproc
 179              	.LFE63:
 180              		.size	fis_trapmf, .-fis_trapmf
 181              		.global	__aeabi_fmul
 182              		.global	__aeabi_fcmpgt
 183              		.section	.text.fis_trimf,"ax",%progbits
 184              		.align	2
 185              		.global	fis_trimf
 186              		.thumb
 187              		.thumb_func
 188              		.type	fis_trimf, %function
 189              	fis_trimf:
 190              	.LFB64:
  34:..\source/fisPWM.c **** 
  35:..\source/fisPWM.c **** // Triangular Member Function
  36:..\source/fisPWM.c **** FIS_TYPE fis_trimf(FIS_TYPE x, FIS_TYPE* p)
  37:..\source/fisPWM.c **** {
 191              		.loc 1 37 0
ARM GAS  C:\Users\Tim\AppData\Local\Temp\ccsA5uAx.s 			page 5


 192              		.cfi_startproc
 193              		@ args = 0, pretend = 0, frame = 0
 194              		@ frame_needed = 0, uses_anonymous_args = 0
 195              	.LVL33:
 196 0000 2DE9F843 		push	{r3, r4, r5, r6, r7, r8, r9, lr}
 197              		.cfi_def_cfa_offset 32
 198              		.cfi_offset 3, -32
 199              		.cfi_offset 4, -28
 200              		.cfi_offset 5, -24
 201              		.cfi_offset 6, -20
 202              		.cfi_offset 7, -16
 203              		.cfi_offset 8, -12
 204              		.cfi_offset 9, -8
 205              		.cfi_offset 14, -4
 206 0004 8046     		mov	r8, r0
  38:..\source/fisPWM.c ****     FIS_TYPE a = p[0], b = p[1], c = p[2];
 207              		.loc 1 38 0
 208 0006 0D68     		ldr	r5, [r1]	@ float
 209              	.LVL34:
 210 0008 4C68     		ldr	r4, [r1, #4]	@ float
 211              	.LVL35:
 212 000a 8E68     		ldr	r6, [r1, #8]	@ float
 213              	.LVL36:
  39:..\source/fisPWM.c ****     FIS_TYPE t1 = (x - a) / (b - a);
 214              		.loc 1 39 0
 215 000c 2946     		mov	r1, r5
 216              	.LVL37:
 217 000e FFF7FEFF 		bl	__aeabi_fsub
 218              	.LVL38:
 219 0012 0746     		mov	r7, r0
 220 0014 2046     		mov	r0, r4
 221 0016 2946     		mov	r1, r5
 222 0018 FFF7FEFF 		bl	__aeabi_fsub
 223              	.LVL39:
 224 001c 0146     		mov	r1, r0
 225 001e 3846     		mov	r0, r7
 226 0020 FFF7FEFF 		bl	__aeabi_fdiv
 227              	.LVL40:
 228 0024 8146     		mov	r9, r0
 229              	.LVL41:
  40:..\source/fisPWM.c ****     FIS_TYPE t2 = (c - x) / (c - b);
 230              		.loc 1 40 0
 231 0026 3046     		mov	r0, r6
 232              	.LVL42:
 233 0028 4146     		mov	r1, r8
 234 002a FFF7FEFF 		bl	__aeabi_fsub
 235              	.LVL43:
 236 002e 0746     		mov	r7, r0
 237 0030 3046     		mov	r0, r6
 238 0032 2146     		mov	r1, r4
 239 0034 FFF7FEFF 		bl	__aeabi_fsub
 240              	.LVL44:
 241 0038 0146     		mov	r1, r0
 242 003a 3846     		mov	r0, r7
 243 003c FFF7FEFF 		bl	__aeabi_fdiv
 244              	.LVL45:
 245 0040 0746     		mov	r7, r0
ARM GAS  C:\Users\Tim\AppData\Local\Temp\ccsA5uAx.s 			page 6


 246              	.LVL46:
  41:..\source/fisPWM.c ****     if ((a == b) && (b == c)) return (FIS_TYPE) (x == a);
 247              		.loc 1 41 0
 248 0042 2846     		mov	r0, r5
 249              	.LVL47:
 250 0044 2146     		mov	r1, r4
 251 0046 FFF7FEFF 		bl	__aeabi_fcmpeq
 252              	.LVL48:
 253 004a 80B1     		cbz	r0, .L27
 254              		.loc 1 41 0 is_stmt 0 discriminator 1
 255 004c 2046     		mov	r0, r4
 256 004e 3146     		mov	r1, r6
 257 0050 FFF7FEFF 		bl	__aeabi_fcmpeq
 258              	.LVL49:
 259 0054 58B1     		cbz	r0, .L27
 260              		.loc 1 41 0 discriminator 2
 261 0056 4046     		mov	r0, r8
 262 0058 2946     		mov	r1, r5
 263 005a FFF7FEFF 		bl	__aeabi_fcmpeq
 264              	.LVL50:
 265 005e 18B1     		cbz	r0, .L64
 266              		.loc 1 41 0
 267 0060 4FF07E50 		mov	r0, #1065353216
 268 0064 BDE8F883 		pop	{r3, r4, r5, r6, r7, r8, r9, pc}
 269              	.LVL51:
 270              	.L64:
 271 0068 0020     		movs	r0, #0
 272 006a BDE8F883 		pop	{r3, r4, r5, r6, r7, r8, r9, pc}
 273              	.LVL52:
 274              	.L27:
  42:..\source/fisPWM.c ****     if (a == b) return (FIS_TYPE) (t2*(b <= x)*(x <= c));
 275              		.loc 1 42 0 is_stmt 1
 276 006e 2846     		mov	r0, r5
 277 0070 2146     		mov	r1, r4
 278 0072 FFF7FEFF 		bl	__aeabi_fcmpeq
 279              	.LVL53:
 280 0076 D0B1     		cbz	r0, .L65
 281              		.loc 1 42 0 is_stmt 0 discriminator 1
 282 0078 2046     		mov	r0, r4
 283 007a 4146     		mov	r1, r8
 284 007c FFF7FEFF 		bl	__aeabi_fcmple
 285              	.LVL54:
 286 0080 10B1     		cbz	r0, .L66
 287              		.loc 1 42 0
 288 0082 4FF07E50 		mov	r0, #1065353216
 289 0086 00E0     		b	.L35
 290              	.L66:
 291 0088 0020     		movs	r0, #0
 292              	.L35:
 293              		.loc 1 42 0 discriminator 5
 294 008a 3946     		mov	r1, r7
 295 008c FFF7FEFF 		bl	__aeabi_fmul
 296              	.LVL55:
 297 0090 0446     		mov	r4, r0
 298              	.LVL56:
 299 0092 4046     		mov	r0, r8
 300 0094 3146     		mov	r1, r6
ARM GAS  C:\Users\Tim\AppData\Local\Temp\ccsA5uAx.s 			page 7


 301 0096 FFF7FEFF 		bl	__aeabi_fcmple
 302              	.LVL57:
 303 009a 10B1     		cbz	r0, .L67
 304              		.loc 1 42 0
 305 009c 4FF07E51 		mov	r1, #1065353216
 306 00a0 00E0     		b	.L37
 307              	.L67:
 308 00a2 0021     		movs	r1, #0
 309              	.L37:
 310              		.loc 1 42 0 discriminator 9
 311 00a4 2046     		mov	r0, r4
 312 00a6 FFF7FEFF 		bl	__aeabi_fmul
 313              	.LVL58:
 314 00aa BDE8F883 		pop	{r3, r4, r5, r6, r7, r8, r9, pc}
 315              	.LVL59:
 316              	.L65:
  43:..\source/fisPWM.c ****     if (b == c) return (FIS_TYPE) (t1*(a <= x)*(x <= b));
 317              		.loc 1 43 0 is_stmt 1
 318 00ae 2046     		mov	r0, r4
 319 00b0 3146     		mov	r1, r6
 320 00b2 FFF7FEFF 		bl	__aeabi_fcmpeq
 321              	.LVL60:
 322 00b6 D0B1     		cbz	r0, .L68
 323              		.loc 1 43 0 is_stmt 0 discriminator 1
 324 00b8 2846     		mov	r0, r5
 325 00ba 4146     		mov	r1, r8
 326 00bc FFF7FEFF 		bl	__aeabi_fcmple
 327              	.LVL61:
 328 00c0 10B1     		cbz	r0, .L69
 329              		.loc 1 43 0
 330 00c2 4FF07E50 		mov	r0, #1065353216
 331 00c6 00E0     		b	.L41
 332              	.L69:
 333 00c8 0020     		movs	r0, #0
 334              	.L41:
 335              		.loc 1 43 0 discriminator 5
 336 00ca 4946     		mov	r1, r9
 337 00cc FFF7FEFF 		bl	__aeabi_fmul
 338              	.LVL62:
 339 00d0 0546     		mov	r5, r0
 340              	.LVL63:
 341 00d2 4046     		mov	r0, r8
 342 00d4 2146     		mov	r1, r4
 343 00d6 FFF7FEFF 		bl	__aeabi_fcmple
 344              	.LVL64:
 345 00da 10B1     		cbz	r0, .L70
 346              		.loc 1 43 0
 347 00dc 4FF07E51 		mov	r1, #1065353216
 348 00e0 00E0     		b	.L43
 349              	.L70:
 350 00e2 0021     		movs	r1, #0
 351              	.L43:
 352              		.loc 1 43 0 discriminator 9
 353 00e4 2846     		mov	r0, r5
 354 00e6 FFF7FEFF 		bl	__aeabi_fmul
 355              	.LVL65:
 356 00ea BDE8F883 		pop	{r3, r4, r5, r6, r7, r8, r9, pc}
ARM GAS  C:\Users\Tim\AppData\Local\Temp\ccsA5uAx.s 			page 8


 357              	.LVL66:
 358              	.L68:
  44:..\source/fisPWM.c ****     t1 = min(t1, t2);
 359              		.loc 1 44 0 is_stmt 1
 360 00ee 4846     		mov	r0, r9
 361 00f0 3946     		mov	r1, r7
 362 00f2 FFF7FEFF 		bl	__aeabi_fcmplt
 363              	.LVL67:
 364 00f6 00B1     		cbz	r0, .L45
 365 00f8 4F46     		mov	r7, r9
 366              	.LVL68:
 367              	.L45:
  45:..\source/fisPWM.c ****     return (FIS_TYPE) max(t1, 0);
 368              		.loc 1 45 0 discriminator 4
 369 00fa 3846     		mov	r0, r7
 370 00fc 0021     		movs	r1, #0
 371 00fe FFF7FEFF 		bl	__aeabi_fcmpgt
 372              	.LVL69:
 373 0102 10B9     		cbnz	r0, .L53
 374              		.loc 1 45 0 is_stmt 0
 375 0104 0020     		movs	r0, #0
 376 0106 BDE8F883 		pop	{r3, r4, r5, r6, r7, r8, r9, pc}
 377              	.LVL70:
 378              	.L53:
 379 010a 3846     		mov	r0, r7
  46:..\source/fisPWM.c **** }
 380              		.loc 1 46 0 is_stmt 1
 381 010c BDE8F883 		pop	{r3, r4, r5, r6, r7, r8, r9, pc}
 382              		.cfi_endproc
 383              	.LFE64:
 384              		.size	fis_trimf, .-fis_trimf
 385              		.section	.text.fis_max,"ax",%progbits
 386              		.align	2
 387              		.global	fis_max
 388              		.thumb
 389              		.thumb_func
 390              		.type	fis_max, %function
 391              	fis_max:
 392              	.LFB66:
  47:..\source/fisPWM.c **** 
  48:..\source/fisPWM.c **** FIS_TYPE fis_min(FIS_TYPE a, FIS_TYPE b)
  49:..\source/fisPWM.c **** {
  50:..\source/fisPWM.c ****     return min(a, b);
  51:..\source/fisPWM.c **** }
  52:..\source/fisPWM.c **** 
  53:..\source/fisPWM.c **** FIS_TYPE fis_max(FIS_TYPE a, FIS_TYPE b)
  54:..\source/fisPWM.c **** {
 393              		.loc 1 54 0
 394              		.cfi_startproc
 395              		@ args = 0, pretend = 0, frame = 0
 396              		@ frame_needed = 0, uses_anonymous_args = 0
 397              	.LVL71:
 398 0000 38B5     		push	{r3, r4, r5, lr}
 399              		.cfi_def_cfa_offset 16
 400              		.cfi_offset 3, -16
 401              		.cfi_offset 4, -12
 402              		.cfi_offset 5, -8
ARM GAS  C:\Users\Tim\AppData\Local\Temp\ccsA5uAx.s 			page 9


 403              		.cfi_offset 14, -4
 404 0002 0546     		mov	r5, r0
 405 0004 0C46     		mov	r4, r1
  55:..\source/fisPWM.c ****     return max(a, b);
 406              		.loc 1 55 0
 407 0006 FFF7FEFF 		bl	__aeabi_fcmpgt
 408              	.LVL72:
 409 000a 08B1     		cbz	r0, .L77
 410 000c 2846     		mov	r0, r5
 411 000e 38BD     		pop	{r3, r4, r5, pc}
 412              	.LVL73:
 413              	.L77:
 414 0010 2046     		mov	r0, r4
  56:..\source/fisPWM.c **** }
 415              		.loc 1 56 0
 416 0012 38BD     		pop	{r3, r4, r5, pc}
 417              		.cfi_endproc
 418              	.LFE66:
 419              		.size	fis_max, .-fis_max
 420              		.section	.text.fis_min,"ax",%progbits
 421              		.align	2
 422              		.global	fis_min
 423              		.thumb
 424              		.thumb_func
 425              		.type	fis_min, %function
 426              	fis_min:
 427              	.LFB65:
  49:..\source/fisPWM.c ****     return min(a, b);
 428              		.loc 1 49 0
 429              		.cfi_startproc
 430              		@ args = 0, pretend = 0, frame = 0
 431              		@ frame_needed = 0, uses_anonymous_args = 0
 432              	.LVL74:
 433 0000 38B5     		push	{r3, r4, r5, lr}
 434              		.cfi_def_cfa_offset 16
 435              		.cfi_offset 3, -16
 436              		.cfi_offset 4, -12
 437              		.cfi_offset 5, -8
 438              		.cfi_offset 14, -4
 439 0002 0546     		mov	r5, r0
 440 0004 0C46     		mov	r4, r1
  50:..\source/fisPWM.c **** }
 441              		.loc 1 50 0
 442 0006 FFF7FEFF 		bl	__aeabi_fcmplt
 443              	.LVL75:
 444 000a 08B1     		cbz	r0, .L84
 445 000c 2846     		mov	r0, r5
 446 000e 38BD     		pop	{r3, r4, r5, pc}
 447              	.LVL76:
 448              	.L84:
 449 0010 2046     		mov	r0, r4
  51:..\source/fisPWM.c **** 
 450              		.loc 1 51 0
 451 0012 38BD     		pop	{r3, r4, r5, pc}
 452              		.cfi_endproc
 453              	.LFE65:
 454              		.size	fis_min, .-fis_min
ARM GAS  C:\Users\Tim\AppData\Local\Temp\ccsA5uAx.s 			page 10


 455              		.section	.text.fis_array_operation,"ax",%progbits
 456              		.align	2
 457              		.global	fis_array_operation
 458              		.thumb
 459              		.thumb_func
 460              		.type	fis_array_operation, %function
 461              	fis_array_operation:
 462              	.LFB67:
  57:..\source/fisPWM.c **** 
  58:..\source/fisPWM.c **** FIS_TYPE fis_array_operation(FIS_TYPE *array, int size, _FIS_ARR_OP pfnOp)
  59:..\source/fisPWM.c **** {
 463              		.loc 1 59 0
 464              		.cfi_startproc
 465              		@ args = 0, pretend = 0, frame = 0
 466              		@ frame_needed = 0, uses_anonymous_args = 0
 467              	.LVL77:
  60:..\source/fisPWM.c ****     int i;
  61:..\source/fisPWM.c ****     FIS_TYPE ret = 0;
  62:..\source/fisPWM.c **** 
  63:..\source/fisPWM.c ****     if (size == 0) return ret;
 468              		.loc 1 63 0
 469 0000 89B1     		cbz	r1, .L91
  59:..\source/fisPWM.c ****     int i;
 470              		.loc 1 59 0
 471 0002 F8B5     		push	{r3, r4, r5, r6, r7, lr}
 472              		.cfi_def_cfa_offset 24
 473              		.cfi_offset 3, -24
 474              		.cfi_offset 4, -20
 475              		.cfi_offset 5, -16
 476              		.cfi_offset 6, -12
 477              		.cfi_offset 7, -8
 478              		.cfi_offset 14, -4
 479 0004 0D46     		mov	r5, r1
  64:..\source/fisPWM.c ****     if (size == 1) return array[0];
 480              		.loc 1 64 0
 481 0006 0129     		cmp	r1, #1
 482 0008 01D1     		bne	.L88
 483              		.loc 1 64 0 is_stmt 0 discriminator 1
 484 000a 0068     		ldr	r0, [r0]	@ float
 485              	.LVL78:
 486 000c F8BD     		pop	{r3, r4, r5, r6, r7, pc}
 487              	.LVL79:
 488              	.L88:
 489 000e 1746     		mov	r7, r2
 490 0010 0646     		mov	r6, r0
  65:..\source/fisPWM.c **** 
  66:..\source/fisPWM.c ****     ret = array[0];
 491              		.loc 1 66 0 is_stmt 1
 492 0012 0068     		ldr	r0, [r0]	@ float
 493              	.LVL80:
  67:..\source/fisPWM.c ****     for (i = 1; i < size; i++)
 494              		.loc 1 67 0
 495 0014 0124     		movs	r4, #1
 496 0016 03E0     		b	.L89
 497              	.LVL81:
 498              	.L90:
  68:..\source/fisPWM.c ****     {
ARM GAS  C:\Users\Tim\AppData\Local\Temp\ccsA5uAx.s 			page 11


  69:..\source/fisPWM.c ****         ret = (*pfnOp)(ret, array[i]);
 499              		.loc 1 69 0 discriminator 3
 500 0018 56F82410 		ldr	r1, [r6, r4, lsl #2]	@ float
 501 001c B847     		blx	r7
 502              	.LVL82:
  67:..\source/fisPWM.c ****     for (i = 1; i < size; i++)
 503              		.loc 1 67 0 discriminator 3
 504 001e 0134     		adds	r4, r4, #1
 505              	.LVL83:
 506              	.L89:
  67:..\source/fisPWM.c ****     for (i = 1; i < size; i++)
 507              		.loc 1 67 0 is_stmt 0 discriminator 1
 508 0020 AC42     		cmp	r4, r5
 509 0022 F9DB     		blt	.L90
  70:..\source/fisPWM.c ****     }
  71:..\source/fisPWM.c **** 
  72:..\source/fisPWM.c ****     return ret;
 510              		.loc 1 72 0 is_stmt 1
 511 0024 F8BD     		pop	{r3, r4, r5, r6, r7, pc}
 512              	.LVL84:
 513              	.L91:
 514              		.cfi_def_cfa_offset 0
 515              		.cfi_restore 3
 516              		.cfi_restore 4
 517              		.cfi_restore 5
 518              		.cfi_restore 6
 519              		.cfi_restore 7
 520              		.cfi_restore 14
  63:..\source/fisPWM.c ****     if (size == 1) return array[0];
 521              		.loc 1 63 0
 522 0026 0020     		movs	r0, #0
 523              	.LVL85:
 524 0028 7047     		bx	lr
 525              		.cfi_endproc
 526              	.LFE67:
 527              		.size	fis_array_operation, .-fis_array_operation
 528 002a 00BF     		.section	.text.fis_MF_out,"ax",%progbits
 529              		.align	2
 530              		.global	fis_MF_out
 531              		.thumb
 532              		.thumb_func
 533              		.type	fis_MF_out, %function
 534              	fis_MF_out:
 535              	.LFB68:
  73:..\source/fisPWM.c **** }
  74:..\source/fisPWM.c **** 
  75:..\source/fisPWM.c **** 
  76:..\source/fisPWM.c **** //***********************************************************************
  77:..\source/fisPWM.c **** // Data for Fuzzy Inference System                                       
  78:..\source/fisPWM.c **** //***********************************************************************
  79:..\source/fisPWM.c **** // Pointers to the implementations of member functions
  80:..\source/fisPWM.c **** _FIS_MF fis_gMF[] =
  81:..\source/fisPWM.c **** {
  82:..\source/fisPWM.c ****     fis_trapmf, fis_trimf
  83:..\source/fisPWM.c **** };
  84:..\source/fisPWM.c **** 
  85:..\source/fisPWM.c **** // Count of member function for each Input
ARM GAS  C:\Users\Tim\AppData\Local\Temp\ccsA5uAx.s 			page 12


  86:..\source/fisPWM.c **** int fis_gIMFCount[] = { 7, 7 };
  87:..\source/fisPWM.c **** 
  88:..\source/fisPWM.c **** // Count of member function for each Output 
  89:..\source/fisPWM.c **** int fis_gOMFCount[] = { 7 };
  90:..\source/fisPWM.c **** 
  91:..\source/fisPWM.c **** // Coefficients for the Input Member Functions
  92:..\source/fisPWM.c **** FIS_TYPE fis_gMFI0Coeff1[] = { -1.000, -1.000, -0.750, -0.500 };
  93:..\source/fisPWM.c **** FIS_TYPE fis_gMFI0Coeff2[] = { -0.750, -0.500, -0.250 };
  94:..\source/fisPWM.c **** FIS_TYPE fis_gMFI0Coeff3[] = { -0.500, -0.250, 0.000 };
  95:..\source/fisPWM.c **** FIS_TYPE fis_gMFI0Coeff4[] = { -0.250, 0.000, 0.250 };
  96:..\source/fisPWM.c **** FIS_TYPE fis_gMFI0Coeff5[] = { 0.000, 0.250, 0.500 };
  97:..\source/fisPWM.c **** FIS_TYPE fis_gMFI0Coeff6[] = { 0.250, 0.500, 0.750 };
  98:..\source/fisPWM.c **** FIS_TYPE fis_gMFI0Coeff7[] = { 0.500, 0.625, 1.000, 1.000 };
  99:..\source/fisPWM.c **** FIS_TYPE* fis_gMFI0Coeff[] = { fis_gMFI0Coeff1, fis_gMFI0Coeff2, fis_gMFI0Coeff3, fis_gMFI0Coeff4, 
 100:..\source/fisPWM.c **** FIS_TYPE fis_gMFI1Coeff1[] = { -1.000, -1.000, -0.750, -0.500 };
 101:..\source/fisPWM.c **** FIS_TYPE fis_gMFI1Coeff2[] = { -0.750, -0.500, -0.250 };
 102:..\source/fisPWM.c **** FIS_TYPE fis_gMFI1Coeff3[] = { -0.500, -0.250, 0.000 };
 103:..\source/fisPWM.c **** FIS_TYPE fis_gMFI1Coeff4[] = { -0.250, 0.000, 0.250 };
 104:..\source/fisPWM.c **** FIS_TYPE fis_gMFI1Coeff5[] = { 0.000, 0.250, 0.500 };
 105:..\source/fisPWM.c **** FIS_TYPE fis_gMFI1Coeff6[] = { 0.250, 0.500, 0.750 };
 106:..\source/fisPWM.c **** FIS_TYPE fis_gMFI1Coeff7[] = { 0.500, 0.625, 1.000, 1.000 };
 107:..\source/fisPWM.c **** FIS_TYPE* fis_gMFI1Coeff[] = { fis_gMFI1Coeff1, fis_gMFI1Coeff2, fis_gMFI1Coeff3, fis_gMFI1Coeff4, 
 108:..\source/fisPWM.c **** FIS_TYPE** fis_gMFICoeff[] = { fis_gMFI0Coeff, fis_gMFI1Coeff };
 109:..\source/fisPWM.c **** 
 110:..\source/fisPWM.c **** // Coefficients for the Input Member Functions
 111:..\source/fisPWM.c **** FIS_TYPE fis_gMFO0Coeff1[] = { -1.000, -1.000, -0.750, -0.500 };
 112:..\source/fisPWM.c **** FIS_TYPE fis_gMFO0Coeff2[] = { -0.750, -0.500, -0.250 };
 113:..\source/fisPWM.c **** FIS_TYPE fis_gMFO0Coeff3[] = { -0.500, -0.250, 0.000 };
 114:..\source/fisPWM.c **** FIS_TYPE fis_gMFO0Coeff4[] = { -0.250, 0.000, 0.250 };
 115:..\source/fisPWM.c **** FIS_TYPE fis_gMFO0Coeff5[] = { 0.000, 0.250, 0.500 };
 116:..\source/fisPWM.c **** FIS_TYPE fis_gMFO0Coeff6[] = { 0.250, 0.500, 0.750 };
 117:..\source/fisPWM.c **** FIS_TYPE fis_gMFO0Coeff7[] = { 0.500, 0.625, 1.000, 1.000 };
 118:..\source/fisPWM.c **** FIS_TYPE* fis_gMFO0Coeff[] = { fis_gMFO0Coeff1, fis_gMFO0Coeff2, fis_gMFO0Coeff3, fis_gMFO0Coeff4, 
 119:..\source/fisPWM.c **** FIS_TYPE** fis_gMFOCoeff[] = { fis_gMFO0Coeff };
 120:..\source/fisPWM.c **** 
 121:..\source/fisPWM.c **** // Input membership function set
 122:..\source/fisPWM.c **** int fis_gMFI0[] = { 0, 1, 1, 1, 1, 1, 0 };
 123:..\source/fisPWM.c **** int fis_gMFI1[] = { 0, 1, 1, 1, 1, 1, 0 };
 124:..\source/fisPWM.c **** int* fis_gMFI[] = { fis_gMFI0, fis_gMFI1};
 125:..\source/fisPWM.c **** 
 126:..\source/fisPWM.c **** // Output membership function set
 127:..\source/fisPWM.c **** int fis_gMFO0[] = { 0, 1, 1, 1, 1, 1, 0 };
 128:..\source/fisPWM.c **** int* fis_gMFO[] = { fis_gMFO0};
 129:..\source/fisPWM.c **** 
 130:..\source/fisPWM.c **** // Rule Weights
 131:..\source/fisPWM.c **** FIS_TYPE fis_gRWeight[] = { 1.000, 1.000, 1.000, 1.000, 1.000, 1.000, 1.000, 1.000, 1.000, 1.000, 1
 132:..\source/fisPWM.c **** 
 133:..\source/fisPWM.c **** // Rule Type
 134:..\source/fisPWM.c **** int fis_gRType[] = { 1, 1, 1, 1, 1, 1, 1, 1, 1, 1, 1, 1, 1, 1, 1, 1, 1, 1, 1, 1, 1, 1, 1, 1, 1, 1, 
 135:..\source/fisPWM.c **** 
 136:..\source/fisPWM.c **** // Rule Inputs
 137:..\source/fisPWM.c **** int fis_gRI0[] = { 1.000, 1.000, };
 138:..\source/fisPWM.c **** int fis_gRI1[] = { 1.000, 2.000, };
 139:..\source/fisPWM.c **** int fis_gRI2[] = { 1.000, 3.000, };
 140:..\source/fisPWM.c **** int fis_gRI3[] = { 1.000, 4.000, };
 141:..\source/fisPWM.c **** int fis_gRI4[] = { 1.000, 5.000, };
 142:..\source/fisPWM.c **** int fis_gRI5[] = { 1.000, 6.000, };
ARM GAS  C:\Users\Tim\AppData\Local\Temp\ccsA5uAx.s 			page 13


 143:..\source/fisPWM.c **** int fis_gRI6[] = { 1.000, 7.000, };
 144:..\source/fisPWM.c **** int fis_gRI7[] = { 2.000, 1.000, };
 145:..\source/fisPWM.c **** int fis_gRI8[] = { 2.000, 2.000, };
 146:..\source/fisPWM.c **** int fis_gRI9[] = { 2.000, 3.000, };
 147:..\source/fisPWM.c **** int fis_gRI10[] = { 2.000, 4.000, };
 148:..\source/fisPWM.c **** int fis_gRI11[] = { 2.000, 5.000, };
 149:..\source/fisPWM.c **** int fis_gRI12[] = { 2.000, 6.000, };
 150:..\source/fisPWM.c **** int fis_gRI13[] = { 2.000, 7.000, };
 151:..\source/fisPWM.c **** int fis_gRI14[] = { 3.000, 1.000, };
 152:..\source/fisPWM.c **** int fis_gRI15[] = { 3.000, 2.000, };
 153:..\source/fisPWM.c **** int fis_gRI16[] = { 3.000, 3.000, };
 154:..\source/fisPWM.c **** int fis_gRI17[] = { 3.000, 4.000, };
 155:..\source/fisPWM.c **** int fis_gRI18[] = { 3.000, 5.000, };
 156:..\source/fisPWM.c **** int fis_gRI19[] = { 3.000, 6.000, };
 157:..\source/fisPWM.c **** int fis_gRI20[] = { 3.000, 7.000, };
 158:..\source/fisPWM.c **** int fis_gRI21[] = { 4.000, 1.000, };
 159:..\source/fisPWM.c **** int fis_gRI22[] = { 4.000, 2.000, };
 160:..\source/fisPWM.c **** int fis_gRI23[] = { 4.000, 3.000, };
 161:..\source/fisPWM.c **** int fis_gRI24[] = { 4.000, 4.000, };
 162:..\source/fisPWM.c **** int fis_gRI25[] = { 4.000, 5.000, };
 163:..\source/fisPWM.c **** int fis_gRI26[] = { 4.000, 6.000, };
 164:..\source/fisPWM.c **** int fis_gRI27[] = { 4.000, 7.000, };
 165:..\source/fisPWM.c **** int fis_gRI28[] = { 5.000, 1.000, };
 166:..\source/fisPWM.c **** int fis_gRI29[] = { 5.000, 2.000, };
 167:..\source/fisPWM.c **** int fis_gRI30[] = { 5.000, 3.000, };
 168:..\source/fisPWM.c **** int fis_gRI31[] = { 5.000, 4.000, };
 169:..\source/fisPWM.c **** int fis_gRI32[] = { 5.000, 5.000, };
 170:..\source/fisPWM.c **** int fis_gRI33[] = { 5.000, 6.000, };
 171:..\source/fisPWM.c **** int fis_gRI34[] = { 5.000, 7.000, };
 172:..\source/fisPWM.c **** int fis_gRI35[] = { 6.000, 1.000, };
 173:..\source/fisPWM.c **** int fis_gRI36[] = { 6.000, 2.000, };
 174:..\source/fisPWM.c **** int fis_gRI37[] = { 6.000, 3.000, };
 175:..\source/fisPWM.c **** int fis_gRI38[] = { 6.000, 4.000, };
 176:..\source/fisPWM.c **** int fis_gRI39[] = { 6.000, 5.000, };
 177:..\source/fisPWM.c **** int fis_gRI40[] = { 6.000, 6.000, };
 178:..\source/fisPWM.c **** int fis_gRI41[] = { 6.000, 7.000, };
 179:..\source/fisPWM.c **** int fis_gRI42[] = { 7.000, 1.000, };
 180:..\source/fisPWM.c **** int fis_gRI43[] = { 7.000, 2.000, };
 181:..\source/fisPWM.c **** int fis_gRI44[] = { 7.000, 3.000, };
 182:..\source/fisPWM.c **** int fis_gRI45[] = { 7.000, 4.000, };
 183:..\source/fisPWM.c **** int fis_gRI46[] = { 7.000, 5.000, };
 184:..\source/fisPWM.c **** int fis_gRI47[] = { 7.000, 6.000, };
 185:..\source/fisPWM.c **** int fis_gRI48[] = { 7.000, 7.000, };
 186:..\source/fisPWM.c **** int* fis_gRI[] = { fis_gRI0, fis_gRI1, fis_gRI2, fis_gRI3, fis_gRI4, fis_gRI5, fis_gRI6, fis_gRI7, 
 187:..\source/fisPWM.c **** 
 188:..\source/fisPWM.c **** // Rule Outputs
 189:..\source/fisPWM.c **** int fis_gRO0[] = { 1.000 };
 190:..\source/fisPWM.c **** int fis_gRO1[] = { 1.000 };
 191:..\source/fisPWM.c **** int fis_gRO2[] = { 1.000 };
 192:..\source/fisPWM.c **** int fis_gRO3[] = { 2.000 };
 193:..\source/fisPWM.c **** int fis_gRO4[] = { 1.000 };
 194:..\source/fisPWM.c **** int fis_gRO5[] = { 3.000 };
 195:..\source/fisPWM.c **** int fis_gRO6[] = { 4.000 };
 196:..\source/fisPWM.c **** int fis_gRO7[] = { 1.000 };
 197:..\source/fisPWM.c **** int fis_gRO8[] = { 1.000 };
 198:..\source/fisPWM.c **** int fis_gRO9[] = { 2.000 };
 199:..\source/fisPWM.c **** int fis_gRO10[] = { 2.000 };
ARM GAS  C:\Users\Tim\AppData\Local\Temp\ccsA5uAx.s 			page 14


 200:..\source/fisPWM.c **** int fis_gRO11[] = { 3.000 };
 201:..\source/fisPWM.c **** int fis_gRO12[] = { 4.000 };
 202:..\source/fisPWM.c **** int fis_gRO13[] = { 5.000 };
 203:..\source/fisPWM.c **** int fis_gRO14[] = { 1.000 };
 204:..\source/fisPWM.c **** int fis_gRO15[] = { 2.000 };
 205:..\source/fisPWM.c **** int fis_gRO16[] = { 2.000 };
 206:..\source/fisPWM.c **** int fis_gRO17[] = { 3.000 };
 207:..\source/fisPWM.c **** int fis_gRO18[] = { 4.000 };
 208:..\source/fisPWM.c **** int fis_gRO19[] = { 5.000 };
 209:..\source/fisPWM.c **** int fis_gRO20[] = { 6.000 };
 210:..\source/fisPWM.c **** int fis_gRO21[] = { 2.000 };
 211:..\source/fisPWM.c **** int fis_gRO22[] = { 2.000 };
 212:..\source/fisPWM.c **** int fis_gRO23[] = { 3.000 };
 213:..\source/fisPWM.c **** int fis_gRO24[] = { 4.000 };
 214:..\source/fisPWM.c **** int fis_gRO25[] = { 5.000 };
 215:..\source/fisPWM.c **** int fis_gRO26[] = { 6.000 };
 216:..\source/fisPWM.c **** int fis_gRO27[] = { 6.000 };
 217:..\source/fisPWM.c **** int fis_gRO28[] = { 2.000 };
 218:..\source/fisPWM.c **** int fis_gRO29[] = { 3.000 };
 219:..\source/fisPWM.c **** int fis_gRO30[] = { 4.000 };
 220:..\source/fisPWM.c **** int fis_gRO31[] = { 5.000 };
 221:..\source/fisPWM.c **** int fis_gRO32[] = { 6.000 };
 222:..\source/fisPWM.c **** int fis_gRO33[] = { 6.000 };
 223:..\source/fisPWM.c **** int fis_gRO34[] = { 7.000 };
 224:..\source/fisPWM.c **** int fis_gRO35[] = { 3.000 };
 225:..\source/fisPWM.c **** int fis_gRO36[] = { 4.000 };
 226:..\source/fisPWM.c **** int fis_gRO37[] = { 5.000 };
 227:..\source/fisPWM.c **** int fis_gRO38[] = { 6.000 };
 228:..\source/fisPWM.c **** int fis_gRO39[] = { 6.000 };
 229:..\source/fisPWM.c **** int fis_gRO40[] = { 7.000 };
 230:..\source/fisPWM.c **** int fis_gRO41[] = { 7.000 };
 231:..\source/fisPWM.c **** int fis_gRO42[] = { 4.000 };
 232:..\source/fisPWM.c **** int fis_gRO43[] = { 5.000 };
 233:..\source/fisPWM.c **** int fis_gRO44[] = { 6.000 };
 234:..\source/fisPWM.c **** int fis_gRO45[] = { 6.000 };
 235:..\source/fisPWM.c **** int fis_gRO46[] = { 7.000 };
 236:..\source/fisPWM.c **** int fis_gRO47[] = { 7.000 };
 237:..\source/fisPWM.c **** int fis_gRO48[] = { 7.000 };
 238:..\source/fisPWM.c **** int* fis_gRO[] = { fis_gRO0, fis_gRO1, fis_gRO2, fis_gRO3, fis_gRO4, fis_gRO5, fis_gRO6, fis_gRO7, 
 239:..\source/fisPWM.c **** 
 240:..\source/fisPWM.c **** // Input range Min
 241:..\source/fisPWM.c **** FIS_TYPE fis_gIMin[] = { -1.000, -1.000 };
 242:..\source/fisPWM.c **** 
 243:..\source/fisPWM.c **** // Input range Max
 244:..\source/fisPWM.c **** FIS_TYPE fis_gIMax[] = { 1.000, 1.000 };
 245:..\source/fisPWM.c **** 
 246:..\source/fisPWM.c **** // Output range Min
 247:..\source/fisPWM.c **** FIS_TYPE fis_gOMin[] = { -1.000 };
 248:..\source/fisPWM.c **** 
 249:..\source/fisPWM.c **** // Output range Max
 250:..\source/fisPWM.c **** FIS_TYPE fis_gOMax[] = { 1.000 };
 251:..\source/fisPWM.c **** 
 252:..\source/fisPWM.c **** //***********************************************************************
 253:..\source/fisPWM.c **** // Data dependent support functions for Fuzzy Inference System                          
 254:..\source/fisPWM.c **** //***********************************************************************
 255:..\source/fisPWM.c **** FIS_TYPE fis_MF_out(FIS_TYPE** fuzzyRuleSet, FIS_TYPE x, int o)
 256:..\source/fisPWM.c **** {
ARM GAS  C:\Users\Tim\AppData\Local\Temp\ccsA5uAx.s 			page 15


 536              		.loc 1 256 0
 537              		.cfi_startproc
 538              		@ args = 0, pretend = 0, frame = 0
 539              		@ frame_needed = 0, uses_anonymous_args = 0
 540              	.LVL86:
 541 0000 2DE9F041 		push	{r4, r5, r6, r7, r8, lr}
 542              		.cfi_def_cfa_offset 24
 543              		.cfi_offset 4, -24
 544              		.cfi_offset 5, -20
 545              		.cfi_offset 6, -16
 546              		.cfi_offset 7, -12
 547              		.cfi_offset 8, -8
 548              		.cfi_offset 14, -4
 549 0004 0546     		mov	r5, r0
 550 0006 8846     		mov	r8, r1
 551 0008 1646     		mov	r6, r2
 552              	.LVL87:
 257:..\source/fisPWM.c ****     FIS_TYPE mfOut;
 258:..\source/fisPWM.c ****     int r;
 259:..\source/fisPWM.c **** 
 260:..\source/fisPWM.c ****     for (r = 0; r < fis_gcR; ++r)
 553              		.loc 1 260 0
 554 000a 0024     		movs	r4, #0
 555 000c 3DE0     		b	.L95
 556              	.LVL88:
 557              	.L98:
 558              	.LBB2:
 261:..\source/fisPWM.c ****     {
 262:..\source/fisPWM.c ****         int index = fis_gRO[r][o];
 559              		.loc 1 262 0
 560 000e 234B     		ldr	r3, .L101
 561 0010 53F82430 		ldr	r3, [r3, r4, lsl #2]
 562 0014 53F82630 		ldr	r3, [r3, r6, lsl #2]
 563              	.LVL89:
 263:..\source/fisPWM.c ****         if (index > 0)
 564              		.loc 1 263 0
 565 0018 002B     		cmp	r3, #0
 566 001a 12DD     		ble	.L96
 264:..\source/fisPWM.c ****         {
 265:..\source/fisPWM.c ****             index = index - 1;
 567              		.loc 1 265 0
 568 001c 013B     		subs	r3, r3, #1
 569              	.LVL90:
 266:..\source/fisPWM.c ****             mfOut = (fis_gMF[fis_gMFO[o][index]])(x, fis_gMFOCoeff[o][index]);
 570              		.loc 1 266 0
 571 001e 1F4A     		ldr	r2, .L101
 572 0020 02EB8601 		add	r1, r2, r6, lsl #2
 573 0024 D1F8C400 		ldr	r0, [r1, #196]
 574 0028 50F82300 		ldr	r0, [r0, r3, lsl #2]
 575 002c 02EB8002 		add	r2, r2, r0, lsl #2
 576 0030 D2F8C820 		ldr	r2, [r2, #200]
 577 0034 D1F8D010 		ldr	r1, [r1, #208]
 578 0038 4046     		mov	r0, r8
 579 003a 51F82310 		ldr	r1, [r1, r3, lsl #2]
 580 003e 9047     		blx	r2
 581              	.LVL91:
 582 0040 1AE0     		b	.L97
ARM GAS  C:\Users\Tim\AppData\Local\Temp\ccsA5uAx.s 			page 16


 583              	.LVL92:
 584              	.L96:
 267:..\source/fisPWM.c ****         }
 268:..\source/fisPWM.c ****         else if (index < 0)
 585              		.loc 1 268 0
 586 0042 002B     		cmp	r3, #0
 587 0044 17DA     		bge	.L99
 269:..\source/fisPWM.c ****         {
 270:..\source/fisPWM.c ****             index = -index - 1;
 588              		.loc 1 270 0
 589 0046 DB43     		mvns	r3, r3
 590              	.LVL93:
 271:..\source/fisPWM.c ****             mfOut = 1 - (fis_gMF[fis_gMFO[o][index]])(x, fis_gMFOCoeff[o][index]);
 591              		.loc 1 271 0
 592 0048 144A     		ldr	r2, .L101
 593 004a 02EB8601 		add	r1, r2, r6, lsl #2
 594 004e D1F8C400 		ldr	r0, [r1, #196]
 595 0052 50F82300 		ldr	r0, [r0, r3, lsl #2]
 596 0056 02EB8002 		add	r2, r2, r0, lsl #2
 597 005a D2F8C820 		ldr	r2, [r2, #200]
 598 005e D1F8D010 		ldr	r1, [r1, #208]
 599 0062 4046     		mov	r0, r8
 600 0064 51F82310 		ldr	r1, [r1, r3, lsl #2]
 601 0068 9047     		blx	r2
 602              	.LVL94:
 603 006a 0146     		mov	r1, r0
 604 006c 4FF07E50 		mov	r0, #1065353216
 605 0070 FFF7FEFF 		bl	__aeabi_fsub
 606              	.LVL95:
 607 0074 00E0     		b	.L97
 608              	.LVL96:
 609              	.L99:
 272:..\source/fisPWM.c ****         }
 273:..\source/fisPWM.c ****         else
 274:..\source/fisPWM.c ****         {
 275:..\source/fisPWM.c ****             mfOut = 0;
 610              		.loc 1 275 0
 611 0076 0020     		movs	r0, #0
 612              	.LVL97:
 613              	.L97:
 276:..\source/fisPWM.c ****         }
 277:..\source/fisPWM.c **** 
 278:..\source/fisPWM.c ****         fuzzyRuleSet[0][r] = fis_min(mfOut, fuzzyRuleSet[1][r]);
 614              		.loc 1 278 0 discriminator 2
 615 0078 2F68     		ldr	r7, [r5]
 616 007a 6B68     		ldr	r3, [r5, #4]
 617 007c 53F82410 		ldr	r1, [r3, r4, lsl #2]	@ float
 618 0080 FFF7FEFF 		bl	fis_min
 619              	.LVL98:
 620 0084 47F82400 		str	r0, [r7, r4, lsl #2]	@ float
 621              	.LBE2:
 260:..\source/fisPWM.c ****     {
 622              		.loc 1 260 0 discriminator 2
 623 0088 0134     		adds	r4, r4, #1
 624              	.LVL99:
 625              	.L95:
 260:..\source/fisPWM.c ****     {
ARM GAS  C:\Users\Tim\AppData\Local\Temp\ccsA5uAx.s 			page 17


 626              		.loc 1 260 0 is_stmt 0 discriminator 1
 627 008a 302C     		cmp	r4, #48
 628 008c BFDD     		ble	.L98
 279:..\source/fisPWM.c ****     }
 280:..\source/fisPWM.c ****     return fis_array_operation(fuzzyRuleSet[0], fis_gcR, fis_max);
 629              		.loc 1 280 0 is_stmt 1
 630 008e 2868     		ldr	r0, [r5]
 631 0090 3121     		movs	r1, #49
 632 0092 034A     		ldr	r2, .L101+4
 633 0094 FFF7FEFF 		bl	fis_array_operation
 634              	.LVL100:
 281:..\source/fisPWM.c **** }
 635              		.loc 1 281 0
 636 0098 BDE8F081 		pop	{r4, r5, r6, r7, r8, pc}
 637              	.LVL101:
 638              	.L102:
 639              		.align	2
 640              	.L101:
 641 009c 00000000 		.word	.LANCHOR0
 642 00a0 00000000 		.word	fis_max
 643              		.cfi_endproc
 644              	.LFE68:
 645              		.size	fis_MF_out, .-fis_MF_out
 646              		.global	__aeabi_i2f
 647              		.global	__aeabi_fadd
 648              		.section	.text.fis_defuzz_centroid,"ax",%progbits
 649              		.align	2
 650              		.global	fis_defuzz_centroid
 651              		.thumb
 652              		.thumb_func
 653              		.type	fis_defuzz_centroid, %function
 654              	fis_defuzz_centroid:
 655              	.LFB69:
 282:..\source/fisPWM.c **** 
 283:..\source/fisPWM.c **** FIS_TYPE fis_defuzz_centroid(FIS_TYPE** fuzzyRuleSet, int o)
 284:..\source/fisPWM.c **** {
 656              		.loc 1 284 0
 657              		.cfi_startproc
 658              		@ args = 0, pretend = 0, frame = 0
 659              		@ frame_needed = 0, uses_anonymous_args = 0
 660              	.LVL102:
 661 0000 2DE9F84F 		push	{r3, r4, r5, r6, r7, r8, r9, r10, fp, lr}
 662              		.cfi_def_cfa_offset 40
 663              		.cfi_offset 3, -40
 664              		.cfi_offset 4, -36
 665              		.cfi_offset 5, -32
 666              		.cfi_offset 6, -28
 667              		.cfi_offset 7, -24
 668              		.cfi_offset 8, -20
 669              		.cfi_offset 9, -16
 670              		.cfi_offset 10, -12
 671              		.cfi_offset 11, -8
 672              		.cfi_offset 14, -4
 673 0004 8146     		mov	r9, r0
 674 0006 0F46     		mov	r7, r1
 285:..\source/fisPWM.c ****     FIS_TYPE step = (fis_gOMax[o] - fis_gOMin[o]) / (FIS_RESOLUSION - 1);
 675              		.loc 1 285 0
ARM GAS  C:\Users\Tim\AppData\Local\Temp\ccsA5uAx.s 			page 18


 676 0008 2A4B     		ldr	r3, .L112
 677 000a 03EB8103 		add	r3, r3, r1, lsl #2
 678 000e D3F8D400 		ldr	r0, [r3, #212]	@ float
 679              	.LVL103:
 680 0012 D3F8D810 		ldr	r1, [r3, #216]	@ float
 681              	.LVL104:
 682 0016 FFF7FEFF 		bl	__aeabi_fsub
 683              	.LVL105:
 684 001a 2749     		ldr	r1, .L112+4
 685 001c FFF7FEFF 		bl	__aeabi_fdiv
 686              	.LVL106:
 687 0020 8046     		mov	r8, r0
 688              	.LVL107:
 286:..\source/fisPWM.c ****     FIS_TYPE area = 0;
 287:..\source/fisPWM.c ****     FIS_TYPE momentum = 0;
 288:..\source/fisPWM.c ****     FIS_TYPE dist, slice;
 289:..\source/fisPWM.c ****     int i;
 290:..\source/fisPWM.c **** 
 291:..\source/fisPWM.c ****     // calculate the area under the curve formed by the MF outputs
 292:..\source/fisPWM.c ****     for (i = 0; i < FIS_RESOLUSION; ++i){
 689              		.loc 1 292 0
 690 0022 0024     		movs	r4, #0
 287:..\source/fisPWM.c ****     FIS_TYPE dist, slice;
 691              		.loc 1 287 0
 692 0024 0026     		movs	r6, #0
 286:..\source/fisPWM.c ****     FIS_TYPE area = 0;
 693              		.loc 1 286 0
 694 0026 3546     		mov	r5, r6
 695              		.loc 1 292 0
 696 0028 27E0     		b	.L104
 697              	.LVL108:
 698              	.L105:
 293:..\source/fisPWM.c ****         dist = fis_gOMin[o] + (step * i);
 699              		.loc 1 293 0 discriminator 3
 700 002a 224B     		ldr	r3, .L112
 701 002c 03EB8703 		add	r3, r3, r7, lsl #2
 702 0030 D3F8D8A0 		ldr	r10, [r3, #216]	@ float
 703 0034 2046     		mov	r0, r4
 704 0036 FFF7FEFF 		bl	__aeabi_i2f
 705              	.LVL109:
 706 003a 4146     		mov	r1, r8
 707 003c FFF7FEFF 		bl	__aeabi_fmul
 708              	.LVL110:
 709 0040 0146     		mov	r1, r0
 710 0042 5046     		mov	r0, r10
 711 0044 FFF7FEFF 		bl	__aeabi_fadd
 712              	.LVL111:
 713 0048 8246     		mov	r10, r0
 714              	.LVL112:
 294:..\source/fisPWM.c ****         slice = step * fis_MF_out(fuzzyRuleSet, dist, o);
 715              		.loc 1 294 0 discriminator 3
 716 004a 4846     		mov	r0, r9
 717              	.LVL113:
 718 004c 5146     		mov	r1, r10
 719 004e 3A46     		mov	r2, r7
 720 0050 FFF7FEFF 		bl	fis_MF_out
 721              	.LVL114:
ARM GAS  C:\Users\Tim\AppData\Local\Temp\ccsA5uAx.s 			page 19


 722 0054 4146     		mov	r1, r8
 723 0056 FFF7FEFF 		bl	__aeabi_fmul
 724              	.LVL115:
 725 005a 8346     		mov	fp, r0
 726              	.LVL116:
 295:..\source/fisPWM.c ****         area += slice;
 727              		.loc 1 295 0 discriminator 3
 728 005c 2846     		mov	r0, r5
 729              	.LVL117:
 730 005e 5946     		mov	r1, fp
 731 0060 FFF7FEFF 		bl	__aeabi_fadd
 732              	.LVL118:
 733 0064 0546     		mov	r5, r0
 734              	.LVL119:
 296:..\source/fisPWM.c ****         momentum += slice*dist;
 735              		.loc 1 296 0 discriminator 3
 736 0066 5846     		mov	r0, fp
 737              	.LVL120:
 738 0068 5146     		mov	r1, r10
 739 006a FFF7FEFF 		bl	__aeabi_fmul
 740              	.LVL121:
 741 006e 0146     		mov	r1, r0
 742 0070 3046     		mov	r0, r6
 743 0072 FFF7FEFF 		bl	__aeabi_fadd
 744              	.LVL122:
 745 0076 0646     		mov	r6, r0
 746              	.LVL123:
 292:..\source/fisPWM.c ****         dist = fis_gOMin[o] + (step * i);
 747              		.loc 1 292 0 discriminator 3
 748 0078 0134     		adds	r4, r4, #1
 749              	.LVL124:
 750              	.L104:
 292:..\source/fisPWM.c ****         dist = fis_gOMin[o] + (step * i);
 751              		.loc 1 292 0 is_stmt 0 discriminator 1
 752 007a 642C     		cmp	r4, #100
 753 007c D5DD     		ble	.L105
 297:..\source/fisPWM.c ****     }
 298:..\source/fisPWM.c **** 
 299:..\source/fisPWM.c ****     return ((area == 0) ? ((fis_gOMax[o] + fis_gOMin[o]) / 2) : (momentum / area));
 754              		.loc 1 299 0 is_stmt 1
 755 007e 2846     		mov	r0, r5
 756 0080 0021     		movs	r1, #0
 757 0082 FFF7FEFF 		bl	__aeabi_fcmpeq
 758              	.LVL125:
 759 0086 70B1     		cbz	r0, .L110
 760              		.loc 1 299 0 is_stmt 0 discriminator 1
 761 0088 0A4B     		ldr	r3, .L112
 762 008a 03EB8707 		add	r7, r3, r7, lsl #2
 763              	.LVL126:
 764 008e D7F8D400 		ldr	r0, [r7, #212]	@ float
 765 0092 D7F8D810 		ldr	r1, [r7, #216]	@ float
 766 0096 FFF7FEFF 		bl	__aeabi_fadd
 767              	.LVL127:
 768 009a 4FF07C51 		mov	r1, #1056964608
 769 009e FFF7FEFF 		bl	__aeabi_fmul
 770              	.LVL128:
 771 00a2 BDE8F88F 		pop	{r3, r4, r5, r6, r7, r8, r9, r10, fp, pc}
ARM GAS  C:\Users\Tim\AppData\Local\Temp\ccsA5uAx.s 			page 20


 772              	.LVL129:
 773              	.L110:
 774              		.loc 1 299 0 discriminator 2
 775 00a6 3046     		mov	r0, r6
 776 00a8 2946     		mov	r1, r5
 777 00aa FFF7FEFF 		bl	__aeabi_fdiv
 778              	.LVL130:
 300:..\source/fisPWM.c **** }
 779              		.loc 1 300 0 is_stmt 1 discriminator 2
 780 00ae BDE8F88F 		pop	{r3, r4, r5, r6, r7, r8, r9, r10, fp, pc}
 781              	.LVL131:
 782              	.L113:
 783 00b2 00BF     		.align	2
 784              	.L112:
 785 00b4 00000000 		.word	.LANCHOR0
 786 00b8 0000C842 		.word	1120403456
 787              		.cfi_endproc
 788              	.LFE69:
 789              		.size	fis_defuzz_centroid, .-fis_defuzz_centroid
 790              		.section	.text.fis_evaluate,"ax",%progbits
 791              		.align	2
 792              		.global	fis_evaluate
 793              		.thumb
 794              		.thumb_func
 795              		.type	fis_evaluate, %function
 796              	fis_evaluate:
 797              	.LFB70:
 301:..\source/fisPWM.c **** 
 302:..\source/fisPWM.c **** //***********************************************************************
 303:..\source/fisPWM.c **** // Fuzzy Inference System                                                
 304:..\source/fisPWM.c **** //***********************************************************************
 305:..\source/fisPWM.c **** void fis_evaluate()
 306:..\source/fisPWM.c **** {
 798              		.loc 1 306 0
 799              		.cfi_startproc
 800              		@ args = 0, pretend = 0, frame = 464
 801              		@ frame_needed = 0, uses_anonymous_args = 0
 802 0000 2DE9F041 		push	{r4, r5, r6, r7, r8, lr}
 803              		.cfi_def_cfa_offset 24
 804              		.cfi_offset 4, -24
 805              		.cfi_offset 5, -20
 806              		.cfi_offset 6, -16
 807              		.cfi_offset 7, -12
 808              		.cfi_offset 8, -8
 809              		.cfi_offset 14, -4
 810 0004 F4B0     		sub	sp, sp, #464
 811              		.cfi_def_cfa_offset 488
 307:..\source/fisPWM.c ****     FIS_TYPE fuzzyInput0[] = { 0, 0, 0, 0, 0, 0, 0 };
 812              		.loc 1 307 0
 813 0006 0023     		movs	r3, #0
 814 0008 6D93     		str	r3, [sp, #436]	@ float
 815 000a 6E93     		str	r3, [sp, #440]	@ float
 816 000c 6F93     		str	r3, [sp, #444]	@ float
 817 000e 7093     		str	r3, [sp, #448]	@ float
 818 0010 7193     		str	r3, [sp, #452]	@ float
 819 0012 7293     		str	r3, [sp, #456]	@ float
 820 0014 7393     		str	r3, [sp, #460]	@ float
ARM GAS  C:\Users\Tim\AppData\Local\Temp\ccsA5uAx.s 			page 21


 308:..\source/fisPWM.c ****     FIS_TYPE fuzzyInput1[] = { 0, 0, 0, 0, 0, 0, 0 };
 821              		.loc 1 308 0
 822 0016 6693     		str	r3, [sp, #408]	@ float
 823 0018 6793     		str	r3, [sp, #412]	@ float
 824 001a 6893     		str	r3, [sp, #416]	@ float
 825 001c 6993     		str	r3, [sp, #420]	@ float
 826 001e 6A93     		str	r3, [sp, #424]	@ float
 827 0020 6B93     		str	r3, [sp, #428]	@ float
 828 0022 6C93     		str	r3, [sp, #432]	@ float
 309:..\source/fisPWM.c ****     //FIS_TYPE* fuzzyInput[fis_gcI] = { fuzzyInput0, fuzzyInput1, };
 310:..\source/fisPWM.c ****     FIS_TYPE* fuzzyInput[2] = { fuzzyInput0, fuzzyInput1, };
 829              		.loc 1 310 0
 830 0024 6DAB     		add	r3, sp, #436
 831 0026 6493     		str	r3, [sp, #400]
 832 0028 66AB     		add	r3, sp, #408
 833 002a 6593     		str	r3, [sp, #404]
 311:..\source/fisPWM.c ****     FIS_TYPE fuzzyOutput0[] = { 0, 0, 0, 0, 0, 0, 0 };
 312:..\source/fisPWM.c ****     //FIS_TYPE* fuzzyOutput[fis_gcO] = { fuzzyOutput0, };
 313:..\source/fisPWM.c ****     FIS_TYPE* fuzzyOutput[1] = { fuzzyOutput0, };
 314:..\source/fisPWM.c ****     //FIS_TYPE fuzzyRules[fis_gcR] = { 0 };
 315:..\source/fisPWM.c ****     FIS_TYPE fuzzyRules[49] = { 0 };
 834              		.loc 1 315 0
 835 002c 33AD     		add	r5, sp, #204
 836 002e C426     		movs	r6, #196
 837 0030 2846     		mov	r0, r5
 838 0032 0021     		movs	r1, #0
 839 0034 3246     		mov	r2, r6
 840 0036 FFF7FEFF 		bl	memset
 841              	.LVL132:
 316:..\source/fisPWM.c ****     //FIS_TYPE fuzzyFires[fis_gcR] = { 0 };
 317:..\source/fisPWM.c ****     FIS_TYPE fuzzyFires[49] = { 0 };
 842              		.loc 1 317 0
 843 003a 02AC     		add	r4, sp, #8
 844 003c 2046     		mov	r0, r4
 845 003e 0021     		movs	r1, #0
 846 0040 3246     		mov	r2, r6
 847 0042 FFF7FEFF 		bl	memset
 848              	.LVL133:
 318:..\source/fisPWM.c ****     FIS_TYPE* fuzzyRuleSet[] = { fuzzyRules, fuzzyFires };
 849              		.loc 1 318 0
 850 0046 0095     		str	r5, [sp]
 851 0048 0194     		str	r4, [sp, #4]
 852              	.LVL134:
 319:..\source/fisPWM.c ****     FIS_TYPE sW = 0;
 320:..\source/fisPWM.c **** 
 321:..\source/fisPWM.c ****     // Transforming input to fuzzy Input
 322:..\source/fisPWM.c ****     int i, j, r, o;
 323:..\source/fisPWM.c ****     for (i = 0; i < fis_gcI; ++i)
 853              		.loc 1 323 0
 854 004a 0025     		movs	r5, #0
 855 004c 23E0     		b	.L115
 856              	.LVL135:
 857              	.L116:
 324:..\source/fisPWM.c ****     {
 325:..\source/fisPWM.c ****         for (j = 0; j < fis_gIMFCount[i]; ++j)
 326:..\source/fisPWM.c ****         {
 327:..\source/fisPWM.c ****             fuzzyInput[i][j] =
ARM GAS  C:\Users\Tim\AppData\Local\Temp\ccsA5uAx.s 			page 22


 858              		.loc 1 327 0 discriminator 3
 859 004e AB00     		lsls	r3, r5, #2
 860 0050 74AA     		add	r2, sp, #464
 861 0052 1A44     		add	r2, r2, r3
 862 0054 52F8406C 		ldr	r6, [r2, #-64]
 328:..\source/fisPWM.c ****                 (fis_gMF[fis_gMFI[i][j]])(g_fisInput[i], fis_gMFICoeff[i][j]);
 863              		.loc 1 328 0 discriminator 3
 864 0058 7B4A     		ldr	r2, .L140
 865 005a 1344     		add	r3, r3, r2
 866 005c D3F8DC10 		ldr	r1, [r3, #220]
 867 0060 51F82410 		ldr	r1, [r1, r4, lsl #2]
 868 0064 02EB8102 		add	r2, r2, r1, lsl #2
 869 0068 D2F8C820 		ldr	r2, [r2, #200]
 870 006c D3F8E430 		ldr	r3, [r3, #228]
 871 0070 7649     		ldr	r1, .L140+4
 872 0072 51F82500 		ldr	r0, [r1, r5, lsl #2]	@ float
 873 0076 53F82410 		ldr	r1, [r3, r4, lsl #2]
 874 007a 9047     		blx	r2
 875              	.LVL136:
 327:..\source/fisPWM.c ****                 (fis_gMF[fis_gMFI[i][j]])(g_fisInput[i], fis_gMFICoeff[i][j]);
 876              		.loc 1 327 0 discriminator 3
 877 007c 46F82400 		str	r0, [r6, r4, lsl #2]	@ float
 325:..\source/fisPWM.c ****         {
 878              		.loc 1 325 0 discriminator 3
 879 0080 0134     		adds	r4, r4, #1
 880              	.LVL137:
 881 0082 00E0     		b	.L117
 882              	.LVL138:
 883              	.L137:
 884 0084 0024     		movs	r4, #0
 885              	.L117:
 886              	.LVL139:
 325:..\source/fisPWM.c ****         {
 887              		.loc 1 325 0 is_stmt 0 discriminator 1
 888 0086 704B     		ldr	r3, .L140
 889 0088 03EB8503 		add	r3, r3, r5, lsl #2
 890 008c D3F8EC30 		ldr	r3, [r3, #236]
 891 0090 A342     		cmp	r3, r4
 892 0092 DCDC     		bgt	.L116
 323:..\source/fisPWM.c ****     {
 893              		.loc 1 323 0 is_stmt 1 discriminator 2
 894 0094 0135     		adds	r5, r5, #1
 895              	.LVL140:
 896              	.L115:
 323:..\source/fisPWM.c ****     {
 897              		.loc 1 323 0 is_stmt 0 discriminator 1
 898 0096 012D     		cmp	r5, #1
 899 0098 F4DD     		ble	.L137
 900 009a 0024     		movs	r4, #0
 901 009c 0026     		movs	r6, #0
 902 009e A6E0     		b	.L118
 903              	.LVL141:
 904              	.L131:
 329:..\source/fisPWM.c ****         }
 330:..\source/fisPWM.c ****     }
 331:..\source/fisPWM.c **** 
 332:..\source/fisPWM.c ****     int index = 0;
ARM GAS  C:\Users\Tim\AppData\Local\Temp\ccsA5uAx.s 			page 23


 333:..\source/fisPWM.c ****     for (r = 0; r < fis_gcR; ++r)
 334:..\source/fisPWM.c ****     {
 335:..\source/fisPWM.c ****         if (fis_gRType[r] == 1)
 905              		.loc 1 335 0 is_stmt 1
 906 00a0 694B     		ldr	r3, .L140
 907 00a2 03EB8403 		add	r3, r3, r4, lsl #2
 908 00a6 D3F8F430 		ldr	r3, [r3, #244]
 909 00aa 012B     		cmp	r3, #1
 910 00ac 47D1     		bne	.L119
 336:..\source/fisPWM.c ****         {
 337:..\source/fisPWM.c ****             fuzzyFires[r] = FIS_MAX;
 911              		.loc 1 337 0
 912 00ae 684A     		ldr	r2, .L140+8
 913 00b0 02AB     		add	r3, sp, #8
 914 00b2 43F82420 		str	r2, [r3, r4, lsl #2]	@ float
 915              	.LVL142:
 338:..\source/fisPWM.c ****             for (i = 0; i < fis_gcI; ++i)
 916              		.loc 1 338 0
 917 00b6 0025     		movs	r5, #0
 918 00b8 3EE0     		b	.L120
 919              	.LVL143:
 920              	.L124:
 339:..\source/fisPWM.c ****             {
 340:..\source/fisPWM.c ****                 index = fis_gRI[r][i];
 921              		.loc 1 340 0
 922 00ba 634B     		ldr	r3, .L140
 923 00bc 03EB8403 		add	r3, r3, r4, lsl #2
 924 00c0 D3F8B831 		ldr	r3, [r3, #440]
 925 00c4 53F82530 		ldr	r3, [r3, r5, lsl #2]
 926              	.LVL144:
 341:..\source/fisPWM.c ****                 if (index > 0)
 927              		.loc 1 341 0
 928 00c8 002B     		cmp	r3, #0
 929 00ca 11DD     		ble	.L121
 342:..\source/fisPWM.c ****                     fuzzyFires[r] = fis_min(fuzzyFires[r], fuzzyInput[i][index - 1]);
 930              		.loc 1 342 0
 931 00cc 74AA     		add	r2, sp, #464
 932 00ce 02EB8502 		add	r2, r2, r5, lsl #2
 933 00d2 52F8402C 		ldr	r2, [r2, #-64]
 934 00d6 03F18043 		add	r3, r3, #1073741824
 935              	.LVL145:
 936 00da 013B     		subs	r3, r3, #1
 937 00dc 02AF     		add	r7, sp, #8
 938 00de 57F82400 		ldr	r0, [r7, r4, lsl #2]	@ float
 939 00e2 52F82310 		ldr	r1, [r2, r3, lsl #2]	@ float
 940 00e6 FFF7FEFF 		bl	fis_min
 941              	.LVL146:
 942 00ea 47F82400 		str	r0, [r7, r4, lsl #2]	@ float
 943 00ee 22E0     		b	.L122
 944              	.LVL147:
 945              	.L121:
 343:..\source/fisPWM.c ****                 else if (index < 0)
 946              		.loc 1 343 0
 947 00f0 002B     		cmp	r3, #0
 948 00f2 17DA     		bge	.L123
 344:..\source/fisPWM.c ****                     fuzzyFires[r] = fis_min(fuzzyFires[r], 1 - fuzzyInput[i][-index - 1]);
 949              		.loc 1 344 0
ARM GAS  C:\Users\Tim\AppData\Local\Temp\ccsA5uAx.s 			page 24


 950 00f4 74AA     		add	r2, sp, #464
 951 00f6 02EB8502 		add	r2, r2, r5, lsl #2
 952 00fa 52F8402C 		ldr	r2, [r2, #-64]
 953 00fe 9B00     		lsls	r3, r3, #2
 954              	.LVL148:
 955 0100 83F00303 		eor	r3, r3, #3
 956 0104 DB43     		mvns	r3, r3
 957 0106 02AF     		add	r7, sp, #8
 958 0108 57F82480 		ldr	r8, [r7, r4, lsl #2]	@ float
 959 010c 4FF07E50 		mov	r0, #1065353216
 960 0110 D158     		ldr	r1, [r2, r3]	@ float
 961 0112 FFF7FEFF 		bl	__aeabi_fsub
 962              	.LVL149:
 963 0116 0146     		mov	r1, r0
 964 0118 4046     		mov	r0, r8
 965 011a FFF7FEFF 		bl	fis_min
 966              	.LVL150:
 967 011e 47F82400 		str	r0, [r7, r4, lsl #2]	@ float
 968 0122 08E0     		b	.L122
 969              	.LVL151:
 970              	.L123:
 345:..\source/fisPWM.c ****                 else
 346:..\source/fisPWM.c ****                     fuzzyFires[r] = fis_min(fuzzyFires[r], 1);
 971              		.loc 1 346 0
 972 0124 02AF     		add	r7, sp, #8
 973 0126 57F82400 		ldr	r0, [r7, r4, lsl #2]	@ float
 974 012a 4FF07E51 		mov	r1, #1065353216
 975 012e FFF7FEFF 		bl	fis_min
 976              	.LVL152:
 977 0132 47F82400 		str	r0, [r7, r4, lsl #2]	@ float
 978              	.L122:
 338:..\source/fisPWM.c ****             {
 979              		.loc 1 338 0 discriminator 2
 980 0136 0135     		adds	r5, r5, #1
 981              	.LVL153:
 982              	.L120:
 338:..\source/fisPWM.c ****             {
 983              		.loc 1 338 0 is_stmt 0 discriminator 1
 984 0138 012D     		cmp	r5, #1
 985 013a BEDD     		ble	.L124
 986 013c 45E0     		b	.L125
 987              	.LVL154:
 988              	.L119:
 347:..\source/fisPWM.c ****             }
 348:..\source/fisPWM.c ****         }
 349:..\source/fisPWM.c ****         else
 350:..\source/fisPWM.c ****         {
 351:..\source/fisPWM.c ****             fuzzyFires[r] = FIS_MAX;
 989              		.loc 1 351 0 is_stmt 1
 990 013e 444A     		ldr	r2, .L140+8
 991 0140 02AB     		add	r3, sp, #8
 992 0142 43F82420 		str	r2, [r3, r4, lsl #2]	@ float
 993              	.LVL155:
 352:..\source/fisPWM.c ****             for (i = 0; i < fis_gcI; ++i)
 994              		.loc 1 352 0
 995 0146 0025     		movs	r5, #0
 996 0148 3DE0     		b	.L126
ARM GAS  C:\Users\Tim\AppData\Local\Temp\ccsA5uAx.s 			page 25


 997              	.LVL156:
 998              	.L130:
 353:..\source/fisPWM.c ****             {
 354:..\source/fisPWM.c ****                 index = fis_gRI[r][i];
 999              		.loc 1 354 0
 1000 014a 3F4B     		ldr	r3, .L140
 1001 014c 03EB8403 		add	r3, r3, r4, lsl #2
 1002 0150 D3F8B831 		ldr	r3, [r3, #440]
 1003 0154 53F82530 		ldr	r3, [r3, r5, lsl #2]
 1004              	.LVL157:
 355:..\source/fisPWM.c ****                 if (index > 0)
 1005              		.loc 1 355 0
 1006 0158 002B     		cmp	r3, #0
 1007 015a 11DD     		ble	.L127
 356:..\source/fisPWM.c ****                     fuzzyFires[r] = fis_min(fuzzyFires[r], fuzzyInput[i][index - 1]);
 1008              		.loc 1 356 0
 1009 015c 74AA     		add	r2, sp, #464
 1010 015e 02EB8502 		add	r2, r2, r5, lsl #2
 1011 0162 52F8402C 		ldr	r2, [r2, #-64]
 1012 0166 03F18043 		add	r3, r3, #1073741824
 1013              	.LVL158:
 1014 016a 013B     		subs	r3, r3, #1
 1015 016c 02AF     		add	r7, sp, #8
 1016 016e 57F82400 		ldr	r0, [r7, r4, lsl #2]	@ float
 1017 0172 52F82310 		ldr	r1, [r2, r3, lsl #2]	@ float
 1018 0176 FFF7FEFF 		bl	fis_min
 1019              	.LVL159:
 1020 017a 47F82400 		str	r0, [r7, r4, lsl #2]	@ float
 1021 017e 21E0     		b	.L128
 1022              	.LVL160:
 1023              	.L127:
 357:..\source/fisPWM.c ****                 else if (index < 0)
 1024              		.loc 1 357 0
 1025 0180 002B     		cmp	r3, #0
 1026 0182 17DA     		bge	.L129
 358:..\source/fisPWM.c ****                     fuzzyFires[r] = fis_min(fuzzyFires[r], 1 - fuzzyInput[i][-index - 1]);
 1027              		.loc 1 358 0
 1028 0184 74AA     		add	r2, sp, #464
 1029 0186 02EB8502 		add	r2, r2, r5, lsl #2
 1030 018a 52F8402C 		ldr	r2, [r2, #-64]
 1031 018e 9B00     		lsls	r3, r3, #2
 1032              	.LVL161:
 1033 0190 83F00303 		eor	r3, r3, #3
 1034 0194 DB43     		mvns	r3, r3
 1035 0196 02AF     		add	r7, sp, #8
 1036 0198 57F82480 		ldr	r8, [r7, r4, lsl #2]	@ float
 1037 019c 4FF07E50 		mov	r0, #1065353216
 1038 01a0 D158     		ldr	r1, [r2, r3]	@ float
 1039 01a2 FFF7FEFF 		bl	__aeabi_fsub
 1040              	.LVL162:
 1041 01a6 0146     		mov	r1, r0
 1042 01a8 4046     		mov	r0, r8
 1043 01aa FFF7FEFF 		bl	fis_min
 1044              	.LVL163:
 1045 01ae 47F82400 		str	r0, [r7, r4, lsl #2]	@ float
 1046 01b2 07E0     		b	.L128
 1047              	.LVL164:
ARM GAS  C:\Users\Tim\AppData\Local\Temp\ccsA5uAx.s 			page 26


 1048              	.L129:
 359:..\source/fisPWM.c ****                 else
 360:..\source/fisPWM.c ****                     fuzzyFires[r] = fis_min(fuzzyFires[r], 0);
 1049              		.loc 1 360 0
 1050 01b4 02AF     		add	r7, sp, #8
 1051 01b6 57F82400 		ldr	r0, [r7, r4, lsl #2]	@ float
 1052 01ba 0021     		movs	r1, #0
 1053 01bc FFF7FEFF 		bl	fis_min
 1054              	.LVL165:
 1055 01c0 47F82400 		str	r0, [r7, r4, lsl #2]	@ float
 1056              	.L128:
 352:..\source/fisPWM.c ****             {
 1057              		.loc 1 352 0 discriminator 2
 1058 01c4 0135     		adds	r5, r5, #1
 1059              	.LVL166:
 1060              	.L126:
 352:..\source/fisPWM.c ****             {
 1061              		.loc 1 352 0 is_stmt 0 discriminator 1
 1062 01c6 012D     		cmp	r5, #1
 1063 01c8 BFDD     		ble	.L130
 1064              	.L125:
 361:..\source/fisPWM.c ****             }
 362:..\source/fisPWM.c ****         }
 363:..\source/fisPWM.c **** 
 364:..\source/fisPWM.c ****         fuzzyFires[r] = fis_gRWeight[r] * fuzzyFires[r];
 1065              		.loc 1 364 0 is_stmt 1 discriminator 2
 1066 01ca 1F4B     		ldr	r3, .L140
 1067 01cc 03EB8403 		add	r3, r3, r4, lsl #2
 1068 01d0 02AD     		add	r5, sp, #8
 1069              	.LVL167:
 1070 01d2 D3F87C02 		ldr	r0, [r3, #636]	@ float
 1071 01d6 55F82410 		ldr	r1, [r5, r4, lsl #2]	@ float
 1072 01da FFF7FEFF 		bl	__aeabi_fmul
 1073              	.LVL168:
 1074 01de 0146     		mov	r1, r0
 1075 01e0 45F82400 		str	r0, [r5, r4, lsl #2]	@ float
 365:..\source/fisPWM.c ****         sW += fuzzyFires[r];
 1076              		.loc 1 365 0 discriminator 2
 1077 01e4 3046     		mov	r0, r6
 1078 01e6 FFF7FEFF 		bl	__aeabi_fadd
 1079              	.LVL169:
 1080 01ea 0646     		mov	r6, r0
 1081              	.LVL170:
 333:..\source/fisPWM.c ****     {
 1082              		.loc 1 333 0 discriminator 2
 1083 01ec 0134     		adds	r4, r4, #1
 1084              	.LVL171:
 1085              	.L118:
 333:..\source/fisPWM.c ****     {
 1086              		.loc 1 333 0 is_stmt 0 discriminator 1
 1087 01ee 302C     		cmp	r4, #48
 1088 01f0 7FF756AF 		ble	.L131
 366:..\source/fisPWM.c ****     }
 367:..\source/fisPWM.c **** 
 368:..\source/fisPWM.c ****     if (sW == 0)
 1089              		.loc 1 368 0 is_stmt 1
 1090 01f4 3046     		mov	r0, r6
ARM GAS  C:\Users\Tim\AppData\Local\Temp\ccsA5uAx.s 			page 27


 1091 01f6 0021     		movs	r1, #0
 1092 01f8 FFF7FEFF 		bl	__aeabi_fcmpeq
 1093              	.LVL172:
 1094 01fc 98B9     		cbnz	r0, .L138
 1095 01fe 0024     		movs	r4, #0
 1096              	.LVL173:
 1097 0200 1DE0     		b	.L133
 1098              	.LVL174:
 1099              	.L134:
 369:..\source/fisPWM.c ****     {
 370:..\source/fisPWM.c ****         for (o = 0; o < fis_gcO; ++o)
 371:..\source/fisPWM.c ****         {
 372:..\source/fisPWM.c ****             g_fisOutput[o] = ((fis_gOMax[o] + fis_gOMin[o]) / 2);
 1100              		.loc 1 372 0 discriminator 3
 1101 0202 114B     		ldr	r3, .L140
 1102 0204 03EB8403 		add	r3, r3, r4, lsl #2
 1103 0208 D3F8D400 		ldr	r0, [r3, #212]	@ float
 1104 020c D3F8D810 		ldr	r1, [r3, #216]	@ float
 1105 0210 FFF7FEFF 		bl	__aeabi_fadd
 1106              	.LVL175:
 1107 0214 4FF07C51 		mov	r1, #1056964608
 1108 0218 FFF7FEFF 		bl	__aeabi_fmul
 1109              	.LVL176:
 1110 021c 0D4B     		ldr	r3, .L140+12
 1111 021e 43F82400 		str	r0, [r3, r4, lsl #2]	@ float
 370:..\source/fisPWM.c ****         {
 1112              		.loc 1 370 0 discriminator 3
 1113 0222 0134     		adds	r4, r4, #1
 1114              	.LVL177:
 1115 0224 00E0     		b	.L132
 1116              	.LVL178:
 1117              	.L138:
 1118 0226 0024     		movs	r4, #0
 1119              	.LVL179:
 1120              	.L132:
 370:..\source/fisPWM.c ****         {
 1121              		.loc 1 370 0 is_stmt 0 discriminator 1
 1122 0228 002C     		cmp	r4, #0
 1123 022a EADD     		ble	.L134
 1124 022c 09E0     		b	.L114
 1125              	.L136:
 373:..\source/fisPWM.c ****         }
 374:..\source/fisPWM.c ****     }
 375:..\source/fisPWM.c ****     else
 376:..\source/fisPWM.c ****     {
 377:..\source/fisPWM.c ****         for (o = 0; o < fis_gcO; ++o)
 378:..\source/fisPWM.c ****         {
 379:..\source/fisPWM.c ****             g_fisOutput[o] = fis_defuzz_centroid(fuzzyRuleSet, o);
 1126              		.loc 1 379 0 is_stmt 1 discriminator 3
 1127 022e 6846     		mov	r0, sp
 1128 0230 2146     		mov	r1, r4
 1129 0232 FFF7FEFF 		bl	fis_defuzz_centroid
 1130              	.LVL180:
 1131 0236 074B     		ldr	r3, .L140+12
 1132 0238 43F82400 		str	r0, [r3, r4, lsl #2]	@ float
 377:..\source/fisPWM.c ****         {
 1133              		.loc 1 377 0 discriminator 3
ARM GAS  C:\Users\Tim\AppData\Local\Temp\ccsA5uAx.s 			page 28


 1134 023c 0134     		adds	r4, r4, #1
 1135              	.LVL181:
 1136              	.L133:
 377:..\source/fisPWM.c ****         {
 1137              		.loc 1 377 0 is_stmt 0 discriminator 1
 1138 023e 002C     		cmp	r4, #0
 1139 0240 F5DD     		ble	.L136
 1140              	.L114:
 380:..\source/fisPWM.c ****         }
 381:..\source/fisPWM.c ****     }
 382:..\source/fisPWM.c **** }
 1141              		.loc 1 382 0 is_stmt 1
 1142 0242 74B0     		add	sp, sp, #464
 1143              		.cfi_def_cfa_offset 24
 1144              		@ sp needed
 1145 0244 BDE8F081 		pop	{r4, r5, r6, r7, r8, pc}
 1146              	.LVL182:
 1147              	.L141:
 1148              		.align	2
 1149              	.L140:
 1150 0248 00000000 		.word	.LANCHOR0
 1151 024c 00000000 		.word	g_fisInput
 1152 0250 FFFF7F7F 		.word	2139095039
 1153 0254 00000000 		.word	g_fisOutput
 1154              		.cfi_endproc
 1155              	.LFE70:
 1156              		.size	fis_evaluate, .-fis_evaluate
 1157              		.section	.text.loop,"ax",%progbits
 1158              		.align	2
 1159              		.global	loop
 1160              		.thumb
 1161              		.thumb_func
 1162              		.type	loop, %function
 1163              	loop:
 1164              	.LFB71:
 383:..\source/fisPWM.c **** 
 384:..\source/fisPWM.c **** // Loop routine runs over and over again forever:
 385:..\source/fisPWM.c **** void loop()
 386:..\source/fisPWM.c **** {    
 1165              		.loc 1 386 0
 1166              		.cfi_startproc
 1167              		@ args = 0, pretend = 0, frame = 0
 1168              		@ frame_needed = 0, uses_anonymous_args = 0
 1169 0000 08B5     		push	{r3, lr}
 1170              		.cfi_def_cfa_offset 8
 1171              		.cfi_offset 3, -8
 1172              		.cfi_offset 14, -4
 387:..\source/fisPWM.c ****     // Read Input: Error
 388:..\source/fisPWM.c ****     g_fisInput[0] = 0.8;
 1173              		.loc 1 388 0
 1174 0002 054A     		ldr	r2, .L144
 1175 0004 054B     		ldr	r3, .L144+4
 1176 0006 1360     		str	r3, [r2]	@ float
 389:..\source/fisPWM.c ****     // Read Input: dError
 390:..\source/fisPWM.c ****     g_fisInput[1] = 0.0;
 1177              		.loc 1 390 0
 1178 0008 0023     		movs	r3, #0
ARM GAS  C:\Users\Tim\AppData\Local\Temp\ccsA5uAx.s 			page 29


 1179 000a 5360     		str	r3, [r2, #4]	@ float
 391:..\source/fisPWM.c **** 
 392:..\source/fisPWM.c ****     g_fisOutput[0] = 0;
 1180              		.loc 1 392 0
 1181 000c 044A     		ldr	r2, .L144+8
 1182 000e 1360     		str	r3, [r2]	@ float
 393:..\source/fisPWM.c **** 
 394:..\source/fisPWM.c ****     fis_evaluate();
 1183              		.loc 1 394 0
 1184 0010 FFF7FEFF 		bl	fis_evaluate
 1185              	.LVL183:
 1186 0014 08BD     		pop	{r3, pc}
 1187              	.L145:
 1188 0016 00BF     		.align	2
 1189              	.L144:
 1190 0018 00000000 		.word	g_fisInput
 1191 001c CDCC4C3F 		.word	1061997773
 1192 0020 00000000 		.word	g_fisOutput
 1193              		.cfi_endproc
 1194              	.LFE71:
 1195              		.size	loop, .-loop
 1196              		.global	fis_gOMax
 1197              		.global	fis_gOMin
 1198              		.global	fis_gIMax
 1199              		.global	fis_gIMin
 1200              		.global	fis_gRO
 1201              		.global	fis_gRO48
 1202              		.global	fis_gRO47
 1203              		.global	fis_gRO46
 1204              		.global	fis_gRO45
 1205              		.global	fis_gRO44
 1206              		.global	fis_gRO43
 1207              		.global	fis_gRO42
 1208              		.global	fis_gRO41
 1209              		.global	fis_gRO40
 1210              		.global	fis_gRO39
 1211              		.global	fis_gRO38
 1212              		.global	fis_gRO37
 1213              		.global	fis_gRO36
 1214              		.global	fis_gRO35
 1215              		.global	fis_gRO34
 1216              		.global	fis_gRO33
 1217              		.global	fis_gRO32
 1218              		.global	fis_gRO31
 1219              		.global	fis_gRO30
 1220              		.global	fis_gRO29
 1221              		.global	fis_gRO28
 1222              		.global	fis_gRO27
 1223              		.global	fis_gRO26
 1224              		.global	fis_gRO25
 1225              		.global	fis_gRO24
 1226              		.global	fis_gRO23
 1227              		.global	fis_gRO22
 1228              		.global	fis_gRO21
 1229              		.global	fis_gRO20
 1230              		.global	fis_gRO19
 1231              		.global	fis_gRO18
ARM GAS  C:\Users\Tim\AppData\Local\Temp\ccsA5uAx.s 			page 30


 1232              		.global	fis_gRO17
 1233              		.global	fis_gRO16
 1234              		.global	fis_gRO15
 1235              		.global	fis_gRO14
 1236              		.global	fis_gRO13
 1237              		.global	fis_gRO12
 1238              		.global	fis_gRO11
 1239              		.global	fis_gRO10
 1240              		.global	fis_gRO9
 1241              		.global	fis_gRO8
 1242              		.global	fis_gRO7
 1243              		.global	fis_gRO6
 1244              		.global	fis_gRO5
 1245              		.global	fis_gRO4
 1246              		.global	fis_gRO3
 1247              		.global	fis_gRO2
 1248              		.global	fis_gRO1
 1249              		.global	fis_gRO0
 1250              		.global	fis_gRI
 1251              		.global	fis_gRI48
 1252              		.global	fis_gRI47
 1253              		.global	fis_gRI46
 1254              		.global	fis_gRI45
 1255              		.global	fis_gRI44
 1256              		.global	fis_gRI43
 1257              		.global	fis_gRI42
 1258              		.global	fis_gRI41
 1259              		.global	fis_gRI40
 1260              		.global	fis_gRI39
 1261              		.global	fis_gRI38
 1262              		.global	fis_gRI37
 1263              		.global	fis_gRI36
 1264              		.global	fis_gRI35
 1265              		.global	fis_gRI34
 1266              		.global	fis_gRI33
 1267              		.global	fis_gRI32
 1268              		.global	fis_gRI31
 1269              		.global	fis_gRI30
 1270              		.global	fis_gRI29
 1271              		.global	fis_gRI28
 1272              		.global	fis_gRI27
 1273              		.global	fis_gRI26
 1274              		.global	fis_gRI25
 1275              		.global	fis_gRI24
 1276              		.global	fis_gRI23
 1277              		.global	fis_gRI22
 1278              		.global	fis_gRI21
 1279              		.global	fis_gRI20
 1280              		.global	fis_gRI19
 1281              		.global	fis_gRI18
 1282              		.global	fis_gRI17
 1283              		.global	fis_gRI16
 1284              		.global	fis_gRI15
 1285              		.global	fis_gRI14
 1286              		.global	fis_gRI13
 1287              		.global	fis_gRI12
 1288              		.global	fis_gRI11
ARM GAS  C:\Users\Tim\AppData\Local\Temp\ccsA5uAx.s 			page 31


 1289              		.global	fis_gRI10
 1290              		.global	fis_gRI9
 1291              		.global	fis_gRI8
 1292              		.global	fis_gRI7
 1293              		.global	fis_gRI6
 1294              		.global	fis_gRI5
 1295              		.global	fis_gRI4
 1296              		.global	fis_gRI3
 1297              		.global	fis_gRI2
 1298              		.global	fis_gRI1
 1299              		.global	fis_gRI0
 1300              		.global	fis_gRType
 1301              		.global	fis_gRWeight
 1302              		.global	fis_gMFO
 1303              		.global	fis_gMFO0
 1304              		.global	fis_gMFI
 1305              		.global	fis_gMFI1
 1306              		.global	fis_gMFI0
 1307              		.global	fis_gMFOCoeff
 1308              		.global	fis_gMFO0Coeff
 1309              		.global	fis_gMFO0Coeff7
 1310              		.global	fis_gMFO0Coeff6
 1311              		.global	fis_gMFO0Coeff5
 1312              		.global	fis_gMFO0Coeff4
 1313              		.global	fis_gMFO0Coeff3
 1314              		.global	fis_gMFO0Coeff2
 1315              		.global	fis_gMFO0Coeff1
 1316              		.global	fis_gMFICoeff
 1317              		.global	fis_gMFI1Coeff
 1318              		.global	fis_gMFI1Coeff7
 1319              		.global	fis_gMFI1Coeff6
 1320              		.global	fis_gMFI1Coeff5
 1321              		.global	fis_gMFI1Coeff4
 1322              		.global	fis_gMFI1Coeff3
 1323              		.global	fis_gMFI1Coeff2
 1324              		.global	fis_gMFI1Coeff1
 1325              		.global	fis_gMFI0Coeff
 1326              		.global	fis_gMFI0Coeff7
 1327              		.global	fis_gMFI0Coeff6
 1328              		.global	fis_gMFI0Coeff5
 1329              		.global	fis_gMFI0Coeff4
 1330              		.global	fis_gMFI0Coeff3
 1331              		.global	fis_gMFI0Coeff2
 1332              		.global	fis_gMFI0Coeff1
 1333              		.global	fis_gOMFCount
 1334              		.global	fis_gIMFCount
 1335              		.global	fis_gMF
 1336              		.comm	g_fisOutput,4,4
 1337              		.comm	g_fisInput,8,4
 1338              		.global	fis_gcR
 1339              		.global	fis_gcO
 1340              		.global	fis_gcI
 1341              		.section	.rodata
 1342              		.align	2
 1343              		.type	fis_gcR, %object
 1344              		.size	fis_gcR, 4
 1345              	fis_gcR:
ARM GAS  C:\Users\Tim\AppData\Local\Temp\ccsA5uAx.s 			page 32


 1346 0000 31000000 		.word	49
 1347              		.type	fis_gcO, %object
 1348              		.size	fis_gcO, 4
 1349              	fis_gcO:
 1350 0004 01000000 		.word	1
 1351              		.type	fis_gcI, %object
 1352              		.size	fis_gcI, 4
 1353              	fis_gcI:
 1354 0008 02000000 		.word	2
 1355              		.data
 1356              		.align	2
 1357              		.set	.LANCHOR0,. + 0
 1358              		.type	fis_gRO, %object
 1359              		.size	fis_gRO, 196
 1360              	fis_gRO:
 1361 0000 00000000 		.word	fis_gRO0
 1362 0004 00000000 		.word	fis_gRO1
 1363 0008 00000000 		.word	fis_gRO2
 1364 000c 00000000 		.word	fis_gRO3
 1365 0010 00000000 		.word	fis_gRO4
 1366 0014 00000000 		.word	fis_gRO5
 1367 0018 00000000 		.word	fis_gRO6
 1368 001c 00000000 		.word	fis_gRO7
 1369 0020 00000000 		.word	fis_gRO8
 1370 0024 00000000 		.word	fis_gRO9
 1371 0028 00000000 		.word	fis_gRO10
 1372 002c 00000000 		.word	fis_gRO11
 1373 0030 00000000 		.word	fis_gRO12
 1374 0034 00000000 		.word	fis_gRO13
 1375 0038 00000000 		.word	fis_gRO14
 1376 003c 00000000 		.word	fis_gRO15
 1377 0040 00000000 		.word	fis_gRO16
 1378 0044 00000000 		.word	fis_gRO17
 1379 0048 00000000 		.word	fis_gRO18
 1380 004c 00000000 		.word	fis_gRO19
 1381 0050 00000000 		.word	fis_gRO20
 1382 0054 00000000 		.word	fis_gRO21
 1383 0058 00000000 		.word	fis_gRO22
 1384 005c 00000000 		.word	fis_gRO23
 1385 0060 00000000 		.word	fis_gRO24
 1386 0064 00000000 		.word	fis_gRO25
 1387 0068 00000000 		.word	fis_gRO26
 1388 006c 00000000 		.word	fis_gRO27
 1389 0070 00000000 		.word	fis_gRO28
 1390 0074 00000000 		.word	fis_gRO29
 1391 0078 00000000 		.word	fis_gRO30
 1392 007c 00000000 		.word	fis_gRO31
 1393 0080 00000000 		.word	fis_gRO32
 1394 0084 00000000 		.word	fis_gRO33
 1395 0088 00000000 		.word	fis_gRO34
 1396 008c 00000000 		.word	fis_gRO35
 1397 0090 00000000 		.word	fis_gRO36
 1398 0094 00000000 		.word	fis_gRO37
 1399 0098 00000000 		.word	fis_gRO38
 1400 009c 00000000 		.word	fis_gRO39
 1401 00a0 00000000 		.word	fis_gRO40
 1402 00a4 00000000 		.word	fis_gRO41
ARM GAS  C:\Users\Tim\AppData\Local\Temp\ccsA5uAx.s 			page 33


 1403 00a8 00000000 		.word	fis_gRO42
 1404 00ac 00000000 		.word	fis_gRO43
 1405 00b0 00000000 		.word	fis_gRO44
 1406 00b4 00000000 		.word	fis_gRO45
 1407 00b8 00000000 		.word	fis_gRO46
 1408 00bc 00000000 		.word	fis_gRO47
 1409 00c0 00000000 		.word	fis_gRO48
 1410              		.type	fis_gMFO, %object
 1411              		.size	fis_gMFO, 4
 1412              	fis_gMFO:
 1413 00c4 00000000 		.word	fis_gMFO0
 1414              		.type	fis_gMF, %object
 1415              		.size	fis_gMF, 8
 1416              	fis_gMF:
 1417 00c8 00000000 		.word	fis_trapmf
 1418 00cc 00000000 		.word	fis_trimf
 1419              		.type	fis_gMFOCoeff, %object
 1420              		.size	fis_gMFOCoeff, 4
 1421              	fis_gMFOCoeff:
 1422 00d0 00000000 		.word	fis_gMFO0Coeff
 1423              		.type	fis_gOMax, %object
 1424              		.size	fis_gOMax, 4
 1425              	fis_gOMax:
 1426 00d4 0000803F 		.word	1065353216
 1427              		.type	fis_gOMin, %object
 1428              		.size	fis_gOMin, 4
 1429              	fis_gOMin:
 1430 00d8 000080BF 		.word	-1082130432
 1431              		.type	fis_gMFI, %object
 1432              		.size	fis_gMFI, 8
 1433              	fis_gMFI:
 1434 00dc 00000000 		.word	fis_gMFI0
 1435 00e0 00000000 		.word	fis_gMFI1
 1436              		.type	fis_gMFICoeff, %object
 1437              		.size	fis_gMFICoeff, 8
 1438              	fis_gMFICoeff:
 1439 00e4 00000000 		.word	fis_gMFI0Coeff
 1440 00e8 00000000 		.word	fis_gMFI1Coeff
 1441              		.type	fis_gIMFCount, %object
 1442              		.size	fis_gIMFCount, 8
 1443              	fis_gIMFCount:
 1444 00ec 07000000 		.word	7
 1445 00f0 07000000 		.word	7
 1446              		.type	fis_gRType, %object
 1447              		.size	fis_gRType, 196
 1448              	fis_gRType:
 1449 00f4 01000000 		.word	1
 1450 00f8 01000000 		.word	1
 1451 00fc 01000000 		.word	1
 1452 0100 01000000 		.word	1
 1453 0104 01000000 		.word	1
 1454 0108 01000000 		.word	1
 1455 010c 01000000 		.word	1
 1456 0110 01000000 		.word	1
 1457 0114 01000000 		.word	1
 1458 0118 01000000 		.word	1
 1459 011c 01000000 		.word	1
ARM GAS  C:\Users\Tim\AppData\Local\Temp\ccsA5uAx.s 			page 34


 1460 0120 01000000 		.word	1
 1461 0124 01000000 		.word	1
 1462 0128 01000000 		.word	1
 1463 012c 01000000 		.word	1
 1464 0130 01000000 		.word	1
 1465 0134 01000000 		.word	1
 1466 0138 01000000 		.word	1
 1467 013c 01000000 		.word	1
 1468 0140 01000000 		.word	1
 1469 0144 01000000 		.word	1
 1470 0148 01000000 		.word	1
 1471 014c 01000000 		.word	1
 1472 0150 01000000 		.word	1
 1473 0154 01000000 		.word	1
 1474 0158 01000000 		.word	1
 1475 015c 01000000 		.word	1
 1476 0160 01000000 		.word	1
 1477 0164 01000000 		.word	1
 1478 0168 01000000 		.word	1
 1479 016c 01000000 		.word	1
 1480 0170 01000000 		.word	1
 1481 0174 01000000 		.word	1
 1482 0178 01000000 		.word	1
 1483 017c 01000000 		.word	1
 1484 0180 01000000 		.word	1
 1485 0184 01000000 		.word	1
 1486 0188 01000000 		.word	1
 1487 018c 01000000 		.word	1
 1488 0190 01000000 		.word	1
 1489 0194 01000000 		.word	1
 1490 0198 01000000 		.word	1
 1491 019c 01000000 		.word	1
 1492 01a0 01000000 		.word	1
 1493 01a4 01000000 		.word	1
 1494 01a8 01000000 		.word	1
 1495 01ac 01000000 		.word	1
 1496 01b0 01000000 		.word	1
 1497 01b4 01000000 		.word	1
 1498              		.type	fis_gRI, %object
 1499              		.size	fis_gRI, 196
 1500              	fis_gRI:
 1501 01b8 00000000 		.word	fis_gRI0
 1502 01bc 00000000 		.word	fis_gRI1
 1503 01c0 00000000 		.word	fis_gRI2
 1504 01c4 00000000 		.word	fis_gRI3
 1505 01c8 00000000 		.word	fis_gRI4
 1506 01cc 00000000 		.word	fis_gRI5
 1507 01d0 00000000 		.word	fis_gRI6
 1508 01d4 00000000 		.word	fis_gRI7
 1509 01d8 00000000 		.word	fis_gRI8
 1510 01dc 00000000 		.word	fis_gRI9
 1511 01e0 00000000 		.word	fis_gRI10
 1512 01e4 00000000 		.word	fis_gRI11
 1513 01e8 00000000 		.word	fis_gRI12
 1514 01ec 00000000 		.word	fis_gRI13
 1515 01f0 00000000 		.word	fis_gRI14
 1516 01f4 00000000 		.word	fis_gRI15
ARM GAS  C:\Users\Tim\AppData\Local\Temp\ccsA5uAx.s 			page 35


 1517 01f8 00000000 		.word	fis_gRI16
 1518 01fc 00000000 		.word	fis_gRI17
 1519 0200 00000000 		.word	fis_gRI18
 1520 0204 00000000 		.word	fis_gRI19
 1521 0208 00000000 		.word	fis_gRI20
 1522 020c 00000000 		.word	fis_gRI21
 1523 0210 00000000 		.word	fis_gRI22
 1524 0214 00000000 		.word	fis_gRI23
 1525 0218 00000000 		.word	fis_gRI24
 1526 021c 00000000 		.word	fis_gRI25
 1527 0220 00000000 		.word	fis_gRI26
 1528 0224 00000000 		.word	fis_gRI27
 1529 0228 00000000 		.word	fis_gRI28
 1530 022c 00000000 		.word	fis_gRI29
 1531 0230 00000000 		.word	fis_gRI30
 1532 0234 00000000 		.word	fis_gRI31
 1533 0238 00000000 		.word	fis_gRI32
 1534 023c 00000000 		.word	fis_gRI33
 1535 0240 00000000 		.word	fis_gRI34
 1536 0244 00000000 		.word	fis_gRI35
 1537 0248 00000000 		.word	fis_gRI36
 1538 024c 00000000 		.word	fis_gRI37
 1539 0250 00000000 		.word	fis_gRI38
 1540 0254 00000000 		.word	fis_gRI39
 1541 0258 00000000 		.word	fis_gRI40
 1542 025c 00000000 		.word	fis_gRI41
 1543 0260 00000000 		.word	fis_gRI42
 1544 0264 00000000 		.word	fis_gRI43
 1545 0268 00000000 		.word	fis_gRI44
 1546 026c 00000000 		.word	fis_gRI45
 1547 0270 00000000 		.word	fis_gRI46
 1548 0274 00000000 		.word	fis_gRI47
 1549 0278 00000000 		.word	fis_gRI48
 1550              		.type	fis_gRWeight, %object
 1551              		.size	fis_gRWeight, 196
 1552              	fis_gRWeight:
 1553 027c 0000803F 		.word	1065353216
 1554 0280 0000803F 		.word	1065353216
 1555 0284 0000803F 		.word	1065353216
 1556 0288 0000803F 		.word	1065353216
 1557 028c 0000803F 		.word	1065353216
 1558 0290 0000803F 		.word	1065353216
 1559 0294 0000803F 		.word	1065353216
 1560 0298 0000803F 		.word	1065353216
 1561 029c 0000803F 		.word	1065353216
 1562 02a0 0000803F 		.word	1065353216
 1563 02a4 0000803F 		.word	1065353216
 1564 02a8 0000803F 		.word	1065353216
 1565 02ac 0000803F 		.word	1065353216
 1566 02b0 0000803F 		.word	1065353216
 1567 02b4 0000803F 		.word	1065353216
 1568 02b8 0000803F 		.word	1065353216
 1569 02bc 0000803F 		.word	1065353216
 1570 02c0 0000803F 		.word	1065353216
 1571 02c4 0000803F 		.word	1065353216
 1572 02c8 0000803F 		.word	1065353216
 1573 02cc 0000803F 		.word	1065353216
ARM GAS  C:\Users\Tim\AppData\Local\Temp\ccsA5uAx.s 			page 36


 1574 02d0 0000803F 		.word	1065353216
 1575 02d4 0000803F 		.word	1065353216
 1576 02d8 0000803F 		.word	1065353216
 1577 02dc 0000803F 		.word	1065353216
 1578 02e0 0000803F 		.word	1065353216
 1579 02e4 0000803F 		.word	1065353216
 1580 02e8 0000803F 		.word	1065353216
 1581 02ec 0000803F 		.word	1065353216
 1582 02f0 0000803F 		.word	1065353216
 1583 02f4 0000803F 		.word	1065353216
 1584 02f8 0000803F 		.word	1065353216
 1585 02fc 0000803F 		.word	1065353216
 1586 0300 0000803F 		.word	1065353216
 1587 0304 0000803F 		.word	1065353216
 1588 0308 0000803F 		.word	1065353216
 1589 030c 0000803F 		.word	1065353216
 1590 0310 0000803F 		.word	1065353216
 1591 0314 0000803F 		.word	1065353216
 1592 0318 0000803F 		.word	1065353216
 1593 031c 0000803F 		.word	1065353216
 1594 0320 0000803F 		.word	1065353216
 1595 0324 0000803F 		.word	1065353216
 1596 0328 0000803F 		.word	1065353216
 1597 032c 0000803F 		.word	1065353216
 1598 0330 0000803F 		.word	1065353216
 1599 0334 0000803F 		.word	1065353216
 1600 0338 0000803F 		.word	1065353216
 1601 033c 0000803F 		.word	1065353216
 1602              		.type	fis_gIMax, %object
 1603              		.size	fis_gIMax, 8
 1604              	fis_gIMax:
 1605 0340 0000803F 		.word	1065353216
 1606 0344 0000803F 		.word	1065353216
 1607              		.type	fis_gIMin, %object
 1608              		.size	fis_gIMin, 8
 1609              	fis_gIMin:
 1610 0348 000080BF 		.word	-1082130432
 1611 034c 000080BF 		.word	-1082130432
 1612              		.type	fis_gRO48, %object
 1613              		.size	fis_gRO48, 4
 1614              	fis_gRO48:
 1615 0350 07000000 		.word	7
 1616              		.type	fis_gRO47, %object
 1617              		.size	fis_gRO47, 4
 1618              	fis_gRO47:
 1619 0354 07000000 		.word	7
 1620              		.type	fis_gRO46, %object
 1621              		.size	fis_gRO46, 4
 1622              	fis_gRO46:
 1623 0358 07000000 		.word	7
 1624              		.type	fis_gRO45, %object
 1625              		.size	fis_gRO45, 4
 1626              	fis_gRO45:
 1627 035c 06000000 		.word	6
 1628              		.type	fis_gRO44, %object
 1629              		.size	fis_gRO44, 4
 1630              	fis_gRO44:
ARM GAS  C:\Users\Tim\AppData\Local\Temp\ccsA5uAx.s 			page 37


 1631 0360 06000000 		.word	6
 1632              		.type	fis_gRO43, %object
 1633              		.size	fis_gRO43, 4
 1634              	fis_gRO43:
 1635 0364 05000000 		.word	5
 1636              		.type	fis_gRO42, %object
 1637              		.size	fis_gRO42, 4
 1638              	fis_gRO42:
 1639 0368 04000000 		.word	4
 1640              		.type	fis_gRO41, %object
 1641              		.size	fis_gRO41, 4
 1642              	fis_gRO41:
 1643 036c 07000000 		.word	7
 1644              		.type	fis_gRO40, %object
 1645              		.size	fis_gRO40, 4
 1646              	fis_gRO40:
 1647 0370 07000000 		.word	7
 1648              		.type	fis_gRO39, %object
 1649              		.size	fis_gRO39, 4
 1650              	fis_gRO39:
 1651 0374 06000000 		.word	6
 1652              		.type	fis_gRO38, %object
 1653              		.size	fis_gRO38, 4
 1654              	fis_gRO38:
 1655 0378 06000000 		.word	6
 1656              		.type	fis_gRO37, %object
 1657              		.size	fis_gRO37, 4
 1658              	fis_gRO37:
 1659 037c 05000000 		.word	5
 1660              		.type	fis_gRO36, %object
 1661              		.size	fis_gRO36, 4
 1662              	fis_gRO36:
 1663 0380 04000000 		.word	4
 1664              		.type	fis_gRO35, %object
 1665              		.size	fis_gRO35, 4
 1666              	fis_gRO35:
 1667 0384 03000000 		.word	3
 1668              		.type	fis_gRO34, %object
 1669              		.size	fis_gRO34, 4
 1670              	fis_gRO34:
 1671 0388 07000000 		.word	7
 1672              		.type	fis_gRO33, %object
 1673              		.size	fis_gRO33, 4
 1674              	fis_gRO33:
 1675 038c 06000000 		.word	6
 1676              		.type	fis_gRO32, %object
 1677              		.size	fis_gRO32, 4
 1678              	fis_gRO32:
 1679 0390 06000000 		.word	6
 1680              		.type	fis_gRO31, %object
 1681              		.size	fis_gRO31, 4
 1682              	fis_gRO31:
 1683 0394 05000000 		.word	5
 1684              		.type	fis_gRO30, %object
 1685              		.size	fis_gRO30, 4
 1686              	fis_gRO30:
 1687 0398 04000000 		.word	4
ARM GAS  C:\Users\Tim\AppData\Local\Temp\ccsA5uAx.s 			page 38


 1688              		.type	fis_gRO29, %object
 1689              		.size	fis_gRO29, 4
 1690              	fis_gRO29:
 1691 039c 03000000 		.word	3
 1692              		.type	fis_gRO28, %object
 1693              		.size	fis_gRO28, 4
 1694              	fis_gRO28:
 1695 03a0 02000000 		.word	2
 1696              		.type	fis_gRO27, %object
 1697              		.size	fis_gRO27, 4
 1698              	fis_gRO27:
 1699 03a4 06000000 		.word	6
 1700              		.type	fis_gRO26, %object
 1701              		.size	fis_gRO26, 4
 1702              	fis_gRO26:
 1703 03a8 06000000 		.word	6
 1704              		.type	fis_gRO25, %object
 1705              		.size	fis_gRO25, 4
 1706              	fis_gRO25:
 1707 03ac 05000000 		.word	5
 1708              		.type	fis_gRO24, %object
 1709              		.size	fis_gRO24, 4
 1710              	fis_gRO24:
 1711 03b0 04000000 		.word	4
 1712              		.type	fis_gRO23, %object
 1713              		.size	fis_gRO23, 4
 1714              	fis_gRO23:
 1715 03b4 03000000 		.word	3
 1716              		.type	fis_gRO22, %object
 1717              		.size	fis_gRO22, 4
 1718              	fis_gRO22:
 1719 03b8 02000000 		.word	2
 1720              		.type	fis_gRO21, %object
 1721              		.size	fis_gRO21, 4
 1722              	fis_gRO21:
 1723 03bc 02000000 		.word	2
 1724              		.type	fis_gRO20, %object
 1725              		.size	fis_gRO20, 4
 1726              	fis_gRO20:
 1727 03c0 06000000 		.word	6
 1728              		.type	fis_gRO19, %object
 1729              		.size	fis_gRO19, 4
 1730              	fis_gRO19:
 1731 03c4 05000000 		.word	5
 1732              		.type	fis_gRO18, %object
 1733              		.size	fis_gRO18, 4
 1734              	fis_gRO18:
 1735 03c8 04000000 		.word	4
 1736              		.type	fis_gRO17, %object
 1737              		.size	fis_gRO17, 4
 1738              	fis_gRO17:
 1739 03cc 03000000 		.word	3
 1740              		.type	fis_gRO16, %object
 1741              		.size	fis_gRO16, 4
 1742              	fis_gRO16:
 1743 03d0 02000000 		.word	2
 1744              		.type	fis_gRO15, %object
ARM GAS  C:\Users\Tim\AppData\Local\Temp\ccsA5uAx.s 			page 39


 1745              		.size	fis_gRO15, 4
 1746              	fis_gRO15:
 1747 03d4 02000000 		.word	2
 1748              		.type	fis_gRO14, %object
 1749              		.size	fis_gRO14, 4
 1750              	fis_gRO14:
 1751 03d8 01000000 		.word	1
 1752              		.type	fis_gRO13, %object
 1753              		.size	fis_gRO13, 4
 1754              	fis_gRO13:
 1755 03dc 05000000 		.word	5
 1756              		.type	fis_gRO12, %object
 1757              		.size	fis_gRO12, 4
 1758              	fis_gRO12:
 1759 03e0 04000000 		.word	4
 1760              		.type	fis_gRO11, %object
 1761              		.size	fis_gRO11, 4
 1762              	fis_gRO11:
 1763 03e4 03000000 		.word	3
 1764              		.type	fis_gRO10, %object
 1765              		.size	fis_gRO10, 4
 1766              	fis_gRO10:
 1767 03e8 02000000 		.word	2
 1768              		.type	fis_gRO9, %object
 1769              		.size	fis_gRO9, 4
 1770              	fis_gRO9:
 1771 03ec 02000000 		.word	2
 1772              		.type	fis_gRO8, %object
 1773              		.size	fis_gRO8, 4
 1774              	fis_gRO8:
 1775 03f0 01000000 		.word	1
 1776              		.type	fis_gRO7, %object
 1777              		.size	fis_gRO7, 4
 1778              	fis_gRO7:
 1779 03f4 01000000 		.word	1
 1780              		.type	fis_gRO6, %object
 1781              		.size	fis_gRO6, 4
 1782              	fis_gRO6:
 1783 03f8 04000000 		.word	4
 1784              		.type	fis_gRO5, %object
 1785              		.size	fis_gRO5, 4
 1786              	fis_gRO5:
 1787 03fc 03000000 		.word	3
 1788              		.type	fis_gRO4, %object
 1789              		.size	fis_gRO4, 4
 1790              	fis_gRO4:
 1791 0400 01000000 		.word	1
 1792              		.type	fis_gRO3, %object
 1793              		.size	fis_gRO3, 4
 1794              	fis_gRO3:
 1795 0404 02000000 		.word	2
 1796              		.type	fis_gRO2, %object
 1797              		.size	fis_gRO2, 4
 1798              	fis_gRO2:
 1799 0408 01000000 		.word	1
 1800              		.type	fis_gRO1, %object
 1801              		.size	fis_gRO1, 4
ARM GAS  C:\Users\Tim\AppData\Local\Temp\ccsA5uAx.s 			page 40


 1802              	fis_gRO1:
 1803 040c 01000000 		.word	1
 1804              		.type	fis_gRO0, %object
 1805              		.size	fis_gRO0, 4
 1806              	fis_gRO0:
 1807 0410 01000000 		.word	1
 1808              		.type	fis_gRI48, %object
 1809              		.size	fis_gRI48, 8
 1810              	fis_gRI48:
 1811 0414 07000000 		.word	7
 1812 0418 07000000 		.word	7
 1813              		.type	fis_gRI47, %object
 1814              		.size	fis_gRI47, 8
 1815              	fis_gRI47:
 1816 041c 07000000 		.word	7
 1817 0420 06000000 		.word	6
 1818              		.type	fis_gRI46, %object
 1819              		.size	fis_gRI46, 8
 1820              	fis_gRI46:
 1821 0424 07000000 		.word	7
 1822 0428 05000000 		.word	5
 1823              		.type	fis_gRI45, %object
 1824              		.size	fis_gRI45, 8
 1825              	fis_gRI45:
 1826 042c 07000000 		.word	7
 1827 0430 04000000 		.word	4
 1828              		.type	fis_gRI44, %object
 1829              		.size	fis_gRI44, 8
 1830              	fis_gRI44:
 1831 0434 07000000 		.word	7
 1832 0438 03000000 		.word	3
 1833              		.type	fis_gRI43, %object
 1834              		.size	fis_gRI43, 8
 1835              	fis_gRI43:
 1836 043c 07000000 		.word	7
 1837 0440 02000000 		.word	2
 1838              		.type	fis_gRI42, %object
 1839              		.size	fis_gRI42, 8
 1840              	fis_gRI42:
 1841 0444 07000000 		.word	7
 1842 0448 01000000 		.word	1
 1843              		.type	fis_gRI41, %object
 1844              		.size	fis_gRI41, 8
 1845              	fis_gRI41:
 1846 044c 06000000 		.word	6
 1847 0450 07000000 		.word	7
 1848              		.type	fis_gRI40, %object
 1849              		.size	fis_gRI40, 8
 1850              	fis_gRI40:
 1851 0454 06000000 		.word	6
 1852 0458 06000000 		.word	6
 1853              		.type	fis_gRI39, %object
 1854              		.size	fis_gRI39, 8
 1855              	fis_gRI39:
 1856 045c 06000000 		.word	6
 1857 0460 05000000 		.word	5
 1858              		.type	fis_gRI38, %object
ARM GAS  C:\Users\Tim\AppData\Local\Temp\ccsA5uAx.s 			page 41


 1859              		.size	fis_gRI38, 8
 1860              	fis_gRI38:
 1861 0464 06000000 		.word	6
 1862 0468 04000000 		.word	4
 1863              		.type	fis_gRI37, %object
 1864              		.size	fis_gRI37, 8
 1865              	fis_gRI37:
 1866 046c 06000000 		.word	6
 1867 0470 03000000 		.word	3
 1868              		.type	fis_gRI36, %object
 1869              		.size	fis_gRI36, 8
 1870              	fis_gRI36:
 1871 0474 06000000 		.word	6
 1872 0478 02000000 		.word	2
 1873              		.type	fis_gRI35, %object
 1874              		.size	fis_gRI35, 8
 1875              	fis_gRI35:
 1876 047c 06000000 		.word	6
 1877 0480 01000000 		.word	1
 1878              		.type	fis_gRI34, %object
 1879              		.size	fis_gRI34, 8
 1880              	fis_gRI34:
 1881 0484 05000000 		.word	5
 1882 0488 07000000 		.word	7
 1883              		.type	fis_gRI33, %object
 1884              		.size	fis_gRI33, 8
 1885              	fis_gRI33:
 1886 048c 05000000 		.word	5
 1887 0490 06000000 		.word	6
 1888              		.type	fis_gRI32, %object
 1889              		.size	fis_gRI32, 8
 1890              	fis_gRI32:
 1891 0494 05000000 		.word	5
 1892 0498 05000000 		.word	5
 1893              		.type	fis_gRI31, %object
 1894              		.size	fis_gRI31, 8
 1895              	fis_gRI31:
 1896 049c 05000000 		.word	5
 1897 04a0 04000000 		.word	4
 1898              		.type	fis_gRI30, %object
 1899              		.size	fis_gRI30, 8
 1900              	fis_gRI30:
 1901 04a4 05000000 		.word	5
 1902 04a8 03000000 		.word	3
 1903              		.type	fis_gRI29, %object
 1904              		.size	fis_gRI29, 8
 1905              	fis_gRI29:
 1906 04ac 05000000 		.word	5
 1907 04b0 02000000 		.word	2
 1908              		.type	fis_gRI28, %object
 1909              		.size	fis_gRI28, 8
 1910              	fis_gRI28:
 1911 04b4 05000000 		.word	5
 1912 04b8 01000000 		.word	1
 1913              		.type	fis_gRI27, %object
 1914              		.size	fis_gRI27, 8
 1915              	fis_gRI27:
ARM GAS  C:\Users\Tim\AppData\Local\Temp\ccsA5uAx.s 			page 42


 1916 04bc 04000000 		.word	4
 1917 04c0 07000000 		.word	7
 1918              		.type	fis_gRI26, %object
 1919              		.size	fis_gRI26, 8
 1920              	fis_gRI26:
 1921 04c4 04000000 		.word	4
 1922 04c8 06000000 		.word	6
 1923              		.type	fis_gRI25, %object
 1924              		.size	fis_gRI25, 8
 1925              	fis_gRI25:
 1926 04cc 04000000 		.word	4
 1927 04d0 05000000 		.word	5
 1928              		.type	fis_gRI24, %object
 1929              		.size	fis_gRI24, 8
 1930              	fis_gRI24:
 1931 04d4 04000000 		.word	4
 1932 04d8 04000000 		.word	4
 1933              		.type	fis_gRI23, %object
 1934              		.size	fis_gRI23, 8
 1935              	fis_gRI23:
 1936 04dc 04000000 		.word	4
 1937 04e0 03000000 		.word	3
 1938              		.type	fis_gRI22, %object
 1939              		.size	fis_gRI22, 8
 1940              	fis_gRI22:
 1941 04e4 04000000 		.word	4
 1942 04e8 02000000 		.word	2
 1943              		.type	fis_gRI21, %object
 1944              		.size	fis_gRI21, 8
 1945              	fis_gRI21:
 1946 04ec 04000000 		.word	4
 1947 04f0 01000000 		.word	1
 1948              		.type	fis_gRI20, %object
 1949              		.size	fis_gRI20, 8
 1950              	fis_gRI20:
 1951 04f4 03000000 		.word	3
 1952 04f8 07000000 		.word	7
 1953              		.type	fis_gRI19, %object
 1954              		.size	fis_gRI19, 8
 1955              	fis_gRI19:
 1956 04fc 03000000 		.word	3
 1957 0500 06000000 		.word	6
 1958              		.type	fis_gRI18, %object
 1959              		.size	fis_gRI18, 8
 1960              	fis_gRI18:
 1961 0504 03000000 		.word	3
 1962 0508 05000000 		.word	5
 1963              		.type	fis_gRI17, %object
 1964              		.size	fis_gRI17, 8
 1965              	fis_gRI17:
 1966 050c 03000000 		.word	3
 1967 0510 04000000 		.word	4
 1968              		.type	fis_gRI16, %object
 1969              		.size	fis_gRI16, 8
 1970              	fis_gRI16:
 1971 0514 03000000 		.word	3
 1972 0518 03000000 		.word	3
ARM GAS  C:\Users\Tim\AppData\Local\Temp\ccsA5uAx.s 			page 43


 1973              		.type	fis_gRI15, %object
 1974              		.size	fis_gRI15, 8
 1975              	fis_gRI15:
 1976 051c 03000000 		.word	3
 1977 0520 02000000 		.word	2
 1978              		.type	fis_gRI14, %object
 1979              		.size	fis_gRI14, 8
 1980              	fis_gRI14:
 1981 0524 03000000 		.word	3
 1982 0528 01000000 		.word	1
 1983              		.type	fis_gRI13, %object
 1984              		.size	fis_gRI13, 8
 1985              	fis_gRI13:
 1986 052c 02000000 		.word	2
 1987 0530 07000000 		.word	7
 1988              		.type	fis_gRI12, %object
 1989              		.size	fis_gRI12, 8
 1990              	fis_gRI12:
 1991 0534 02000000 		.word	2
 1992 0538 06000000 		.word	6
 1993              		.type	fis_gRI11, %object
 1994              		.size	fis_gRI11, 8
 1995              	fis_gRI11:
 1996 053c 02000000 		.word	2
 1997 0540 05000000 		.word	5
 1998              		.type	fis_gRI10, %object
 1999              		.size	fis_gRI10, 8
 2000              	fis_gRI10:
 2001 0544 02000000 		.word	2
 2002 0548 04000000 		.word	4
 2003              		.type	fis_gRI9, %object
 2004              		.size	fis_gRI9, 8
 2005              	fis_gRI9:
 2006 054c 02000000 		.word	2
 2007 0550 03000000 		.word	3
 2008              		.type	fis_gRI8, %object
 2009              		.size	fis_gRI8, 8
 2010              	fis_gRI8:
 2011 0554 02000000 		.word	2
 2012 0558 02000000 		.word	2
 2013              		.type	fis_gRI7, %object
 2014              		.size	fis_gRI7, 8
 2015              	fis_gRI7:
 2016 055c 02000000 		.word	2
 2017 0560 01000000 		.word	1
 2018              		.type	fis_gRI6, %object
 2019              		.size	fis_gRI6, 8
 2020              	fis_gRI6:
 2021 0564 01000000 		.word	1
 2022 0568 07000000 		.word	7
 2023              		.type	fis_gRI5, %object
 2024              		.size	fis_gRI5, 8
 2025              	fis_gRI5:
 2026 056c 01000000 		.word	1
 2027 0570 06000000 		.word	6
 2028              		.type	fis_gRI4, %object
 2029              		.size	fis_gRI4, 8
ARM GAS  C:\Users\Tim\AppData\Local\Temp\ccsA5uAx.s 			page 44


 2030              	fis_gRI4:
 2031 0574 01000000 		.word	1
 2032 0578 05000000 		.word	5
 2033              		.type	fis_gRI3, %object
 2034              		.size	fis_gRI3, 8
 2035              	fis_gRI3:
 2036 057c 01000000 		.word	1
 2037 0580 04000000 		.word	4
 2038              		.type	fis_gRI2, %object
 2039              		.size	fis_gRI2, 8
 2040              	fis_gRI2:
 2041 0584 01000000 		.word	1
 2042 0588 03000000 		.word	3
 2043              		.type	fis_gRI1, %object
 2044              		.size	fis_gRI1, 8
 2045              	fis_gRI1:
 2046 058c 01000000 		.word	1
 2047 0590 02000000 		.word	2
 2048              		.type	fis_gRI0, %object
 2049              		.size	fis_gRI0, 8
 2050              	fis_gRI0:
 2051 0594 01000000 		.word	1
 2052 0598 01000000 		.word	1
 2053              		.type	fis_gMFO0, %object
 2054              		.size	fis_gMFO0, 28
 2055              	fis_gMFO0:
 2056 059c 00000000 		.word	0
 2057 05a0 01000000 		.word	1
 2058 05a4 01000000 		.word	1
 2059 05a8 01000000 		.word	1
 2060 05ac 01000000 		.word	1
 2061 05b0 01000000 		.word	1
 2062 05b4 00000000 		.word	0
 2063              		.type	fis_gMFI1, %object
 2064              		.size	fis_gMFI1, 28
 2065              	fis_gMFI1:
 2066 05b8 00000000 		.word	0
 2067 05bc 01000000 		.word	1
 2068 05c0 01000000 		.word	1
 2069 05c4 01000000 		.word	1
 2070 05c8 01000000 		.word	1
 2071 05cc 01000000 		.word	1
 2072 05d0 00000000 		.word	0
 2073              		.type	fis_gMFI0, %object
 2074              		.size	fis_gMFI0, 28
 2075              	fis_gMFI0:
 2076 05d4 00000000 		.word	0
 2077 05d8 01000000 		.word	1
 2078 05dc 01000000 		.word	1
 2079 05e0 01000000 		.word	1
 2080 05e4 01000000 		.word	1
 2081 05e8 01000000 		.word	1
 2082 05ec 00000000 		.word	0
 2083              		.type	fis_gMFO0Coeff, %object
 2084              		.size	fis_gMFO0Coeff, 28
 2085              	fis_gMFO0Coeff:
 2086 05f0 00000000 		.word	fis_gMFO0Coeff1
ARM GAS  C:\Users\Tim\AppData\Local\Temp\ccsA5uAx.s 			page 45


 2087 05f4 00000000 		.word	fis_gMFO0Coeff2
 2088 05f8 00000000 		.word	fis_gMFO0Coeff3
 2089 05fc 00000000 		.word	fis_gMFO0Coeff4
 2090 0600 00000000 		.word	fis_gMFO0Coeff5
 2091 0604 00000000 		.word	fis_gMFO0Coeff6
 2092 0608 00000000 		.word	fis_gMFO0Coeff7
 2093              		.type	fis_gMFO0Coeff7, %object
 2094              		.size	fis_gMFO0Coeff7, 16
 2095              	fis_gMFO0Coeff7:
 2096 060c 0000003F 		.word	1056964608
 2097 0610 0000203F 		.word	1059061760
 2098 0614 0000803F 		.word	1065353216
 2099 0618 0000803F 		.word	1065353216
 2100              		.type	fis_gMFO0Coeff6, %object
 2101              		.size	fis_gMFO0Coeff6, 12
 2102              	fis_gMFO0Coeff6:
 2103 061c 0000803E 		.word	1048576000
 2104 0620 0000003F 		.word	1056964608
 2105 0624 0000403F 		.word	1061158912
 2106              		.type	fis_gMFO0Coeff5, %object
 2107              		.size	fis_gMFO0Coeff5, 12
 2108              	fis_gMFO0Coeff5:
 2109 0628 00000000 		.word	0
 2110 062c 0000803E 		.word	1048576000
 2111 0630 0000003F 		.word	1056964608
 2112              		.type	fis_gMFO0Coeff4, %object
 2113              		.size	fis_gMFO0Coeff4, 12
 2114              	fis_gMFO0Coeff4:
 2115 0634 000080BE 		.word	-1098907648
 2116 0638 00000000 		.word	0
 2117 063c 0000803E 		.word	1048576000
 2118              		.type	fis_gMFO0Coeff3, %object
 2119              		.size	fis_gMFO0Coeff3, 12
 2120              	fis_gMFO0Coeff3:
 2121 0640 000000BF 		.word	-1090519040
 2122 0644 000080BE 		.word	-1098907648
 2123 0648 00000000 		.word	0
 2124              		.type	fis_gMFO0Coeff2, %object
 2125              		.size	fis_gMFO0Coeff2, 12
 2126              	fis_gMFO0Coeff2:
 2127 064c 000040BF 		.word	-1086324736
 2128 0650 000000BF 		.word	-1090519040
 2129 0654 000080BE 		.word	-1098907648
 2130              		.type	fis_gMFO0Coeff1, %object
 2131              		.size	fis_gMFO0Coeff1, 16
 2132              	fis_gMFO0Coeff1:
 2133 0658 000080BF 		.word	-1082130432
 2134 065c 000080BF 		.word	-1082130432
 2135 0660 000040BF 		.word	-1086324736
 2136 0664 000000BF 		.word	-1090519040
 2137              		.type	fis_gMFI1Coeff, %object
 2138              		.size	fis_gMFI1Coeff, 28
 2139              	fis_gMFI1Coeff:
 2140 0668 00000000 		.word	fis_gMFI1Coeff1
 2141 066c 00000000 		.word	fis_gMFI1Coeff2
 2142 0670 00000000 		.word	fis_gMFI1Coeff3
 2143 0674 00000000 		.word	fis_gMFI1Coeff4
ARM GAS  C:\Users\Tim\AppData\Local\Temp\ccsA5uAx.s 			page 46


 2144 0678 00000000 		.word	fis_gMFI1Coeff5
 2145 067c 00000000 		.word	fis_gMFI1Coeff6
 2146 0680 00000000 		.word	fis_gMFI1Coeff7
 2147              		.type	fis_gMFI1Coeff7, %object
 2148              		.size	fis_gMFI1Coeff7, 16
 2149              	fis_gMFI1Coeff7:
 2150 0684 0000003F 		.word	1056964608
 2151 0688 0000203F 		.word	1059061760
 2152 068c 0000803F 		.word	1065353216
 2153 0690 0000803F 		.word	1065353216
 2154              		.type	fis_gMFI1Coeff6, %object
 2155              		.size	fis_gMFI1Coeff6, 12
 2156              	fis_gMFI1Coeff6:
 2157 0694 0000803E 		.word	1048576000
 2158 0698 0000003F 		.word	1056964608
 2159 069c 0000403F 		.word	1061158912
 2160              		.type	fis_gMFI1Coeff5, %object
 2161              		.size	fis_gMFI1Coeff5, 12
 2162              	fis_gMFI1Coeff5:
 2163 06a0 00000000 		.word	0
 2164 06a4 0000803E 		.word	1048576000
 2165 06a8 0000003F 		.word	1056964608
 2166              		.type	fis_gMFI1Coeff4, %object
 2167              		.size	fis_gMFI1Coeff4, 12
 2168              	fis_gMFI1Coeff4:
 2169 06ac 000080BE 		.word	-1098907648
 2170 06b0 00000000 		.word	0
 2171 06b4 0000803E 		.word	1048576000
 2172              		.type	fis_gMFI1Coeff3, %object
 2173              		.size	fis_gMFI1Coeff3, 12
 2174              	fis_gMFI1Coeff3:
 2175 06b8 000000BF 		.word	-1090519040
 2176 06bc 000080BE 		.word	-1098907648
 2177 06c0 00000000 		.word	0
 2178              		.type	fis_gMFI1Coeff2, %object
 2179              		.size	fis_gMFI1Coeff2, 12
 2180              	fis_gMFI1Coeff2:
 2181 06c4 000040BF 		.word	-1086324736
 2182 06c8 000000BF 		.word	-1090519040
 2183 06cc 000080BE 		.word	-1098907648
 2184              		.type	fis_gMFI1Coeff1, %object
 2185              		.size	fis_gMFI1Coeff1, 16
 2186              	fis_gMFI1Coeff1:
 2187 06d0 000080BF 		.word	-1082130432
 2188 06d4 000080BF 		.word	-1082130432
 2189 06d8 000040BF 		.word	-1086324736
 2190 06dc 000000BF 		.word	-1090519040
 2191              		.type	fis_gMFI0Coeff, %object
 2192              		.size	fis_gMFI0Coeff, 28
 2193              	fis_gMFI0Coeff:
 2194 06e0 00000000 		.word	fis_gMFI0Coeff1
 2195 06e4 00000000 		.word	fis_gMFI0Coeff2
 2196 06e8 00000000 		.word	fis_gMFI0Coeff3
 2197 06ec 00000000 		.word	fis_gMFI0Coeff4
 2198 06f0 00000000 		.word	fis_gMFI0Coeff5
 2199 06f4 00000000 		.word	fis_gMFI0Coeff6
 2200 06f8 00000000 		.word	fis_gMFI0Coeff7
ARM GAS  C:\Users\Tim\AppData\Local\Temp\ccsA5uAx.s 			page 47


 2201              		.type	fis_gMFI0Coeff7, %object
 2202              		.size	fis_gMFI0Coeff7, 16
 2203              	fis_gMFI0Coeff7:
 2204 06fc 0000003F 		.word	1056964608
 2205 0700 0000203F 		.word	1059061760
 2206 0704 0000803F 		.word	1065353216
 2207 0708 0000803F 		.word	1065353216
 2208              		.type	fis_gMFI0Coeff6, %object
 2209              		.size	fis_gMFI0Coeff6, 12
 2210              	fis_gMFI0Coeff6:
 2211 070c 0000803E 		.word	1048576000
 2212 0710 0000003F 		.word	1056964608
 2213 0714 0000403F 		.word	1061158912
 2214              		.type	fis_gMFI0Coeff5, %object
 2215              		.size	fis_gMFI0Coeff5, 12
 2216              	fis_gMFI0Coeff5:
 2217 0718 00000000 		.word	0
 2218 071c 0000803E 		.word	1048576000
 2219 0720 0000003F 		.word	1056964608
 2220              		.type	fis_gMFI0Coeff4, %object
 2221              		.size	fis_gMFI0Coeff4, 12
 2222              	fis_gMFI0Coeff4:
 2223 0724 000080BE 		.word	-1098907648
 2224 0728 00000000 		.word	0
 2225 072c 0000803E 		.word	1048576000
 2226              		.type	fis_gMFI0Coeff3, %object
 2227              		.size	fis_gMFI0Coeff3, 12
 2228              	fis_gMFI0Coeff3:
 2229 0730 000000BF 		.word	-1090519040
 2230 0734 000080BE 		.word	-1098907648
 2231 0738 00000000 		.word	0
 2232              		.type	fis_gMFI0Coeff2, %object
 2233              		.size	fis_gMFI0Coeff2, 12
 2234              	fis_gMFI0Coeff2:
 2235 073c 000040BF 		.word	-1086324736
 2236 0740 000000BF 		.word	-1090519040
 2237 0744 000080BE 		.word	-1098907648
 2238              		.type	fis_gMFI0Coeff1, %object
 2239              		.size	fis_gMFI0Coeff1, 16
 2240              	fis_gMFI0Coeff1:
 2241 0748 000080BF 		.word	-1082130432
 2242 074c 000080BF 		.word	-1082130432
 2243 0750 000040BF 		.word	-1086324736
 2244 0754 000000BF 		.word	-1090519040
 2245              		.type	fis_gOMFCount, %object
 2246              		.size	fis_gOMFCount, 4
 2247              	fis_gOMFCount:
 2248 0758 07000000 		.word	7
 2249              		.text
 2250              	.Letext0:
 2251              		.file 2 "c:\\program files (x86)\\cypress\\psoc creator\\3.3\\psoc creator\\import\\gnu\\arm\\4.9.
 2252              		.file 3 "c:\\program files (x86)\\cypress\\psoc creator\\3.3\\psoc creator\\import\\gnu\\arm\\4.9.
 2253              		.file 4 "..\\source\\fis_header.h"
 2254              		.file 5 "Generated_Source\\PSoC5/core_cm3.h"