ARM GAS  C:\Users\Tim\AppData\Local\Temp\ccWk8nEO.s 			page 1


   1              		.syntax unified
   2              		.cpu cortex-m3
   3              		.fpu softvfp
   4              		.eabi_attribute 20, 1
   5              		.eabi_attribute 21, 1
   6              		.eabi_attribute 23, 3
   7              		.eabi_attribute 24, 1
   8              		.eabi_attribute 25, 1
   9              		.eabi_attribute 26, 1
  10              		.eabi_attribute 30, 1
  11              		.eabi_attribute 34, 1
  12              		.eabi_attribute 18, 4
  13              		.thumb
  14              		.file	"Front_AMuxSeq.c"
  15              		.text
  16              	.Ltext0:
  17              		.cfi_sections	.debug_frame
  18              		.section	.text.Front_AMuxSeq_Start,"ax",%progbits
  19              		.align	2
  20              		.global	Front_AMuxSeq_Start
  21              		.thumb
  22              		.thumb_func
  23              		.type	Front_AMuxSeq_Start, %function
  24              	Front_AMuxSeq_Start:
  25              	.LFB0:
  26              		.file 1 ".\\Generated_Source\\PSoC5\\Front_AMuxSeq.c"
   1:.\Generated_Source\PSoC5/Front_AMuxSeq.c **** /*******************************************************************************
   2:.\Generated_Source\PSoC5/Front_AMuxSeq.c **** * File Name: Front_AMuxSeq.c
   3:.\Generated_Source\PSoC5/Front_AMuxSeq.c **** * Version 1.80
   4:.\Generated_Source\PSoC5/Front_AMuxSeq.c **** *
   5:.\Generated_Source\PSoC5/Front_AMuxSeq.c **** *  Description:
   6:.\Generated_Source\PSoC5/Front_AMuxSeq.c **** *    This file contains functions for the AMuxSeq.
   7:.\Generated_Source\PSoC5/Front_AMuxSeq.c **** *
   8:.\Generated_Source\PSoC5/Front_AMuxSeq.c **** *   Note:
   9:.\Generated_Source\PSoC5/Front_AMuxSeq.c **** *
  10:.\Generated_Source\PSoC5/Front_AMuxSeq.c **** *******************************************************************************
  11:.\Generated_Source\PSoC5/Front_AMuxSeq.c **** * Copyright 2008-2010, Cypress Semiconductor Corporation.  All rights reserved.
  12:.\Generated_Source\PSoC5/Front_AMuxSeq.c **** * You may use this file only in accordance with the license, terms, conditions, 
  13:.\Generated_Source\PSoC5/Front_AMuxSeq.c **** * disclaimers, and limitations in the end user license agreement accompanying 
  14:.\Generated_Source\PSoC5/Front_AMuxSeq.c **** * the software package with which this file was provided.
  15:.\Generated_Source\PSoC5/Front_AMuxSeq.c **** ********************************************************************************/
  16:.\Generated_Source\PSoC5/Front_AMuxSeq.c **** 
  17:.\Generated_Source\PSoC5/Front_AMuxSeq.c **** #include "Front_AMuxSeq.h"
  18:.\Generated_Source\PSoC5/Front_AMuxSeq.c **** 
  19:.\Generated_Source\PSoC5/Front_AMuxSeq.c **** uint8 Front_AMuxSeq_initVar = 0u;
  20:.\Generated_Source\PSoC5/Front_AMuxSeq.c **** 
  21:.\Generated_Source\PSoC5/Front_AMuxSeq.c **** 
  22:.\Generated_Source\PSoC5/Front_AMuxSeq.c **** /*******************************************************************************
  23:.\Generated_Source\PSoC5/Front_AMuxSeq.c **** * Function Name: Front_AMuxSeq_Start
  24:.\Generated_Source\PSoC5/Front_AMuxSeq.c **** ********************************************************************************
  25:.\Generated_Source\PSoC5/Front_AMuxSeq.c **** * Summary:
  26:.\Generated_Source\PSoC5/Front_AMuxSeq.c **** *  Disconnect all channels. The next time Next is called, channel 0 will be
  27:.\Generated_Source\PSoC5/Front_AMuxSeq.c **** *  connected.
  28:.\Generated_Source\PSoC5/Front_AMuxSeq.c **** *
  29:.\Generated_Source\PSoC5/Front_AMuxSeq.c **** * Parameters:
  30:.\Generated_Source\PSoC5/Front_AMuxSeq.c **** *  void
  31:.\Generated_Source\PSoC5/Front_AMuxSeq.c **** *
ARM GAS  C:\Users\Tim\AppData\Local\Temp\ccWk8nEO.s 			page 2


  32:.\Generated_Source\PSoC5/Front_AMuxSeq.c **** * Return:
  33:.\Generated_Source\PSoC5/Front_AMuxSeq.c **** *  void
  34:.\Generated_Source\PSoC5/Front_AMuxSeq.c **** *
  35:.\Generated_Source\PSoC5/Front_AMuxSeq.c **** *******************************************************************************/
  36:.\Generated_Source\PSoC5/Front_AMuxSeq.c **** void Front_AMuxSeq_Start(void)
  37:.\Generated_Source\PSoC5/Front_AMuxSeq.c **** {
  27              		.loc 1 37 0
  28              		.cfi_startproc
  29              		@ args = 0, pretend = 0, frame = 0
  30              		@ frame_needed = 0, uses_anonymous_args = 0
  31 0000 08B5     		push	{r3, lr}
  32              		.cfi_def_cfa_offset 8
  33              		.cfi_offset 3, -8
  34              		.cfi_offset 14, -4
  38:.\Generated_Source\PSoC5/Front_AMuxSeq.c ****     Front_AMuxSeq_DisconnectAll();
  35              		.loc 1 38 0
  36 0002 FFF7FEFF 		bl	Front_AMuxSeq_DisconnectAll
  37              	.LVL0:
  39:.\Generated_Source\PSoC5/Front_AMuxSeq.c ****     Front_AMuxSeq_initVar = 1u;
  38              		.loc 1 39 0
  39 0006 0122     		movs	r2, #1
  40 0008 014B     		ldr	r3, .L3
  41 000a 1A70     		strb	r2, [r3]
  42 000c 08BD     		pop	{r3, pc}
  43              	.L4:
  44 000e 00BF     		.align	2
  45              	.L3:
  46 0010 00000000 		.word	.LANCHOR0
  47              		.cfi_endproc
  48              	.LFE0:
  49              		.size	Front_AMuxSeq_Start, .-Front_AMuxSeq_Start
  50              		.section	.text.Front_AMuxSeq_Init,"ax",%progbits
  51              		.align	2
  52              		.global	Front_AMuxSeq_Init
  53              		.thumb
  54              		.thumb_func
  55              		.type	Front_AMuxSeq_Init, %function
  56              	Front_AMuxSeq_Init:
  57              	.LFB1:
  40:.\Generated_Source\PSoC5/Front_AMuxSeq.c **** }
  41:.\Generated_Source\PSoC5/Front_AMuxSeq.c **** 
  42:.\Generated_Source\PSoC5/Front_AMuxSeq.c **** 
  43:.\Generated_Source\PSoC5/Front_AMuxSeq.c **** /*******************************************************************************
  44:.\Generated_Source\PSoC5/Front_AMuxSeq.c **** * Function Name: Front_AMuxSeq_Init
  45:.\Generated_Source\PSoC5/Front_AMuxSeq.c **** ********************************************************************************
  46:.\Generated_Source\PSoC5/Front_AMuxSeq.c **** * Summary:
  47:.\Generated_Source\PSoC5/Front_AMuxSeq.c **** *  Disconnect all channels. The next time Next is called, channel 0 will be
  48:.\Generated_Source\PSoC5/Front_AMuxSeq.c **** *  connected.
  49:.\Generated_Source\PSoC5/Front_AMuxSeq.c **** *
  50:.\Generated_Source\PSoC5/Front_AMuxSeq.c **** * Parameters:
  51:.\Generated_Source\PSoC5/Front_AMuxSeq.c **** *  void
  52:.\Generated_Source\PSoC5/Front_AMuxSeq.c **** *
  53:.\Generated_Source\PSoC5/Front_AMuxSeq.c **** * Return:
  54:.\Generated_Source\PSoC5/Front_AMuxSeq.c **** *  void
  55:.\Generated_Source\PSoC5/Front_AMuxSeq.c **** *
  56:.\Generated_Source\PSoC5/Front_AMuxSeq.c **** *******************************************************************************/
  57:.\Generated_Source\PSoC5/Front_AMuxSeq.c **** void Front_AMuxSeq_Init(void)
ARM GAS  C:\Users\Tim\AppData\Local\Temp\ccWk8nEO.s 			page 3


  58:.\Generated_Source\PSoC5/Front_AMuxSeq.c **** {
  58              		.loc 1 58 0
  59              		.cfi_startproc
  60              		@ args = 0, pretend = 0, frame = 0
  61              		@ frame_needed = 0, uses_anonymous_args = 0
  62 0000 08B5     		push	{r3, lr}
  63              		.cfi_def_cfa_offset 8
  64              		.cfi_offset 3, -8
  65              		.cfi_offset 14, -4
  59:.\Generated_Source\PSoC5/Front_AMuxSeq.c ****     Front_AMuxSeq_DisconnectAll();
  66              		.loc 1 59 0
  67 0002 FFF7FEFF 		bl	Front_AMuxSeq_DisconnectAll
  68              	.LVL1:
  69 0006 08BD     		pop	{r3, pc}
  70              		.cfi_endproc
  71              	.LFE1:
  72              		.size	Front_AMuxSeq_Init, .-Front_AMuxSeq_Init
  73              		.section	.text.Front_AMuxSeq_Stop,"ax",%progbits
  74              		.align	2
  75              		.global	Front_AMuxSeq_Stop
  76              		.thumb
  77              		.thumb_func
  78              		.type	Front_AMuxSeq_Stop, %function
  79              	Front_AMuxSeq_Stop:
  80              	.LFB2:
  60:.\Generated_Source\PSoC5/Front_AMuxSeq.c **** }
  61:.\Generated_Source\PSoC5/Front_AMuxSeq.c **** 
  62:.\Generated_Source\PSoC5/Front_AMuxSeq.c **** 
  63:.\Generated_Source\PSoC5/Front_AMuxSeq.c **** /*******************************************************************************
  64:.\Generated_Source\PSoC5/Front_AMuxSeq.c **** * Function Name: Front_AMuxSeq_Stop
  65:.\Generated_Source\PSoC5/Front_AMuxSeq.c **** ********************************************************************************
  66:.\Generated_Source\PSoC5/Front_AMuxSeq.c **** * Summary:
  67:.\Generated_Source\PSoC5/Front_AMuxSeq.c **** *  Disconnect all channels. The next time Next is called, channel 0 will be
  68:.\Generated_Source\PSoC5/Front_AMuxSeq.c **** *  connected.
  69:.\Generated_Source\PSoC5/Front_AMuxSeq.c **** *
  70:.\Generated_Source\PSoC5/Front_AMuxSeq.c **** * Parameters:
  71:.\Generated_Source\PSoC5/Front_AMuxSeq.c **** *  void
  72:.\Generated_Source\PSoC5/Front_AMuxSeq.c **** *
  73:.\Generated_Source\PSoC5/Front_AMuxSeq.c **** * Return:
  74:.\Generated_Source\PSoC5/Front_AMuxSeq.c **** *  void
  75:.\Generated_Source\PSoC5/Front_AMuxSeq.c **** *
  76:.\Generated_Source\PSoC5/Front_AMuxSeq.c **** *******************************************************************************/
  77:.\Generated_Source\PSoC5/Front_AMuxSeq.c **** void Front_AMuxSeq_Stop(void)
  78:.\Generated_Source\PSoC5/Front_AMuxSeq.c **** {
  81              		.loc 1 78 0
  82              		.cfi_startproc
  83              		@ args = 0, pretend = 0, frame = 0
  84              		@ frame_needed = 0, uses_anonymous_args = 0
  85 0000 08B5     		push	{r3, lr}
  86              		.cfi_def_cfa_offset 8
  87              		.cfi_offset 3, -8
  88              		.cfi_offset 14, -4
  79:.\Generated_Source\PSoC5/Front_AMuxSeq.c ****     Front_AMuxSeq_DisconnectAll();
  89              		.loc 1 79 0
  90 0002 FFF7FEFF 		bl	Front_AMuxSeq_DisconnectAll
  91              	.LVL2:
  92 0006 08BD     		pop	{r3, pc}
ARM GAS  C:\Users\Tim\AppData\Local\Temp\ccWk8nEO.s 			page 4


  93              		.cfi_endproc
  94              	.LFE2:
  95              		.size	Front_AMuxSeq_Stop, .-Front_AMuxSeq_Stop
  96              		.section	.text.Front_AMuxSeq_GetChannel,"ax",%progbits
  97              		.align	2
  98              		.global	Front_AMuxSeq_GetChannel
  99              		.thumb
 100              		.thumb_func
 101              		.type	Front_AMuxSeq_GetChannel, %function
 102              	Front_AMuxSeq_GetChannel:
 103              	.LFB3:
  80:.\Generated_Source\PSoC5/Front_AMuxSeq.c **** }
  81:.\Generated_Source\PSoC5/Front_AMuxSeq.c **** 
  82:.\Generated_Source\PSoC5/Front_AMuxSeq.c **** #if (Front_AMuxSeq_MUXTYPE == Front_AMuxSeq_MUX_DIFF)
  83:.\Generated_Source\PSoC5/Front_AMuxSeq.c **** 
  84:.\Generated_Source\PSoC5/Front_AMuxSeq.c **** /*******************************************************************************
  85:.\Generated_Source\PSoC5/Front_AMuxSeq.c **** * Function Name: Front_AMuxSeq_Next
  86:.\Generated_Source\PSoC5/Front_AMuxSeq.c **** ********************************************************************************
  87:.\Generated_Source\PSoC5/Front_AMuxSeq.c **** * Summary:
  88:.\Generated_Source\PSoC5/Front_AMuxSeq.c **** *  Disconnects the previous channel and connects the next one in the sequence.
  89:.\Generated_Source\PSoC5/Front_AMuxSeq.c **** *  When Next is called for the first time after Init, Start, Enable, Stop, or
  90:.\Generated_Source\PSoC5/Front_AMuxSeq.c **** *  DisconnectAll, it connects channel 0.
  91:.\Generated_Source\PSoC5/Front_AMuxSeq.c **** *
  92:.\Generated_Source\PSoC5/Front_AMuxSeq.c **** * Parameters:
  93:.\Generated_Source\PSoC5/Front_AMuxSeq.c **** *  void
  94:.\Generated_Source\PSoC5/Front_AMuxSeq.c **** *
  95:.\Generated_Source\PSoC5/Front_AMuxSeq.c **** * Return:
  96:.\Generated_Source\PSoC5/Front_AMuxSeq.c **** *  void
  97:.\Generated_Source\PSoC5/Front_AMuxSeq.c **** *
  98:.\Generated_Source\PSoC5/Front_AMuxSeq.c **** *******************************************************************************/
  99:.\Generated_Source\PSoC5/Front_AMuxSeq.c **** void Front_AMuxSeq_Next(void)
 100:.\Generated_Source\PSoC5/Front_AMuxSeq.c **** {
 101:.\Generated_Source\PSoC5/Front_AMuxSeq.c ****     Front_AMuxSeq_CYAMUXSIDE_A_Next();
 102:.\Generated_Source\PSoC5/Front_AMuxSeq.c ****     Front_AMuxSeq_CYAMUXSIDE_B_Next();
 103:.\Generated_Source\PSoC5/Front_AMuxSeq.c **** }
 104:.\Generated_Source\PSoC5/Front_AMuxSeq.c **** 
 105:.\Generated_Source\PSoC5/Front_AMuxSeq.c **** 
 106:.\Generated_Source\PSoC5/Front_AMuxSeq.c **** /*******************************************************************************
 107:.\Generated_Source\PSoC5/Front_AMuxSeq.c **** * Function Name: Front_AMuxSeq_DisconnectAll
 108:.\Generated_Source\PSoC5/Front_AMuxSeq.c **** ********************************************************************************
 109:.\Generated_Source\PSoC5/Front_AMuxSeq.c **** * Summary:
 110:.\Generated_Source\PSoC5/Front_AMuxSeq.c **** *  This function disconnects all channels. The next time Next is called, channel
 111:.\Generated_Source\PSoC5/Front_AMuxSeq.c **** *  0 will be connected.
 112:.\Generated_Source\PSoC5/Front_AMuxSeq.c **** *
 113:.\Generated_Source\PSoC5/Front_AMuxSeq.c **** * Parameters:
 114:.\Generated_Source\PSoC5/Front_AMuxSeq.c **** *  void
 115:.\Generated_Source\PSoC5/Front_AMuxSeq.c **** *
 116:.\Generated_Source\PSoC5/Front_AMuxSeq.c **** * Return:
 117:.\Generated_Source\PSoC5/Front_AMuxSeq.c **** *  void
 118:.\Generated_Source\PSoC5/Front_AMuxSeq.c **** *
 119:.\Generated_Source\PSoC5/Front_AMuxSeq.c **** *******************************************************************************/
 120:.\Generated_Source\PSoC5/Front_AMuxSeq.c **** void Front_AMuxSeq_DisconnectAll(void)
 121:.\Generated_Source\PSoC5/Front_AMuxSeq.c **** {
 122:.\Generated_Source\PSoC5/Front_AMuxSeq.c ****     Front_AMuxSeq_CYAMUXSIDE_A_DisconnectAll();
 123:.\Generated_Source\PSoC5/Front_AMuxSeq.c ****     Front_AMuxSeq_CYAMUXSIDE_B_DisconnectAll();
 124:.\Generated_Source\PSoC5/Front_AMuxSeq.c **** }
 125:.\Generated_Source\PSoC5/Front_AMuxSeq.c **** 
ARM GAS  C:\Users\Tim\AppData\Local\Temp\ccWk8nEO.s 			page 5


 126:.\Generated_Source\PSoC5/Front_AMuxSeq.c **** 
 127:.\Generated_Source\PSoC5/Front_AMuxSeq.c **** /*******************************************************************************
 128:.\Generated_Source\PSoC5/Front_AMuxSeq.c **** * Function Name: Front_AMuxSeq_GetChannel
 129:.\Generated_Source\PSoC5/Front_AMuxSeq.c **** ********************************************************************************
 130:.\Generated_Source\PSoC5/Front_AMuxSeq.c **** * Summary:
 131:.\Generated_Source\PSoC5/Front_AMuxSeq.c **** *  The currently connected channel is retuned. If no channel is connected
 132:.\Generated_Source\PSoC5/Front_AMuxSeq.c **** *  returns -1.
 133:.\Generated_Source\PSoC5/Front_AMuxSeq.c **** *
 134:.\Generated_Source\PSoC5/Front_AMuxSeq.c **** * Parameters:
 135:.\Generated_Source\PSoC5/Front_AMuxSeq.c **** *  void
 136:.\Generated_Source\PSoC5/Front_AMuxSeq.c **** *
 137:.\Generated_Source\PSoC5/Front_AMuxSeq.c **** * Return:
 138:.\Generated_Source\PSoC5/Front_AMuxSeq.c **** *  The current channel or -1.
 139:.\Generated_Source\PSoC5/Front_AMuxSeq.c **** *
 140:.\Generated_Source\PSoC5/Front_AMuxSeq.c **** *******************************************************************************/
 141:.\Generated_Source\PSoC5/Front_AMuxSeq.c **** int8 Front_AMuxSeq_GetChannel(void)
 142:.\Generated_Source\PSoC5/Front_AMuxSeq.c **** {
 143:.\Generated_Source\PSoC5/Front_AMuxSeq.c ****     return Front_AMuxSeq_CYAMUXSIDE_A_curChannel;
 144:.\Generated_Source\PSoC5/Front_AMuxSeq.c **** }
 145:.\Generated_Source\PSoC5/Front_AMuxSeq.c **** 
 146:.\Generated_Source\PSoC5/Front_AMuxSeq.c **** #else
 147:.\Generated_Source\PSoC5/Front_AMuxSeq.c **** 
 148:.\Generated_Source\PSoC5/Front_AMuxSeq.c **** /*******************************************************************************
 149:.\Generated_Source\PSoC5/Front_AMuxSeq.c **** * Function Name: Front_AMuxSeq_GetChannel
 150:.\Generated_Source\PSoC5/Front_AMuxSeq.c **** ********************************************************************************
 151:.\Generated_Source\PSoC5/Front_AMuxSeq.c **** * Summary:
 152:.\Generated_Source\PSoC5/Front_AMuxSeq.c **** *  The currently connected channel is retuned. If no channel is connected
 153:.\Generated_Source\PSoC5/Front_AMuxSeq.c **** *  returns -1.
 154:.\Generated_Source\PSoC5/Front_AMuxSeq.c **** *
 155:.\Generated_Source\PSoC5/Front_AMuxSeq.c **** * Parameters:
 156:.\Generated_Source\PSoC5/Front_AMuxSeq.c **** *  void
 157:.\Generated_Source\PSoC5/Front_AMuxSeq.c **** *
 158:.\Generated_Source\PSoC5/Front_AMuxSeq.c **** * Return:
 159:.\Generated_Source\PSoC5/Front_AMuxSeq.c **** *  The current channel or -1.
 160:.\Generated_Source\PSoC5/Front_AMuxSeq.c **** *
 161:.\Generated_Source\PSoC5/Front_AMuxSeq.c **** *******************************************************************************/
 162:.\Generated_Source\PSoC5/Front_AMuxSeq.c **** int8 Front_AMuxSeq_GetChannel(void)
 163:.\Generated_Source\PSoC5/Front_AMuxSeq.c **** {
 104              		.loc 1 163 0
 105              		.cfi_startproc
 106              		@ args = 0, pretend = 0, frame = 0
 107              		@ frame_needed = 0, uses_anonymous_args = 0
 108              		@ link register save eliminated.
 164:.\Generated_Source\PSoC5/Front_AMuxSeq.c ****     return Front_AMuxSeq_curChannel;
 165:.\Generated_Source\PSoC5/Front_AMuxSeq.c **** }
 109              		.loc 1 165 0
 110 0000 014B     		ldr	r3, .L10
 111 0002 93F90000 		ldrsb	r0, [r3]
 112 0006 7047     		bx	lr
 113              	.L11:
 114              		.align	2
 115              	.L10:
 116 0008 00000000 		.word	Front_AMuxSeq_curChannel
 117              		.cfi_endproc
 118              	.LFE3:
 119              		.size	Front_AMuxSeq_GetChannel, .-Front_AMuxSeq_GetChannel
 120              		.global	Front_AMuxSeq_initVar
ARM GAS  C:\Users\Tim\AppData\Local\Temp\ccWk8nEO.s 			page 6


 121              		.bss
 122              		.set	.LANCHOR0,. + 0
 123              		.type	Front_AMuxSeq_initVar, %object
 124              		.size	Front_AMuxSeq_initVar, 1
 125              	Front_AMuxSeq_initVar:
 126 0000 00       		.space	1
 127              		.text
 128              	.Letext0:
 129              		.file 2 ".\\Generated_Source\\PSoC5\\cytypes.h"
 130              		.file 3 ".\\Generated_Source\\PSoC5\\cyfitter_cfg.h"