ARM GAS  C:\Users\Tim\AppData\Local\Temp\ccyb4S0f.s 			page 1


   1              		.syntax unified
   2              		.cpu cortex-m3
   3              		.fpu softvfp
   4              		.eabi_attribute 20, 1
   5              		.eabi_attribute 21, 1
   6              		.eabi_attribute 23, 3
   7              		.eabi_attribute 24, 1
   8              		.eabi_attribute 25, 1
   9              		.eabi_attribute 26, 1
  10              		.eabi_attribute 30, 1
  11              		.eabi_attribute 34, 1
  12              		.eabi_attribute 18, 4
  13              		.thumb
  14              		.file	"fuzzy.c"
  15              		.text
  16              	.Ltext0:
  17              		.cfi_sections	.debug_frame
  18              		.global	__aeabi_i2f
  19              		.global	__aeabi_fsub
  20              		.global	__aeabi_f2iz
  21              		.global	__aeabi_fmul
  22              		.global	__aeabi_fcmplt
  23              		.global	__aeabi_fcmpgt
  24              		.section	.text.compute_degree_of_membership,"ax",%progbits
  25              		.align	2
  26              		.thumb
  27              		.thumb_func
  28              		.type	compute_degree_of_membership, %function
  29              	compute_degree_of_membership:
  30              	.LFB64:
  31              		.file 1 "..\\source\\fuzzy.c"
   1:..\source/fuzzy.c **** /* ========================================
   2:..\source/fuzzy.c ****  *
   3:..\source/fuzzy.c ****  * Copyright YOUR COMPANY, THE YEAR
   4:..\source/fuzzy.c ****  * All Rights Reserved
   5:..\source/fuzzy.c ****  * UNPUBLISHED, LICENSED SOFTWARE.
   6:..\source/fuzzy.c ****  *
   7:..\source/fuzzy.c ****  * CONFIDENTIAL AND PROPRIETARY INFORMATION
   8:..\source/fuzzy.c ****  * WHICH IS THE PROPERTY OF your company.
   9:..\source/fuzzy.c ****  *
  10:..\source/fuzzy.c ****  * ========================================
  11:..\source/fuzzy.c **** */
  12:..\source/fuzzy.c **** #include "fuzzy.h"
  13:..\source/fuzzy.c **** #include "utils.h"
  14:..\source/fuzzy.c **** #include "i2c.h"
  15:..\source/fuzzy.c **** #include "encoder.h"
  16:..\source/fuzzy.c **** #include "motor.h"
  17:..\source/fuzzy.c **** 
  18:..\source/fuzzy.c **** #define MAXNAME 10
  19:..\source/fuzzy.c **** 
  20:..\source/fuzzy.c **** #define INPUT_ERROR (0)
  21:..\source/fuzzy.c **** #define INPUT_DERROR (1)
  22:..\source/fuzzy.c **** 
  23:..\source/fuzzy.c **** #define MAX_NUM_INPUTS (2)
  24:..\source/fuzzy.c **** #define MAX_NUM_OUTPUTS (1)
  25:..\source/fuzzy.c **** #define MAX_NUM_LEFT_INPUTS (MAX_NUM_INPUTS)
  26:..\source/fuzzy.c **** #define MAX_NUM_RIGHT_INPUTS (MAX_NUM_INPUTS)
ARM GAS  C:\Users\Tim\AppData\Local\Temp\ccyb4S0f.s 			page 2


  27:..\source/fuzzy.c **** #define MAX_NUM_LEFT_OUTPUTS (MAX_NUM_OUTPUTS)
  28:..\source/fuzzy.c **** #define MAX_NUM_RIGHT_OUTPUTS (MAX_NUM_OUTPUTS)
  29:..\source/fuzzy.c **** 
  30:..\source/fuzzy.c **** #define MAX_NUM_MFS (7)
  31:..\source/fuzzy.c **** #define MAX_NUM_INPUT_MFS (MAX_NUM_MFS)
  32:..\source/fuzzy.c **** #define MAX_NUM_OUTPUT_MFS (MAX_NUM_MFS)
  33:..\source/fuzzy.c **** #define MAX_NUM_RULES (MAX_NUM_INPUT_MFS * MAX_NUM_OUTPUT_MFS)
  34:..\source/fuzzy.c **** 
  35:..\source/fuzzy.c **** #define INPUT_ERROR     (0)
  36:..\source/fuzzy.c **** #define INPUT_DERROR    (1)
  37:..\source/fuzzy.c **** #define OUTPUT_PWM      (0)
  38:..\source/fuzzy.c **** 
  39:..\source/fuzzy.c **** #define MIN_MF_VALUE    (0.0)
  40:..\source/fuzzy.c **** #define MAX_MF_VALUE    (1.0)
  41:..\source/fuzzy.c **** 
  42:..\source/fuzzy.c **** #define UPPER_LIMIT     (MAX_MF_VALUE)
  43:..\source/fuzzy.c **** 
  44:..\source/fuzzy.c **** 
  45:..\source/fuzzy.c **** 
  46:..\source/fuzzy.c **** /* Membership functions are associated with each system input and output. */
  47:..\source/fuzzy.c **** typedef struct mf_type
  48:..\source/fuzzy.c **** {
  49:..\source/fuzzy.c ****     char name[MAXNAME]; /* name of membership function (fuzzy set)    */
  50:..\source/fuzzy.c ****     float value;        /* degree of membership or output strength    */
  51:..\source/fuzzy.c ****     float point1;       /* leftmost x-axis point of mem. function     */
  52:..\source/fuzzy.c ****     float point2;       /* rightmost x-axis point of mem. function    */
  53:..\source/fuzzy.c ****     float slope1;       /* slope of left side of membership function  */
  54:..\source/fuzzy.c ****     float slope2;       /* slope of right side of membership function */
  55:..\source/fuzzy.c **** } MF_TYPE;
  56:..\source/fuzzy.c **** 
  57:..\source/fuzzy.c **** 
  58:..\source/fuzzy.c **** /* io_type structure builds a list of system inputs and a list of system
  59:..\source/fuzzy.c **** outputs. After initialization, these lists are fixed, except for value field
  60:..\source/fuzzy.c **** which is updated on every inference pass. 
  61:..\source/fuzzy.c **** */
  62:..\source/fuzzy.c **** typedef struct io_type
  63:..\source/fuzzy.c **** {
  64:..\source/fuzzy.c ****     char name[MAXNAME]; /*  name of system input/output       */
  65:..\source/fuzzy.c ****     float value;        /*  value of system input/output      */
  66:..\source/fuzzy.c ****     MF_TYPE membership_functions[MAX_NUM_MFS];
  67:..\source/fuzzy.c **** } IO_TYPE;
  68:..\source/fuzzy.c **** 
  69:..\source/fuzzy.c **** typedef struct rule_type
  70:..\source/fuzzy.c **** {
  71:..\source/fuzzy.c ****     uint8 if_side[MAX_NUM_INPUTS];
  72:..\source/fuzzy.c ****     uint8 then_side[MAX_NUM_OUTPUTS];
  73:..\source/fuzzy.c **** } RULE_TYPE;
  74:..\source/fuzzy.c **** 
  75:..\source/fuzzy.c **** /* Membership Function Macros
  76:..\source/fuzzy.c **** 
  77:..\source/fuzzy.c ****     Note: For now, the left, right, output membership functions are all the same.  There isn't a co
  78:..\source/fuzzy.c ****     this point for them to not be.  So, we're able to define a set of macros for calculating points
  79:..\source/fuzzy.c ****     them for the input and output calculations.
  80:..\source/fuzzy.c **** 
  81:..\source/fuzzy.c **** */
  82:..\source/fuzzy.c **** 
  83:..\source/fuzzy.c **** 
ARM GAS  C:\Users\Tim\AppData\Local\Temp\ccyb4S0f.s 			page 3


  84:..\source/fuzzy.c **** /* Given a start and end point calculate the mid point */
  85:..\source/fuzzy.c **** #define CALC_MID_PT(pt1, pt2)   (pt1 + ((pt2 - pt1)/2))
  86:..\source/fuzzy.c **** #define CALC_SLOPE(y1, y2, x1, x2) ((y2 - y1)/(x2 - x1))
  87:..\source/fuzzy.c **** 
  88:..\source/fuzzy.c **** #define NB_PT1  (-1.0)
  89:..\source/fuzzy.c **** #define NB_PT2  (-0.67)
  90:..\source/fuzzy.c **** #define NB_SLOPE1 (0)
  91:..\source/fuzzy.c **** #define NB_SLOPE2 (CALC_SLOPE(0, UPPER_LIMIT, NB_PT2, NB_PT1))
  92:..\source/fuzzy.c **** 
  93:..\source/fuzzy.c **** #define NM_PT1  (-1.0)
  94:..\source/fuzzy.c **** #define NM_PT2  (-0.33)
  95:..\source/fuzzy.c **** #define NM_MID_PT (CALC_MID_PT(NM_PT1, NM_PT2))
  96:..\source/fuzzy.c **** #define NM_SLOPE1 (CALC_SLOPE(0, UPPER_LIMIT, NM_PT1, NM_MID_PT))
  97:..\source/fuzzy.c **** #define NM_SLOPE2 (CALC_SLOPE(0, UPPER_LIMIT, NM_PT2, NM_MID_PT))
  98:..\source/fuzzy.c **** 
  99:..\source/fuzzy.c **** #define NS_PT1  (-0.67)
 100:..\source/fuzzy.c **** #define NS_PT2  (0.0)
 101:..\source/fuzzy.c **** #define NS_MID_PT (CALC_MID_PT(NS_PT1, NS_PT2))
 102:..\source/fuzzy.c **** #define NS_SLOPE1 (CALC_SLOPE(0, UPPER_LIMIT, NS_PT1, NS_MID_PT))
 103:..\source/fuzzy.c **** #define NS_SLOPE2 (CALC_SLOPE(0, UPPER_LIMIT, NS_PT2, NS_MID_PT))
 104:..\source/fuzzy.c **** 
 105:..\source/fuzzy.c **** #define Z_PT1  (-0.33)
 106:..\source/fuzzy.c **** #define Z_PT2  (0.33)
 107:..\source/fuzzy.c **** #define Z_MID_PT (CALC_MID_PT(Z_PT1, Z_PT2))
 108:..\source/fuzzy.c **** #define Z_SLOPE1 (CALC_SLOPE(0, UPPER_LIMIT, Z_PT1, Z_MID_PT))
 109:..\source/fuzzy.c **** #define Z_SLOPE2 (CALC_SLOPE(0, UPPER_LIMIT, Z_PT2, Z_MID_PT))
 110:..\source/fuzzy.c **** 
 111:..\source/fuzzy.c **** #define PS_PT1  (0.0)
 112:..\source/fuzzy.c **** #define PS_PT2  (0.67)
 113:..\source/fuzzy.c **** #define PS_MID_PT (CALC_MID_PT(PS_PT1, PS_PT2))
 114:..\source/fuzzy.c **** #define PS_SLOPE1 (CALC_SLOPE(0, UPPER_LIMIT, PS_PT1, PS_MID_PT))
 115:..\source/fuzzy.c **** #define PS_SLOPE2 (CALC_SLOPE(0, UPPER_LIMIT, PS_PT2, PS_MID_PT))
 116:..\source/fuzzy.c **** 
 117:..\source/fuzzy.c **** #define PM_PT1  (0.33)
 118:..\source/fuzzy.c **** #define PM_PT2  (1.0)
 119:..\source/fuzzy.c **** #define PM_MID_PT (CALC_MID_PT(PM_PT1, PM_PT2))
 120:..\source/fuzzy.c **** #define PM_SLOPE1 (CALC_SLOPE(0, UPPER_LIMIT, PM_PT1, PM_MID_PT))
 121:..\source/fuzzy.c **** #define PM_SLOPE2 (CALC_SLOPE(0, UPPER_LIMIT, PM_PT2, PM_MID_PT))
 122:..\source/fuzzy.c **** 
 123:..\source/fuzzy.c **** #define PB_PT1  (0.67)
 124:..\source/fuzzy.c **** #define PB_PT2  (1.0)
 125:..\source/fuzzy.c **** #define PB_MID_PT (CALC_MID_PT(PB_PT1, PB_PT2))
 126:..\source/fuzzy.c **** #define PB_SLOPE1 (CALC_SLOPE(0, UPPER_LIMIT, PB_PT1, PB_MID_PT))
 127:..\source/fuzzy.c **** #define PB_SLOPE2 (0.0)
 128:..\source/fuzzy.c **** 
 129:..\source/fuzzy.c **** /* Input Error Membership Functions Definitions */
 130:..\source/fuzzy.c **** #define ERROR_NB_PT1    (NB_PT1)
 131:..\source/fuzzy.c **** #define ERROR_NB_PT2    (NB_PT2)
 132:..\source/fuzzy.c **** #define ERROR_NB_SLOPE1 (NB_SLOPE1)
 133:..\source/fuzzy.c **** #define ERROR_NB_SLOPE2 (NB_SLOPE2)
 134:..\source/fuzzy.c **** 
 135:..\source/fuzzy.c **** #define ERROR_NM_PT1    (NM_PT1)
 136:..\source/fuzzy.c **** #define ERROR_NM_PT2    (NM_PT2)
 137:..\source/fuzzy.c **** #define ERROR_NM_SLOPE1 (NM_SLOPE1)
 138:..\source/fuzzy.c **** #define ERROR_NM_SLOPE2 (NM_SLOPE2)
 139:..\source/fuzzy.c **** 
 140:..\source/fuzzy.c **** #define ERROR_NS_PT1    (NS_PT1)
ARM GAS  C:\Users\Tim\AppData\Local\Temp\ccyb4S0f.s 			page 4


 141:..\source/fuzzy.c **** #define ERROR_NS_PT2    (NS_PT2)
 142:..\source/fuzzy.c **** #define ERROR_NS_SLOPE1 (NS_SLOPE1)
 143:..\source/fuzzy.c **** #define ERROR_NS_SLOPE2 (NS_SLOPE2)
 144:..\source/fuzzy.c **** 
 145:..\source/fuzzy.c **** #define ERROR_Z_PT1    (Z_PT1)
 146:..\source/fuzzy.c **** #define ERROR_Z_PT2    (Z_PT2)
 147:..\source/fuzzy.c **** #define ERROR_Z_SLOPE1 (Z_SLOPE1)
 148:..\source/fuzzy.c **** #define ERROR_Z_SLOPE2 (Z_SLOPE2)
 149:..\source/fuzzy.c **** 
 150:..\source/fuzzy.c **** #define ERROR_PS_PT1    (PS_PT1)
 151:..\source/fuzzy.c **** #define ERROR_PS_PT2    (PS_PT1)
 152:..\source/fuzzy.c **** #define ERROR_PS_SLOPE1 (PS_SLOPE1)
 153:..\source/fuzzy.c **** #define ERROR_PS_SLOPE2 (PS_SLOPE2)
 154:..\source/fuzzy.c **** 
 155:..\source/fuzzy.c **** #define ERROR_PM_PT1    (PM_PT1)
 156:..\source/fuzzy.c **** #define ERROR_PM_PT2    (PM_PT1)
 157:..\source/fuzzy.c **** #define ERROR_PM_SLOPE1 (PM_SLOPE1)
 158:..\source/fuzzy.c **** #define ERROR_PM_SLOPE2 (PM_SLOPE2)
 159:..\source/fuzzy.c **** 
 160:..\source/fuzzy.c **** #define ERROR_PB_PT1    (PB_PT1)
 161:..\source/fuzzy.c **** #define ERROR_PB_PT2    (PB_PT1)
 162:..\source/fuzzy.c **** #define ERROR_PB_SLOPE1 (PB_SLOPE1)
 163:..\source/fuzzy.c **** #define ERROR_PB_SLOPE2 (PB_SLOPE2)
 164:..\source/fuzzy.c **** 
 165:..\source/fuzzy.c **** /* Input dError Membership Functions Definitions */
 166:..\source/fuzzy.c **** #define DERROR_NB_PT1    (NB_PT1)
 167:..\source/fuzzy.c **** #define DERROR_NB_PT2    (NB_PT2)
 168:..\source/fuzzy.c **** #define DERROR_NB_SLOPE1 (NB_SLOPE1)
 169:..\source/fuzzy.c **** #define DERROR_NB_SLOPE2 (NB_SLOPE2)
 170:..\source/fuzzy.c **** 
 171:..\source/fuzzy.c **** #define DERROR_NM_PT1    (NM_PT1)
 172:..\source/fuzzy.c **** #define DERROR_NM_PT2    (NM_PT2)
 173:..\source/fuzzy.c **** #define DERROR_NM_SLOPE1 (NM_SLOPE1)
 174:..\source/fuzzy.c **** #define DERROR_NM_SLOPE2 (NM_SLOPE2)
 175:..\source/fuzzy.c **** 
 176:..\source/fuzzy.c **** #define DERROR_NS_PT1    (NS_PT1)
 177:..\source/fuzzy.c **** #define DERROR_NS_PT2    (NS_PT2)
 178:..\source/fuzzy.c **** #define DERROR_NS_SLOPE1 (NS_SLOPE1)
 179:..\source/fuzzy.c **** #define DERROR_NS_SLOPE2 (NS_SLOPE2)
 180:..\source/fuzzy.c **** 
 181:..\source/fuzzy.c **** #define DERROR_Z_PT1    (Z_PT1)
 182:..\source/fuzzy.c **** #define DERROR_Z_PT2    (Z_PT2)
 183:..\source/fuzzy.c **** #define DERROR_Z_SLOPE1 (Z_SLOPE1)
 184:..\source/fuzzy.c **** #define DERROR_Z_SLOPE2 (Z_SLOPE2)
 185:..\source/fuzzy.c **** 
 186:..\source/fuzzy.c **** #define DERROR_PS_PT1    (PS_PT1)
 187:..\source/fuzzy.c **** #define DERROR_PS_PT2    (PS_PT1)
 188:..\source/fuzzy.c **** #define DERROR_PS_SLOPE1 (PS_SLOPE1)
 189:..\source/fuzzy.c **** #define DERROR_PS_SLOPE2 (PS_SLOPE2)
 190:..\source/fuzzy.c **** 
 191:..\source/fuzzy.c **** #define DERROR_PM_PT1    (PM_PT1)
 192:..\source/fuzzy.c **** #define DERROR_PM_PT2    (PM_PT1)
 193:..\source/fuzzy.c **** #define DERROR_PM_SLOPE1 (PM_SLOPE1)
 194:..\source/fuzzy.c **** #define DERROR_PM_SLOPE2 (PM_SLOPE2)
 195:..\source/fuzzy.c **** 
 196:..\source/fuzzy.c **** #define DERROR_PB_PT1    (PB_PT1)
 197:..\source/fuzzy.c **** #define DERROR_PB_PT2    (PB_PT1)
ARM GAS  C:\Users\Tim\AppData\Local\Temp\ccyb4S0f.s 			page 5


 198:..\source/fuzzy.c **** #define DERROR_PB_SLOPE1 (PB_SLOPE1)
 199:..\source/fuzzy.c **** #define DERROR_PB_SLOPE2 (PB_SLOPE2)
 200:..\source/fuzzy.c **** 
 201:..\source/fuzzy.c **** #define SYSTEM_INPUTS                   \
 202:..\source/fuzzy.c **** {                                       \
 203:..\source/fuzzy.c ****     {                                   \
 204:..\source/fuzzy.c ****         "Error",                        \
 205:..\source/fuzzy.c ****         0,                              \
 206:..\source/fuzzy.c ****         {                               \
 207:..\source/fuzzy.c ****             {"NB", 0, ERROR_NB_PT1, ERROR_NB_PT2, ERROR_NB_SLOPE1, ERROR_NB_SLOPE2},  \
 208:..\source/fuzzy.c ****             {"NM", 0, ERROR_NM_PT1, ERROR_NM_PT2, ERROR_NM_SLOPE1, ERROR_NM_SLOPE2},  \
 209:..\source/fuzzy.c ****             {"NS", 0, ERROR_NS_PT1, ERROR_NS_PT2, ERROR_NS_SLOPE1, ERROR_NS_SLOPE2},  \
 210:..\source/fuzzy.c ****             {"Z",  0, ERROR_Z_PT1,  ERROR_Z_PT2,  ERROR_Z_SLOPE1,  ERROR_Z_SLOPE2},   \
 211:..\source/fuzzy.c ****             {"PS", 0, ERROR_PS_PT1, ERROR_PS_PT2, ERROR_PS_SLOPE1, ERROR_PS_SLOPE2},  \
 212:..\source/fuzzy.c ****             {"PM", 0, ERROR_PM_PT1, ERROR_PM_PT2, ERROR_PM_SLOPE1, ERROR_PM_SLOPE2},  \
 213:..\source/fuzzy.c ****             {"PB", 0, ERROR_PB_PT1, ERROR_PB_PT2, ERROR_PB_SLOPE1, ERROR_PB_SLOPE2}   \
 214:..\source/fuzzy.c ****         }                               \
 215:..\source/fuzzy.c ****     },                                  \
 216:..\source/fuzzy.c ****     {                                   \
 217:..\source/fuzzy.c ****         "dError",                       \
 218:..\source/fuzzy.c ****         0,                              \
 219:..\source/fuzzy.c ****         {                               \
 220:..\source/fuzzy.c ****             {"NB", 0, DERROR_NB_PT1, DERROR_NB_PT2, DERROR_NB_SLOPE1, DERROR_NB_SLOPE2},  \
 221:..\source/fuzzy.c ****             {"NM", 0, DERROR_NM_PT1, DERROR_NM_PT2, DERROR_NM_SLOPE1, DERROR_NM_SLOPE2},  \
 222:..\source/fuzzy.c ****             {"NS", 0, DERROR_NS_PT1, DERROR_NS_PT2, DERROR_NS_SLOPE1, DERROR_NS_SLOPE2},  \
 223:..\source/fuzzy.c ****             {"Z",  0, DERROR_Z_PT1,  DERROR_Z_PT2,  DERROR_Z_SLOPE1,  DERROR_Z_SLOPE2},   \
 224:..\source/fuzzy.c ****             {"PS", 0, DERROR_PS_PT1, DERROR_PS_PT2, DERROR_PS_SLOPE1, DERROR_PS_SLOPE2},  \
 225:..\source/fuzzy.c ****             {"PM", 0, DERROR_PM_PT1, DERROR_PM_PT2, DERROR_PM_SLOPE1, DERROR_PM_SLOPE2},  \
 226:..\source/fuzzy.c ****             {"PB", 0, DERROR_PB_PT1, DERROR_PB_PT2, DERROR_PB_SLOPE1, DERROR_PB_SLOPE2}   \
 227:..\source/fuzzy.c ****         }                               \
 228:..\source/fuzzy.c ****     }                                   \
 229:..\source/fuzzy.c **** }
 230:..\source/fuzzy.c **** 
 231:..\source/fuzzy.c **** 
 232:..\source/fuzzy.c **** /*
 233:..\source/fuzzy.c ****   IO_TYPE - output
 234:..\source/fuzzy.c ****     { "PWM", i/o value, mfs}
 235:..\source/fuzzy.c ****         mfs
 236:..\source/fuzzy.c ****         { "NB", <value>, point1, point2, slope1, slope2},
 237:..\source/fuzzy.c ****         { "NS", <value>, point1, point2, slope1, slope2},
 238:..\source/fuzzy.c ****         { "ZE", <value>, point1, point2, slope1, slope2},
 239:..\source/fuzzy.c ****         { "PS", <value>, point1, point2, slope1, slope2},
 240:..\source/fuzzy.c ****         { "PB", <value>, point1, point2, slope1, slope2},
 241:..\source/fuzzy.c ****     }
 242:..\source/fuzzy.c **** 
 243:..\source/fuzzy.c **** System Outpus is an array of IO_TYPE
 244:..\source/fuzzy.c ****    Each IO_TYPE contains an array of MF_TYPE
 245:..\source/fuzzy.c **** 
 246:..\source/fuzzy.c **** */
 247:..\source/fuzzy.c **** /* Input PWM Membership Functions Definitions */
 248:..\source/fuzzy.c **** #define PWM_NB_PT1    (NB_PT1)
 249:..\source/fuzzy.c **** #define PWM_NB_PT2    (NB_PT2)
 250:..\source/fuzzy.c **** #define PWM_NB_SLOPE1 (NB_SLOPE1)
 251:..\source/fuzzy.c **** #define PWM_NB_SLOPE2 (NB_SLOPE2)
 252:..\source/fuzzy.c **** 
 253:..\source/fuzzy.c **** #define PWM_NM_PT1    (NM_PT1)
 254:..\source/fuzzy.c **** #define PWM_NM_PT2    (NM_PT2)
ARM GAS  C:\Users\Tim\AppData\Local\Temp\ccyb4S0f.s 			page 6


 255:..\source/fuzzy.c **** #define PWM_NM_SLOPE1 (NM_SLOPE1)
 256:..\source/fuzzy.c **** #define PWM_NM_SLOPE2 (NM_SLOPE2)
 257:..\source/fuzzy.c **** 
 258:..\source/fuzzy.c **** #define PWM_NS_PT1    (NS_PT1)
 259:..\source/fuzzy.c **** #define PWM_NS_PT2    (NS_PT2)
 260:..\source/fuzzy.c **** #define PWM_NS_SLOPE1 (NS_SLOPE1)
 261:..\source/fuzzy.c **** #define PWM_NS_SLOPE2 (NS_SLOPE2)
 262:..\source/fuzzy.c **** 
 263:..\source/fuzzy.c **** #define PWM_Z_PT1    (Z_PT1)
 264:..\source/fuzzy.c **** #define PWM_Z_PT2    (Z_PT2)
 265:..\source/fuzzy.c **** #define PWM_Z_SLOPE1 (Z_SLOPE1)
 266:..\source/fuzzy.c **** #define PWM_Z_SLOPE2 (Z_SLOPE2)
 267:..\source/fuzzy.c **** 
 268:..\source/fuzzy.c **** #define PWM_PS_PT1    (PS_PT1)
 269:..\source/fuzzy.c **** #define PWM_PS_PT2    (PS_PT1)
 270:..\source/fuzzy.c **** #define PWM_PS_SLOPE1 (PS_SLOPE1)
 271:..\source/fuzzy.c **** #define PWM_PS_SLOPE2 (PS_SLOPE2)
 272:..\source/fuzzy.c **** 
 273:..\source/fuzzy.c **** #define PWM_PM_PT1    (PM_PT1)
 274:..\source/fuzzy.c **** #define PWM_PM_PT2    (PM_PT1)
 275:..\source/fuzzy.c **** #define PWM_PM_SLOPE1 (PM_SLOPE1)
 276:..\source/fuzzy.c **** #define PWM_PM_SLOPE2 (PM_SLOPE2)
 277:..\source/fuzzy.c **** 
 278:..\source/fuzzy.c **** #define PWM_PB_PT1    (PB_PT1)
 279:..\source/fuzzy.c **** #define PWM_PB_PT2    (PB_PT1)
 280:..\source/fuzzy.c **** #define PWM_PB_SLOPE1 (PB_SLOPE1)
 281:..\source/fuzzy.c **** #define PWM_PB_SLOPE2 (PB_SLOPE2)
 282:..\source/fuzzy.c **** 
 283:..\source/fuzzy.c **** #define SYSTEM_OUTPUTS                  \
 284:..\source/fuzzy.c **** {                                       \
 285:..\source/fuzzy.c ****     {                                   \
 286:..\source/fuzzy.c ****         "PWM",                          \
 287:..\source/fuzzy.c ****         0,                              \
 288:..\source/fuzzy.c ****         {                               \
 289:..\source/fuzzy.c ****             {"NB", 0, PWM_NB_PT1, PWM_NB_PT2, PWM_NB_SLOPE1, PWM_NB_SLOPE2},  \
 290:..\source/fuzzy.c ****             {"NM", 0, PWM_NM_PT1, PWM_NM_PT2, PWM_NM_SLOPE1, PWM_NM_SLOPE2},  \
 291:..\source/fuzzy.c ****             {"NS", 0, PWM_NS_PT1, PWM_NS_PT2, PWM_NS_SLOPE1, PWM_NS_SLOPE2},  \
 292:..\source/fuzzy.c ****             {"Z",  0, PWM_Z_PT1,  PWM_Z_PT2,  PWM_Z_SLOPE1,  PWM_Z_SLOPE2},  \
 293:..\source/fuzzy.c ****             {"PS", 0, PWM_PS_PT1, PWM_PS_PT2, PWM_PS_SLOPE1, PWM_PS_SLOPE2},  \
 294:..\source/fuzzy.c ****             {"PM", 0, PWM_PM_PT1, PWM_PM_PT2, PWM_PM_SLOPE1, PWM_PM_SLOPE2},  \
 295:..\source/fuzzy.c ****             {"PB", 0, PWM_PB_PT1, PWM_PB_PT2, PWM_PB_SLOPE1, PWM_PB_SLOPE2}   \
 296:..\source/fuzzy.c ****         }                               \
 297:..\source/fuzzy.c ****     }                                   \
 298:..\source/fuzzy.c **** }
 299:..\source/fuzzy.c **** 
 300:..\source/fuzzy.c **** /*
 301:..\source/fuzzy.c ****   RULE BASE
 302:..\source/fuzzy.c ****     {
 303:..\source/fuzzy.c ****         Rule 1: if error is NB and derror is NB then PWM is NB
 304:..\source/fuzzy.c ****             ifside
 305:..\source/fuzzy.c ****                 value -> Error -> mfs -> "NB" : value,
 306:..\source/fuzzy.c ****                 value -> dError -> mfs -> "NB" : value,
 307:..\source/fuzzy.c **** 
 308:..\source/fuzzy.c ****             thenside
 309:..\source/fuzzy.c ****                 value -> PWM -> mfs -> "NB" : value
 310:..\source/fuzzy.c **** 
 311:..\source/fuzzy.c ****         Rule 2: if error is NS and derror is NB then PWM is NB
ARM GAS  C:\Users\Tim\AppData\Local\Temp\ccyb4S0f.s 			page 7


 312:..\source/fuzzy.c ****             ifside
 313:..\source/fuzzy.c ****                 value -> Error -> mfs -> "NS" : value,
 314:..\source/fuzzy.c ****                 value -> dError -> mfs -> "NB" : value,
 315:..\source/fuzzy.c **** 
 316:..\source/fuzzy.c ****             thenside
 317:..\source/fuzzy.c ****                 value -> PWM -> mfs -> "NB" : value
 318:..\source/fuzzy.c **** 
 319:..\source/fuzzy.c ****     }
 320:..\source/fuzzy.c **** 
 321:..\source/fuzzy.c **** Rule Base is an array of rule type
 322:..\source/fuzzy.c ****     rule type is a two field structure of if-side indeces and then-side indeces
 323:..\source/fuzzy.c **** 
 324:..\source/fuzzy.c ****  */
 325:..\source/fuzzy.c **** RULE_TYPE Rules[MAX_NUM_RULES] = 
 326:..\source/fuzzy.c **** {    
 327:..\source/fuzzy.c ****     {{0,0}, {0}},// if error is NB and derror is NB then PWM is NB    
 328:..\source/fuzzy.c ****     
 329:..\source/fuzzy.c ****     {{0,1}, {0}},// if error is NB and derror is NM then PWM is NB
 330:..\source/fuzzy.c ****     
 331:..\source/fuzzy.c ****     {{0,2}, {0}},// if error is NB and derror is NS then PWM is NB
 332:..\source/fuzzy.c ****     
 333:..\source/fuzzy.c ****     {{0,3}, {1}},// if error is NB and dError is Z then PWM is NM
 334:..\source/fuzzy.c ****     
 335:..\source/fuzzy.c ****     {{0,4}, {1}},// if error is NB and dError is PS then PWM is NM
 336:..\source/fuzzy.c ****     
 337:..\source/fuzzy.c ****     {{0,5}, {2}},// if error is NB and dError is PM then PWM is NS
 338:..\source/fuzzy.c ****     
 339:..\source/fuzzy.c ****     {{0,6}, {3}},// if error is NB and dError is PB then PWM is Z
 340:..\source/fuzzy.c ****     
 341:..\source/fuzzy.c ****     {{1,0}, {0}},// if error is NS and dError is NB then PWM is NB
 342:..\source/fuzzy.c ****     
 343:..\source/fuzzy.c ****     {{1,1}, {0}},// if error is NS and dError is NM then PWM is NB
 344:..\source/fuzzy.c ****     
 345:..\source/fuzzy.c ****     {{1,2}, {1}},// if error is NS and dError is NS then PWM is NM
 346:..\source/fuzzy.c ****     
 347:..\source/fuzzy.c ****     {{1,3}, {1}},// if error is NS and dError is Z then PWM is NM
 348:..\source/fuzzy.c ****     
 349:..\source/fuzzy.c ****     {{1,4}, {2}},// if error is NS and dError is PS then PWM is NS
 350:..\source/fuzzy.c ****     
 351:..\source/fuzzy.c ****     {{1,5}, {3}},// if error is NS and dError is PM then PWM is Z
 352:..\source/fuzzy.c ****     
 353:..\source/fuzzy.c ****     {{1,6}, {4}},// if error is NS and dError is PB then PWM is PS
 354:..\source/fuzzy.c ****     
 355:..\source/fuzzy.c ****     {{2,0}, {0}},// if error is ZE and dError is NB then PWM is NB
 356:..\source/fuzzy.c ****     
 357:..\source/fuzzy.c ****     {{2,1}, {1}},// if error is ZE and dError is NM then PWM is NM
 358:..\source/fuzzy.c ****     
 359:..\source/fuzzy.c ****     {{2,2}, {1}},// if error is ZE and dError is NS then PWM is NM
 360:..\source/fuzzy.c ****     
 361:..\source/fuzzy.c ****     {{2,3}, {2}},// if error is ZE and dError is Z then PWM is NS
 362:..\source/fuzzy.c ****     
 363:..\source/fuzzy.c ****     {{2,4}, {3}},// if error is ZE and dError is PS then PWM is Z
 364:..\source/fuzzy.c ****     
 365:..\source/fuzzy.c ****     {{2,5}, {4}},// if error is ZE and dError is PM then PWM is PS
 366:..\source/fuzzy.c ****     
 367:..\source/fuzzy.c ****     {{2,6}, {5}},// if error is ZE and dError is PB then PWM is PM
 368:..\source/fuzzy.c ****     
ARM GAS  C:\Users\Tim\AppData\Local\Temp\ccyb4S0f.s 			page 8


 369:..\source/fuzzy.c ****     {{3,0}, {1}},// if error is PS and dError is NB then PWM is PM
 370:..\source/fuzzy.c ****     
 371:..\source/fuzzy.c ****     {{3,1}, {1}},// if error is PS and dError is NM then PWM is PM
 372:..\source/fuzzy.c ****     
 373:..\source/fuzzy.c ****     {{3,2}, {2}},// if error is PS and dError is NS then PWM is PS
 374:..\source/fuzzy.c ****     
 375:..\source/fuzzy.c ****     {{3,3}, {3}},// if error is PS and dError is Z then PWM is Z
 376:..\source/fuzzy.c ****     
 377:..\source/fuzzy.c ****     {{3,4}, {4}},// if error is PS and dError is PS then PWM is PS
 378:..\source/fuzzy.c ****     
 379:..\source/fuzzy.c ****     {{3,5}, {5}},// if error is PS and dError is PM then PWM is PM
 380:..\source/fuzzy.c ****     
 381:..\source/fuzzy.c ****     {{3,6}, {5}},// if error is PS and dError is PB then PWM is PM
 382:..\source/fuzzy.c ****     
 383:..\source/fuzzy.c ****     {{4,0}, {1}},// if error is PB and dError is NB then PWM is NM
 384:..\source/fuzzy.c ****     
 385:..\source/fuzzy.c ****     {{4,1}, {2}},// if error is PB and dError is NM then PWM is NS
 386:..\source/fuzzy.c ****     
 387:..\source/fuzzy.c ****     {{4,2}, {3}},// if error is PB and dError is NS then PWM is Z
 388:..\source/fuzzy.c ****     
 389:..\source/fuzzy.c ****     {{4,3}, {4}},// if error is PB and dError is Z then PWM is PS
 390:..\source/fuzzy.c ****     
 391:..\source/fuzzy.c ****     {{4,4}, {5}},// if error is PB and dError is PS then PWM is PM
 392:..\source/fuzzy.c ****     
 393:..\source/fuzzy.c ****     {{4,5}, {6}},// if error is PB and dError is PM then PWM is PB
 394:..\source/fuzzy.c ****     
 395:..\source/fuzzy.c ****     {{4,6}, {6}},// if error is PB and dError is PB then PWM is PB
 396:..\source/fuzzy.c ****     
 397:..\source/fuzzy.c ****     {{5,0}, {2}},// if error is PB and dError is NB then PWM is NS
 398:..\source/fuzzy.c ****     
 399:..\source/fuzzy.c ****     {{5,1}, {3}},// if error is PB and dError is NM then PWM is Z
 400:..\source/fuzzy.c ****     
 401:..\source/fuzzy.c ****     {{5,2}, {4}},// if error is PB and dError is NS then PWM is PS
 402:..\source/fuzzy.c ****     
 403:..\source/fuzzy.c ****     {{5,3}, {5}},// if error is PB and dError is Z then PWM is PM
 404:..\source/fuzzy.c ****     
 405:..\source/fuzzy.c ****     {{5,4}, {5}},// if error is PB and dError is PS then PWM is PM
 406:..\source/fuzzy.c ****     
 407:..\source/fuzzy.c ****     {{5,5}, {6}},// if error is PB and dError is PM then PWM is PB
 408:..\source/fuzzy.c ****     
 409:..\source/fuzzy.c ****     {{5,6}, {6}},// if error is PB and dError is PB then PWM is PB
 410:..\source/fuzzy.c ****     
 411:..\source/fuzzy.c ****     {{6,0}, {3}},// if error is PB and dError is NB then PWM is Z
 412:..\source/fuzzy.c ****     
 413:..\source/fuzzy.c ****     {{6,1}, {4}},// if error is PB and dError is NM then PWM is PS
 414:..\source/fuzzy.c ****     
 415:..\source/fuzzy.c ****     {{6,2}, {5}},// if error is PB and dError is NS then PWM is PM
 416:..\source/fuzzy.c ****     
 417:..\source/fuzzy.c ****     {{6,3}, {5}},// if error is PB and dError is Z then PWM is PM
 418:..\source/fuzzy.c ****     
 419:..\source/fuzzy.c ****     {{6,4}, {6}},// if error is PB and dError is PS then PWM is PB
 420:..\source/fuzzy.c ****     
 421:..\source/fuzzy.c ****     {{6,5}, {6}},// if error is PB and dError is PM then PWM is PB
 422:..\source/fuzzy.c ****     
 423:..\source/fuzzy.c ****     {{6,6}, {6}}// if error is PB and dError is PB then PWM is PB
 424:..\source/fuzzy.c **** };
 425:..\source/fuzzy.c **** 
ARM GAS  C:\Users\Tim\AppData\Local\Temp\ccyb4S0f.s 			page 9


 426:..\source/fuzzy.c **** static IO_TYPE left_inputs[MAX_NUM_LEFT_INPUTS] = SYSTEM_INPUTS;
 427:..\source/fuzzy.c **** static IO_TYPE right_inputs[MAX_NUM_RIGHT_INPUTS] = SYSTEM_INPUTS;
 428:..\source/fuzzy.c **** static IO_TYPE left_output[MAX_NUM_LEFT_OUTPUTS] = SYSTEM_OUTPUTS;
 429:..\source/fuzzy.c **** static IO_TYPE right_output[MAX_NUM_RIGHT_OUTPUTS] = SYSTEM_OUTPUTS;
 430:..\source/fuzzy.c **** 
 431:..\source/fuzzy.c **** static int16 max_reverse_speed;
 432:..\source/fuzzy.c **** static int16 max_forward_speed;
 433:..\source/fuzzy.c **** 
 434:..\source/fuzzy.c **** static int16 left_actual_speed;
 435:..\source/fuzzy.c **** static int16 right_actual_speed;
 436:..\source/fuzzy.c **** 
 437:..\source/fuzzy.c **** static void get_inputs()
 438:..\source/fuzzy.c **** {
 439:..\source/fuzzy.c ****     /* 
 440:..\source/fuzzy.c ****         Read the left/right commanded speed
 441:..\source/fuzzy.c ****         Read the left/right speed from the motor
 442:..\source/fuzzy.c ****     
 443:..\source/fuzzy.c ****         Calculate left/right error
 444:..\source/fuzzy.c ****         Calculate left/right delta error
 445:..\source/fuzzy.c ****     
 446:..\source/fuzzy.c ****         Q: How to handle positive/negative speeds?
 447:..\source/fuzzy.c ****     
 448:..\source/fuzzy.c ****         The speed that comes from the encoder can be positive or negative.  Maybe it would be bette
 449:..\source/fuzzy.c ****         speeds before processing them, similar to the PID approach.  Still, how to handle negative 
 450:..\source/fuzzy.c ****     
 451:..\source/fuzzy.c ****         Can we change to absolute values, do the fuzzy processing, and convert back?
 452:..\source/fuzzy.c ****     
 453:..\source/fuzzy.c ****         How would that look?
 454:..\source/fuzzy.c ****     
 455:..\source/fuzzy.c ****             - commanded left speed is 200 mm/s
 456:..\source/fuzzy.c ****             - normalized speed is 200 / max speed = 200 / 565 = 0.35
 457:..\source/fuzzy.c ****             - measured left speed is 100 mm/s
 458:..\source/fuzzy.c ****             - normalized speed is 0.175 (roughly half)
 459:..\source/fuzzy.c ****             - error = 0.35 - 0.175 = 0.175
 460:..\source/fuzzy.c ****             - derror = 0
 461:..\source/fuzzy.c ****         
 462:..\source/fuzzy.c ****         Fuzzy processing would apply .175 (PS) and 0 (ZE) to the rule base and get back something l
 463:..\source/fuzzy.c ****         something like 0.3.
 464:..\source/fuzzy.c ****     
 465:..\source/fuzzy.c ****         Now, remember that this 0.3 is an adjustment to the current PWM setting not an actual PWM. 
 466:..\source/fuzzy.c ****     
 467:..\source/fuzzy.c ****         So, the actual output range from fuzzy processing needs to be -1.0 to 1.0 so that the PWM c
 468:..\source/fuzzy.c ****         down.
 469:..\source/fuzzy.c ****     
 470:..\source/fuzzy.c ****         Quick Summary:
 471:..\source/fuzzy.c ****             Inputs:
 472:..\source/fuzzy.c ****                 Error - range -1.0 to 1.0
 473:..\source/fuzzy.c ****                 dError - range -1.0 to 1.0
 474:..\source/fuzzy.c ****             Output:
 475:..\source/fuzzy.c ****                 PWM - range -1.0 to 1.0
 476:..\source/fuzzy.c ****     
 477:..\source/fuzzy.c ****         By normalizing, fuzzy processing deals only with relative input/output values and can be eq
 478:..\source/fuzzy.c ****         positive and negative speeds.
 479:..\source/fuzzy.c ****     
 480:..\source/fuzzy.c ****         Note: A positive output means the actual is less than the target and the actual needs to be
 481:..\source/fuzzy.c ****               A negative output means the actual is more than the target and the actual needs to be
 482:..\source/fuzzy.c ****     
ARM GAS  C:\Users\Tim\AppData\Local\Temp\ccyb4S0f.s 			page 10


 483:..\source/fuzzy.c ****         Note: There will still be need to handle the differences in arithmetic of the PWM for left/
 484:..\source/fuzzy.c ****     
 485:..\source/fuzzy.c ****         
 486:..\source/fuzzy.c ****     
 487:..\source/fuzzy.c ****     */
 488:..\source/fuzzy.c ****     int16 left_target_speed;
 489:..\source/fuzzy.c ****     int16 right_target_speed;
 490:..\source/fuzzy.c ****     static int16 last_left_input_error;
 491:..\source/fuzzy.c ****     static int16 last_right_input_error;
 492:..\source/fuzzy.c ****     
 493:..\source/fuzzy.c ****     /* Read crisp inputs and normalize */
 494:..\source/fuzzy.c ****     
 495:..\source/fuzzy.c ****     I2c_ReadLRCmdVelocity(&left_target_speed, &right_target_speed);
 496:..\source/fuzzy.c ****     Encoder_GetLRSpeed(&left_actual_speed, &right_actual_speed);
 497:..\source/fuzzy.c ****     
 498:..\source/fuzzy.c ****     int16 left_error_upper = left_target_speed >= 0 ? max_forward_speed : max_reverse_speed;
 499:..\source/fuzzy.c ****     int16 right_error_upper = right_target_speed >= 0 ? max_forward_speed : max_reverse_speed;
 500:..\source/fuzzy.c **** 
 501:..\source/fuzzy.c ****     /* Calculate Error */
 502:..\source/fuzzy.c ****     int16 left_input_error = left_target_speed - left_actual_speed;
 503:..\source/fuzzy.c ****     int16 right_input_error = right_target_speed - right_actual_speed;
 504:..\source/fuzzy.c **** 
 505:..\source/fuzzy.c ****     
 506:..\source/fuzzy.c ****     /* Calculate dError */
 507:..\source/fuzzy.c ****     int16 left_input_derror = last_left_input_error - left_input_error;
 508:..\source/fuzzy.c ****     last_left_input_error = left_input_error;
 509:..\source/fuzzy.c **** 
 510:..\source/fuzzy.c ****     int16 right_input_derror = last_right_input_error - right_input_error;
 511:..\source/fuzzy.c ****     last_right_input_error = right_input_error;
 512:..\source/fuzzy.c **** 
 513:..\source/fuzzy.c ****     int16 left_derror_upper = left_input_derror >= 0 ? max_forward_speed : max_reverse_speed;
 514:..\source/fuzzy.c ****     int16 right_derror_upper = right_input_derror >= 0 ? max_forward_speed : max_reverse_speed;
 515:..\source/fuzzy.c ****     
 516:..\source/fuzzy.c ****     /* Scale error and derror for Fuzzy processing */    
 517:..\source/fuzzy.c ****     left_inputs[INPUT_ERROR].value = normalize(left_input_error, 0.0, left_error_upper);
 518:..\source/fuzzy.c ****     left_inputs[INPUT_DERROR].value = normalize(left_input_derror, 0.0, left_derror_upper);
 519:..\source/fuzzy.c ****     
 520:..\source/fuzzy.c ****     right_inputs[INPUT_ERROR].value = normalize(right_input_error, 0.0, right_error_upper);
 521:..\source/fuzzy.c ****     right_inputs[INPUT_DERROR].value = normalize(right_input_derror, 0.0, right_derror_upper);
 522:..\source/fuzzy.c **** }
 523:..\source/fuzzy.c **** 
 524:..\source/fuzzy.c **** static void compute_degree_of_membership(MF_TYPE *mf, int input)
 525:..\source/fuzzy.c **** {
  32              		.loc 1 525 0
  33              		.cfi_startproc
  34              		@ args = 0, pretend = 0, frame = 0
  35              		@ frame_needed = 0, uses_anonymous_args = 0
  36              	.LVL0:
  37 0000 F8B5     		push	{r3, r4, r5, r6, r7, lr}
  38              		.cfi_def_cfa_offset 24
  39              		.cfi_offset 3, -24
  40              		.cfi_offset 4, -20
  41              		.cfi_offset 5, -16
  42              		.cfi_offset 6, -12
  43              		.cfi_offset 7, -8
  44              		.cfi_offset 14, -4
  45 0002 0446     		mov	r4, r0
ARM GAS  C:\Users\Tim\AppData\Local\Temp\ccyb4S0f.s 			page 11


 526:..\source/fuzzy.c ****     int delta_1;
 527:..\source/fuzzy.c ****     int delta_2;
 528:..\source/fuzzy.c ****     
 529:..\source/fuzzy.c ****     delta_1 = input - mf->point1;
  46              		.loc 1 529 0
  47 0004 0846     		mov	r0, r1
  48              	.LVL1:
  49 0006 FFF7FEFF 		bl	__aeabi_i2f
  50              	.LVL2:
  51 000a 0646     		mov	r6, r0
  52 000c 2169     		ldr	r1, [r4, #16]	@ float
  53 000e FFF7FEFF 		bl	__aeabi_fsub
  54              	.LVL3:
  55 0012 FFF7FEFF 		bl	__aeabi_f2iz
  56              	.LVL4:
  57 0016 0546     		mov	r5, r0
  58              	.LVL5:
 530:..\source/fuzzy.c ****     delta_2 = mf->point2 - input;
  59              		.loc 1 530 0
  60 0018 6069     		ldr	r0, [r4, #20]	@ float
  61              	.LVL6:
  62 001a 3146     		mov	r1, r6
  63 001c FFF7FEFF 		bl	__aeabi_fsub
  64              	.LVL7:
  65 0020 FFF7FEFF 		bl	__aeabi_f2iz
  66              	.LVL8:
 531:..\source/fuzzy.c ****         
 532:..\source/fuzzy.c ****     /* If you want to support a trapezoid then it will be necessary to accommodate a slope of 1.  T
 533:..\source/fuzzy.c ****        right now.
 534:..\source/fuzzy.c ****      */
 535:..\source/fuzzy.c ****     
 536:..\source/fuzzy.c ****     /* If the input falls outside of the membership function then the degree of membership (DOM) is
 537:..\source/fuzzy.c ****        DOM is the minimum of input 1 and input 2
 538:..\source/fuzzy.c ****     */
 539:..\source/fuzzy.c ****     
 540:..\source/fuzzy.c ****     if ((delta_1 <= 0) || (delta_2 <= 0))
  67              		.loc 1 540 0
  68 0024 002D     		cmp	r5, #0
  69 0026 02DD     		ble	.L2
  70 0028 0646     		mov	r6, r0
  71              	.LVL9:
  72              		.loc 1 540 0 is_stmt 0 discriminator 1
  73 002a 0028     		cmp	r0, #0
  74 002c 02DC     		bgt	.L3
  75              	.L2:
 541:..\source/fuzzy.c ****     {
 542:..\source/fuzzy.c ****         mf->value = 0;
  76              		.loc 1 542 0 is_stmt 1
  77 002e 0023     		movs	r3, #0
  78 0030 E360     		str	r3, [r4, #12]	@ float
  79 0032 18E0     		b	.L4
  80              	.L3:
 543:..\source/fuzzy.c ****     }
 544:..\source/fuzzy.c ****     else
 545:..\source/fuzzy.c ****     {
 546:..\source/fuzzy.c ****         mf->value = min( (mf->slope1 * delta_1),(mf->slope2 * delta_2) );
  81              		.loc 1 546 0
ARM GAS  C:\Users\Tim\AppData\Local\Temp\ccyb4S0f.s 			page 12


  82 0034 A769     		ldr	r7, [r4, #24]	@ float
  83 0036 2846     		mov	r0, r5
  84 0038 FFF7FEFF 		bl	__aeabi_i2f
  85              	.LVL10:
  86 003c 0146     		mov	r1, r0
  87 003e 3846     		mov	r0, r7
  88 0040 FFF7FEFF 		bl	__aeabi_fmul
  89              	.LVL11:
  90 0044 0746     		mov	r7, r0
  91 0046 E569     		ldr	r5, [r4, #28]	@ float
  92              	.LVL12:
  93 0048 3046     		mov	r0, r6
  94 004a FFF7FEFF 		bl	__aeabi_i2f
  95              	.LVL13:
  96 004e 0146     		mov	r1, r0
  97 0050 2846     		mov	r0, r5
  98 0052 FFF7FEFF 		bl	__aeabi_fmul
  99              	.LVL14:
 100 0056 0546     		mov	r5, r0
 101 0058 3846     		mov	r0, r7
 102 005a 2946     		mov	r1, r5
 103 005c FFF7FEFF 		bl	__aeabi_fcmplt
 104              	.LVL15:
 105 0060 00B1     		cbz	r0, .L5
 106 0062 3D46     		mov	r5, r7
 107              	.L5:
 108              		.loc 1 546 0 is_stmt 0 discriminator 4
 109 0064 E560     		str	r5, [r4, #12]	@ float
 110              	.L4:
 547:..\source/fuzzy.c ****     }
 548:..\source/fuzzy.c ****     mf->value = constrain(mf->value, MIN_MF_VALUE, MAX_MF_VALUE);
 111              		.loc 1 548 0 is_stmt 1
 112 0066 E568     		ldr	r5, [r4, #12]	@ float
 113 0068 2846     		mov	r0, r5
 114 006a 0021     		movs	r1, #0
 115 006c FFF7FEFF 		bl	__aeabi_fcmpgt
 116              	.LVL16:
 117 0070 58B1     		cbz	r0, .L16
 118              		.loc 1 548 0 is_stmt 0 discriminator 1
 119 0072 4FF00106 		mov	r6, #1
 120 0076 2846     		mov	r0, r5
 121 0078 4FF07E51 		mov	r1, #1065353216
 122 007c FFF7FEFF 		bl	__aeabi_fcmplt
 123              	.LVL17:
 124 0080 08B9     		cbnz	r0, .L9
 125 0082 4FF00006 		mov	r6, #0
 126              	.L9:
 127 0086 F3B2     		uxtb	r3, r6
 128 0088 00E0     		b	.L7
 129              	.L16:
 130              		.loc 1 548 0
 131 008a 0123     		movs	r3, #1
 132              	.L7:
 133              		.loc 1 548 0 discriminator 4
 134 008c 33B1     		cbz	r3, .L13
 135              		.loc 1 548 0 discriminator 5
 136 008e 2846     		mov	r0, r5
ARM GAS  C:\Users\Tim\AppData\Local\Temp\ccyb4S0f.s 			page 13


 137 0090 0021     		movs	r1, #0
 138 0092 FFF7FEFF 		bl	__aeabi_fcmpgt
 139              	.LVL18:
 140 0096 18B9     		cbnz	r0, .L10
 141              		.loc 1 548 0
 142 0098 0025     		movs	r5, #0
 143 009a 01E0     		b	.L10
 144              	.L13:
 145 009c 4FF07E55 		mov	r5, #1065353216
 146              	.L10:
 147              		.loc 1 548 0 discriminator 12
 148 00a0 E560     		str	r5, [r4, #12]	@ float
 149 00a2 F8BD     		pop	{r3, r4, r5, r6, r7, pc}
 150              		.cfi_endproc
 151              	.LFE64:
 152              		.size	compute_degree_of_membership, .-compute_degree_of_membership
 153              		.section	.text.fuzzification,"ax",%progbits
 154              		.align	2
 155              		.thumb
 156              		.thumb_func
 157              		.type	fuzzification, %function
 158              	fuzzification:
 159              	.LFB65:
 549:..\source/fuzzy.c **** }
 550:..\source/fuzzy.c **** 
 551:..\source/fuzzy.c **** static void fuzzification(IO_TYPE *inputs, uint8 num_inputs)
 552:..\source/fuzzy.c **** {
 160              		.loc 1 552 0 is_stmt 1
 161              		.cfi_startproc
 162              		@ args = 0, pretend = 0, frame = 0
 163              		@ frame_needed = 0, uses_anonymous_args = 0
 164              	.LVL19:
 165 0000 2DE9F041 		push	{r4, r5, r6, r7, r8, lr}
 166              		.cfi_def_cfa_offset 24
 167              		.cfi_offset 4, -24
 168              		.cfi_offset 5, -20
 169              		.cfi_offset 6, -16
 170              		.cfi_offset 7, -12
 171              		.cfi_offset 8, -8
 172              		.cfi_offset 14, -4
 173 0004 0746     		mov	r7, r0
 174 0006 8846     		mov	r8, r1
 175              	.LVL20:
 553:..\source/fuzzy.c ****     MF_TYPE *mf;
 554:..\source/fuzzy.c ****     uint8 ii;
 555:..\source/fuzzy.c ****     uint8 jj;
 556:..\source/fuzzy.c ****     
 557:..\source/fuzzy.c ****     /* Loop over the membership functions of each intput and determine the degree of membership (DO
 558:..\source/fuzzy.c ****        applied to each membership function
 559:..\source/fuzzy.c ****      */
 560:..\source/fuzzy.c ****     
 561:..\source/fuzzy.c ****     for (ii = 0; ii < num_inputs; ++ii)
 176              		.loc 1 561 0
 177 0008 0026     		movs	r6, #0
 178 000a 15E0     		b	.L19
 179              	.LVL21:
 180              	.L20:
ARM GAS  C:\Users\Tim\AppData\Local\Temp\ccyb4S0f.s 			page 14


 181              	.LBB2:
 562:..\source/fuzzy.c ****     {
 563:..\source/fuzzy.c ****         for (jj = 0; jj < sizeof(inputs->membership_functions); ++jj)
 564:..\source/fuzzy.c ****         {
 565:..\source/fuzzy.c ****             mf = &inputs[ii].membership_functions[jj];
 182              		.loc 1 565 0 discriminator 3
 183 000c C6EB0613 		rsb	r3, r6, r6, lsl #4
 184 0010 1B01     		lsls	r3, r3, #4
 185 0012 3B44     		add	r3, r3, r7
 186 0014 03EB4415 		add	r5, r3, r4, lsl #5
 187 0018 1035     		adds	r5, r5, #16
 188              	.LVL22:
 566:..\source/fuzzy.c ****             int value = inputs[ii].value;
 189              		.loc 1 566 0 discriminator 3
 190 001a D868     		ldr	r0, [r3, #12]	@ float
 191 001c FFF7FEFF 		bl	__aeabi_f2iz
 192              	.LVL23:
 193 0020 0146     		mov	r1, r0
 194              	.LVL24:
 567:..\source/fuzzy.c ****             compute_degree_of_membership(mf, value);
 195              		.loc 1 567 0 discriminator 3
 196 0022 2846     		mov	r0, r5
 197              	.LVL25:
 198 0024 FFF7FEFF 		bl	compute_degree_of_membership
 199              	.LVL26:
 200              	.LBE2:
 563:..\source/fuzzy.c ****         {
 201              		.loc 1 563 0 discriminator 3
 202 0028 0134     		adds	r4, r4, #1
 203              	.LVL27:
 204 002a E4B2     		uxtb	r4, r4
 205              	.LVL28:
 206 002c 00E0     		b	.L21
 207              	.LVL29:
 208              	.L22:
 209 002e 0024     		movs	r4, #0
 210              	.L21:
 211              	.LVL30:
 563:..\source/fuzzy.c ****         {
 212              		.loc 1 563 0 is_stmt 0 discriminator 1
 213 0030 DF2C     		cmp	r4, #223
 214 0032 EBD9     		bls	.L20
 561:..\source/fuzzy.c ****     {
 215              		.loc 1 561 0 is_stmt 1 discriminator 2
 216 0034 0136     		adds	r6, r6, #1
 217              	.LVL31:
 218 0036 F6B2     		uxtb	r6, r6
 219              	.LVL32:
 220              	.L19:
 561:..\source/fuzzy.c ****     {
 221              		.loc 1 561 0 is_stmt 0 discriminator 1
 222 0038 4645     		cmp	r6, r8
 223 003a F8D3     		bcc	.L22
 568:..\source/fuzzy.c ****         }
 569:..\source/fuzzy.c ****     }
 570:..\source/fuzzy.c **** }
 224              		.loc 1 570 0 is_stmt 1
ARM GAS  C:\Users\Tim\AppData\Local\Temp\ccyb4S0f.s 			page 15


 225 003c BDE8F081 		pop	{r4, r5, r6, r7, r8, pc}
 226              		.cfi_endproc
 227              	.LFE65:
 228              		.size	fuzzification, .-fuzzification
 229              		.section	.text.rule_evaluation,"ax",%progbits
 230              		.align	2
 231              		.thumb
 232              		.thumb_func
 233              		.type	rule_evaluation, %function
 234              	rule_evaluation:
 235              	.LFB66:
 571:..\source/fuzzy.c **** 
 572:..\source/fuzzy.c **** static void rule_evaluation(IO_TYPE *inputs, IO_TYPE *outputs)
 573:..\source/fuzzy.c **** {
 236              		.loc 1 573 0
 237              		.cfi_startproc
 238              		@ args = 0, pretend = 0, frame = 0
 239              		@ frame_needed = 0, uses_anonymous_args = 0
 240              	.LVL33:
 241 0000 2DE9F843 		push	{r3, r4, r5, r6, r7, r8, r9, lr}
 242              		.cfi_def_cfa_offset 32
 243              		.cfi_offset 3, -32
 244              		.cfi_offset 4, -28
 245              		.cfi_offset 5, -24
 246              		.cfi_offset 6, -20
 247              		.cfi_offset 7, -16
 248              		.cfi_offset 8, -12
 249              		.cfi_offset 9, -8
 250              		.cfi_offset 14, -4
 251 0004 0646     		mov	r6, r0
 252 0006 8846     		mov	r8, r1
 253              	.LVL34:
 574:..\source/fuzzy.c ****     int strength;
 575:..\source/fuzzy.c ****     uint8 ii;
 576:..\source/fuzzy.c **** 
 577:..\source/fuzzy.c ****     /* Rules are global and non-specific to a particular instantiation of inputs or outputs.  The R
 578:..\source/fuzzy.c ****        contains indeces to the input and output structures but does not contain an specific input/o
 579:..\source/fuzzy.c ****      */
 580:..\source/fuzzy.c ****     
 581:..\source/fuzzy.c ****     for (ii = 0; ii < MAX_NUM_RULES; ++ii)
 254              		.loc 1 581 0
 255 0008 0025     		movs	r5, #0
 256 000a 2CE0     		b	.L25
 257              	.LVL35:
 258              	.L28:
 259              	.LBB3:
 582:..\source/fuzzy.c ****     {
 583:..\source/fuzzy.c ****         strength = UPPER_LIMIT;
 584:..\source/fuzzy.c ****         /* process if-side of rule to determine strength */
 585:..\source/fuzzy.c ****         uint8 error_index = Rules[ii].if_side[INPUT_ERROR];
 260              		.loc 1 585 0
 261 000c 184A     		ldr	r2, .L31
 262 000e 05EB4503 		add	r3, r5, r5, lsl #1
 263 0012 02EB0309 		add	r9, r2, r3
 264 0016 D35C     		ldrb	r3, [r2, r3]	@ zero_extendqisi2
 265              	.LVL36:
 586:..\source/fuzzy.c ****         uint8 derror_index = Rules[ii].if_side[INPUT_DERROR];
ARM GAS  C:\Users\Tim\AppData\Local\Temp\ccyb4S0f.s 			page 16


 266              		.loc 1 586 0
 267 0018 99F80140 		ldrb	r4, [r9, #1]	@ zero_extendqisi2
 268              	.LVL37:
 587:..\source/fuzzy.c ****         int term1 = inputs[error_index].value;
 269              		.loc 1 587 0
 270 001c C3EB0313 		rsb	r3, r3, r3, lsl #4
 271              	.LVL38:
 272 0020 1B01     		lsls	r3, r3, #4
 273 0022 3344     		add	r3, r3, r6
 274 0024 D868     		ldr	r0, [r3, #12]	@ float
 275 0026 FFF7FEFF 		bl	__aeabi_f2iz
 276              	.LVL39:
 277 002a 0746     		mov	r7, r0
 278              	.LVL40:
 588:..\source/fuzzy.c ****         int term2 = inputs[derror_index].value;
 279              		.loc 1 588 0
 280 002c C4EB0413 		rsb	r3, r4, r4, lsl #4
 281 0030 1B01     		lsls	r3, r3, #4
 282 0032 3344     		add	r3, r3, r6
 283 0034 D868     		ldr	r0, [r3, #12]	@ float
 284              	.LVL41:
 285 0036 FFF7FEFF 		bl	__aeabi_f2iz
 286              	.LVL42:
 589:..\source/fuzzy.c ****         
 590:..\source/fuzzy.c ****         strength = min( term1, term2 );
 591:..\source/fuzzy.c ****         
 592:..\source/fuzzy.c ****         /* process then-side of rule to apply strength */        
 593:..\source/fuzzy.c ****         float *out_value = &outputs[Rules[ii].then_side[OUTPUT_PWM]].value;
 287              		.loc 1 593 0
 288 003a 99F80230 		ldrb	r3, [r9, #2]	@ zero_extendqisi2
 289 003e C3EB0313 		rsb	r3, r3, r3, lsl #4
 290 0042 1B01     		lsls	r3, r3, #4
 291 0044 08EB0304 		add	r4, r8, r3
 292              	.LVL43:
 594:..\source/fuzzy.c ****         
 595:..\source/fuzzy.c ****         *out_value = max(strength, *out_value);        
 293              		.loc 1 595 0
 294 0048 B842     		cmp	r0, r7
 295 004a A8BF     		it	ge
 296 004c 3846     		movge	r0, r7
 297              	.LVL44:
 298 004e FFF7FEFF 		bl	__aeabi_i2f
 299              	.LVL45:
 300 0052 8146     		mov	r9, r0
 301 0054 E768     		ldr	r7, [r4, #12]	@ float
 302              	.LVL46:
 303 0056 3946     		mov	r1, r7
 304 0058 FFF7FEFF 		bl	__aeabi_fcmpgt
 305              	.LVL47:
 306 005c 00B1     		cbz	r0, .L26
 307 005e 4F46     		mov	r7, r9
 308              	.L26:
 309              		.loc 1 595 0 is_stmt 0 discriminator 4
 310 0060 E760     		str	r7, [r4, #12]	@ float
 311              	.LBE3:
 581:..\source/fuzzy.c ****     {
 312              		.loc 1 581 0 is_stmt 1 discriminator 4
ARM GAS  C:\Users\Tim\AppData\Local\Temp\ccyb4S0f.s 			page 17


 313 0062 0135     		adds	r5, r5, #1
 314              	.LVL48:
 315 0064 EDB2     		uxtb	r5, r5
 316              	.LVL49:
 317              	.L25:
 581:..\source/fuzzy.c ****     {
 318              		.loc 1 581 0 is_stmt 0 discriminator 2
 319 0066 302D     		cmp	r5, #48
 320 0068 D0D9     		bls	.L28
 596:..\source/fuzzy.c ****     }
 597:..\source/fuzzy.c **** }
 321              		.loc 1 597 0 is_stmt 1
 322 006a BDE8F883 		pop	{r3, r4, r5, r6, r7, r8, r9, pc}
 323              	.LVL50:
 324              	.L32:
 325 006e 00BF     		.align	2
 326              	.L31:
 327 0070 00000000 		.word	.LANCHOR0
 328              		.cfi_endproc
 329              	.LFE66:
 330              		.size	rule_evaluation, .-rule_evaluation
 331              		.section	.text.defuzzification,"ax",%progbits
 332              		.align	2
 333              		.thumb
 334              		.thumb_func
 335              		.type	defuzzification, %function
 336              	defuzzification:
 337              	.LFB68:
 598:..\source/fuzzy.c **** 
 599:..\source/fuzzy.c **** /* Compute Area of Trapezoid--Each inference pass produces a new set of output
 600:..\source/fuzzy.c **** strengths which affect the areas of trapezoidal membership functions used in
 601:..\source/fuzzy.c **** center-of-gravity defuzzification. Area values must be recalculated with each
 602:..\source/fuzzy.c **** pass. Area of trapezoid is h*(a+b)/2 where h=height=output_strength=mf->value
 603:..\source/fuzzy.c **** b=base=mf->point2-mf->point1 a=top= must be derived from h,b, and slopes1&2 */
 604:..\source/fuzzy.c **** static int compute_area_of_trapezoid(MF_TYPE *mf)
 605:..\source/fuzzy.c **** {
 606:..\source/fuzzy.c ****     int run_1;
 607:..\source/fuzzy.c ****     int run_2;
 608:..\source/fuzzy.c ****     int base;
 609:..\source/fuzzy.c ****     int top;
 610:..\source/fuzzy.c ****     int area;
 611:..\source/fuzzy.c ****     base = mf->point2 - mf->point1;
 612:..\source/fuzzy.c ****     run_1 = mf->value/mf->slope1;
 613:..\source/fuzzy.c ****     run_2 = mf->value/mf->slope2;
 614:..\source/fuzzy.c ****     top = base - run_1 - run_2;
 615:..\source/fuzzy.c ****     area = mf->value * ( base + top)/2;
 616:..\source/fuzzy.c ****     return (area);
 617:..\source/fuzzy.c **** }
 618:..\source/fuzzy.c **** 
 619:..\source/fuzzy.c **** static void defuzzification(IO_TYPE *outputs, uint8 num_outputs)
 620:..\source/fuzzy.c **** {
 338              		.loc 1 620 0
 339              		.cfi_startproc
 340              		@ args = 0, pretend = 0, frame = 0
 341              		@ frame_needed = 0, uses_anonymous_args = 0
 342              		@ link register save eliminated.
 343              	.LVL51:
ARM GAS  C:\Users\Tim\AppData\Local\Temp\ccyb4S0f.s 			page 18


 621:..\source/fuzzy.c ****     int sum_of_products;   /* sum of products of area & centroid */
 622:..\source/fuzzy.c ****     int sum_of_areas;     /* sum of shortend trapezoid area          */
 623:..\source/fuzzy.c ****     int area;
 624:..\source/fuzzy.c ****     int centroid;
 625:..\source/fuzzy.c ****     uint8 ii;
 626:..\source/fuzzy.c ****     uint8 jj;
 627:..\source/fuzzy.c ****     
 628:..\source/fuzzy.c ****     /* compute a defuzzified value for each system output */
 629:..\source/fuzzy.c ****     for (ii = 0; ii < num_outputs; ++ii)
 344              		.loc 1 629 0
 345 0000 01B1     		cbz	r1, .L33
 346              	.LVL52:
 347              	.L35:
 348 0002 FEE7     		b	.L35
 349              	.LVL53:
 350              	.L33:
 351 0004 7047     		bx	lr
 352              		.cfi_endproc
 353              	.LFE68:
 354              		.size	defuzzification, .-defuzzification
 355              		.global	__aeabi_i2d
 356              		.global	__aeabi_ddiv
 357              		.global	__aeabi_d2f
 358 0006 00BF     		.section	.text.get_inputs,"ax",%progbits
 359              		.align	2
 360              		.thumb
 361              		.thumb_func
 362              		.type	get_inputs, %function
 363              	get_inputs:
 364              	.LFB63:
 438:..\source/fuzzy.c ****     /* 
 365              		.loc 1 438 0
 366              		.cfi_startproc
 367              		@ args = 0, pretend = 0, frame = 16
 368              		@ frame_needed = 0, uses_anonymous_args = 0
 369 0000 2DE9F047 		push	{r4, r5, r6, r7, r8, r9, r10, lr}
 370              		.cfi_def_cfa_offset 32
 371              		.cfi_offset 4, -32
 372              		.cfi_offset 5, -28
 373              		.cfi_offset 6, -24
 374              		.cfi_offset 7, -20
 375              		.cfi_offset 8, -16
 376              		.cfi_offset 9, -12
 377              		.cfi_offset 10, -8
 378              		.cfi_offset 14, -4
 379 0004 84B0     		sub	sp, sp, #16
 380              		.cfi_def_cfa_offset 48
 495:..\source/fuzzy.c ****     Encoder_GetLRSpeed(&left_actual_speed, &right_actual_speed);
 381              		.loc 1 495 0
 382 0006 0DF10E00 		add	r0, sp, #14
 383 000a 03A9     		add	r1, sp, #12
 384 000c FFF7FEFF 		bl	I2c_ReadLRCmdVelocity
 385              	.LVL54:
 496:..\source/fuzzy.c ****     
 386              		.loc 1 496 0
 387 0010 4249     		ldr	r1, .L46
 388 0012 0846     		mov	r0, r1
ARM GAS  C:\Users\Tim\AppData\Local\Temp\ccyb4S0f.s 			page 19


 389 0014 0231     		adds	r1, r1, #2
 390 0016 FFF7FEFF 		bl	Encoder_GetLRSpeed
 391              	.LVL55:
 498:..\source/fuzzy.c ****     int16 right_error_upper = right_target_speed >= 0 ? max_forward_speed : max_reverse_speed;
 392              		.loc 1 498 0
 393 001a BDF80E20 		ldrh	r2, [sp, #14]
 394 001e 12F4004F 		tst	r2, #32768
 395 0022 02D1     		bne	.L37
 498:..\source/fuzzy.c ****     int16 right_error_upper = right_target_speed >= 0 ? max_forward_speed : max_reverse_speed;
 396              		.loc 1 498 0 is_stmt 0 discriminator 1
 397 0024 3D4B     		ldr	r3, .L46
 398 0026 9888     		ldrh	r0, [r3, #4]
 399 0028 01E0     		b	.L38
 400              	.L37:
 498:..\source/fuzzy.c ****     int16 right_error_upper = right_target_speed >= 0 ? max_forward_speed : max_reverse_speed;
 401              		.loc 1 498 0 discriminator 2
 402 002a 3C4B     		ldr	r3, .L46
 403 002c D888     		ldrh	r0, [r3, #6]
 404              	.L38:
 405              	.LVL56:
 499:..\source/fuzzy.c **** 
 406              		.loc 1 499 0 is_stmt 1 discriminator 4
 407 002e BDF80C30 		ldrh	r3, [sp, #12]
 408 0032 13F4004F 		tst	r3, #32768
 409 0036 03D1     		bne	.L39
 499:..\source/fuzzy.c **** 
 410              		.loc 1 499 0 is_stmt 0 discriminator 1
 411 0038 3849     		ldr	r1, .L46
 412 003a B1F80480 		ldrh	r8, [r1, #4]
 413 003e 02E0     		b	.L40
 414              	.L39:
 499:..\source/fuzzy.c **** 
 415              		.loc 1 499 0 discriminator 2
 416 0040 3649     		ldr	r1, .L46
 417 0042 B1F80680 		ldrh	r8, [r1, #6]
 418              	.L40:
 419              	.LVL57:
 502:..\source/fuzzy.c ****     int16 right_input_error = right_target_speed - right_actual_speed;
 420              		.loc 1 502 0 is_stmt 1 discriminator 4
 421 0046 3549     		ldr	r1, .L46
 422 0048 0D88     		ldrh	r5, [r1]
 423 004a 521B     		subs	r2, r2, r5
 424 004c 92B2     		uxth	r2, r2
 425 004e 97B2     		uxth	r7, r2
 426              	.LVL58:
 503:..\source/fuzzy.c **** 
 427              		.loc 1 503 0 discriminator 4
 428 0050 4C88     		ldrh	r4, [r1, #2]
 429 0052 1B1B     		subs	r3, r3, r4
 430 0054 9BB2     		uxth	r3, r3
 431 0056 9EB2     		uxth	r6, r3
 432              	.LVL59:
 507:..\source/fuzzy.c ****     last_left_input_error = left_input_error;
 433              		.loc 1 507 0 discriminator 4
 434 0058 0D89     		ldrh	r5, [r1, #8]
 435 005a AD1A     		subs	r5, r5, r2
 436 005c ADB2     		uxth	r5, r5
ARM GAS  C:\Users\Tim\AppData\Local\Temp\ccyb4S0f.s 			page 20


 437              	.LVL60:
 508:..\source/fuzzy.c **** 
 438              		.loc 1 508 0 discriminator 4
 439 005e 0F81     		strh	r7, [r1, #8]	@ movhi
 510:..\source/fuzzy.c ****     last_right_input_error = right_input_error;
 440              		.loc 1 510 0 discriminator 4
 441 0060 4C89     		ldrh	r4, [r1, #10]
 442 0062 E41A     		subs	r4, r4, r3
 443 0064 A4B2     		uxth	r4, r4
 444              	.LVL61:
 511:..\source/fuzzy.c **** 
 445              		.loc 1 511 0 discriminator 4
 446 0066 4E81     		strh	r6, [r1, #10]	@ movhi
 513:..\source/fuzzy.c ****     int16 right_derror_upper = right_input_derror >= 0 ? max_forward_speed : max_reverse_speed;
 447              		.loc 1 513 0 discriminator 4
 448 0068 15F4004F 		tst	r5, #32768
 449 006c 02D1     		bne	.L41
 513:..\source/fuzzy.c ****     int16 right_derror_upper = right_input_derror >= 0 ? max_forward_speed : max_reverse_speed;
 450              		.loc 1 513 0 is_stmt 0 discriminator 1
 451 006e B1F80490 		ldrh	r9, [r1, #4]
 452 0072 02E0     		b	.L42
 453              	.L41:
 513:..\source/fuzzy.c ****     int16 right_derror_upper = right_input_derror >= 0 ? max_forward_speed : max_reverse_speed;
 454              		.loc 1 513 0 discriminator 2
 455 0074 294B     		ldr	r3, .L46
 456 0076 B3F80690 		ldrh	r9, [r3, #6]
 457              	.L42:
 458              	.LVL62:
 514:..\source/fuzzy.c ****     
 459              		.loc 1 514 0 is_stmt 1 discriminator 4
 460 007a 14F4004F 		tst	r4, #32768
 461 007e 03D1     		bne	.L43
 514:..\source/fuzzy.c ****     
 462              		.loc 1 514 0 is_stmt 0 discriminator 1
 463 0080 264B     		ldr	r3, .L46
 464 0082 B3F804A0 		ldrh	r10, [r3, #4]
 465 0086 02E0     		b	.L44
 466              	.L43:
 514:..\source/fuzzy.c ****     
 467              		.loc 1 514 0 discriminator 2
 468 0088 244B     		ldr	r3, .L46
 469 008a B3F806A0 		ldrh	r10, [r3, #6]
 470              	.L44:
 471              	.LVL63:
 517:..\source/fuzzy.c ****     left_inputs[INPUT_DERROR].value = normalize(left_input_derror, 0.0, left_derror_upper);
 472              		.loc 1 517 0 is_stmt 1 discriminator 4
 473 008e 00B2     		sxth	r0, r0
 474 0090 FFF7FEFF 		bl	__aeabi_i2d
 475              	.LVL64:
 476 0094 CDE90001 		strd	r0, [sp]
 477 0098 38B2     		sxth	r0, r7
 478 009a FFF7FEFF 		bl	__aeabi_i2d
 479              	.LVL65:
 480 009e DDE90023 		ldrd	r2, [sp]
 481 00a2 FFF7FEFF 		bl	__aeabi_ddiv
 482              	.LVL66:
 483 00a6 1E4F     		ldr	r7, .L46+4
ARM GAS  C:\Users\Tim\AppData\Local\Temp\ccyb4S0f.s 			page 21


 484              	.LVL67:
 485 00a8 FFF7FEFF 		bl	__aeabi_d2f
 486              	.LVL68:
 487 00ac C7F8A000 		str	r0, [r7, #160]	@ float
 518:..\source/fuzzy.c ****     
 488              		.loc 1 518 0 discriminator 4
 489 00b0 0FFA89F0 		sxth	r0, r9
 490 00b4 FFF7FEFF 		bl	__aeabi_i2d
 491              	.LVL69:
 492 00b8 CDE90001 		strd	r0, [sp]
 493 00bc 28B2     		sxth	r0, r5
 494 00be FFF7FEFF 		bl	__aeabi_i2d
 495              	.LVL70:
 496 00c2 DDE90023 		ldrd	r2, [sp]
 497 00c6 FFF7FEFF 		bl	__aeabi_ddiv
 498              	.LVL71:
 499 00ca FFF7FEFF 		bl	__aeabi_d2f
 500              	.LVL72:
 501 00ce C7F89001 		str	r0, [r7, #400]	@ float
 520:..\source/fuzzy.c ****     right_inputs[INPUT_DERROR].value = normalize(right_input_derror, 0.0, right_derror_upper);
 502              		.loc 1 520 0 discriminator 4
 503 00d2 0FFA88F0 		sxth	r0, r8
 504 00d6 FFF7FEFF 		bl	__aeabi_i2d
 505              	.LVL73:
 506 00da 8046     		mov	r8, r0
 507              	.LVL74:
 508 00dc 8946     		mov	r9, r1
 509              	.LVL75:
 510 00de 30B2     		sxth	r0, r6
 511 00e0 FFF7FEFF 		bl	__aeabi_i2d
 512              	.LVL76:
 513 00e4 4246     		mov	r2, r8
 514 00e6 4B46     		mov	r3, r9
 515 00e8 FFF7FEFF 		bl	__aeabi_ddiv
 516              	.LVL77:
 517 00ec FFF7FEFF 		bl	__aeabi_d2f
 518              	.LVL78:
 519 00f0 C7F88002 		str	r0, [r7, #640]	@ float
 521:..\source/fuzzy.c **** }
 520              		.loc 1 521 0 discriminator 4
 521 00f4 0FFA8AF0 		sxth	r0, r10
 522 00f8 FFF7FEFF 		bl	__aeabi_i2d
 523              	.LVL79:
 524 00fc 8046     		mov	r8, r0
 525 00fe 8946     		mov	r9, r1
 526 0100 20B2     		sxth	r0, r4
 527 0102 FFF7FEFF 		bl	__aeabi_i2d
 528              	.LVL80:
 529 0106 4246     		mov	r2, r8
 530 0108 4B46     		mov	r3, r9
 531 010a FFF7FEFF 		bl	__aeabi_ddiv
 532              	.LVL81:
 533 010e FFF7FEFF 		bl	__aeabi_d2f
 534              	.LVL82:
 535 0112 C7F87003 		str	r0, [r7, #880]	@ float
 522:..\source/fuzzy.c **** 
 536              		.loc 1 522 0 discriminator 4
ARM GAS  C:\Users\Tim\AppData\Local\Temp\ccyb4S0f.s 			page 22


 537 0116 04B0     		add	sp, sp, #16
 538              		.cfi_def_cfa_offset 32
 539              		@ sp needed
 540 0118 BDE8F087 		pop	{r4, r5, r6, r7, r8, r9, r10, pc}
 541              	.LVL83:
 542              	.L47:
 543              		.align	2
 544              	.L46:
 545 011c 00000000 		.word	.LANCHOR1
 546 0120 00000000 		.word	.LANCHOR0
 547              		.cfi_endproc
 548              	.LFE63:
 549              		.size	get_inputs, .-get_inputs
 550              		.global	__aeabi_fadd
 551              		.global	__aeabi_f2d
 552              		.section	.text.set_output,"ax",%progbits
 553              		.align	2
 554              		.thumb
 555              		.thumb_func
 556              		.type	set_output, %function
 557              	set_output:
 558              	.LFB69:
 630:..\source/fuzzy.c ****     {
 631:..\source/fuzzy.c ****         sum_of_products = 0;
 632:..\source/fuzzy.c ****         sum_of_areas = 0;
 633:..\source/fuzzy.c ****         for (jj = 0; jj < sizeof(outputs[ii].membership_functions); ++ii)
 634:..\source/fuzzy.c ****         {
 635:..\source/fuzzy.c ****             MF_TYPE *mf = &outputs[ii].membership_functions[jj];
 636:..\source/fuzzy.c ****             area = compute_area_of_trapezoid(mf);
 637:..\source/fuzzy.c ****             centroid = mf->point1 + (mf->point2 - mf->point1)/2;
 638:..\source/fuzzy.c ****             sum_of_products += area * centroid;
 639:..\source/fuzzy.c ****             sum_of_areas += area;
 640:..\source/fuzzy.c ****         }
 641:..\source/fuzzy.c ****         outputs[ii].value = sum_of_products/sum_of_areas;
 642:..\source/fuzzy.c ****     }
 643:..\source/fuzzy.c **** }
 644:..\source/fuzzy.c **** 
 645:..\source/fuzzy.c **** static void set_output()
 646:..\source/fuzzy.c **** {
 559              		.loc 1 646 0
 560              		.cfi_startproc
 561              		@ args = 0, pretend = 0, frame = 0
 562              		@ frame_needed = 0, uses_anonymous_args = 0
 563 0000 F8B5     		push	{r3, r4, r5, r6, r7, lr}
 564              		.cfi_def_cfa_offset 24
 565              		.cfi_offset 3, -24
 566              		.cfi_offset 4, -20
 567              		.cfi_offset 5, -16
 568              		.cfi_offset 6, -12
 569              		.cfi_offset 7, -8
 570              		.cfi_offset 14, -4
 647:..\source/fuzzy.c ****     /* Motor_SetOutput(left, right) */
 648:..\source/fuzzy.c ****     
 649:..\source/fuzzy.c ****     float left_speed = constrain(left_actual_speed + left_output[0].value, max_reverse_speed, max_f
 571              		.loc 1 649 0
 572 0002 2D4B     		ldr	r3, .L78
 573 0004 D3F86054 		ldr	r5, [r3, #1120]	@ float
ARM GAS  C:\Users\Tim\AppData\Local\Temp\ccyb4S0f.s 			page 23


 574 0008 2C4C     		ldr	r4, .L78+4
 575 000a B4F90000 		ldrsh	r0, [r4]
 576 000e FFF7FEFF 		bl	__aeabi_i2f
 577              	.LVL84:
 578 0012 2946     		mov	r1, r5
 579 0014 FFF7FEFF 		bl	__aeabi_fadd
 580              	.LVL85:
 581 0018 0546     		mov	r5, r0
 582 001a B4F90600 		ldrsh	r0, [r4, #6]
 583 001e FFF7FEFF 		bl	__aeabi_i2f
 584              	.LVL86:
 585 0022 0446     		mov	r4, r0
 586 0024 2846     		mov	r0, r5
 587 0026 2146     		mov	r1, r4
 588 0028 FFF7FEFF 		bl	__aeabi_fcmpgt
 589              	.LVL87:
 590 002c 08B1     		cbz	r0, .L72
 591 002e 2F46     		mov	r7, r5
 592 0030 00E0     		b	.L49
 593              	.L72:
 594 0032 2746     		mov	r7, r4
 595              	.L49:
 596              		.loc 1 649 0 is_stmt 0 discriminator 4
 597 0034 214B     		ldr	r3, .L78+4
 598 0036 B3F90400 		ldrsh	r0, [r3, #4]
 599 003a FFF7FEFF 		bl	__aeabi_i2f
 600              	.LVL88:
 601 003e 0646     		mov	r6, r0
 602 0040 3846     		mov	r0, r7
 603 0042 3146     		mov	r1, r6
 604 0044 FFF7FEFF 		bl	__aeabi_fcmplt
 605              	.LVL89:
 606 0048 30B1     		cbz	r0, .L73
 607              		.loc 1 649 0 discriminator 5
 608 004a 2846     		mov	r0, r5
 609 004c 2146     		mov	r1, r4
 610 004e FFF7FEFF 		bl	__aeabi_fcmpgt
 611              	.LVL90:
 612 0052 10B9     		cbnz	r0, .L51
 613              		.loc 1 649 0
 614 0054 2546     		mov	r5, r4
 615 0056 00E0     		b	.L51
 616              	.L73:
 617 0058 3546     		mov	r5, r6
 618              	.L51:
 619              	.LVL91:
 650:..\source/fuzzy.c ****     float right_speed = constrain(right_actual_speed + right_output[0].value, max_reverse_speed, ma
 620              		.loc 1 650 0 is_stmt 1 discriminator 12
 621 005a 174B     		ldr	r3, .L78
 622 005c D3F85075 		ldr	r7, [r3, #1360]	@ float
 623 0060 164B     		ldr	r3, .L78+4
 624 0062 B3F90200 		ldrsh	r0, [r3, #2]
 625 0066 FFF7FEFF 		bl	__aeabi_i2f
 626              	.LVL92:
 627 006a 3946     		mov	r1, r7
 628 006c FFF7FEFF 		bl	__aeabi_fadd
 629              	.LVL93:
ARM GAS  C:\Users\Tim\AppData\Local\Temp\ccyb4S0f.s 			page 24


 630 0070 0746     		mov	r7, r0
 631 0072 2046     		mov	r0, r4
 632 0074 3946     		mov	r1, r7
 633 0076 FFF7FEFF 		bl	__aeabi_fcmplt
 634              	.LVL94:
 635 007a 08B1     		cbz	r0, .L75
 636              		.loc 1 650 0 is_stmt 0
 637 007c 3846     		mov	r0, r7
 638 007e 00E0     		b	.L55
 639              	.L75:
 640 0080 2046     		mov	r0, r4
 641              	.L55:
 642              		.loc 1 650 0 discriminator 4
 643 0082 3146     		mov	r1, r6
 644 0084 FFF7FEFF 		bl	__aeabi_fcmplt
 645              	.LVL95:
 646 0088 38B1     		cbz	r0, .L57
 647              		.loc 1 650 0 discriminator 5
 648 008a 2046     		mov	r0, r4
 649 008c 3946     		mov	r1, r7
 650 008e FFF7FEFF 		bl	__aeabi_fcmplt
 651              	.LVL96:
 652 0092 08B1     		cbz	r0, .L76
 653              		.loc 1 650 0
 654 0094 3E46     		mov	r6, r7
 655 0096 00E0     		b	.L57
 656              	.L76:
 657 0098 2646     		mov	r6, r4
 658              	.L57:
 659              	.LVL97:
 651:..\source/fuzzy.c ****     
 652:..\source/fuzzy.c ****     Motor_SetOutput(left_speed, right_speed);
 660              		.loc 1 652 0 is_stmt 1 discriminator 12
 661 009a 2846     		mov	r0, r5
 662 009c FFF7FEFF 		bl	__aeabi_f2d
 663              	.LVL98:
 664 00a0 0446     		mov	r4, r0
 665 00a2 0D46     		mov	r5, r1
 666              	.LVL99:
 667 00a4 3046     		mov	r0, r6
 668 00a6 FFF7FEFF 		bl	__aeabi_f2d
 669              	.LVL100:
 670 00aa 0246     		mov	r2, r0
 671 00ac 0B46     		mov	r3, r1
 672 00ae 2046     		mov	r0, r4
 673 00b0 2946     		mov	r1, r5
 674 00b2 FFF7FEFF 		bl	Motor_SetOutput
 675              	.LVL101:
 676 00b6 F8BD     		pop	{r3, r4, r5, r6, r7, pc}
 677              	.LVL102:
 678              	.L79:
 679              		.align	2
 680              	.L78:
 681 00b8 00000000 		.word	.LANCHOR0
 682 00bc 00000000 		.word	.LANCHOR1
 683              		.cfi_endproc
 684              	.LFE69:
ARM GAS  C:\Users\Tim\AppData\Local\Temp\ccyb4S0f.s 			page 25


 685              		.size	set_output, .-set_output
 686              		.section	.text.FUZZY_Init,"ax",%progbits
 687              		.align	2
 688              		.global	FUZZY_Init
 689              		.thumb
 690              		.thumb_func
 691              		.type	FUZZY_Init, %function
 692              	FUZZY_Init:
 693              	.LFB70:
 653:..\source/fuzzy.c **** }
 654:..\source/fuzzy.c **** 
 655:..\source/fuzzy.c **** void FUZZY_Init()
 656:..\source/fuzzy.c **** {
 694              		.loc 1 656 0
 695              		.cfi_startproc
 696              		@ args = 0, pretend = 0, frame = 0
 697              		@ frame_needed = 0, uses_anonymous_args = 0
 698 0000 38B5     		push	{r3, r4, r5, lr}
 699              		.cfi_def_cfa_offset 16
 700              		.cfi_offset 3, -16
 701              		.cfi_offset 4, -12
 702              		.cfi_offset 5, -8
 703              		.cfi_offset 14, -4
 657:..\source/fuzzy.c ****     memset(left_inputs, 0, sizeof(left_inputs));
 704              		.loc 1 657 0
 705 0002 114C     		ldr	r4, .L82
 706 0004 4FF4F075 		mov	r5, #480
 707 0008 04F19400 		add	r0, r4, #148
 708 000c 0021     		movs	r1, #0
 709 000e 2A46     		mov	r2, r5
 710 0010 FFF7FEFF 		bl	memset
 711              	.LVL103:
 658:..\source/fuzzy.c ****     memset(right_inputs, 0, sizeof(right_inputs));
 712              		.loc 1 658 0
 713 0014 04F51D70 		add	r0, r4, #628
 714 0018 0021     		movs	r1, #0
 715 001a 2A46     		mov	r2, r5
 716 001c FFF7FEFF 		bl	memset
 717              	.LVL104:
 659:..\source/fuzzy.c ****     memset(left_output, 0, sizeof(left_output));
 718              		.loc 1 659 0
 719 0020 F025     		movs	r5, #240
 720 0022 04F25440 		addw	r0, r4, #1108
 721 0026 0021     		movs	r1, #0
 722 0028 2A46     		mov	r2, r5
 723 002a FFF7FEFF 		bl	memset
 724              	.LVL105:
 660:..\source/fuzzy.c ****     memset(right_output, 0, sizeof(right_output));
 725              		.loc 1 660 0
 726 002e 04F24450 		addw	r0, r4, #1348
 727 0032 0021     		movs	r1, #0
 728 0034 2A46     		mov	r2, r5
 729 0036 FFF7FEFF 		bl	memset
 730              	.LVL106:
 661:..\source/fuzzy.c ****     Motor_GetSpeedRange(&max_reverse_speed, &max_forward_speed);
 731              		.loc 1 661 0
 732 003a 0449     		ldr	r1, .L82+4
ARM GAS  C:\Users\Tim\AppData\Local\Temp\ccyb4S0f.s 			page 26


 733 003c 881D     		adds	r0, r1, #6
 734 003e 0431     		adds	r1, r1, #4
 735 0040 FFF7FEFF 		bl	Motor_GetSpeedRange
 736              	.LVL107:
 737 0044 38BD     		pop	{r3, r4, r5, pc}
 738              	.L83:
 739 0046 00BF     		.align	2
 740              	.L82:
 741 0048 00000000 		.word	.LANCHOR0
 742 004c 00000000 		.word	.LANCHOR1
 743              		.cfi_endproc
 744              	.LFE70:
 745              		.size	FUZZY_Init, .-FUZZY_Init
 746              		.section	.text.FUZZY_Start,"ax",%progbits
 747              		.align	2
 748              		.global	FUZZY_Start
 749              		.thumb
 750              		.thumb_func
 751              		.type	FUZZY_Start, %function
 752              	FUZZY_Start:
 753              	.LFB71:
 662:..\source/fuzzy.c **** }
 663:..\source/fuzzy.c **** 
 664:..\source/fuzzy.c **** void FUZZY_Start()
 665:..\source/fuzzy.c **** {
 754              		.loc 1 665 0
 755              		.cfi_startproc
 756              		@ args = 0, pretend = 0, frame = 0
 757              		@ frame_needed = 0, uses_anonymous_args = 0
 758              		@ link register save eliminated.
 759 0000 7047     		bx	lr
 760              		.cfi_endproc
 761              	.LFE71:
 762              		.size	FUZZY_Start, .-FUZZY_Start
 763 0002 00BF     		.section	.text.FUZZY_Update,"ax",%progbits
 764              		.align	2
 765              		.global	FUZZY_Update
 766              		.thumb
 767              		.thumb_func
 768              		.type	FUZZY_Update, %function
 769              	FUZZY_Update:
 770              	.LFB72:
 666:..\source/fuzzy.c ****     /* Setup the Fuzzy rules */
 667:..\source/fuzzy.c **** }
 668:..\source/fuzzy.c **** 
 669:..\source/fuzzy.c **** void FUZZY_Update()
 670:..\source/fuzzy.c **** {
 771              		.loc 1 670 0
 772              		.cfi_startproc
 773              		@ args = 0, pretend = 0, frame = 0
 774              		@ frame_needed = 0, uses_anonymous_args = 0
 775              		.loc 1 670 0
 776 0000 F8B5     		push	{r3, r4, r5, r6, r7, lr}
 777              		.cfi_def_cfa_offset 24
 778              		.cfi_offset 3, -24
 779              		.cfi_offset 4, -20
 780              		.cfi_offset 5, -16
ARM GAS  C:\Users\Tim\AppData\Local\Temp\ccyb4S0f.s 			page 27


 781              		.cfi_offset 6, -12
 782              		.cfi_offset 7, -8
 783              		.cfi_offset 14, -4
 671:..\source/fuzzy.c ****     get_inputs();
 784              		.loc 1 671 0
 785 0002 FFF7FEFF 		bl	get_inputs
 786              	.LVL108:
 672:..\source/fuzzy.c ****     fuzzification(left_inputs, MAX_NUM_LEFT_INPUTS);
 787              		.loc 1 672 0
 788 0006 124C     		ldr	r4, .L87
 789 0008 04F19407 		add	r7, r4, #148
 790 000c 3846     		mov	r0, r7
 791 000e 0221     		movs	r1, #2
 792 0010 FFF7FEFF 		bl	fuzzification
 793              	.LVL109:
 673:..\source/fuzzy.c ****     fuzzification(right_inputs, MAX_NUM_RIGHT_INPUTS);
 794              		.loc 1 673 0
 795 0014 04F51D76 		add	r6, r4, #628
 796 0018 3046     		mov	r0, r6
 797 001a 0221     		movs	r1, #2
 798 001c FFF7FEFF 		bl	fuzzification
 799              	.LVL110:
 674:..\source/fuzzy.c ****     rule_evaluation(left_inputs, left_output);
 800              		.loc 1 674 0
 801 0020 04F25445 		addw	r5, r4, #1108
 802 0024 3846     		mov	r0, r7
 803 0026 2946     		mov	r1, r5
 804 0028 FFF7FEFF 		bl	rule_evaluation
 805              	.LVL111:
 675:..\source/fuzzy.c ****     rule_evaluation(right_inputs, right_output);
 806              		.loc 1 675 0
 807 002c 04F24454 		addw	r4, r4, #1348
 808 0030 3046     		mov	r0, r6
 809 0032 2146     		mov	r1, r4
 810 0034 FFF7FEFF 		bl	rule_evaluation
 811              	.LVL112:
 676:..\source/fuzzy.c ****     defuzzification(left_output, MAX_NUM_LEFT_OUTPUTS);
 812              		.loc 1 676 0
 813 0038 2846     		mov	r0, r5
 814 003a 0121     		movs	r1, #1
 815 003c FFF7FEFF 		bl	defuzzification
 816              	.LVL113:
 677:..\source/fuzzy.c ****     defuzzification(right_output, MAX_NUM_RIGHT_OUTPUTS);
 817              		.loc 1 677 0
 818 0040 2046     		mov	r0, r4
 819 0042 0121     		movs	r1, #1
 820 0044 FFF7FEFF 		bl	defuzzification
 821              	.LVL114:
 678:..\source/fuzzy.c ****     set_output();
 822              		.loc 1 678 0
 823 0048 FFF7FEFF 		bl	set_output
 824              	.LVL115:
 825 004c F8BD     		pop	{r3, r4, r5, r6, r7, pc}
 826              	.L88:
 827 004e 00BF     		.align	2
 828              	.L87:
 829 0050 00000000 		.word	.LANCHOR0
ARM GAS  C:\Users\Tim\AppData\Local\Temp\ccyb4S0f.s 			page 28


 830              		.cfi_endproc
 831              	.LFE72:
 832              		.size	FUZZY_Update, .-FUZZY_Update
 833              		.global	Rules
 834              		.data
 835              		.align	2
 836              		.set	.LANCHOR0,. + 0
 837              		.type	Rules, %object
 838              		.size	Rules, 147
 839              	Rules:
 840 0000 00       		.byte	0
 841 0001 00       		.byte	0
 842 0002 00       		.byte	0
 843 0003 00       		.byte	0
 844 0004 01       		.byte	1
 845 0005 00       		.byte	0
 846 0006 00       		.byte	0
 847 0007 02       		.byte	2
 848 0008 00       		.byte	0
 849 0009 00       		.byte	0
 850 000a 03       		.byte	3
 851 000b 01       		.byte	1
 852 000c 00       		.byte	0
 853 000d 04       		.byte	4
 854 000e 01       		.byte	1
 855 000f 00       		.byte	0
 856 0010 05       		.byte	5
 857 0011 02       		.byte	2
 858 0012 00       		.byte	0
 859 0013 06       		.byte	6
 860 0014 03       		.byte	3
 861 0015 01       		.byte	1
 862 0016 00       		.byte	0
 863 0017 00       		.byte	0
 864 0018 01       		.byte	1
 865 0019 01       		.byte	1
 866 001a 00       		.byte	0
 867 001b 01       		.byte	1
 868 001c 02       		.byte	2
 869 001d 01       		.byte	1
 870 001e 01       		.byte	1
 871 001f 03       		.byte	3
 872 0020 01       		.byte	1
 873 0021 01       		.byte	1
 874 0022 04       		.byte	4
 875 0023 02       		.byte	2
 876 0024 01       		.byte	1
 877 0025 05       		.byte	5
 878 0026 03       		.byte	3
 879 0027 01       		.byte	1
 880 0028 06       		.byte	6
 881 0029 04       		.byte	4
 882 002a 02       		.byte	2
 883 002b 00       		.byte	0
 884 002c 00       		.byte	0
 885 002d 02       		.byte	2
 886 002e 01       		.byte	1
ARM GAS  C:\Users\Tim\AppData\Local\Temp\ccyb4S0f.s 			page 29


 887 002f 01       		.byte	1
 888 0030 02       		.byte	2
 889 0031 02       		.byte	2
 890 0032 01       		.byte	1
 891 0033 02       		.byte	2
 892 0034 03       		.byte	3
 893 0035 02       		.byte	2
 894 0036 02       		.byte	2
 895 0037 04       		.byte	4
 896 0038 03       		.byte	3
 897 0039 02       		.byte	2
 898 003a 05       		.byte	5
 899 003b 04       		.byte	4
 900 003c 02       		.byte	2
 901 003d 06       		.byte	6
 902 003e 05       		.byte	5
 903 003f 03       		.byte	3
 904 0040 00       		.byte	0
 905 0041 01       		.byte	1
 906 0042 03       		.byte	3
 907 0043 01       		.byte	1
 908 0044 01       		.byte	1
 909 0045 03       		.byte	3
 910 0046 02       		.byte	2
 911 0047 02       		.byte	2
 912 0048 03       		.byte	3
 913 0049 03       		.byte	3
 914 004a 03       		.byte	3
 915 004b 03       		.byte	3
 916 004c 04       		.byte	4
 917 004d 04       		.byte	4
 918 004e 03       		.byte	3
 919 004f 05       		.byte	5
 920 0050 05       		.byte	5
 921 0051 03       		.byte	3
 922 0052 06       		.byte	6
 923 0053 05       		.byte	5
 924 0054 04       		.byte	4
 925 0055 00       		.byte	0
 926 0056 01       		.byte	1
 927 0057 04       		.byte	4
 928 0058 01       		.byte	1
 929 0059 02       		.byte	2
 930 005a 04       		.byte	4
 931 005b 02       		.byte	2
 932 005c 03       		.byte	3
 933 005d 04       		.byte	4
 934 005e 03       		.byte	3
 935 005f 04       		.byte	4
 936 0060 04       		.byte	4
 937 0061 04       		.byte	4
 938 0062 05       		.byte	5
 939 0063 04       		.byte	4
 940 0064 05       		.byte	5
 941 0065 06       		.byte	6
 942 0066 04       		.byte	4
 943 0067 06       		.byte	6
ARM GAS  C:\Users\Tim\AppData\Local\Temp\ccyb4S0f.s 			page 30


 944 0068 06       		.byte	6
 945 0069 05       		.byte	5
 946 006a 00       		.byte	0
 947 006b 02       		.byte	2
 948 006c 05       		.byte	5
 949 006d 01       		.byte	1
 950 006e 03       		.byte	3
 951 006f 05       		.byte	5
 952 0070 02       		.byte	2
 953 0071 04       		.byte	4
 954 0072 05       		.byte	5
 955 0073 03       		.byte	3
 956 0074 05       		.byte	5
 957 0075 05       		.byte	5
 958 0076 04       		.byte	4
 959 0077 05       		.byte	5
 960 0078 05       		.byte	5
 961 0079 05       		.byte	5
 962 007a 06       		.byte	6
 963 007b 05       		.byte	5
 964 007c 06       		.byte	6
 965 007d 06       		.byte	6
 966 007e 06       		.byte	6
 967 007f 00       		.byte	0
 968 0080 03       		.byte	3
 969 0081 06       		.byte	6
 970 0082 01       		.byte	1
 971 0083 04       		.byte	4
 972 0084 06       		.byte	6
 973 0085 02       		.byte	2
 974 0086 05       		.byte	5
 975 0087 06       		.byte	6
 976 0088 03       		.byte	3
 977 0089 05       		.byte	5
 978 008a 06       		.byte	6
 979 008b 04       		.byte	4
 980 008c 06       		.byte	6
 981 008d 06       		.byte	6
 982 008e 05       		.byte	5
 983 008f 06       		.byte	6
 984 0090 06       		.byte	6
 985 0091 06       		.byte	6
 986 0092 06       		.byte	6
 987 0093 00       		.space	1
 988              		.type	left_inputs, %object
 989              		.size	left_inputs, 480
 990              	left_inputs:
 991 0094 4572726F 		.ascii	"Error\000"
 991      7200
 992 009a 00000000 		.space	4
 993 009e 0000     		.space	2
 994 00a0 00000000 		.word	0
 995 00a4 4E4200   		.ascii	"NB\000"
 996 00a7 00000000 		.space	7
 996      000000
 997 00ae 0000     		.space	2
 998 00b0 00000000 		.word	0
ARM GAS  C:\Users\Tim\AppData\Local\Temp\ccyb4S0f.s 			page 31


 999 00b4 000080BF 		.word	-1082130432
 1000 00b8 1F852BBF 		.word	-1087666913
 1001 00bc 00000000 		.word	0
 1002 00c0 7CF041C0 		.word	-1069420420
 1003 00c4 4E4D00   		.ascii	"NM\000"
 1004 00c7 00000000 		.space	7
 1004      000000
 1005 00ce 0000     		.space	2
 1006 00d0 00000000 		.word	0
 1007 00d4 000080BF 		.word	-1082130432
 1008 00d8 C3F5A8BE 		.word	-1096223293
 1009 00dc 760B3F40 		.word	1077873526
 1010 00e0 760B3FC0 		.word	-1069610122
 1011 00e4 4E5300   		.ascii	"NS\000"
 1012 00e7 00000000 		.space	7
 1012      000000
 1013 00ee 0000     		.space	2
 1014 00f0 00000000 		.word	0
 1015 00f4 1F852BBF 		.word	-1087666913
 1016 00f8 00000000 		.word	0
 1017 00fc 760B3F40 		.word	1077873526
 1018 0100 760B3FC0 		.word	-1069610122
 1019 0104 5A00     		.ascii	"Z\000"
 1020 0106 00000000 		.space	8
 1020      00000000 
 1021 010e 0000     		.space	2
 1022 0110 00000000 		.word	0
 1023 0114 C3F5A8BE 		.word	-1096223293
 1024 0118 C3F5A83E 		.word	1051260355
 1025 011c 7CF04140 		.word	1078063228
 1026 0120 7CF041C0 		.word	-1069420420
 1027 0124 505300   		.ascii	"PS\000"
 1028 0127 00000000 		.space	7
 1028      000000
 1029 012e 0000     		.space	2
 1030 0130 00000000 		.word	0
 1031 0134 00000000 		.word	0
 1032 0138 00000000 		.word	0
 1033 013c 760B3F40 		.word	1077873526
 1034 0140 760B3FC0 		.word	-1069610122
 1035 0144 504D00   		.ascii	"PM\000"
 1036 0147 00000000 		.space	7
 1036      000000
 1037 014e 0000     		.space	2
 1038 0150 00000000 		.word	0
 1039 0154 C3F5A83E 		.word	1051260355
 1040 0158 C3F5A83E 		.word	1051260355
 1041 015c 760B3F40 		.word	1077873526
 1042 0160 760B3FC0 		.word	-1069610122
 1043 0164 504200   		.ascii	"PB\000"
 1044 0167 00000000 		.space	7
 1044      000000
 1045 016e 0000     		.space	2
 1046 0170 00000000 		.word	0
 1047 0174 1F852B3F 		.word	1059816735
 1048 0178 1F852B3F 		.word	1059816735
 1049 017c 7CF0C140 		.word	1086451836
ARM GAS  C:\Users\Tim\AppData\Local\Temp\ccyb4S0f.s 			page 32


 1050 0180 00000000 		.word	0
 1051 0184 64457272 		.ascii	"dError\000"
 1051      6F7200
 1052 018b 000000   		.space	3
 1053 018e 0000     		.space	2
 1054 0190 00000000 		.word	0
 1055 0194 4E4200   		.ascii	"NB\000"
 1056 0197 00000000 		.space	7
 1056      000000
 1057 019e 0000     		.space	2
 1058 01a0 00000000 		.word	0
 1059 01a4 000080BF 		.word	-1082130432
 1060 01a8 1F852BBF 		.word	-1087666913
 1061 01ac 00000000 		.word	0
 1062 01b0 7CF041C0 		.word	-1069420420
 1063 01b4 4E4D00   		.ascii	"NM\000"
 1064 01b7 00000000 		.space	7
 1064      000000
 1065 01be 0000     		.space	2
 1066 01c0 00000000 		.word	0
 1067 01c4 000080BF 		.word	-1082130432
 1068 01c8 C3F5A8BE 		.word	-1096223293
 1069 01cc 760B3F40 		.word	1077873526
 1070 01d0 760B3FC0 		.word	-1069610122
 1071 01d4 4E5300   		.ascii	"NS\000"
 1072 01d7 00000000 		.space	7
 1072      000000
 1073 01de 0000     		.space	2
 1074 01e0 00000000 		.word	0
 1075 01e4 1F852BBF 		.word	-1087666913
 1076 01e8 00000000 		.word	0
 1077 01ec 760B3F40 		.word	1077873526
 1078 01f0 760B3FC0 		.word	-1069610122
 1079 01f4 5A00     		.ascii	"Z\000"
 1080 01f6 00000000 		.space	8
 1080      00000000 
 1081 01fe 0000     		.space	2
 1082 0200 00000000 		.word	0
 1083 0204 C3F5A8BE 		.word	-1096223293
 1084 0208 C3F5A83E 		.word	1051260355
 1085 020c 7CF04140 		.word	1078063228
 1086 0210 7CF041C0 		.word	-1069420420
 1087 0214 505300   		.ascii	"PS\000"
 1088 0217 00000000 		.space	7
 1088      000000
 1089 021e 0000     		.space	2
 1090 0220 00000000 		.word	0
 1091 0224 00000000 		.word	0
 1092 0228 00000000 		.word	0
 1093 022c 760B3F40 		.word	1077873526
 1094 0230 760B3FC0 		.word	-1069610122
 1095 0234 504D00   		.ascii	"PM\000"
 1096 0237 00000000 		.space	7
 1096      000000
 1097 023e 0000     		.space	2
 1098 0240 00000000 		.word	0
 1099 0244 C3F5A83E 		.word	1051260355
ARM GAS  C:\Users\Tim\AppData\Local\Temp\ccyb4S0f.s 			page 33


 1100 0248 C3F5A83E 		.word	1051260355
 1101 024c 760B3F40 		.word	1077873526
 1102 0250 760B3FC0 		.word	-1069610122
 1103 0254 504200   		.ascii	"PB\000"
 1104 0257 00000000 		.space	7
 1104      000000
 1105 025e 0000     		.space	2
 1106 0260 00000000 		.word	0
 1107 0264 1F852B3F 		.word	1059816735
 1108 0268 1F852B3F 		.word	1059816735
 1109 026c 7CF0C140 		.word	1086451836
 1110 0270 00000000 		.word	0
 1111              		.type	right_inputs, %object
 1112              		.size	right_inputs, 480
 1113              	right_inputs:
 1114 0274 4572726F 		.ascii	"Error\000"
 1114      7200
 1115 027a 00000000 		.space	4
 1116 027e 0000     		.space	2
 1117 0280 00000000 		.word	0
 1118 0284 4E4200   		.ascii	"NB\000"
 1119 0287 00000000 		.space	7
 1119      000000
 1120 028e 0000     		.space	2
 1121 0290 00000000 		.word	0
 1122 0294 000080BF 		.word	-1082130432
 1123 0298 1F852BBF 		.word	-1087666913
 1124 029c 00000000 		.word	0
 1125 02a0 7CF041C0 		.word	-1069420420
 1126 02a4 4E4D00   		.ascii	"NM\000"
 1127 02a7 00000000 		.space	7
 1127      000000
 1128 02ae 0000     		.space	2
 1129 02b0 00000000 		.word	0
 1130 02b4 000080BF 		.word	-1082130432
 1131 02b8 C3F5A8BE 		.word	-1096223293
 1132 02bc 760B3F40 		.word	1077873526
 1133 02c0 760B3FC0 		.word	-1069610122
 1134 02c4 4E5300   		.ascii	"NS\000"
 1135 02c7 00000000 		.space	7
 1135      000000
 1136 02ce 0000     		.space	2
 1137 02d0 00000000 		.word	0
 1138 02d4 1F852BBF 		.word	-1087666913
 1139 02d8 00000000 		.word	0
 1140 02dc 760B3F40 		.word	1077873526
 1141 02e0 760B3FC0 		.word	-1069610122
 1142 02e4 5A00     		.ascii	"Z\000"
 1143 02e6 00000000 		.space	8
 1143      00000000 
 1144 02ee 0000     		.space	2
 1145 02f0 00000000 		.word	0
 1146 02f4 C3F5A8BE 		.word	-1096223293
 1147 02f8 C3F5A83E 		.word	1051260355
 1148 02fc 7CF04140 		.word	1078063228
 1149 0300 7CF041C0 		.word	-1069420420
 1150 0304 505300   		.ascii	"PS\000"
ARM GAS  C:\Users\Tim\AppData\Local\Temp\ccyb4S0f.s 			page 34


 1151 0307 00000000 		.space	7
 1151      000000
 1152 030e 0000     		.space	2
 1153 0310 00000000 		.word	0
 1154 0314 00000000 		.word	0
 1155 0318 00000000 		.word	0
 1156 031c 760B3F40 		.word	1077873526
 1157 0320 760B3FC0 		.word	-1069610122
 1158 0324 504D00   		.ascii	"PM\000"
 1159 0327 00000000 		.space	7
 1159      000000
 1160 032e 0000     		.space	2
 1161 0330 00000000 		.word	0
 1162 0334 C3F5A83E 		.word	1051260355
 1163 0338 C3F5A83E 		.word	1051260355
 1164 033c 760B3F40 		.word	1077873526
 1165 0340 760B3FC0 		.word	-1069610122
 1166 0344 504200   		.ascii	"PB\000"
 1167 0347 00000000 		.space	7
 1167      000000
 1168 034e 0000     		.space	2
 1169 0350 00000000 		.word	0
 1170 0354 1F852B3F 		.word	1059816735
 1171 0358 1F852B3F 		.word	1059816735
 1172 035c 7CF0C140 		.word	1086451836
 1173 0360 00000000 		.word	0
 1174 0364 64457272 		.ascii	"dError\000"
 1174      6F7200
 1175 036b 000000   		.space	3
 1176 036e 0000     		.space	2
 1177 0370 00000000 		.word	0
 1178 0374 4E4200   		.ascii	"NB\000"
 1179 0377 00000000 		.space	7
 1179      000000
 1180 037e 0000     		.space	2
 1181 0380 00000000 		.word	0
 1182 0384 000080BF 		.word	-1082130432
 1183 0388 1F852BBF 		.word	-1087666913
 1184 038c 00000000 		.word	0
 1185 0390 7CF041C0 		.word	-1069420420
 1186 0394 4E4D00   		.ascii	"NM\000"
 1187 0397 00000000 		.space	7
 1187      000000
 1188 039e 0000     		.space	2
 1189 03a0 00000000 		.word	0
 1190 03a4 000080BF 		.word	-1082130432
 1191 03a8 C3F5A8BE 		.word	-1096223293
 1192 03ac 760B3F40 		.word	1077873526
 1193 03b0 760B3FC0 		.word	-1069610122
 1194 03b4 4E5300   		.ascii	"NS\000"
 1195 03b7 00000000 		.space	7
 1195      000000
 1196 03be 0000     		.space	2
 1197 03c0 00000000 		.word	0
 1198 03c4 1F852BBF 		.word	-1087666913
 1199 03c8 00000000 		.word	0
 1200 03cc 760B3F40 		.word	1077873526
ARM GAS  C:\Users\Tim\AppData\Local\Temp\ccyb4S0f.s 			page 35


 1201 03d0 760B3FC0 		.word	-1069610122
 1202 03d4 5A00     		.ascii	"Z\000"
 1203 03d6 00000000 		.space	8
 1203      00000000 
 1204 03de 0000     		.space	2
 1205 03e0 00000000 		.word	0
 1206 03e4 C3F5A8BE 		.word	-1096223293
 1207 03e8 C3F5A83E 		.word	1051260355
 1208 03ec 7CF04140 		.word	1078063228
 1209 03f0 7CF041C0 		.word	-1069420420
 1210 03f4 505300   		.ascii	"PS\000"
 1211 03f7 00000000 		.space	7
 1211      000000
 1212 03fe 0000     		.space	2
 1213 0400 00000000 		.word	0
 1214 0404 00000000 		.word	0
 1215 0408 00000000 		.word	0
 1216 040c 760B3F40 		.word	1077873526
 1217 0410 760B3FC0 		.word	-1069610122
 1218 0414 504D00   		.ascii	"PM\000"
 1219 0417 00000000 		.space	7
 1219      000000
 1220 041e 0000     		.space	2
 1221 0420 00000000 		.word	0
 1222 0424 C3F5A83E 		.word	1051260355
 1223 0428 C3F5A83E 		.word	1051260355
 1224 042c 760B3F40 		.word	1077873526
 1225 0430 760B3FC0 		.word	-1069610122
 1226 0434 504200   		.ascii	"PB\000"
 1227 0437 00000000 		.space	7
 1227      000000
 1228 043e 0000     		.space	2
 1229 0440 00000000 		.word	0
 1230 0444 1F852B3F 		.word	1059816735
 1231 0448 1F852B3F 		.word	1059816735
 1232 044c 7CF0C140 		.word	1086451836
 1233 0450 00000000 		.word	0
 1234              		.type	left_output, %object
 1235              		.size	left_output, 240
 1236              	left_output:
 1237 0454 50574D00 		.ascii	"PWM\000"
 1238 0458 00000000 		.space	6
 1238      0000
 1239 045e 0000     		.space	2
 1240 0460 00000000 		.word	0
 1241 0464 4E4200   		.ascii	"NB\000"
 1242 0467 00000000 		.space	7
 1242      000000
 1243 046e 0000     		.space	2
 1244 0470 00000000 		.word	0
 1245 0474 000080BF 		.word	-1082130432
 1246 0478 1F852BBF 		.word	-1087666913
 1247 047c 00000000 		.word	0
 1248 0480 7CF041C0 		.word	-1069420420
 1249 0484 4E4D00   		.ascii	"NM\000"
 1250 0487 00000000 		.space	7
 1250      000000
ARM GAS  C:\Users\Tim\AppData\Local\Temp\ccyb4S0f.s 			page 36


 1251 048e 0000     		.space	2
 1252 0490 00000000 		.word	0
 1253 0494 000080BF 		.word	-1082130432
 1254 0498 C3F5A8BE 		.word	-1096223293
 1255 049c 760B3F40 		.word	1077873526
 1256 04a0 760B3FC0 		.word	-1069610122
 1257 04a4 4E5300   		.ascii	"NS\000"
 1258 04a7 00000000 		.space	7
 1258      000000
 1259 04ae 0000     		.space	2
 1260 04b0 00000000 		.word	0
 1261 04b4 1F852BBF 		.word	-1087666913
 1262 04b8 00000000 		.word	0
 1263 04bc 760B3F40 		.word	1077873526
 1264 04c0 760B3FC0 		.word	-1069610122
 1265 04c4 5A00     		.ascii	"Z\000"
 1266 04c6 00000000 		.space	8
 1266      00000000 
 1267 04ce 0000     		.space	2
 1268 04d0 00000000 		.word	0
 1269 04d4 C3F5A8BE 		.word	-1096223293
 1270 04d8 C3F5A83E 		.word	1051260355
 1271 04dc 7CF04140 		.word	1078063228
 1272 04e0 7CF041C0 		.word	-1069420420
 1273 04e4 505300   		.ascii	"PS\000"
 1274 04e7 00000000 		.space	7
 1274      000000
 1275 04ee 0000     		.space	2
 1276 04f0 00000000 		.word	0
 1277 04f4 00000000 		.word	0
 1278 04f8 00000000 		.word	0
 1279 04fc 760B3F40 		.word	1077873526
 1280 0500 760B3FC0 		.word	-1069610122
 1281 0504 504D00   		.ascii	"PM\000"
 1282 0507 00000000 		.space	7
 1282      000000
 1283 050e 0000     		.space	2
 1284 0510 00000000 		.word	0
 1285 0514 C3F5A83E 		.word	1051260355
 1286 0518 C3F5A83E 		.word	1051260355
 1287 051c 760B3F40 		.word	1077873526
 1288 0520 760B3FC0 		.word	-1069610122
 1289 0524 504200   		.ascii	"PB\000"
 1290 0527 00000000 		.space	7
 1290      000000
 1291 052e 0000     		.space	2
 1292 0530 00000000 		.word	0
 1293 0534 1F852B3F 		.word	1059816735
 1294 0538 1F852B3F 		.word	1059816735
 1295 053c 7CF0C140 		.word	1086451836
 1296 0540 00000000 		.word	0
 1297              		.type	right_output, %object
 1298              		.size	right_output, 240
 1299              	right_output:
 1300 0544 50574D00 		.ascii	"PWM\000"
 1301 0548 00000000 		.space	6
 1301      0000
ARM GAS  C:\Users\Tim\AppData\Local\Temp\ccyb4S0f.s 			page 37


 1302 054e 0000     		.space	2
 1303 0550 00000000 		.word	0
 1304 0554 4E4200   		.ascii	"NB\000"
 1305 0557 00000000 		.space	7
 1305      000000
 1306 055e 0000     		.space	2
 1307 0560 00000000 		.word	0
 1308 0564 000080BF 		.word	-1082130432
 1309 0568 1F852BBF 		.word	-1087666913
 1310 056c 00000000 		.word	0
 1311 0570 7CF041C0 		.word	-1069420420
 1312 0574 4E4D00   		.ascii	"NM\000"
 1313 0577 00000000 		.space	7
 1313      000000
 1314 057e 0000     		.space	2
 1315 0580 00000000 		.word	0
 1316 0584 000080BF 		.word	-1082130432
 1317 0588 C3F5A8BE 		.word	-1096223293
 1318 058c 760B3F40 		.word	1077873526
 1319 0590 760B3FC0 		.word	-1069610122
 1320 0594 4E5300   		.ascii	"NS\000"
 1321 0597 00000000 		.space	7
 1321      000000
 1322 059e 0000     		.space	2
 1323 05a0 00000000 		.word	0
 1324 05a4 1F852BBF 		.word	-1087666913
 1325 05a8 00000000 		.word	0
 1326 05ac 760B3F40 		.word	1077873526
 1327 05b0 760B3FC0 		.word	-1069610122
 1328 05b4 5A00     		.ascii	"Z\000"
 1329 05b6 00000000 		.space	8
 1329      00000000 
 1330 05be 0000     		.space	2
 1331 05c0 00000000 		.word	0
 1332 05c4 C3F5A8BE 		.word	-1096223293
 1333 05c8 C3F5A83E 		.word	1051260355
 1334 05cc 7CF04140 		.word	1078063228
 1335 05d0 7CF041C0 		.word	-1069420420
 1336 05d4 505300   		.ascii	"PS\000"
 1337 05d7 00000000 		.space	7
 1337      000000
 1338 05de 0000     		.space	2
 1339 05e0 00000000 		.word	0
 1340 05e4 00000000 		.word	0
 1341 05e8 00000000 		.word	0
 1342 05ec 760B3F40 		.word	1077873526
 1343 05f0 760B3FC0 		.word	-1069610122
 1344 05f4 504D00   		.ascii	"PM\000"
 1345 05f7 00000000 		.space	7
 1345      000000
 1346 05fe 0000     		.space	2
 1347 0600 00000000 		.word	0
 1348 0604 C3F5A83E 		.word	1051260355
 1349 0608 C3F5A83E 		.word	1051260355
 1350 060c 760B3F40 		.word	1077873526
 1351 0610 760B3FC0 		.word	-1069610122
 1352 0614 504200   		.ascii	"PB\000"
ARM GAS  C:\Users\Tim\AppData\Local\Temp\ccyb4S0f.s 			page 38


 1353 0617 00000000 		.space	7
 1353      000000
 1354 061e 0000     		.space	2
 1355 0620 00000000 		.word	0
 1356 0624 1F852B3F 		.word	1059816735
 1357 0628 1F852B3F 		.word	1059816735
 1358 062c 7CF0C140 		.word	1086451836
 1359 0630 00000000 		.word	0
 1360              		.bss
 1361              		.align	1
 1362              		.set	.LANCHOR1,. + 0
 1363              		.type	left_actual_speed, %object
 1364              		.size	left_actual_speed, 2
 1365              	left_actual_speed:
 1366 0000 0000     		.space	2
 1367              		.type	right_actual_speed, %object
 1368              		.size	right_actual_speed, 2
 1369              	right_actual_speed:
 1370 0002 0000     		.space	2
 1371              		.type	max_forward_speed, %object
 1372              		.size	max_forward_speed, 2
 1373              	max_forward_speed:
 1374 0004 0000     		.space	2
 1375              		.type	max_reverse_speed, %object
 1376              		.size	max_reverse_speed, 2
 1377              	max_reverse_speed:
 1378 0006 0000     		.space	2
 1379              		.type	last_left_input_error.7278, %object
 1380              		.size	last_left_input_error.7278, 2
 1381              	last_left_input_error.7278:
 1382 0008 0000     		.space	2
 1383              		.type	last_right_input_error.7279, %object
 1384              		.size	last_right_input_error.7279, 2
 1385              	last_right_input_error.7279:
 1386 000a 0000     		.space	2
 1387              		.text
 1388              	.Letext0:
 1389              		.file 2 "c:\\program files (x86)\\cypress\\psoc creator\\3.3\\psoc creator\\import\\gnu\\arm\\4.9.
 1390              		.file 3 "c:\\program files (x86)\\cypress\\psoc creator\\3.3\\psoc creator\\import\\gnu\\arm\\4.9.
 1391              		.file 4 "Generated_Source\\PSoC5/cytypes.h"
 1392              		.file 5 "Generated_Source\\PSoC5/core_cm3.h"
 1393              		.file 6 "..\\source\\i2c.h"