ARM GAS  C:\Users\Tim\AppData\Local\Temp\ccNk5Ehd.s 			page 1


   1              		.syntax unified
   2              		.cpu cortex-m3
   3              		.fpu softvfp
   4              		.eabi_attribute 20, 1
   5              		.eabi_attribute 21, 1
   6              		.eabi_attribute 23, 3
   7              		.eabi_attribute 24, 1
   8              		.eabi_attribute 25, 1
   9              		.eabi_attribute 26, 1
  10              		.eabi_attribute 30, 1
  11              		.eabi_attribute 34, 1
  12              		.eabi_attribute 18, 4
  13              		.thumb
  14              		.file	"i2c.c"
  15              		.text
  16              	.Ltext0:
  17              		.cfi_sections	.debug_frame
  18              		.section	.text.I2c_Init,"ax",%progbits
  19              		.align	2
  20              		.global	I2c_Init
  21              		.thumb
  22              		.thumb_func
  23              		.type	I2c_Init, %function
  24              	I2c_Init:
  25              	.LFB63:
  26              		.file 1 "..\\source\\i2c.c"
   1:..\source/i2c.c **** /* ========================================
   2:..\source/i2c.c ****  *
   3:..\source/i2c.c ****  * Copyright YOUR COMPANY, THE YEAR
   4:..\source/i2c.c ****  * All Rights Reserved
   5:..\source/i2c.c ****  * UNPUBLISHED, LICENSED SOFTWARE.
   6:..\source/i2c.c ****  *
   7:..\source/i2c.c ****  * CONFIDENTIAL AND PROPRIETARY INFORMATION
   8:..\source/i2c.c ****  * WHICH IS THE PROPERTY OF your company.
   9:..\source/i2c.c ****  *
  10:..\source/i2c.c ****  * ========================================
  11:..\source/i2c.c **** */
  12:..\source/i2c.c **** 
  13:..\source/i2c.c **** /*-------------------------------------------------------------------------------------------------
  14:..\source/i2c.c ****  * Includes
  15:..\source/i2c.c ****  *-------------------------------------------------------------------------------------------------
  16:..\source/i2c.c **** #include "i2c.h"
  17:..\source/i2c.c **** #include "time.h"
  18:..\source/i2c.c **** #include "config.h"
  19:..\source/i2c.c **** #include "utils.h"
  20:..\source/i2c.c **** #include "debug.h"
  21:..\source/i2c.c **** #include "cal.h"
  22:..\source/i2c.c **** 
  23:..\source/i2c.c **** 
  24:..\source/i2c.c **** /*-------------------------------------------------------------------------------------------------
  25:..\source/i2c.c ****  * Constants
  26:..\source/i2c.c ****  *-------------------------------------------------------------------------------------------------
  27:..\source/i2c.c **** #define ENCODER_DEBUG_BIT   (0x0001)
  28:..\source/i2c.c **** #define PID_DEBUG_BIT       (0x0002)
  29:..\source/i2c.c **** #define MOTOR_DEBUG_BIT     (0x0004)
  30:..\source/i2c.c **** #define ODOM_DEBUG_BIT      (0x0008)
  31:..\source/i2c.c **** #define SAMPLE_DEBUG_BIT    (0x0010)
ARM GAS  C:\Users\Tim\AppData\Local\Temp\ccNk5Ehd.s 			page 2


  32:..\source/i2c.c **** 
  33:..\source/i2c.c **** /*-------------------------------------------------------------------------------------------------
  34:..\source/i2c.c ****  * Macros
  35:..\source/i2c.c ****  *-------------------------------------------------------------------------------------------------
  36:..\source/i2c.c **** 
  37:..\source/i2c.c **** /* Macro to wait for any outstanding master writes to the I2C buffer.  This ensures data integrity 
  38:..\source/i2c.c ****  */
  39:..\source/i2c.c **** #define I2C_WAIT_FOR_ACCESS()   do  \
  40:..\source/i2c.c ****                                 {   \
  41:..\source/i2c.c ****                                 } while (0 !=  EZI2C_Slave_GetActivity())
  42:..\source/i2c.c ****                                     
  43:..\source/i2c.c **** 
  44:..\source/i2c.c **** /*-------------------------------------------------------------------------------------------------
  45:..\source/i2c.c ****  * Types
  46:..\source/i2c.c ****  *-------------------------------------------------------------------------------------------------
  47:..\source/i2c.c **** /*
  48:..\source/i2c.c ****     I2C Communication Data Layout
  49:..\source/i2c.c **** 
  50:..\source/i2c.c ****     offset     num bytes     name                           description
  51:..\source/i2c.c ****       00           2         [device control]               the control register supports 
  52:..\source/i2c.c ****                                                                 - Bit 0: disable the HB25 motors
  53:..\source/i2c.c ****                                                                 - Bit 1: clear odometry (which incl
  54:..\source/i2c.c ****                                                                     left/right speed
  55:..\source/i2c.c ****                                                                     left/right delta distance
  56:..\source/i2c.c ****                                                                     encoder counts
  57:..\source/i2c.c ****                                                                 - Bit 2: clear calibration
  58:..\source/i2c.c ****       02           2         [debug control]                the debug register supports
  59:..\source/i2c.c ****                                                                 - Bit 0: Enable/Disable Encoder Deb
  60:..\source/i2c.c ****                                                                 - Bit 1: Enable/Disable PID debug
  61:..\source/i2c.c ****                                                                 - Bit 2: Enable/Disable Motor debug
  62:..\source/i2c.c ****                                                                 - Bit 3: Enable/Disable Odometry de
  63:..\source/i2c.c ****                                                                 - Bit 4: Enable/Disable Sample debu
  64:..\source/i2c.c ****         <---- Commanded Velocity ---->
  65:..\source/i2c.c ****       04           4         [left wheel velocity]          commanded left wheel velocity in meter/
  66:..\source/i2c.c ****       08           4         [right wheel velocity]         commanded right wheel velocity in meter
  67:..\source/i2c.c ****     ------------------------------ Read/Write Boundary --------------------------------------------
  68:..\source/i2c.c ****       12           2         [device status]                contains bits that represent the status
  69:..\source/i2c.c ****                                                                - Bit 0: HB25 Motor Controller Initi
  70:..\source/i2c.c ****       14           2         [calibration status]           contains bits that represent the calibr
  71:..\source/i2c.c ****                                                                - Bit 0: Count/Sec to PWM
  72:..\source/i2c.c ****                                                                - Bit 1: PID
  73:..\source/i2c.c ****            <------ Odometry ------>
  74:..\source/i2c.c ****       16           4         [left speed]                   measured left speed
  75:..\source/i2c.c ****       20           4         [right speed]                  measured right speed
  76:..\source/i2c.c ****       24           4         [left delta distance]          measured delta left distance 
  77:..\source/i2c.c ****       28           4         [right delta distance]         measured delta right distance
  78:..\source/i2c.c ****       32           4         [heading]                      measured heading
  79:..\source/i2c.c ****           <------ Ultrasonic ------>
  80:..\source/i2c.c ****       36          64         [ultrasonic distance]          ultrasonic distance is an array of 
  81:..\source/i2c.c ****                                                             distances from the ultrasonic sensors i
  82:..\source/i2c.c ****                                                             meters, range 0.02 to 4
  83:..\source/i2c.c ****                                                             
  84:..\source/i2c.c ****                                                             Front sensors - 32 bytes
  85:..\source/i2c.c ****                                                             Rear sensors - 32 bytes
  86:..\source/i2c.c ****            <------ Infrared ------>
  87:..\source/i2c.c ****      100          64         [infrared distance]            infrared distance is an array of distan
  88:..\source/i2c.c ****                                                             from the infrared sensors in meters, 
ARM GAS  C:\Users\Tim\AppData\Local\Temp\ccNk5Ehd.s 			page 3


  89:..\source/i2c.c ****                                                             range 0.1 to 0.8
  90:..\source/i2c.c ****                                                             
  91:..\source/i2c.c ****                                                             Front sensors - 32 bytes
  92:..\source/i2c.c ****                                                             Rear sensors - 32 bytes
  93:..\source/i2c.c **** 
  94:..\source/i2c.c ****      164           4         [heartbeat]                    used for testing the i2c communication
  95:..\source/i2c.c ****  */
  96:..\source/i2c.c **** 
  97:..\source/i2c.c **** /* Define the portion of the I2C Slave that Read/Write */
  98:..\source/i2c.c **** typedef struct
  99:..\source/i2c.c **** {
 100:..\source/i2c.c ****     uint16 device_control;
 101:..\source/i2c.c ****     uint16 debug_control;
 102:..\source/i2c.c ****     float  left_cmd_velocity;
 103:..\source/i2c.c ****     float  right_cmd_velocity;
 104:..\source/i2c.c **** } __attribute__ ((packed)) READWRITE_TYPE;
 105:..\source/i2c.c **** 
 106:..\source/i2c.c **** /* Define the odometry structure for communicating the position, heading and velocity of the wheel 
 107:..\source/i2c.c ****    Note: Each Psoc board controls a single wheel, but calculates and reports odometry for the robot
 108:..\source/i2c.c ****  */
 109:..\source/i2c.c **** typedef struct
 110:..\source/i2c.c **** {
 111:..\source/i2c.c ****     float left_speed;
 112:..\source/i2c.c ****     float right_speed;
 113:..\source/i2c.c ****     float left_delta_dist;
 114:..\source/i2c.c ****     float right_delta_dist;
 115:..\source/i2c.c ****     float heading;
 116:..\source/i2c.c **** } __attribute__ ((packed)) ODOMETRY;
 117:..\source/i2c.c **** 
 118:..\source/i2c.c **** /* Define the structure for ultrasonic sensors */
 119:..\source/i2c.c **** typedef struct
 120:..\source/i2c.c **** {
 121:..\source/i2c.c ****     float dist[NUM_ULTRASONIC_SENSORS];
 122:..\source/i2c.c **** } __attribute__ ((packed)) ULTRASONIC;
 123:..\source/i2c.c **** 
 124:..\source/i2c.c **** /* Define the structure for infrared sensors */
 125:..\source/i2c.c **** typedef struct
 126:..\source/i2c.c **** {
 127:..\source/i2c.c ****     float dist[NUM_INFRARED_SENSORS];
 128:..\source/i2c.c **** } __attribute__((packed)) INFRARED;
 129:..\source/i2c.c **** 
 130:..\source/i2c.c **** /* Define the I2C Slave that Read Only */
 131:..\source/i2c.c **** typedef struct
 132:..\source/i2c.c **** {
 133:..\source/i2c.c ****     uint16     device_status;
 134:..\source/i2c.c ****     uint16     calibration_status;
 135:..\source/i2c.c ****     ODOMETRY   odom;
 136:..\source/i2c.c ****     ULTRASONIC us;
 137:..\source/i2c.c ****     INFRARED   ir;
 138:..\source/i2c.c ****     uint32     heartbeat;
 139:..\source/i2c.c **** } __attribute__ ((packed)) READONLY_TYPE;
 140:..\source/i2c.c **** 
 141:..\source/i2c.c **** /* Define the I2C Slave data interface */
 142:..\source/i2c.c **** typedef struct
 143:..\source/i2c.c **** {
 144:..\source/i2c.c ****     READWRITE_TYPE read_write;
 145:..\source/i2c.c ****     /*---------R/W Boundary -----------*/
ARM GAS  C:\Users\Tim\AppData\Local\Temp\ccNk5Ehd.s 			page 4


 146:..\source/i2c.c ****     READONLY_TYPE read_only;
 147:..\source/i2c.c **** } __attribute__ ((packed)) I2C_DATASTRUCT;
 148:..\source/i2c.c **** 
 149:..\source/i2c.c **** 
 150:..\source/i2c.c **** /* Define the I2C Slave buffer (as seen by the slave on this Psoc) */
 151:..\source/i2c.c **** static I2C_DATASTRUCT i2c_buf;
 152:..\source/i2c.c **** /* Define a persistant device status that can be set and cleared */
 153:..\source/i2c.c **** static uint16 device_status;
 154:..\source/i2c.c **** /* Define a persistant calibration status that can be set and cleared */
 155:..\source/i2c.c **** static uint16 calibration_status;
 156:..\source/i2c.c **** 
 157:..\source/i2c.c **** static uint32 last_cmd_velocity_time = 0;
 158:..\source/i2c.c **** static uint32 cmd_velocity_timeout = 0;
 159:..\source/i2c.c **** 
 160:..\source/i2c.c **** static uint16 i2c_debug;
 161:..\source/i2c.c **** 
 162:..\source/i2c.c **** /*-------------------------------------------------------------------------------------------------
 163:..\source/i2c.c ****  * Functions
 164:..\source/i2c.c ****  *-------------------------------------------------------------------------------------------------
 165:..\source/i2c.c **** 
 166:..\source/i2c.c **** /*-------------------------------------------------------------------------------------------------
 167:..\source/i2c.c ****  * Name: I2c_Init
 168:..\source/i2c.c ****  * Description: Initializes the I2C memory buffer and module variables
 169:..\source/i2c.c ****  * Parameters: None
 170:..\source/i2c.c ****  * Return: None
 171:..\source/i2c.c ****  * 
 172:..\source/i2c.c ****  *-------------------------------------------------------------------------------------------------
 173:..\source/i2c.c **** void I2c_Init()
 174:..\source/i2c.c **** {
  27              		.loc 1 174 0
  28              		.cfi_startproc
  29              		@ args = 0, pretend = 0, frame = 0
  30              		@ frame_needed = 0, uses_anonymous_args = 0
  31 0000 10B5     		push	{r4, lr}
  32              		.cfi_def_cfa_offset 8
  33              		.cfi_offset 4, -8
  34              		.cfi_offset 14, -4
 175:..\source/i2c.c ****     memset( &i2c_buf, 0, sizeof(i2c_buf));
  35              		.loc 1 175 0
  36 0002 074C     		ldr	r4, .L3
  37 0004 2046     		mov	r0, r4
  38 0006 0021     		movs	r1, #0
  39 0008 A822     		movs	r2, #168
  40 000a FFF7FEFF 		bl	memset
  41              	.LVL0:
 176:..\source/i2c.c ****     device_status = 0;
  42              		.loc 1 176 0
  43 000e 0023     		movs	r3, #0
  44 0010 A4F8A830 		strh	r3, [r4, #168]	@ movhi
 177:..\source/i2c.c ****     calibration_status = 0;
  45              		.loc 1 177 0
  46 0014 A4F8AA30 		strh	r3, [r4, #170]	@ movhi
 178:..\source/i2c.c ****     i2c_debug = 0;
  47              		.loc 1 178 0
  48 0018 A4F8AC30 		strh	r3, [r4, #172]	@ movhi
  49 001c 10BD     		pop	{r4, pc}
  50              	.L4:
ARM GAS  C:\Users\Tim\AppData\Local\Temp\ccNk5Ehd.s 			page 5


  51 001e 00BF     		.align	2
  52              	.L3:
  53 0020 00000000 		.word	.LANCHOR0
  54              		.cfi_endproc
  55              	.LFE63:
  56              		.size	I2c_Init, .-I2c_Init
  57              		.section	.text.I2c_Start,"ax",%progbits
  58              		.align	2
  59              		.global	I2c_Start
  60              		.thumb
  61              		.thumb_func
  62              		.type	I2c_Start, %function
  63              	I2c_Start:
  64              	.LFB64:
 179:..\source/i2c.c **** }
 180:..\source/i2c.c **** 
 181:..\source/i2c.c **** /*-------------------------------------------------------------------------------------------------
 182:..\source/i2c.c ****  * Name: I2c_Start
 183:..\source/i2c.c ****  * Description: Starts the I2C slave component and sets the I2C read/write buffer.
 184:..\source/i2c.c ****  * Parameters: None
 185:..\source/i2c.c ****  * Return: None
 186:..\source/i2c.c ****  * 
 187:..\source/i2c.c ****  *-------------------------------------------------------------------------------------------------
 188:..\source/i2c.c **** void I2c_Start()
 189:..\source/i2c.c **** {
  65              		.loc 1 189 0
  66              		.cfi_startproc
  67              		@ args = 0, pretend = 0, frame = 0
  68              		@ frame_needed = 0, uses_anonymous_args = 0
  69 0000 08B5     		push	{r3, lr}
  70              		.cfi_def_cfa_offset 8
  71              		.cfi_offset 3, -8
  72              		.cfi_offset 14, -4
 190:..\source/i2c.c ****     /* Note: The start routine must be called before the set buffer routine.  Start applies the cus
 191:..\source/i2c.c ****        to the component including initializing the buffer pointers, so calling start after setting 
 192:..\source/i2c.c ****        re-initializes the component buffer pointers wiping out the set buffer setting.
 193:..\source/i2c.c ****      */
 194:..\source/i2c.c ****     EZI2C_Slave_Start();
  73              		.loc 1 194 0
  74 0002 FFF7FEFF 		bl	EZI2C_Slave_Start
  75              	.LVL1:
 195:..\source/i2c.c ****     EZI2C_Slave_SetBuffer1(sizeof(i2c_buf), sizeof(i2c_buf.read_write), (volatile uint8 *) &i2c_buf
  76              		.loc 1 195 0
  77 0006 A820     		movs	r0, #168
  78 0008 0C21     		movs	r1, #12
  79 000a 024A     		ldr	r2, .L7
  80 000c FFF7FEFF 		bl	EZI2C_Slave_SetBuffer1
  81              	.LVL2:
  82 0010 08BD     		pop	{r3, pc}
  83              	.L8:
  84 0012 00BF     		.align	2
  85              	.L7:
  86 0014 00000000 		.word	.LANCHOR0
  87              		.cfi_endproc
  88              	.LFE64:
  89              		.size	I2c_Start, .-I2c_Start
  90              		.section	.text.I2c_ReadDeviceControl,"ax",%progbits
ARM GAS  C:\Users\Tim\AppData\Local\Temp\ccNk5Ehd.s 			page 6


  91              		.align	2
  92              		.global	I2c_ReadDeviceControl
  93              		.thumb
  94              		.thumb_func
  95              		.type	I2c_ReadDeviceControl, %function
  96              	I2c_ReadDeviceControl:
  97              	.LFB65:
 196:..\source/i2c.c **** }
 197:..\source/i2c.c **** 
 198:..\source/i2c.c **** /*-------------------------------------------------------------------------------------------------
 199:..\source/i2c.c ****  * Name: I2c_ReadDeviceControl
 200:..\source/i2c.c ****  * Description: Accessor function used to read the device control status.
 201:..\source/i2c.c ****  * Parameters: None
 202:..\source/i2c.c ****  * Return: None
 203:..\source/i2c.c ****  * 
 204:..\source/i2c.c ****  *-------------------------------------------------------------------------------------------------
 205:..\source/i2c.c **** uint16 I2c_ReadDeviceControl()
 206:..\source/i2c.c **** {
  98              		.loc 1 206 0
  99              		.cfi_startproc
 100              		@ args = 0, pretend = 0, frame = 0
 101              		@ frame_needed = 0, uses_anonymous_args = 0
 102 0000 08B5     		push	{r3, lr}
 103              		.cfi_def_cfa_offset 8
 104              		.cfi_offset 3, -8
 105              		.cfi_offset 14, -4
 106              	.L10:
 207:..\source/i2c.c ****     uint16 value;
 208:..\source/i2c.c **** 
 209:..\source/i2c.c ****     I2C_WAIT_FOR_ACCESS();
 107              		.loc 1 209 0 discriminator 1
 108 0002 FFF7FEFF 		bl	EZI2C_Slave_GetActivity
 109              	.LVL3:
 110 0006 0028     		cmp	r0, #0
 111 0008 FBD1     		bne	.L10
 210:..\source/i2c.c ****     EZI2C_Slave_DisableInt();
 112              		.loc 1 210 0
 113 000a 4FF40043 		mov	r3, #32768
 114 000e 044A     		ldr	r2, .L12
 115 0010 1360     		str	r3, [r2]
 211:..\source/i2c.c ****     value = i2c_buf.read_write.device_control;
 116              		.loc 1 211 0
 117 0012 044A     		ldr	r2, .L12+4
 118 0014 1088     		ldrh	r0, [r2]
 119              	.LVL4:
 212:..\source/i2c.c ****     i2c_buf.read_write.device_control = 0;
 120              		.loc 1 212 0
 121 0016 0021     		movs	r1, #0
 122 0018 1180     		strh	r1, [r2]	@ movhi
 213:..\source/i2c.c ****     EZI2C_Slave_EnableInt();
 123              		.loc 1 213 0
 124 001a 034A     		ldr	r2, .L12+8
 125 001c 1360     		str	r3, [r2]
 214:..\source/i2c.c ****     
 215:..\source/i2c.c ****     return value;
 216:..\source/i2c.c **** }
 126              		.loc 1 216 0
ARM GAS  C:\Users\Tim\AppData\Local\Temp\ccNk5Ehd.s 			page 7


 127 001e 08BD     		pop	{r3, pc}
 128              	.L13:
 129              		.align	2
 130              	.L12:
 131 0020 80E100E0 		.word	-536813184
 132 0024 00000000 		.word	.LANCHOR0
 133 0028 00E100E0 		.word	-536813312
 134              		.cfi_endproc
 135              	.LFE65:
 136              		.size	I2c_ReadDeviceControl, .-I2c_ReadDeviceControl
 137              		.section	.text.I2c_ReadDebugControl,"ax",%progbits
 138              		.align	2
 139              		.global	I2c_ReadDebugControl
 140              		.thumb
 141              		.thumb_func
 142              		.type	I2c_ReadDebugControl, %function
 143              	I2c_ReadDebugControl:
 144              	.LFB66:
 217:..\source/i2c.c **** 
 218:..\source/i2c.c **** /*-------------------------------------------------------------------------------------------------
 219:..\source/i2c.c ****  * Name: I2c_ReadDebugControl
 220:..\source/i2c.c ****  * Description: Accessor function used to read the debug control status.
 221:..\source/i2c.c ****  * Parameters: None
 222:..\source/i2c.c ****  * Return: None
 223:..\source/i2c.c ****  * 
 224:..\source/i2c.c ****  *-------------------------------------------------------------------------------------------------
 225:..\source/i2c.c **** void I2c_ReadDebugControl()
 226:..\source/i2c.c **** {
 145              		.loc 1 226 0
 146              		.cfi_startproc
 147              		@ args = 0, pretend = 0, frame = 0
 148              		@ frame_needed = 0, uses_anonymous_args = 0
 149 0000 08B5     		push	{r3, lr}
 150              		.cfi_def_cfa_offset 8
 151              		.cfi_offset 3, -8
 152              		.cfi_offset 14, -4
 153              	.L15:
 227:..\source/i2c.c ****     uint16 value;
 228:..\source/i2c.c ****     
 229:..\source/i2c.c ****     I2C_WAIT_FOR_ACCESS();
 154              		.loc 1 229 0 discriminator 1
 155 0002 FFF7FEFF 		bl	EZI2C_Slave_GetActivity
 156              	.LVL5:
 157 0006 0028     		cmp	r0, #0
 158 0008 FBD1     		bne	.L15
 230:..\source/i2c.c ****     EZI2C_Slave_DisableInt();
 159              		.loc 1 230 0
 160 000a 4FF40043 		mov	r3, #32768
 161 000e 1D4A     		ldr	r2, .L22
 162 0010 1360     		str	r3, [r2]
 231:..\source/i2c.c ****     value = i2c_buf.read_write.debug_control;
 163              		.loc 1 231 0
 164 0012 1D4A     		ldr	r2, .L22+4
 165 0014 5188     		ldrh	r1, [r2, #2]
 166              	.LVL6:
 232:..\source/i2c.c ****     EZI2C_Slave_EnableInt();
 167              		.loc 1 232 0
ARM GAS  C:\Users\Tim\AppData\Local\Temp\ccNk5Ehd.s 			page 8


 168 0016 1D48     		ldr	r0, .L22+8
 169 0018 0360     		str	r3, [r0]
 233:..\source/i2c.c ****     
 234:..\source/i2c.c ****     /* Internally, there is control over debug for each encoder, pid and motor; however, that is no
 235:..\source/i2c.c ****        Via the i2c interface, turning on debug for encoder, pid, and motor, turns on debug for both
 236:..\source/i2c.c ****      */
 237:..\source/i2c.c **** 
 238:..\source/i2c.c **** #ifdef COMMS_DEBUG_ENABLED
 239:..\source/i2c.c ****     // When debug is enabled, the bitmap can be used to turn on/off specific debug, e.g., encoder, 
 240:..\source/i2c.c **** 
 241:..\source/i2c.c ****     i2c_debug &= ~value;
 170              		.loc 1 241 0
 171 001a B2F8AC30 		ldrh	r3, [r2, #172]
 172 001e 23EA0103 		bic	r3, r3, r1
 242:..\source/i2c.c ****     i2c_debug |= value;
 173              		.loc 1 242 0
 174 0022 0B43     		orrs	r3, r3, r1
 175 0024 A2F8AC30 		strh	r3, [r2, #172]	@ movhi
 243:..\source/i2c.c ****     
 244:..\source/i2c.c ****     debug_control_enabled = 0;
 176              		.loc 1 244 0
 177 0028 0021     		movs	r1, #0
 178              	.LVL7:
 179 002a 194A     		ldr	r2, .L22+12
 180 002c 1180     		strh	r1, [r2]	@ movhi
 245:..\source/i2c.c ****     
 246:..\source/i2c.c ****     if (i2c_debug & ENCODER_DEBUG_BIT)
 181              		.loc 1 246 0
 182 002e 13F0010F 		tst	r3, #1
 183 0032 01D0     		beq	.L16
 247:..\source/i2c.c ****     {
 248:..\source/i2c.c ****         debug_control_enabled |= DEBUG_LEFT_ENCODER_ENABLE_BIT | DEBUG_RIGHT_ENCODER_ENABLE_BIT;
 184              		.loc 1 248 0
 185 0034 0321     		movs	r1, #3
 186 0036 1180     		strh	r1, [r2]	@ movhi
 187              	.L16:
 249:..\source/i2c.c ****     }
 250:..\source/i2c.c ****     
 251:..\source/i2c.c ****     if (i2c_debug & PID_DEBUG_BIT)
 188              		.loc 1 251 0
 189 0038 03F00202 		and	r2, r3, #2
 190 003c 92B2     		uxth	r2, r2
 191 003e 22B1     		cbz	r2, .L17
 252:..\source/i2c.c ****     {
 253:..\source/i2c.c ****         debug_control_enabled |= DEBUG_LEFT_PID_ENABLE_BIT | DEBUG_RIGHT_PID_ENABLE_BIT;
 192              		.loc 1 253 0
 193 0040 1349     		ldr	r1, .L22+12
 194 0042 0A88     		ldrh	r2, [r1]
 195 0044 42F00C02 		orr	r2, r2, #12
 196 0048 0A80     		strh	r2, [r1]	@ movhi
 197              	.L17:
 254:..\source/i2c.c ****     }
 255:..\source/i2c.c ****     
 256:..\source/i2c.c ****     if (i2c_debug & MOTOR_DEBUG_BIT)
 198              		.loc 1 256 0
 199 004a 03F00402 		and	r2, r3, #4
 200 004e 92B2     		uxth	r2, r2
ARM GAS  C:\Users\Tim\AppData\Local\Temp\ccNk5Ehd.s 			page 9


 201 0050 22B1     		cbz	r2, .L18
 257:..\source/i2c.c ****     {
 258:..\source/i2c.c ****         debug_control_enabled |= DEBUG_LEFT_MOTOR_ENABLE_BIT | DEBUG_RIGHT_MOTOR_ENABLE_BIT;
 202              		.loc 1 258 0
 203 0052 0F49     		ldr	r1, .L22+12
 204 0054 0A88     		ldrh	r2, [r1]
 205 0056 42F03002 		orr	r2, r2, #48
 206 005a 0A80     		strh	r2, [r1]	@ movhi
 207              	.L18:
 259:..\source/i2c.c ****     }
 260:..\source/i2c.c **** 
 261:..\source/i2c.c ****     if (i2c_debug & ODOM_DEBUG_BIT)
 208              		.loc 1 261 0
 209 005c 03F00802 		and	r2, r3, #8
 210 0060 92B2     		uxth	r2, r2
 211 0062 22B1     		cbz	r2, .L19
 262:..\source/i2c.c ****     {
 263:..\source/i2c.c ****         debug_control_enabled |= DEBUG_ODOM_ENABLE_BIT;
 212              		.loc 1 263 0
 213 0064 0A49     		ldr	r1, .L22+12
 214 0066 0A88     		ldrh	r2, [r1]
 215 0068 42F04002 		orr	r2, r2, #64
 216 006c 0A80     		strh	r2, [r1]	@ movhi
 217              	.L19:
 264:..\source/i2c.c ****     }
 265:..\source/i2c.c ****     
 266:..\source/i2c.c ****     if (i2c_debug & SAMPLE_DEBUG_BIT)
 218              		.loc 1 266 0
 219 006e 03F01003 		and	r3, r3, #16
 220 0072 9BB2     		uxth	r3, r3
 221 0074 23B1     		cbz	r3, .L14
 267:..\source/i2c.c ****     {
 268:..\source/i2c.c ****         debug_control_enabled |= DEBUG_SAMPLE_ENABLE_BIT;
 222              		.loc 1 268 0
 223 0076 064A     		ldr	r2, .L22+12
 224 0078 1388     		ldrh	r3, [r2]
 225 007a 43F08003 		orr	r3, r3, #128
 226 007e 1380     		strh	r3, [r2]	@ movhi
 227              	.L14:
 228 0080 08BD     		pop	{r3, pc}
 229              	.L23:
 230 0082 00BF     		.align	2
 231              	.L22:
 232 0084 80E100E0 		.word	-536813184
 233 0088 00000000 		.word	.LANCHOR0
 234 008c 00E100E0 		.word	-536813312
 235 0090 00000000 		.word	debug_control_enabled
 236              		.cfi_endproc
 237              	.LFE66:
 238              		.size	I2c_ReadDebugControl, .-I2c_ReadDebugControl
 239              		.section	.text.I2c_ReadCmdVelocity,"ax",%progbits
 240              		.align	2
 241              		.global	I2c_ReadCmdVelocity
 242              		.thumb
 243              		.thumb_func
 244              		.type	I2c_ReadCmdVelocity, %function
 245              	I2c_ReadCmdVelocity:
ARM GAS  C:\Users\Tim\AppData\Local\Temp\ccNk5Ehd.s 			page 10


 246              	.LFB67:
 269:..\source/i2c.c ****     }
 270:..\source/i2c.c ****     
 271:..\source/i2c.c **** #endif
 272:..\source/i2c.c **** }
 273:..\source/i2c.c **** 
 274:..\source/i2c.c **** /*-------------------------------------------------------------------------------------------------
 275:..\source/i2c.c ****  * Name: I2c_ReadCmdVelocity
 276:..\source/i2c.c ****  * Description: Accessor function used to read the commanded left/right wheel velocity.
 277:..\source/i2c.c ****  * Parameters: None
 278:..\source/i2c.c ****  * Return: None
 279:..\source/i2c.c ****  * 
 280:..\source/i2c.c ****  *-------------------------------------------------------------------------------------------------
 281:..\source/i2c.c **** void I2c_ReadCmdVelocity(float *left, float *right, uint32 *timeout)
 282:..\source/i2c.c **** {
 247              		.loc 1 282 0
 248              		.cfi_startproc
 249              		@ args = 0, pretend = 0, frame = 88
 250              		@ frame_needed = 0, uses_anonymous_args = 0
 251              	.LVL8:
 252 0000 F0B5     		push	{r4, r5, r6, r7, lr}
 253              		.cfi_def_cfa_offset 20
 254              		.cfi_offset 4, -20
 255              		.cfi_offset 5, -16
 256              		.cfi_offset 6, -12
 257              		.cfi_offset 7, -8
 258              		.cfi_offset 14, -4
 259 0002 97B0     		sub	sp, sp, #92
 260              		.cfi_def_cfa_offset 112
 261 0004 0746     		mov	r7, r0
 262 0006 0E46     		mov	r6, r1
 263 0008 1546     		mov	r5, r2
 283:..\source/i2c.c ****     /* GetActivity() returns the status of the I2C activity: write, read, busy, or error
 284:..\source/i2c.c ****        Wrt to I2C writes, only the first 12 bytes can be written to.  Of those 12 bytes, 2 are for 
 285:..\source/i2c.c ****        2 are for the calibration register, and 8 are for the commanded velocity (left and right).  
 286:..\source/i2c.c ****        velocity will always be written to more often than the control and calibration registers, so
 287:..\source/i2c.c ****        status is reasonably good way to know if we have received any recent velocity commands.
 288:..\source/i2c.c ****     
 289:..\source/i2c.c ****        When a write has occurred on the I2C bus, we assume it was a velocity command, and reset the
 290:..\source/i2c.c ****        timeout; otherwise, we accumulate time which will be checked against the maximum command vel
 291:..\source/i2c.c ****     
 292:..\source/i2c.c ****        As long as the timeout is less then the maximum timeout, we will process the command values 
 293:..\source/i2c.c ****        the timeout exceeded the maximum timeout, we set the commanded velocity to 0.
 294:..\source/i2c.c ****        
 295:..\source/i2c.c ****      */
 296:..\source/i2c.c ****     uint8 i2c_write_occurred = EZI2C_Slave_GetActivity();
 264              		.loc 1 296 0
 265 000a FFF7FEFF 		bl	EZI2C_Slave_GetActivity
 266              	.LVL9:
 297:..\source/i2c.c ****     
 298:..\source/i2c.c ****     if (i2c_write_occurred & EZI2C_Slave_STATUS_WRITE1)
 267              		.loc 1 298 0
 268 000e 10F0020F 		tst	r0, #2
 269 0012 17D0     		beq	.L25
 270              	.LBB2:
 299:..\source/i2c.c ****     {
 300:..\source/i2c.c ****         cmd_velocity_timeout = 0;
ARM GAS  C:\Users\Tim\AppData\Local\Temp\ccNk5Ehd.s 			page 11


 271              		.loc 1 300 0
 272 0014 1D4C     		ldr	r4, .L29
 273 0016 0023     		movs	r3, #0
 274 0018 C4F8B030 		str	r3, [r4, #176]
 301:..\source/i2c.c ****         char lcv_str[10];
 302:..\source/i2c.c ****         char rcv_str[10];
 303:..\source/i2c.c ****         char out_buf[64];
 304:..\source/i2c.c ****         ftoa(i2c_buf.read_write.left_cmd_velocity, lcv_str, 3);
 275              		.loc 1 304 0
 276 001c 6068     		ldr	r0, [r4, #4]	@ float
 277              	.LVL10:
 278 001e 6946     		mov	r1, sp
 279 0020 0322     		movs	r2, #3
 280 0022 FFF7FEFF 		bl	ftoa
 281              	.LVL11:
 305:..\source/i2c.c ****         ftoa(i2c_buf.read_write.right_cmd_velocity, rcv_str, 3);
 282              		.loc 1 305 0
 283 0026 A068     		ldr	r0, [r4, #8]	@ float
 284 0028 03A9     		add	r1, sp, #12
 285 002a 0322     		movs	r2, #3
 286 002c FFF7FEFF 		bl	ftoa
 287              	.LVL12:
 306:..\source/i2c.c ****         sprintf(out_buf, "%s - %s\r\n", lcv_str, rcv_str);
 288              		.loc 1 306 0
 289 0030 06A8     		add	r0, sp, #24
 290 0032 1749     		ldr	r1, .L29+4
 291 0034 6A46     		mov	r2, sp
 292 0036 03AB     		add	r3, sp, #12
 293 0038 FFF7FEFF 		bl	sprintf
 294              	.LVL13:
 307:..\source/i2c.c ****         Ser_PutString(out_buf);
 295              		.loc 1 307 0
 296 003c 06A8     		add	r0, sp, #24
 297 003e FFF7FEFF 		bl	Ser_PutString
 298              	.LVL14:
 299              	.LBE2:
 300 0042 0EE0     		b	.L27
 301              	.LVL15:
 302              	.L25:
 308:..\source/i2c.c ****     }
 309:..\source/i2c.c ****     else
 310:..\source/i2c.c ****     {
 311:..\source/i2c.c ****         cmd_velocity_timeout += millis() - last_cmd_velocity_time;
 303              		.loc 1 311 0
 304 0044 FFF7FEFF 		bl	millis
 305              	.LVL16:
 306 0048 104C     		ldr	r4, .L29
 307 004a D4F8B430 		ldr	r3, [r4, #180]
 308 004e C01A     		subs	r0, r0, r3
 309 0050 D4F8B030 		ldr	r3, [r4, #176]
 310 0054 0344     		add	r3, r3, r0
 311 0056 C4F8B030 		str	r3, [r4, #176]
 312:..\source/i2c.c ****         last_cmd_velocity_time = millis();
 312              		.loc 1 312 0
 313 005a FFF7FEFF 		bl	millis
 314              	.LVL17:
 315 005e C4F8B400 		str	r0, [r4, #180]
ARM GAS  C:\Users\Tim\AppData\Local\Temp\ccNk5Ehd.s 			page 12


 316              	.L27:
 313:..\source/i2c.c ****     }
 314:..\source/i2c.c **** 
 315:..\source/i2c.c ****     I2C_WAIT_FOR_ACCESS();
 317              		.loc 1 315 0 discriminator 1
 318 0062 FFF7FEFF 		bl	EZI2C_Slave_GetActivity
 319              	.LVL18:
 320 0066 0028     		cmp	r0, #0
 321 0068 FBD1     		bne	.L27
 316:..\source/i2c.c ****     EZI2C_Slave_DisableInt();
 322              		.loc 1 316 0
 323 006a 4FF40042 		mov	r2, #32768
 324 006e 094B     		ldr	r3, .L29+8
 325 0070 1A60     		str	r2, [r3]
 317:..\source/i2c.c ****     *left = i2c_buf.read_write.left_cmd_velocity;
 326              		.loc 1 317 0
 327 0072 064B     		ldr	r3, .L29
 328 0074 5968     		ldr	r1, [r3, #4]	@ float
 329 0076 3960     		str	r1, [r7]	@ float
 318:..\source/i2c.c ****     *right = i2c_buf.read_write.right_cmd_velocity;
 330              		.loc 1 318 0
 331 0078 9968     		ldr	r1, [r3, #8]	@ float
 332 007a 3160     		str	r1, [r6]	@ float
 319:..\source/i2c.c ****     EZI2C_Slave_EnableInt();
 333              		.loc 1 319 0
 334 007c 0649     		ldr	r1, .L29+12
 335 007e 0A60     		str	r2, [r1]
 320:..\source/i2c.c ****     
 321:..\source/i2c.c ****     *timeout = cmd_velocity_timeout;
 336              		.loc 1 321 0
 337 0080 D3F8B030 		ldr	r3, [r3, #176]
 338 0084 2B60     		str	r3, [r5]
 322:..\source/i2c.c ****     
 323:..\source/i2c.c **** }
 339              		.loc 1 323 0
 340 0086 17B0     		add	sp, sp, #92
 341              		.cfi_def_cfa_offset 20
 342              		@ sp needed
 343 0088 F0BD     		pop	{r4, r5, r6, r7, pc}
 344              	.LVL19:
 345              	.L30:
 346 008a 00BF     		.align	2
 347              	.L29:
 348 008c 00000000 		.word	.LANCHOR0
 349 0090 00000000 		.word	.LC0
 350 0094 80E100E0 		.word	-536813184
 351 0098 00E100E0 		.word	-536813312
 352              		.cfi_endproc
 353              	.LFE67:
 354              		.size	I2c_ReadCmdVelocity, .-I2c_ReadCmdVelocity
 355              		.section	.text.I2c_SetDeviceStatusBit,"ax",%progbits
 356              		.align	2
 357              		.global	I2c_SetDeviceStatusBit
 358              		.thumb
 359              		.thumb_func
 360              		.type	I2c_SetDeviceStatusBit, %function
 361              	I2c_SetDeviceStatusBit:
ARM GAS  C:\Users\Tim\AppData\Local\Temp\ccNk5Ehd.s 			page 13


 362              	.LFB68:
 324:..\source/i2c.c **** 
 325:..\source/i2c.c **** /*-------------------------------------------------------------------------------------------------
 326:..\source/i2c.c ****  * Name: I2c_SetDeviceStatusBit
 327:..\source/i2c.c ****  * Description: Accessor function used to set a bit in the device status.
 328:..\source/i2c.c ****  * Parameters: None
 329:..\source/i2c.c ****  * Return: None
 330:..\source/i2c.c ****  * 
 331:..\source/i2c.c ****  *-------------------------------------------------------------------------------------------------
 332:..\source/i2c.c **** void I2c_SetDeviceStatusBit(uint16 bit)
 333:..\source/i2c.c **** {
 363              		.loc 1 333 0
 364              		.cfi_startproc
 365              		@ args = 0, pretend = 0, frame = 0
 366              		@ frame_needed = 0, uses_anonymous_args = 0
 367              	.LVL20:
 368 0000 08B5     		push	{r3, lr}
 369              		.cfi_def_cfa_offset 8
 370              		.cfi_offset 3, -8
 371              		.cfi_offset 14, -4
 334:..\source/i2c.c ****     device_status |= bit;
 372              		.loc 1 334 0
 373 0002 0A4A     		ldr	r2, .L34
 374 0004 B2F8A830 		ldrh	r3, [r2, #168]
 375 0008 1843     		orrs	r0, r0, r3
 376              	.LVL21:
 377 000a A2F8A800 		strh	r0, [r2, #168]	@ movhi
 378              	.L32:
 335:..\source/i2c.c ****     I2C_WAIT_FOR_ACCESS();
 379              		.loc 1 335 0 discriminator 1
 380 000e FFF7FEFF 		bl	EZI2C_Slave_GetActivity
 381              	.LVL22:
 382 0012 0028     		cmp	r0, #0
 383 0014 FBD1     		bne	.L32
 336:..\source/i2c.c ****     EZI2C_Slave_DisableInt();
 384              		.loc 1 336 0
 385 0016 4FF40043 		mov	r3, #32768
 386 001a 054A     		ldr	r2, .L34+4
 387 001c 1360     		str	r3, [r2]
 337:..\source/i2c.c ****     i2c_buf.read_only.device_status = device_status;
 388              		.loc 1 337 0
 389 001e 034A     		ldr	r2, .L34
 390 0020 B2F8A810 		ldrh	r1, [r2, #168]
 391 0024 9181     		strh	r1, [r2, #12]	@ movhi
 338:..\source/i2c.c ****     EZI2C_Slave_EnableInt();
 392              		.loc 1 338 0
 393 0026 034A     		ldr	r2, .L34+8
 394 0028 1360     		str	r3, [r2]
 395 002a 08BD     		pop	{r3, pc}
 396              	.L35:
 397              		.align	2
 398              	.L34:
 399 002c 00000000 		.word	.LANCHOR0
 400 0030 80E100E0 		.word	-536813184
 401 0034 00E100E0 		.word	-536813312
 402              		.cfi_endproc
 403              	.LFE68:
ARM GAS  C:\Users\Tim\AppData\Local\Temp\ccNk5Ehd.s 			page 14


 404              		.size	I2c_SetDeviceStatusBit, .-I2c_SetDeviceStatusBit
 405              		.section	.text.I2c_ClearDeviceStatusBit,"ax",%progbits
 406              		.align	2
 407              		.global	I2c_ClearDeviceStatusBit
 408              		.thumb
 409              		.thumb_func
 410              		.type	I2c_ClearDeviceStatusBit, %function
 411              	I2c_ClearDeviceStatusBit:
 412              	.LFB69:
 339:..\source/i2c.c **** }
 340:..\source/i2c.c **** 
 341:..\source/i2c.c **** /*-------------------------------------------------------------------------------------------------
 342:..\source/i2c.c ****  * Name: I2c_ClearDeviceStatusBit
 343:..\source/i2c.c ****  * Description: Accessor function used to clear a bit in the device status.
 344:..\source/i2c.c ****  * Parameters: None
 345:..\source/i2c.c ****  * Return: None
 346:..\source/i2c.c ****  * 
 347:..\source/i2c.c ****  *-------------------------------------------------------------------------------------------------
 348:..\source/i2c.c **** void I2c_ClearDeviceStatusBit(uint16 bit)
 349:..\source/i2c.c **** {
 413              		.loc 1 349 0
 414              		.cfi_startproc
 415              		@ args = 0, pretend = 0, frame = 0
 416              		@ frame_needed = 0, uses_anonymous_args = 0
 417              	.LVL23:
 418 0000 08B5     		push	{r3, lr}
 419              		.cfi_def_cfa_offset 8
 420              		.cfi_offset 3, -8
 421              		.cfi_offset 14, -4
 350:..\source/i2c.c ****     device_status &= ~bit;
 422              		.loc 1 350 0
 423 0002 0B4A     		ldr	r2, .L39
 424 0004 B2F8A830 		ldrh	r3, [r2, #168]
 425 0008 23EA0000 		bic	r0, r3, r0
 426              	.LVL24:
 427 000c A2F8A800 		strh	r0, [r2, #168]	@ movhi
 428              	.L37:
 351:..\source/i2c.c ****     I2C_WAIT_FOR_ACCESS();
 429              		.loc 1 351 0 discriminator 1
 430 0010 FFF7FEFF 		bl	EZI2C_Slave_GetActivity
 431              	.LVL25:
 432 0014 0028     		cmp	r0, #0
 433 0016 FBD1     		bne	.L37
 352:..\source/i2c.c ****     EZI2C_Slave_DisableInt();
 434              		.loc 1 352 0
 435 0018 4FF40043 		mov	r3, #32768
 436 001c 054A     		ldr	r2, .L39+4
 437 001e 1360     		str	r3, [r2]
 353:..\source/i2c.c ****     i2c_buf.read_only.device_status = device_status;
 438              		.loc 1 353 0
 439 0020 034A     		ldr	r2, .L39
 440 0022 B2F8A810 		ldrh	r1, [r2, #168]
 441 0026 9181     		strh	r1, [r2, #12]	@ movhi
 354:..\source/i2c.c ****     EZI2C_Slave_EnableInt();
 442              		.loc 1 354 0
 443 0028 034A     		ldr	r2, .L39+8
 444 002a 1360     		str	r3, [r2]
ARM GAS  C:\Users\Tim\AppData\Local\Temp\ccNk5Ehd.s 			page 15


 445 002c 08BD     		pop	{r3, pc}
 446              	.L40:
 447 002e 00BF     		.align	2
 448              	.L39:
 449 0030 00000000 		.word	.LANCHOR0
 450 0034 80E100E0 		.word	-536813184
 451 0038 00E100E0 		.word	-536813312
 452              		.cfi_endproc
 453              	.LFE69:
 454              		.size	I2c_ClearDeviceStatusBit, .-I2c_ClearDeviceStatusBit
 455              		.section	.text.I2c_SetCalibrationStatusBit,"ax",%progbits
 456              		.align	2
 457              		.global	I2c_SetCalibrationStatusBit
 458              		.thumb
 459              		.thumb_func
 460              		.type	I2c_SetCalibrationStatusBit, %function
 461              	I2c_SetCalibrationStatusBit:
 462              	.LFB70:
 355:..\source/i2c.c **** }
 356:..\source/i2c.c **** 
 357:..\source/i2c.c **** /*-------------------------------------------------------------------------------------------------
 358:..\source/i2c.c ****  * Name: I2c_SetCalibrationStatusBit
 359:..\source/i2c.c ****  * Description: Accessor function used to set a bit in the calibration status.
 360:..\source/i2c.c ****  * Parameters: None
 361:..\source/i2c.c ****  * Return: None
 362:..\source/i2c.c ****  * 
 363:..\source/i2c.c ****  *-------------------------------------------------------------------------------------------------
 364:..\source/i2c.c **** void I2c_SetCalibrationStatusBit(uint16 bit)
 365:..\source/i2c.c **** {
 463              		.loc 1 365 0
 464              		.cfi_startproc
 465              		@ args = 0, pretend = 0, frame = 0
 466              		@ frame_needed = 0, uses_anonymous_args = 0
 467              	.LVL26:
 468 0000 08B5     		push	{r3, lr}
 469              		.cfi_def_cfa_offset 8
 470              		.cfi_offset 3, -8
 471              		.cfi_offset 14, -4
 366:..\source/i2c.c ****     calibration_status |= bit;
 472              		.loc 1 366 0
 473 0002 0A4A     		ldr	r2, .L44
 474 0004 B2F8AA30 		ldrh	r3, [r2, #170]
 475 0008 1843     		orrs	r0, r0, r3
 476              	.LVL27:
 477 000a A2F8AA00 		strh	r0, [r2, #170]	@ movhi
 478              	.L42:
 367:..\source/i2c.c ****     I2C_WAIT_FOR_ACCESS();
 479              		.loc 1 367 0 discriminator 1
 480 000e FFF7FEFF 		bl	EZI2C_Slave_GetActivity
 481              	.LVL28:
 482 0012 0028     		cmp	r0, #0
 483 0014 FBD1     		bne	.L42
 368:..\source/i2c.c ****     EZI2C_Slave_DisableInt();
 484              		.loc 1 368 0
 485 0016 4FF40043 		mov	r3, #32768
 486 001a 054A     		ldr	r2, .L44+4
 487 001c 1360     		str	r3, [r2]
ARM GAS  C:\Users\Tim\AppData\Local\Temp\ccNk5Ehd.s 			page 16


 369:..\source/i2c.c ****     i2c_buf.read_only.calibration_status = calibration_status;
 488              		.loc 1 369 0
 489 001e 034A     		ldr	r2, .L44
 490 0020 B2F8AA10 		ldrh	r1, [r2, #170]
 491 0024 D181     		strh	r1, [r2, #14]	@ movhi
 370:..\source/i2c.c ****     EZI2C_Slave_EnableInt();
 492              		.loc 1 370 0
 493 0026 034A     		ldr	r2, .L44+8
 494 0028 1360     		str	r3, [r2]
 495 002a 08BD     		pop	{r3, pc}
 496              	.L45:
 497              		.align	2
 498              	.L44:
 499 002c 00000000 		.word	.LANCHOR0
 500 0030 80E100E0 		.word	-536813184
 501 0034 00E100E0 		.word	-536813312
 502              		.cfi_endproc
 503              	.LFE70:
 504              		.size	I2c_SetCalibrationStatusBit, .-I2c_SetCalibrationStatusBit
 505              		.section	.text.I2c_ClearCalibrationStatusBit,"ax",%progbits
 506              		.align	2
 507              		.global	I2c_ClearCalibrationStatusBit
 508              		.thumb
 509              		.thumb_func
 510              		.type	I2c_ClearCalibrationStatusBit, %function
 511              	I2c_ClearCalibrationStatusBit:
 512              	.LFB71:
 371:..\source/i2c.c **** }
 372:..\source/i2c.c **** 
 373:..\source/i2c.c **** /*-------------------------------------------------------------------------------------------------
 374:..\source/i2c.c ****  * Name: I2c_ClearCalibrationStatusBit
 375:..\source/i2c.c ****  * Description: Accessor function used to clear a bit in the calibration status.
 376:..\source/i2c.c ****  * Parameters: None
 377:..\source/i2c.c ****  * Return: None
 378:..\source/i2c.c ****  * 
 379:..\source/i2c.c ****  *-------------------------------------------------------------------------------------------------
 380:..\source/i2c.c **** void I2c_ClearCalibrationStatusBit(uint16 bit)
 381:..\source/i2c.c **** {
 513              		.loc 1 381 0
 514              		.cfi_startproc
 515              		@ args = 0, pretend = 0, frame = 0
 516              		@ frame_needed = 0, uses_anonymous_args = 0
 517              	.LVL29:
 518 0000 08B5     		push	{r3, lr}
 519              		.cfi_def_cfa_offset 8
 520              		.cfi_offset 3, -8
 521              		.cfi_offset 14, -4
 382:..\source/i2c.c ****     calibration_status &= ~bit;
 522              		.loc 1 382 0
 523 0002 0B4A     		ldr	r2, .L49
 524 0004 B2F8AA30 		ldrh	r3, [r2, #170]
 525 0008 23EA0000 		bic	r0, r3, r0
 526              	.LVL30:
 527 000c A2F8AA00 		strh	r0, [r2, #170]	@ movhi
 528              	.L47:
 383:..\source/i2c.c ****     I2C_WAIT_FOR_ACCESS();
 529              		.loc 1 383 0 discriminator 1
ARM GAS  C:\Users\Tim\AppData\Local\Temp\ccNk5Ehd.s 			page 17


 530 0010 FFF7FEFF 		bl	EZI2C_Slave_GetActivity
 531              	.LVL31:
 532 0014 0028     		cmp	r0, #0
 533 0016 FBD1     		bne	.L47
 384:..\source/i2c.c ****     EZI2C_Slave_DisableInt();
 534              		.loc 1 384 0
 535 0018 4FF40043 		mov	r3, #32768
 536 001c 054A     		ldr	r2, .L49+4
 537 001e 1360     		str	r3, [r2]
 385:..\source/i2c.c ****     i2c_buf.read_only.calibration_status = calibration_status;
 538              		.loc 1 385 0
 539 0020 034A     		ldr	r2, .L49
 540 0022 B2F8AA10 		ldrh	r1, [r2, #170]
 541 0026 D181     		strh	r1, [r2, #14]	@ movhi
 386:..\source/i2c.c ****     EZI2C_Slave_EnableInt();
 542              		.loc 1 386 0
 543 0028 034A     		ldr	r2, .L49+8
 544 002a 1360     		str	r3, [r2]
 545 002c 08BD     		pop	{r3, pc}
 546              	.L50:
 547 002e 00BF     		.align	2
 548              	.L49:
 549 0030 00000000 		.word	.LANCHOR0
 550 0034 80E100E0 		.word	-536813184
 551 0038 00E100E0 		.word	-536813312
 552              		.cfi_endproc
 553              	.LFE71:
 554              		.size	I2c_ClearCalibrationStatusBit, .-I2c_ClearCalibrationStatusBit
 555              		.section	.text.I2c_SetCalibrationStatus,"ax",%progbits
 556              		.align	2
 557              		.global	I2c_SetCalibrationStatus
 558              		.thumb
 559              		.thumb_func
 560              		.type	I2c_SetCalibrationStatus, %function
 561              	I2c_SetCalibrationStatus:
 562              	.LFB72:
 387:..\source/i2c.c **** }
 388:..\source/i2c.c **** 
 389:..\source/i2c.c **** /*-------------------------------------------------------------------------------------------------
 390:..\source/i2c.c ****  * Name: I2c_SetCalibrationStatus
 391:..\source/i2c.c ****  * Description: Accessor function used to initialize the calibration status as read from non-volati
 392:..\source/i2c.c ****  *              storage.
 393:..\source/i2c.c ****  * Parameters: None
 394:..\source/i2c.c ****  * Return: None
 395:..\source/i2c.c ****  * 
 396:..\source/i2c.c ****  *-------------------------------------------------------------------------------------------------
 397:..\source/i2c.c **** void I2c_SetCalibrationStatus(uint16 status)
 398:..\source/i2c.c **** {
 563              		.loc 1 398 0
 564              		.cfi_startproc
 565              		@ args = 0, pretend = 0, frame = 0
 566              		@ frame_needed = 0, uses_anonymous_args = 0
 567              	.LVL32:
 568 0000 08B5     		push	{r3, lr}
 569              		.cfi_def_cfa_offset 8
 570              		.cfi_offset 3, -8
 571              		.cfi_offset 14, -4
ARM GAS  C:\Users\Tim\AppData\Local\Temp\ccNk5Ehd.s 			page 18


 399:..\source/i2c.c ****     calibration_status = status;
 572              		.loc 1 399 0
 573 0002 094B     		ldr	r3, .L54
 574 0004 A3F8AA00 		strh	r0, [r3, #170]	@ movhi
 575              	.LVL33:
 576              	.L52:
 400:..\source/i2c.c ****     I2C_WAIT_FOR_ACCESS();
 577              		.loc 1 400 0 discriminator 1
 578 0008 FFF7FEFF 		bl	EZI2C_Slave_GetActivity
 579              	.LVL34:
 580 000c 0028     		cmp	r0, #0
 581 000e FBD1     		bne	.L52
 401:..\source/i2c.c ****     EZI2C_Slave_DisableInt();
 582              		.loc 1 401 0
 583 0010 4FF40043 		mov	r3, #32768
 584 0014 054A     		ldr	r2, .L54+4
 585 0016 1360     		str	r3, [r2]
 402:..\source/i2c.c ****     i2c_buf.read_only.calibration_status = calibration_status;
 586              		.loc 1 402 0
 587 0018 034A     		ldr	r2, .L54
 588 001a B2F8AA10 		ldrh	r1, [r2, #170]
 589 001e D181     		strh	r1, [r2, #14]	@ movhi
 403:..\source/i2c.c ****     EZI2C_Slave_EnableInt();    
 590              		.loc 1 403 0
 591 0020 034A     		ldr	r2, .L54+8
 592 0022 1360     		str	r3, [r2]
 593 0024 08BD     		pop	{r3, pc}
 594              	.L55:
 595 0026 00BF     		.align	2
 596              	.L54:
 597 0028 00000000 		.word	.LANCHOR0
 598 002c 80E100E0 		.word	-536813184
 599 0030 00E100E0 		.word	-536813312
 600              		.cfi_endproc
 601              	.LFE72:
 602              		.size	I2c_SetCalibrationStatus, .-I2c_SetCalibrationStatus
 603              		.section	.text.I2c_WriteOdom,"ax",%progbits
 604              		.align	2
 605              		.global	I2c_WriteOdom
 606              		.thumb
 607              		.thumb_func
 608              		.type	I2c_WriteOdom, %function
 609              	I2c_WriteOdom:
 610              	.LFB73:
 404:..\source/i2c.c **** }
 405:..\source/i2c.c **** 
 406:..\source/i2c.c **** /*-------------------------------------------------------------------------------------------------
 407:..\source/i2c.c ****  * Name: I2c_WriteOdom
 408:..\source/i2c.c ****  * Description: Accessor function used to write odometry values to I2C
 409:..\source/i2c.c ****  * Parameters: None
 410:..\source/i2c.c ****  * Return: None
 411:..\source/i2c.c ****  * 
 412:..\source/i2c.c ****  *-------------------------------------------------------------------------------------------------
 413:..\source/i2c.c **** void I2c_WriteOdom(float left_speed, float right_speed, float left_delta_dist, float right_delta_di
 414:..\source/i2c.c **** {
 611              		.loc 1 414 0
 612              		.cfi_startproc
ARM GAS  C:\Users\Tim\AppData\Local\Temp\ccNk5Ehd.s 			page 19


 613              		@ args = 4, pretend = 0, frame = 0
 614              		@ frame_needed = 0, uses_anonymous_args = 0
 615              	.LVL35:
 616 0000 F8B5     		push	{r3, r4, r5, r6, r7, lr}
 617              		.cfi_def_cfa_offset 24
 618              		.cfi_offset 3, -24
 619              		.cfi_offset 4, -20
 620              		.cfi_offset 5, -16
 621              		.cfi_offset 6, -12
 622              		.cfi_offset 7, -8
 623              		.cfi_offset 14, -4
 624 0002 0746     		mov	r7, r0
 625 0004 0E46     		mov	r6, r1
 626 0006 1546     		mov	r5, r2
 627 0008 1C46     		mov	r4, r3
 628              	.LVL36:
 629              	.L57:
 415:..\source/i2c.c ****     I2C_WAIT_FOR_ACCESS();
 630              		.loc 1 415 0 discriminator 1
 631 000a FFF7FEFF 		bl	EZI2C_Slave_GetActivity
 632              	.LVL37:
 633 000e 0028     		cmp	r0, #0
 634 0010 FBD1     		bne	.L57
 416:..\source/i2c.c ****     EZI2C_Slave_DisableInt();
 635              		.loc 1 416 0
 636 0012 4FF40043 		mov	r3, #32768
 637 0016 1C4A     		ldr	r2, .L63
 638 0018 1360     		str	r3, [r2]
 417:..\source/i2c.c ****     i2c_buf.read_only.odom.left_speed = left_speed;
 639              		.loc 1 417 0
 640 001a 1C4A     		ldr	r2, .L63+4
 641 001c 1761     		str	r7, [r2, #16]	@ float
 418:..\source/i2c.c ****     EZI2C_Slave_EnableInt();
 642              		.loc 1 418 0
 643 001e 1C4A     		ldr	r2, .L63+8
 644 0020 1360     		str	r3, [r2]
 645              	.L58:
 419:..\source/i2c.c ****     I2C_WAIT_FOR_ACCESS();
 646              		.loc 1 419 0 discriminator 1
 647 0022 FFF7FEFF 		bl	EZI2C_Slave_GetActivity
 648              	.LVL38:
 649 0026 0028     		cmp	r0, #0
 650 0028 FBD1     		bne	.L58
 420:..\source/i2c.c ****     EZI2C_Slave_DisableInt();
 651              		.loc 1 420 0
 652 002a 4FF40043 		mov	r3, #32768
 653 002e 164A     		ldr	r2, .L63
 654 0030 1360     		str	r3, [r2]
 421:..\source/i2c.c ****     i2c_buf.read_only.odom.right_speed = right_speed;
 655              		.loc 1 421 0
 656 0032 164A     		ldr	r2, .L63+4
 657 0034 5661     		str	r6, [r2, #20]	@ float
 422:..\source/i2c.c ****     EZI2C_Slave_EnableInt();
 658              		.loc 1 422 0
 659 0036 164A     		ldr	r2, .L63+8
 660 0038 1360     		str	r3, [r2]
 661              	.L59:
ARM GAS  C:\Users\Tim\AppData\Local\Temp\ccNk5Ehd.s 			page 20


 423:..\source/i2c.c ****     I2C_WAIT_FOR_ACCESS();
 662              		.loc 1 423 0 discriminator 1
 663 003a FFF7FEFF 		bl	EZI2C_Slave_GetActivity
 664              	.LVL39:
 665 003e 0028     		cmp	r0, #0
 666 0040 FBD1     		bne	.L59
 424:..\source/i2c.c ****     EZI2C_Slave_DisableInt();
 667              		.loc 1 424 0
 668 0042 4FF40043 		mov	r3, #32768
 669 0046 104A     		ldr	r2, .L63
 670 0048 1360     		str	r3, [r2]
 425:..\source/i2c.c ****     i2c_buf.read_only.odom.left_delta_dist = left_delta_dist;
 671              		.loc 1 425 0
 672 004a 104A     		ldr	r2, .L63+4
 673 004c 9561     		str	r5, [r2, #24]	@ float
 426:..\source/i2c.c ****     EZI2C_Slave_EnableInt();
 674              		.loc 1 426 0
 675 004e 104A     		ldr	r2, .L63+8
 676 0050 1360     		str	r3, [r2]
 677              	.L60:
 427:..\source/i2c.c ****     I2C_WAIT_FOR_ACCESS();
 678              		.loc 1 427 0 discriminator 1
 679 0052 FFF7FEFF 		bl	EZI2C_Slave_GetActivity
 680              	.LVL40:
 681 0056 0028     		cmp	r0, #0
 682 0058 FBD1     		bne	.L60
 428:..\source/i2c.c ****     EZI2C_Slave_DisableInt();
 683              		.loc 1 428 0
 684 005a 4FF40043 		mov	r3, #32768
 685 005e 0A4A     		ldr	r2, .L63
 686 0060 1360     		str	r3, [r2]
 429:..\source/i2c.c ****     i2c_buf.read_only.odom.right_delta_dist = right_delta_dist;
 687              		.loc 1 429 0
 688 0062 0A4A     		ldr	r2, .L63+4
 689 0064 D461     		str	r4, [r2, #28]	@ float
 430:..\source/i2c.c ****     EZI2C_Slave_EnableInt();
 690              		.loc 1 430 0
 691 0066 0A4A     		ldr	r2, .L63+8
 692 0068 1360     		str	r3, [r2]
 693              	.L61:
 431:..\source/i2c.c ****     I2C_WAIT_FOR_ACCESS();
 694              		.loc 1 431 0 discriminator 1
 695 006a FFF7FEFF 		bl	EZI2C_Slave_GetActivity
 696              	.LVL41:
 697 006e 0028     		cmp	r0, #0
 698 0070 FBD1     		bne	.L61
 432:..\source/i2c.c ****     EZI2C_Slave_DisableInt();
 699              		.loc 1 432 0
 700 0072 4FF40043 		mov	r3, #32768
 701 0076 044A     		ldr	r2, .L63
 702 0078 1360     		str	r3, [r2]
 433:..\source/i2c.c ****     i2c_buf.read_only.odom.heading = heading;
 703              		.loc 1 433 0
 704 007a 044A     		ldr	r2, .L63+4
 705 007c 0699     		ldr	r1, [sp, #24]	@ float
 706 007e 1162     		str	r1, [r2, #32]	@ float
 434:..\source/i2c.c ****     EZI2C_Slave_EnableInt();
ARM GAS  C:\Users\Tim\AppData\Local\Temp\ccNk5Ehd.s 			page 21


 707              		.loc 1 434 0
 708 0080 034A     		ldr	r2, .L63+8
 709 0082 1360     		str	r3, [r2]
 710 0084 F8BD     		pop	{r3, r4, r5, r6, r7, pc}
 711              	.LVL42:
 712              	.L64:
 713 0086 00BF     		.align	2
 714              	.L63:
 715 0088 80E100E0 		.word	-536813184
 716 008c 00000000 		.word	.LANCHOR0
 717 0090 00E100E0 		.word	-536813312
 718              		.cfi_endproc
 719              	.LFE73:
 720              		.size	I2c_WriteOdom, .-I2c_WriteOdom
 721              		.section	.text.I2c_WriteInfraredDistances,"ax",%progbits
 722              		.align	2
 723              		.global	I2c_WriteInfraredDistances
 724              		.thumb
 725              		.thumb_func
 726              		.type	I2c_WriteInfraredDistances, %function
 727              	I2c_WriteInfraredDistances:
 728              	.LFB74:
 435:..\source/i2c.c **** }
 436:..\source/i2c.c **** 
 437:..\source/i2c.c **** /*-------------------------------------------------------------------------------------------------
 438:..\source/i2c.c ****  * Name: I2c_WriteInfraredDistances
 439:..\source/i2c.c ****  * Description: Accessor function used to write the current infrared distance values to I2C.
 440:..\source/i2c.c ****  * Parameters: offset - an offset into the ir.dist array.  The array is partitioned into front and
 441:..\source/i2c.c ****  *             read distance values such that the front values are written to the first 8 entries
 442:..\source/i2c.c ****  *             and the rear values are written to the last 8 entries.
 443:..\source/i2c.c ****  *             distances - array of distance values
 444:..\source/i2c.c ****  *             num_entries - the number of entries in the array.  Typically will be a constant
 445:..\source/i2c.c ****  *             derived from the configuration of the number of sensors, e.g., 8 per call.
 446:..\source/i2c.c ****  * Return: None
 447:..\source/i2c.c ****  * 
 448:..\source/i2c.c ****  *-------------------------------------------------------------------------------------------------
 449:..\source/i2c.c **** void I2c_WriteInfraredDistances(uint8 offset, float* distances, uint8 num_entries)
 450:..\source/i2c.c **** {
 729              		.loc 1 450 0
 730              		.cfi_startproc
 731              		@ args = 0, pretend = 0, frame = 0
 732              		@ frame_needed = 0, uses_anonymous_args = 0
 733              	.LVL43:
 734 0000 F8B5     		push	{r3, r4, r5, r6, r7, lr}
 735              		.cfi_def_cfa_offset 24
 736              		.cfi_offset 3, -24
 737              		.cfi_offset 4, -20
 738              		.cfi_offset 5, -16
 739              		.cfi_offset 6, -12
 740              		.cfi_offset 7, -8
 741              		.cfi_offset 14, -4
 742 0002 0746     		mov	r7, r0
 743 0004 0E46     		mov	r6, r1
 744 0006 1546     		mov	r5, r2
 745              	.LVL44:
 746              	.L66:
 451:..\source/i2c.c ****     I2C_WAIT_FOR_ACCESS();
ARM GAS  C:\Users\Tim\AppData\Local\Temp\ccNk5Ehd.s 			page 22


 747              		.loc 1 451 0 discriminator 1
 748 0008 FFF7FEFF 		bl	EZI2C_Slave_GetActivity
 749              	.LVL45:
 750 000c 0028     		cmp	r0, #0
 751 000e FBD1     		bne	.L66
 452:..\source/i2c.c ****     EZI2C_Slave_DisableInt();
 752              		.loc 1 452 0
 753 0010 4FF40044 		mov	r4, #32768
 754 0014 064B     		ldr	r3, .L68
 755 0016 1C60     		str	r4, [r3]
 453:..\source/i2c.c ****     memcpy(&i2c_buf.read_only.ir.dist[offset], distances, num_entries);
 756              		.loc 1 453 0
 757 0018 0648     		ldr	r0, .L68+4
 758 001a 00EB8700 		add	r0, r0, r7, lsl #2
 759 001e 6430     		adds	r0, r0, #100
 760 0020 3146     		mov	r1, r6
 761 0022 2A46     		mov	r2, r5
 762 0024 FFF7FEFF 		bl	memcpy
 763              	.LVL46:
 454:..\source/i2c.c ****     EZI2C_Slave_EnableInt();
 764              		.loc 1 454 0
 765 0028 034B     		ldr	r3, .L68+8
 766 002a 1C60     		str	r4, [r3]
 767 002c F8BD     		pop	{r3, r4, r5, r6, r7, pc}
 768              	.LVL47:
 769              	.L69:
 770 002e 00BF     		.align	2
 771              	.L68:
 772 0030 80E100E0 		.word	-536813184
 773 0034 00000000 		.word	.LANCHOR0
 774 0038 00E100E0 		.word	-536813312
 775              		.cfi_endproc
 776              	.LFE74:
 777              		.size	I2c_WriteInfraredDistances, .-I2c_WriteInfraredDistances
 778              		.section	.text.I2c_WriteUltrasonicDistances,"ax",%progbits
 779              		.align	2
 780              		.global	I2c_WriteUltrasonicDistances
 781              		.thumb
 782              		.thumb_func
 783              		.type	I2c_WriteUltrasonicDistances, %function
 784              	I2c_WriteUltrasonicDistances:
 785              	.LFB75:
 455:..\source/i2c.c **** }
 456:..\source/i2c.c **** 
 457:..\source/i2c.c **** /*-------------------------------------------------------------------------------------------------
 458:..\source/i2c.c ****  * Name: I2c_WriteUltrasonicDistances
 459:..\source/i2c.c ****  * Description: Accessor function used to write the current infrared distance values to I2C.
 460:..\source/i2c.c ****  * Parameters: offset - an offset into the us.dist array.  The array is partitioned into front and
 461:..\source/i2c.c ****  *             read distance values such that the front values are written to the first 8 entries
 462:..\source/i2c.c ****  *             and the rear values are written to the last 8 entries.
 463:..\source/i2c.c ****  *             distances - array of distance values
 464:..\source/i2c.c ****  *             num_entries - the number of entries in the array.  Typically will be a constant
 465:..\source/i2c.c ****  *             derived from the configuration of the number of sensors, e.g., 8 per call.
 466:..\source/i2c.c ****  * Return: None
 467:..\source/i2c.c ****  * 
 468:..\source/i2c.c ****  *-------------------------------------------------------------------------------------------------
 469:..\source/i2c.c **** void I2c_WriteUltrasonicDistances(uint8 offset, float* distances, uint8 num_entries)
ARM GAS  C:\Users\Tim\AppData\Local\Temp\ccNk5Ehd.s 			page 23


 470:..\source/i2c.c **** {
 786              		.loc 1 470 0
 787              		.cfi_startproc
 788              		@ args = 0, pretend = 0, frame = 0
 789              		@ frame_needed = 0, uses_anonymous_args = 0
 790              	.LVL48:
 791 0000 F8B5     		push	{r3, r4, r5, r6, r7, lr}
 792              		.cfi_def_cfa_offset 24
 793              		.cfi_offset 3, -24
 794              		.cfi_offset 4, -20
 795              		.cfi_offset 5, -16
 796              		.cfi_offset 6, -12
 797              		.cfi_offset 7, -8
 798              		.cfi_offset 14, -4
 799 0002 0746     		mov	r7, r0
 800 0004 0E46     		mov	r6, r1
 801 0006 1546     		mov	r5, r2
 802              	.LVL49:
 803              	.L71:
 471:..\source/i2c.c ****     I2C_WAIT_FOR_ACCESS();
 804              		.loc 1 471 0 discriminator 1
 805 0008 FFF7FEFF 		bl	EZI2C_Slave_GetActivity
 806              	.LVL50:
 807 000c 0028     		cmp	r0, #0
 808 000e FBD1     		bne	.L71
 472:..\source/i2c.c ****     EZI2C_Slave_DisableInt();
 809              		.loc 1 472 0
 810 0010 4FF40044 		mov	r4, #32768
 811 0014 064B     		ldr	r3, .L73
 812 0016 1C60     		str	r4, [r3]
 473:..\source/i2c.c ****     memcpy(&i2c_buf.read_only.us.dist[offset], distances, num_entries);
 813              		.loc 1 473 0
 814 0018 0648     		ldr	r0, .L73+4
 815 001a 00EB8700 		add	r0, r0, r7, lsl #2
 816 001e 2430     		adds	r0, r0, #36
 817 0020 3146     		mov	r1, r6
 818 0022 2A46     		mov	r2, r5
 819 0024 FFF7FEFF 		bl	memcpy
 820              	.LVL51:
 474:..\source/i2c.c ****     EZI2C_Slave_EnableInt();
 821              		.loc 1 474 0
 822 0028 034B     		ldr	r3, .L73+8
 823 002a 1C60     		str	r4, [r3]
 824 002c F8BD     		pop	{r3, r4, r5, r6, r7, pc}
 825              	.LVL52:
 826              	.L74:
 827 002e 00BF     		.align	2
 828              	.L73:
 829 0030 80E100E0 		.word	-536813184
 830 0034 00000000 		.word	.LANCHOR0
 831 0038 00E100E0 		.word	-536813312
 832              		.cfi_endproc
 833              	.LFE75:
 834              		.size	I2c_WriteUltrasonicDistances, .-I2c_WriteUltrasonicDistances
 835              		.section	.text.I2c_UpdateHeartbeat,"ax",%progbits
 836              		.align	2
 837              		.global	I2c_UpdateHeartbeat
ARM GAS  C:\Users\Tim\AppData\Local\Temp\ccNk5Ehd.s 			page 24


 838              		.thumb
 839              		.thumb_func
 840              		.type	I2c_UpdateHeartbeat, %function
 841              	I2c_UpdateHeartbeat:
 842              	.LFB76:
 475:..\source/i2c.c **** }
 476:..\source/i2c.c **** 
 477:..\source/i2c.c **** /*-------------------------------------------------------------------------------------------------
 478:..\source/i2c.c ****  * Name: I2c_UpdateHeartbeat
 479:..\source/i2c.c ****  * Description: Accessor function used to write the current heartbeat value to I2C.
 480:..\source/i2c.c ****  * Parameters: counter - the current heartbeat counter value.
 481:..\source/i2c.c ****  * Return: None
 482:..\source/i2c.c ****  * 
 483:..\source/i2c.c ****  *-------------------------------------------------------------------------------------------------
 484:..\source/i2c.c **** void I2c_UpdateHeartbeat(uint32 counter)
 485:..\source/i2c.c **** {
 843              		.loc 1 485 0
 844              		.cfi_startproc
 845              		@ args = 0, pretend = 0, frame = 0
 846              		@ frame_needed = 0, uses_anonymous_args = 0
 847              	.LVL53:
 848 0000 10B5     		push	{r4, lr}
 849              		.cfi_def_cfa_offset 8
 850              		.cfi_offset 4, -8
 851              		.cfi_offset 14, -4
 852 0002 0446     		mov	r4, r0
 853              	.LVL54:
 854              	.L76:
 486:..\source/i2c.c ****     I2C_WAIT_FOR_ACCESS();
 855              		.loc 1 486 0 discriminator 1
 856 0004 FFF7FEFF 		bl	EZI2C_Slave_GetActivity
 857              	.LVL55:
 858 0008 0028     		cmp	r0, #0
 859 000a FBD1     		bne	.L76
 487:..\source/i2c.c ****     EZI2C_Slave_DisableInt();
 860              		.loc 1 487 0
 861 000c 4FF40043 		mov	r3, #32768
 862 0010 034A     		ldr	r2, .L78
 863 0012 1360     		str	r3, [r2]
 488:..\source/i2c.c ****     i2c_buf.read_only.heartbeat = counter;
 864              		.loc 1 488 0
 865 0014 034A     		ldr	r2, .L78+4
 866 0016 C2F8A440 		str	r4, [r2, #164]
 489:..\source/i2c.c ****     EZI2C_Slave_EnableInt();
 867              		.loc 1 489 0
 868 001a 034A     		ldr	r2, .L78+8
 869 001c 1360     		str	r3, [r2]
 870 001e 10BD     		pop	{r4, pc}
 871              	.LVL56:
 872              	.L79:
 873              		.align	2
 874              	.L78:
 875 0020 80E100E0 		.word	-536813184
 876 0024 00000000 		.word	.LANCHOR0
 877 0028 00E100E0 		.word	-536813312
 878              		.cfi_endproc
 879              	.LFE76:
ARM GAS  C:\Users\Tim\AppData\Local\Temp\ccNk5Ehd.s 			page 25


 880              		.size	I2c_UpdateHeartbeat, .-I2c_UpdateHeartbeat
 881              		.comm	Cal_RightTarget,4,4
 882              		.comm	Cal_LeftTarget,4,4
 883              		.comm	p_cal_eeprom,4,4
 884              		.comm	debug_control_enabled,2,2
 885              		.comm	formatted_string,256,4
 886              		.section	.rodata.str1.4,"aMS",%progbits,1
 887              		.align	2
 888              	.LC0:
 889 0000 2573202D 		.ascii	"%s - %s\015\012\000"
 889      2025730D 
 889      0A00
 890 000a 0000     		.bss
 891              		.align	2
 892              		.set	.LANCHOR0,. + 0
 893              		.type	i2c_buf, %object
 894              		.size	i2c_buf, 168
 895              	i2c_buf:
 896 0000 00000000 		.space	168
 896      00000000 
 896      00000000 
 896      00000000 
 896      00000000 
 897              		.type	device_status, %object
 898              		.size	device_status, 2
 899              	device_status:
 900 00a8 0000     		.space	2
 901              		.type	calibration_status, %object
 902              		.size	calibration_status, 2
 903              	calibration_status:
 904 00aa 0000     		.space	2
 905              		.type	i2c_debug, %object
 906              		.size	i2c_debug, 2
 907              	i2c_debug:
 908 00ac 0000     		.space	2
 909 00ae 0000     		.space	2
 910              		.type	cmd_velocity_timeout, %object
 911              		.size	cmd_velocity_timeout, 4
 912              	cmd_velocity_timeout:
 913 00b0 00000000 		.space	4
 914              		.type	last_cmd_velocity_time, %object
 915              		.size	last_cmd_velocity_time, 4
 916              	last_cmd_velocity_time:
 917 00b4 00000000 		.space	4
 918              		.text
 919              	.Letext0:
 920              		.file 2 "c:\\program files (x86)\\cypress\\psoc creator\\3.3\\psoc creator\\import\\gnu\\arm\\4.9.
 921              		.file 3 "c:\\program files (x86)\\cypress\\psoc creator\\3.3\\psoc creator\\import\\gnu\\arm\\4.9.
 922              		.file 4 "Generated_Source\\PSoC5/cytypes.h"
 923              		.file 5 "..\\source\\config.h"
 924              		.file 6 "..\\source\\calstore.h"
 925              		.file 7 "Generated_Source\\PSoC5/core_cm3.h"
 926              		.file 8 "..\\source\\debug.h"
 927              		.file 9 "..\\source\\cal.h"
 928              		.file 10 "Generated_Source\\PSoC5/EZI2C_Slave.h"
 929              		.file 11 "..\\source\\utils.h"
 930              		.file 12 "..\\source\\serial.h"
ARM GAS  C:\Users\Tim\AppData\Local\Temp\ccNk5Ehd.s 			page 26


 931              		.file 13 "..\\source\\time.h"
 932              		.file 14 "c:\\program files (x86)\\cypress\\psoc creator\\3.3\\psoc creator\\import\\gnu\\arm\\4.9