ARM GAS  C:\Users\Tim\AppData\Local\Temp\ccCoj1nC.s 			page 1


   1              		.syntax unified
   2              		.cpu cortex-m3
   3              		.fpu softvfp
   4              		.eabi_attribute 20, 1
   5              		.eabi_attribute 21, 1
   6              		.eabi_attribute 23, 3
   7              		.eabi_attribute 24, 1
   8              		.eabi_attribute 25, 1
   9              		.eabi_attribute 26, 1
  10              		.eabi_attribute 30, 1
  11              		.eabi_attribute 34, 1
  12              		.eabi_attribute 18, 4
  13              		.thumb
  14              		.file	"infrared.c"
  15              		.text
  16              	.Ltext0:
  17              		.cfi_sections	.debug_frame
  18              		.section	.text.Rear_EOS_Interrupt,"ax",%progbits
  19              		.align	2
  20              		.thumb
  21              		.thumb_func
  22              		.type	Rear_EOS_Interrupt, %function
  23              	Rear_EOS_Interrupt:
  24              	.LFB71:
  25              		.file 1 "..\\source\\infrared.c"
   1:..\source/infrared.c **** /* ========================================
   2:..\source/infrared.c ****  *
   3:..\source/infrared.c ****  * Copyright YOUR COMPANY, THE YEAR
   4:..\source/infrared.c ****  * All Rights Reserved
   5:..\source/infrared.c ****  * UNPUBLISHED, LICENSED SOFTWARE.
   6:..\source/infrared.c ****  *
   7:..\source/infrared.c ****  * CONFIDENTIAL AND PROPRIETARY INFORMATION
   8:..\source/infrared.c ****  * WHICH IS THE PROPERTY OF your company.
   9:..\source/infrared.c ****  *
  10:..\source/infrared.c ****  * ========================================
  11:..\source/infrared.c **** */
  12:..\source/infrared.c **** 
  13:..\source/infrared.c **** #include <math.h>
  14:..\source/infrared.c **** #include <stdio.h>
  15:..\source/infrared.c **** #include "config.h"
  16:..\source/infrared.c **** #include "infrared.h"
  17:..\source/infrared.c **** #include "debug.h"
  18:..\source/infrared.c **** #include "time.h"
  19:..\source/infrared.c **** #include "i2c.h"
  20:..\source/infrared.c **** #include "utils.h"
  21:..\source/infrared.c **** 
  22:..\source/infrared.c **** /* The Sharp IR sensors have a range of 10 to 80 cm.  Working backward, this limits the ADC values 
  23:..\source/infrared.c **** 
  24:..\source/infrared.c **** ADC    Voltage        Pow          cm           mm
  25:..\source/infrared.c **** 327  0.399169922  2.875203044  80.10315682  801.0315682
  26:..\source/infrared.c **** 350  0.427246094  2.659011307  74.08005503  740.8005503
  27:..\source/infrared.c **** 375  0.457763672  2.456192932  68.42953508  684.2953508
  28:..\source/infrared.c **** ...
  29:..\source/infrared.c **** 1950 2.380371094  0.368857512  10.27637027  102.7637027
  30:..\source/infrared.c **** 1995 2.435302734  0.359305694  10.01025665  100.1025665
  31:..\source/infrared.c ****  */
  32:..\source/infrared.c **** #define ADC_MIN_VALUE (327)
ARM GAS  C:\Users\Tim\AppData\Local\Temp\ccCoj1nC.s 			page 2


  33:..\source/infrared.c **** #define ADC_MAX_VALUE (1995)
  34:..\source/infrared.c **** 
  35:..\source/infrared.c **** /* Interpolation equation and constants taken from here: 
  36:..\source/infrared.c ****        https://www.tindie.com/products/upgradeindustries/sharp-10-80cm-infrared-distance-sensor-gp2
  37:..\source/infrared.c ****  */
  38:..\source/infrared.c **** #define SHARP_IR_SENSOR_INTERPOLATION_CONST_1 (27.86)
  39:..\source/infrared.c **** #define SHARP_IR_SENSOR_INTERPOLATION_CONST_2 (-1.15)
  40:..\source/infrared.c **** 
  41:..\source/infrared.c **** #define CALCULATE_DISTANCE(voltage) ((uint8) (SHARP_IR_SENSOR_INTERPOLATION_CONST_1 * pow(voltage, 
  42:..\source/infrared.c **** 
  43:..\source/infrared.c **** /* Two interrupts are used: EOS (end-of-sampling) and EOC (end-of-conversion)
  44:..\source/infrared.c **** 
  45:..\source/infrared.c ****     - The EOS interrupt occurs before the EOC interrupt
  46:..\source/infrared.c ****     - The ADC sampling can be changed while the previous conversion is being performed
  47:..\source/infrared.c ****     - When the EOS interrupt occurs, the mux is switched to the next change for sampling which give
  48:..\source/infrared.c ****       overlap between sampling and conversion.
  49:..\source/infrared.c ****     - The EOS interrupt advanced the mux channel, so when the EOC interrupt occurs, it is necessary
  50:..\source/infrared.c ****       channel.
  51:..\source/infrared.c **** 
  52:..\source/infrared.c **** */
  53:..\source/infrared.c **** static uint8 rear_adc_last_channel;
  54:..\source/infrared.c **** static uint8 front_adc_last_channel;
  55:..\source/infrared.c **** 
  56:..\source/infrared.c **** typedef struct queueItem_s
  57:..\source/infrared.c **** {
  58:..\source/infrared.c ****     uint8 channel;
  59:..\source/infrared.c ****     float voltage;
  60:..\source/infrared.c **** } queueItem_t;
  61:..\source/infrared.c **** 
  62:..\source/infrared.c **** typedef void (*WRITE_DISTANCE_TYPE)(uint8 offset, uint8 distance);
  63:..\source/infrared.c **** typedef void (*LOCK_TYPE)(void);
  64:..\source/infrared.c **** typedef void (*UNLOCK_TYPE)(void);
  65:..\source/infrared.c **** 
  66:..\source/infrared.c **** typedef struct circularQueue_s
  67:..\source/infrared.c **** {
  68:..\source/infrared.c ****     int first;
  69:..\source/infrared.c ****     int last;
  70:..\source/infrared.c ****     int validItems;
  71:..\source/infrared.c ****     int maxItems;
  72:..\source/infrared.c ****     int *p_items;
  73:..\source/infrared.c ****     queueItem_t *p_data;
  74:..\source/infrared.c ****     LOCK_TYPE lock;
  75:..\source/infrared.c ****     UNLOCK_TYPE unlock;
  76:..\source/infrared.c ****     WRITE_DISTANCE_TYPE Report;        
  77:..\source/infrared.c **** } circularQueue_t;
  78:..\source/infrared.c **** 
  79:..\source/infrared.c **** static circularQueue_t front_queue;
  80:..\source/infrared.c **** static int front_queue_items[8];
  81:..\source/infrared.c **** static queueItem_t front_queue_data[8];
  82:..\source/infrared.c **** 
  83:..\source/infrared.c **** static circularQueue_t rear_queue;
  84:..\source/infrared.c **** static int rear_queue_items[8];
  85:..\source/infrared.c **** static queueItem_t rear_queue_data[8];
  86:..\source/infrared.c **** 
  87:..\source/infrared.c **** void initializeQueue(circularQueue_t *theQueue, int *items_buffer, queueItem_t *data_buffer)
  88:..\source/infrared.c **** {
  89:..\source/infrared.c ****     theQueue->validItems = 0;
ARM GAS  C:\Users\Tim\AppData\Local\Temp\ccCoj1nC.s 			page 3


  90:..\source/infrared.c ****     theQueue->first      = 0;
  91:..\source/infrared.c ****     theQueue->last       = 0;
  92:..\source/infrared.c ****     theQueue->p_items    = items_buffer;
  93:..\source/infrared.c ****     theQueue->p_data     = data_buffer;
  94:..\source/infrared.c **** }
  95:..\source/infrared.c ****  
  96:..\source/infrared.c **** int isEmpty(circularQueue_t *theQueue)
  97:..\source/infrared.c **** {
  98:..\source/infrared.c ****     int result;
  99:..\source/infrared.c ****     
 100:..\source/infrared.c ****     theQueue->lock();
 101:..\source/infrared.c ****     result = theQueue->validItems == 0;
 102:..\source/infrared.c ****     theQueue->unlock();
 103:..\source/infrared.c ****     return result;
 104:..\source/infrared.c **** }
 105:..\source/infrared.c ****  
 106:..\source/infrared.c **** int putItem(circularQueue_t *theQueue, int theItemValue)
 107:..\source/infrared.c **** {
 108:..\source/infrared.c ****     theQueue->lock();
 109:..\source/infrared.c ****     if ( theQueue->validItems>=theQueue->maxItems )
 110:..\source/infrared.c ****     {
 111:..\source/infrared.c ****         theQueue->unlock();
 112:..\source/infrared.c ****         return 0;
 113:..\source/infrared.c ****     }
 114:..\source/infrared.c **** 
 115:..\source/infrared.c ****     theQueue->validItems++;
 116:..\source/infrared.c ****     theQueue->p_items[theQueue->last] = theItemValue;
 117:..\source/infrared.c ****     theQueue->last = (theQueue->last+1) % theQueue->maxItems;
 118:..\source/infrared.c ****     
 119:..\source/infrared.c ****     theQueue->unlock();
 120:..\source/infrared.c ****     
 121:..\source/infrared.c ****     return 1;
 122:..\source/infrared.c **** }
 123:..\source/infrared.c ****  
 124:..\source/infrared.c **** int getItem(circularQueue_t *theQueue, int *theItemValue)
 125:..\source/infrared.c **** {
 126:..\source/infrared.c ****     if(isEmpty(theQueue))
 127:..\source/infrared.c ****     {
 128:..\source/infrared.c ****         return 0;
 129:..\source/infrared.c ****     }
 130:..\source/infrared.c ****     
 131:..\source/infrared.c ****     theQueue->lock();
 132:..\source/infrared.c ****     *theItemValue = theQueue->p_items[theQueue->first];
 133:..\source/infrared.c ****     theQueue->first = (theQueue->first+1)%theQueue->maxItems;
 134:..\source/infrared.c ****     theQueue->validItems--;
 135:..\source/infrared.c ****     theQueue->unlock();
 136:..\source/infrared.c ****     return 1;
 137:..\source/infrared.c **** }
 138:..\source/infrared.c ****  
 139:..\source/infrared.c **** void printQueue(circularQueue_t *theQueue)
 140:..\source/infrared.c **** {
 141:..\source/infrared.c ****     int index, num_valid_items;
 142:..\source/infrared.c ****     theQueue->lock();
 143:..\source/infrared.c ****     index  = theQueue->first;
 144:..\source/infrared.c ****     num_valid_items = theQueue->validItems;
 145:..\source/infrared.c ****     theQueue->unlock();
 146:..\source/infrared.c ****     while(num_valid_items>0)
ARM GAS  C:\Users\Tim\AppData\Local\Temp\ccCoj1nC.s 			page 4


 147:..\source/infrared.c ****     {
 148:..\source/infrared.c ****         theQueue->lock();
 149:..\source/infrared.c ****         int entry = theQueue->p_items[index];
 150:..\source/infrared.c ****         index=(index+1)%theQueue->maxItems;
 151:..\source/infrared.c ****         theQueue->unlock();
 152:..\source/infrared.c ****         num_valid_items--;
 153:..\source/infrared.c ****         DEBUG_PRINT_ARG("Element #%d = %d\n", index, entry);
 154:..\source/infrared.c ****     }
 155:..\source/infrared.c ****     return;
 156:..\source/infrared.c **** }
 157:..\source/infrared.c **** 
 158:..\source/infrared.c **** static CY_ISR(Front_EOC_Interrupt)
 159:..\source/infrared.c **** /* This interrupt occurs when the ADC completes the conversion
 160:..\source/infrared.c ****        Clear the interrupt
 161:..\source/infrared.c ****        Read value from ADC
 162:..\source/infrared.c ****        Store channel and counts
 163:..\source/infrared.c ****  */
 164:..\source/infrared.c **** {
 165:..\source/infrared.c ****     Front_ADC_SAR_IRQ_ClearPending();
 166:..\source/infrared.c ****     
 167:..\source/infrared.c ****     int16 counts = Front_ADC_SAR_GetResult16();
 168:..\source/infrared.c ****     float voltage = Front_ADC_SAR_CountsTo_Volts(counts);
 169:..\source/infrared.c ****     front_queue.p_data[front_adc_last_channel].channel = front_adc_last_channel;
 170:..\source/infrared.c ****     front_queue.p_data[front_adc_last_channel].voltage = voltage;
 171:..\source/infrared.c ****     putItem(&front_queue, front_adc_last_channel);
 172:..\source/infrared.c **** }
 173:..\source/infrared.c **** 
 174:..\source/infrared.c **** static CY_ISR(Rear_EOC_Interrupt)
 175:..\source/infrared.c **** /* This interrupt occurs when the ADC completes the conversion
 176:..\source/infrared.c ****        Clear the interrupt
 177:..\source/infrared.c ****        Read value from ADC
 178:..\source/infrared.c ****        Store channel and counts
 179:..\source/infrared.c ****  */
 180:..\source/infrared.c **** {
 181:..\source/infrared.c ****     Rear_ADC_SAR_IRQ_ClearPending();
 182:..\source/infrared.c ****     
 183:..\source/infrared.c ****     int16 counts = Rear_ADC_SAR_GetResult16();
 184:..\source/infrared.c ****     float voltage = Rear_ADC_SAR_CountsTo_Volts(counts);
 185:..\source/infrared.c ****     rear_queue.p_data[rear_adc_last_channel].channel = rear_adc_last_channel;
 186:..\source/infrared.c ****     rear_queue.p_data[rear_adc_last_channel].voltage = voltage;
 187:..\source/infrared.c ****     putItem(&rear_queue, rear_adc_last_channel);
 188:..\source/infrared.c **** }
 189:..\source/infrared.c **** 
 190:..\source/infrared.c **** static CY_ISR(Front_EOS_Interrupt)
 191:..\source/infrared.c **** /* This interrupt occurs when the ADC finishes sampling the input
 192:..\source/infrared.c ****        Clear the interrupt
 193:..\source/infrared.c ****        Save the current channel so the EOC interrupt can read the correct channel
 194:..\source/infrared.c ****        Connect to the next channel
 195:..\source/infrared.c ****        Start ADC conversion
 196:..\source/infrared.c ****  */
 197:..\source/infrared.c **** {
 198:..\source/infrared.c ****     Front_EOS_Intr_ClearPending();
 199:..\source/infrared.c ****     front_adc_last_channel = Front_AMuxSeq_GetChannel();
 200:..\source/infrared.c ****     Front_AMuxSeq_Next();
 201:..\source/infrared.c ****     Front_ADC_SAR_StartConvert();
 202:..\source/infrared.c **** }
 203:..\source/infrared.c **** 
ARM GAS  C:\Users\Tim\AppData\Local\Temp\ccCoj1nC.s 			page 5


 204:..\source/infrared.c **** static CY_ISR(Rear_EOS_Interrupt)
 205:..\source/infrared.c **** /* This interrupt occurs when the ADC finishes sampling the input
 206:..\source/infrared.c ****        Clear the interrupt
 207:..\source/infrared.c ****        Save the current channel so the EOC interrupt can read the correct channel
 208:..\source/infrared.c ****        Connect to the next channel
 209:..\source/infrared.c ****        Start ADC conversion
 210:..\source/infrared.c ****  */
 211:..\source/infrared.c **** {
  26              		.loc 1 211 0
  27              		.cfi_startproc
  28              		@ args = 0, pretend = 0, frame = 0
  29              		@ frame_needed = 0, uses_anonymous_args = 0
  30 0000 08B5     		push	{r3, lr}
  31              		.cfi_def_cfa_offset 8
  32              		.cfi_offset 3, -8
  33              		.cfi_offset 14, -4
 212:..\source/infrared.c ****     Rear_EOS_Intr_ClearPending();
  34              		.loc 1 212 0
  35 0002 FFF7FEFF 		bl	Rear_EOS_Intr_ClearPending
  36              	.LVL0:
 213:..\source/infrared.c ****     rear_adc_last_channel = Rear_AMuxSeq_GetChannel();
  37              		.loc 1 213 0
  38 0006 FFF7FEFF 		bl	Rear_AMuxSeq_GetChannel
  39              	.LVL1:
  40 000a 034B     		ldr	r3, .L3
  41 000c 1870     		strb	r0, [r3]
 214:..\source/infrared.c ****     Rear_AMuxSeq_Next();
  42              		.loc 1 214 0
  43 000e FFF7FEFF 		bl	Rear_AMuxSeq_Next
  44              	.LVL2:
 215:..\source/infrared.c ****     Rear_ADC_SAR_StartConvert();
  45              		.loc 1 215 0
  46 0012 FFF7FEFF 		bl	Rear_ADC_SAR_StartConvert
  47              	.LVL3:
  48 0016 08BD     		pop	{r3, pc}
  49              	.L4:
  50              		.align	2
  51              	.L3:
  52 0018 00000000 		.word	.LANCHOR0
  53              		.cfi_endproc
  54              	.LFE71:
  55              		.size	Rear_EOS_Interrupt, .-Rear_EOS_Interrupt
  56              		.section	.text.Front_EOS_Interrupt,"ax",%progbits
  57              		.align	2
  58              		.thumb
  59              		.thumb_func
  60              		.type	Front_EOS_Interrupt, %function
  61              	Front_EOS_Interrupt:
  62              	.LFB70:
 197:..\source/infrared.c ****     Front_EOS_Intr_ClearPending();
  63              		.loc 1 197 0
  64              		.cfi_startproc
  65              		@ args = 0, pretend = 0, frame = 0
  66              		@ frame_needed = 0, uses_anonymous_args = 0
  67 0000 08B5     		push	{r3, lr}
  68              		.cfi_def_cfa_offset 8
  69              		.cfi_offset 3, -8
ARM GAS  C:\Users\Tim\AppData\Local\Temp\ccCoj1nC.s 			page 6


  70              		.cfi_offset 14, -4
 198:..\source/infrared.c ****     front_adc_last_channel = Front_AMuxSeq_GetChannel();
  71              		.loc 1 198 0
  72 0002 FFF7FEFF 		bl	Front_EOS_Intr_ClearPending
  73              	.LVL4:
 199:..\source/infrared.c ****     Front_AMuxSeq_Next();
  74              		.loc 1 199 0
  75 0006 FFF7FEFF 		bl	Front_AMuxSeq_GetChannel
  76              	.LVL5:
  77 000a 034B     		ldr	r3, .L7
  78 000c 5870     		strb	r0, [r3, #1]
 200:..\source/infrared.c ****     Front_ADC_SAR_StartConvert();
  79              		.loc 1 200 0
  80 000e FFF7FEFF 		bl	Front_AMuxSeq_Next
  81              	.LVL6:
 201:..\source/infrared.c **** }
  82              		.loc 1 201 0
  83 0012 FFF7FEFF 		bl	Front_ADC_SAR_StartConvert
  84              	.LVL7:
  85 0016 08BD     		pop	{r3, pc}
  86              	.L8:
  87              		.align	2
  88              	.L7:
  89 0018 00000000 		.word	.LANCHOR0
  90              		.cfi_endproc
  91              	.LFE70:
  92              		.size	Front_EOS_Interrupt, .-Front_EOS_Interrupt
  93              		.section	.text.initializeQueue,"ax",%progbits
  94              		.align	2
  95              		.global	initializeQueue
  96              		.thumb
  97              		.thumb_func
  98              		.type	initializeQueue, %function
  99              	initializeQueue:
 100              	.LFB63:
  88:..\source/infrared.c ****     theQueue->validItems = 0;
 101              		.loc 1 88 0
 102              		.cfi_startproc
 103              		@ args = 0, pretend = 0, frame = 0
 104              		@ frame_needed = 0, uses_anonymous_args = 0
 105              		@ link register save eliminated.
 106              	.LVL8:
  89:..\source/infrared.c ****     theQueue->first      = 0;
 107              		.loc 1 89 0
 108 0000 0023     		movs	r3, #0
 109 0002 8360     		str	r3, [r0, #8]
  90:..\source/infrared.c ****     theQueue->last       = 0;
 110              		.loc 1 90 0
 111 0004 0360     		str	r3, [r0]
  91:..\source/infrared.c ****     theQueue->p_items    = items_buffer;
 112              		.loc 1 91 0
 113 0006 4360     		str	r3, [r0, #4]
  92:..\source/infrared.c ****     theQueue->p_data     = data_buffer;
 114              		.loc 1 92 0
 115 0008 0161     		str	r1, [r0, #16]
  93:..\source/infrared.c **** }
 116              		.loc 1 93 0
ARM GAS  C:\Users\Tim\AppData\Local\Temp\ccCoj1nC.s 			page 7


 117 000a 4261     		str	r2, [r0, #20]
 118 000c 7047     		bx	lr
 119              		.cfi_endproc
 120              	.LFE63:
 121              		.size	initializeQueue, .-initializeQueue
 122 000e 00BF     		.section	.text.isEmpty,"ax",%progbits
 123              		.align	2
 124              		.global	isEmpty
 125              		.thumb
 126              		.thumb_func
 127              		.type	isEmpty, %function
 128              	isEmpty:
 129              	.LFB64:
  97:..\source/infrared.c ****     int result;
 130              		.loc 1 97 0
 131              		.cfi_startproc
 132              		@ args = 0, pretend = 0, frame = 0
 133              		@ frame_needed = 0, uses_anonymous_args = 0
 134              	.LVL9:
 135 0000 38B5     		push	{r3, r4, r5, lr}
 136              		.cfi_def_cfa_offset 16
 137              		.cfi_offset 3, -16
 138              		.cfi_offset 4, -12
 139              		.cfi_offset 5, -8
 140              		.cfi_offset 14, -4
 141 0002 0546     		mov	r5, r0
 100:..\source/infrared.c ****     result = theQueue->validItems == 0;
 142              		.loc 1 100 0
 143 0004 8369     		ldr	r3, [r0, #24]
 144 0006 9847     		blx	r3
 145              	.LVL10:
 101:..\source/infrared.c ****     theQueue->unlock();
 146              		.loc 1 101 0
 147 0008 AC68     		ldr	r4, [r5, #8]
 148 000a B4FA84F4 		clz	r4, r4
 149 000e 6409     		lsrs	r4, r4, #5
 150              	.LVL11:
 102:..\source/infrared.c ****     return result;
 151              		.loc 1 102 0
 152 0010 EB69     		ldr	r3, [r5, #28]
 153 0012 9847     		blx	r3
 154              	.LVL12:
 104:..\source/infrared.c ****  
 155              		.loc 1 104 0
 156 0014 2046     		mov	r0, r4
 157 0016 38BD     		pop	{r3, r4, r5, pc}
 158              		.cfi_endproc
 159              	.LFE64:
 160              		.size	isEmpty, .-isEmpty
 161              		.section	.text.putItem,"ax",%progbits
 162              		.align	2
 163              		.global	putItem
 164              		.thumb
 165              		.thumb_func
 166              		.type	putItem, %function
 167              	putItem:
 168              	.LFB65:
ARM GAS  C:\Users\Tim\AppData\Local\Temp\ccCoj1nC.s 			page 8


 107:..\source/infrared.c ****     theQueue->lock();
 169              		.loc 1 107 0
 170              		.cfi_startproc
 171              		@ args = 0, pretend = 0, frame = 0
 172              		@ frame_needed = 0, uses_anonymous_args = 0
 173              	.LVL13:
 174 0000 38B5     		push	{r3, r4, r5, lr}
 175              		.cfi_def_cfa_offset 16
 176              		.cfi_offset 3, -16
 177              		.cfi_offset 4, -12
 178              		.cfi_offset 5, -8
 179              		.cfi_offset 14, -4
 180 0002 0446     		mov	r4, r0
 181 0004 0D46     		mov	r5, r1
 108:..\source/infrared.c ****     if ( theQueue->validItems>=theQueue->maxItems )
 182              		.loc 1 108 0
 183 0006 8369     		ldr	r3, [r0, #24]
 184 0008 9847     		blx	r3
 185              	.LVL14:
 109:..\source/infrared.c ****     {
 186              		.loc 1 109 0
 187 000a A368     		ldr	r3, [r4, #8]
 188 000c E268     		ldr	r2, [r4, #12]
 189 000e 9342     		cmp	r3, r2
 190 0010 03DB     		blt	.L13
 111:..\source/infrared.c ****         return 0;
 191              		.loc 1 111 0
 192 0012 E369     		ldr	r3, [r4, #28]
 193 0014 9847     		blx	r3
 194              	.LVL15:
 112:..\source/infrared.c ****     }
 195              		.loc 1 112 0
 196 0016 0020     		movs	r0, #0
 197 0018 38BD     		pop	{r3, r4, r5, pc}
 198              	.LVL16:
 199              	.L13:
 115:..\source/infrared.c ****     theQueue->p_items[theQueue->last] = theItemValue;
 200              		.loc 1 115 0
 201 001a 0133     		adds	r3, r3, #1
 202 001c A360     		str	r3, [r4, #8]
 116:..\source/infrared.c ****     theQueue->last = (theQueue->last+1) % theQueue->maxItems;
 203              		.loc 1 116 0
 204 001e 2369     		ldr	r3, [r4, #16]
 205 0020 6268     		ldr	r2, [r4, #4]
 206 0022 43F82250 		str	r5, [r3, r2, lsl #2]
 117:..\source/infrared.c ****     
 207              		.loc 1 117 0
 208 0026 6368     		ldr	r3, [r4, #4]
 209 0028 0133     		adds	r3, r3, #1
 210 002a E168     		ldr	r1, [r4, #12]
 211 002c 93FBF1F2 		sdiv	r2, r3, r1
 212 0030 01FB1233 		mls	r3, r1, r2, r3
 213 0034 6360     		str	r3, [r4, #4]
 119:..\source/infrared.c ****     
 214              		.loc 1 119 0
 215 0036 E369     		ldr	r3, [r4, #28]
 216 0038 9847     		blx	r3
ARM GAS  C:\Users\Tim\AppData\Local\Temp\ccCoj1nC.s 			page 9


 217              	.LVL17:
 121:..\source/infrared.c **** }
 218              		.loc 1 121 0
 219 003a 0120     		movs	r0, #1
 122:..\source/infrared.c ****  
 220              		.loc 1 122 0
 221 003c 38BD     		pop	{r3, r4, r5, pc}
 222              		.cfi_endproc
 223              	.LFE65:
 224              		.size	putItem, .-putItem
 225 003e 00BF     		.section	.text.Rear_EOC_Interrupt,"ax",%progbits
 226              		.align	2
 227              		.thumb
 228              		.thumb_func
 229              		.type	Rear_EOC_Interrupt, %function
 230              	Rear_EOC_Interrupt:
 231              	.LFB69:
 180:..\source/infrared.c ****     Rear_ADC_SAR_IRQ_ClearPending();
 232              		.loc 1 180 0
 233              		.cfi_startproc
 234              		@ args = 0, pretend = 0, frame = 0
 235              		@ frame_needed = 0, uses_anonymous_args = 0
 236 0000 08B5     		push	{r3, lr}
 237              		.cfi_def_cfa_offset 8
 238              		.cfi_offset 3, -8
 239              		.cfi_offset 14, -4
 181:..\source/infrared.c ****     
 240              		.loc 1 181 0
 241 0002 FFF7FEFF 		bl	Rear_ADC_SAR_IRQ_ClearPending
 242              	.LVL18:
 183:..\source/infrared.c ****     float voltage = Rear_ADC_SAR_CountsTo_Volts(counts);
 243              		.loc 1 183 0
 244 0006 FFF7FEFF 		bl	Rear_ADC_SAR_GetResult16
 245              	.LVL19:
 184:..\source/infrared.c ****     rear_queue.p_data[rear_adc_last_channel].channel = rear_adc_last_channel;
 246              		.loc 1 184 0
 247 000a FFF7FEFF 		bl	Rear_ADC_SAR_CountsTo_Volts
 248              	.LVL20:
 185:..\source/infrared.c ****     rear_queue.p_data[rear_adc_last_channel].voltage = voltage;
 249              		.loc 1 185 0
 250 000e 064B     		ldr	r3, .L18
 251 0010 9A69     		ldr	r2, [r3, #24]
 252 0012 1978     		ldrb	r1, [r3]	@ zero_extendqisi2
 253 0014 02F83110 		strb	r1, [r2, r1, lsl #3]
 186:..\source/infrared.c ****     putItem(&rear_queue, rear_adc_last_channel);
 254              		.loc 1 186 0
 255 0018 9A69     		ldr	r2, [r3, #24]
 256 001a 02EBC102 		add	r2, r2, r1, lsl #3
 257 001e 5060     		str	r0, [r2, #4]	@ float
 187:..\source/infrared.c **** }
 258              		.loc 1 187 0
 259 0020 181D     		adds	r0, r3, #4
 260              	.LVL21:
 261 0022 FFF7FEFF 		bl	putItem
 262              	.LVL22:
 263 0026 08BD     		pop	{r3, pc}
 264              	.L19:
ARM GAS  C:\Users\Tim\AppData\Local\Temp\ccCoj1nC.s 			page 10


 265              		.align	2
 266              	.L18:
 267 0028 00000000 		.word	.LANCHOR0
 268              		.cfi_endproc
 269              	.LFE69:
 270              		.size	Rear_EOC_Interrupt, .-Rear_EOC_Interrupt
 271              		.section	.text.Front_EOC_Interrupt,"ax",%progbits
 272              		.align	2
 273              		.thumb
 274              		.thumb_func
 275              		.type	Front_EOC_Interrupt, %function
 276              	Front_EOC_Interrupt:
 277              	.LFB68:
 164:..\source/infrared.c ****     Front_ADC_SAR_IRQ_ClearPending();
 278              		.loc 1 164 0
 279              		.cfi_startproc
 280              		@ args = 0, pretend = 0, frame = 0
 281              		@ frame_needed = 0, uses_anonymous_args = 0
 282 0000 08B5     		push	{r3, lr}
 283              		.cfi_def_cfa_offset 8
 284              		.cfi_offset 3, -8
 285              		.cfi_offset 14, -4
 165:..\source/infrared.c ****     
 286              		.loc 1 165 0
 287 0002 FFF7FEFF 		bl	Front_ADC_SAR_IRQ_ClearPending
 288              	.LVL23:
 167:..\source/infrared.c ****     float voltage = Front_ADC_SAR_CountsTo_Volts(counts);
 289              		.loc 1 167 0
 290 0006 FFF7FEFF 		bl	Front_ADC_SAR_GetResult16
 291              	.LVL24:
 168:..\source/infrared.c ****     front_queue.p_data[front_adc_last_channel].channel = front_adc_last_channel;
 292              		.loc 1 168 0
 293 000a FFF7FEFF 		bl	Front_ADC_SAR_CountsTo_Volts
 294              	.LVL25:
 169:..\source/infrared.c ****     front_queue.p_data[front_adc_last_channel].voltage = voltage;
 295              		.loc 1 169 0
 296 000e 074B     		ldr	r3, .L22
 297 0010 DA6B     		ldr	r2, [r3, #60]
 298 0012 5978     		ldrb	r1, [r3, #1]	@ zero_extendqisi2
 299 0014 02F83110 		strb	r1, [r2, r1, lsl #3]
 170:..\source/infrared.c ****     putItem(&front_queue, front_adc_last_channel);
 300              		.loc 1 170 0
 301 0018 DA6B     		ldr	r2, [r3, #60]
 302 001a 02EBC102 		add	r2, r2, r1, lsl #3
 303 001e 5060     		str	r0, [r2, #4]	@ float
 171:..\source/infrared.c **** }
 304              		.loc 1 171 0
 305 0020 03F12800 		add	r0, r3, #40
 306              	.LVL26:
 307 0024 FFF7FEFF 		bl	putItem
 308              	.LVL27:
 309 0028 08BD     		pop	{r3, pc}
 310              	.L23:
 311 002a 00BF     		.align	2
 312              	.L22:
 313 002c 00000000 		.word	.LANCHOR0
 314              		.cfi_endproc
ARM GAS  C:\Users\Tim\AppData\Local\Temp\ccCoj1nC.s 			page 11


 315              	.LFE68:
 316              		.size	Front_EOC_Interrupt, .-Front_EOC_Interrupt
 317              		.section	.text.getItem,"ax",%progbits
 318              		.align	2
 319              		.global	getItem
 320              		.thumb
 321              		.thumb_func
 322              		.type	getItem, %function
 323              	getItem:
 324              	.LFB66:
 125:..\source/infrared.c ****     if(isEmpty(theQueue))
 325              		.loc 1 125 0
 326              		.cfi_startproc
 327              		@ args = 0, pretend = 0, frame = 0
 328              		@ frame_needed = 0, uses_anonymous_args = 0
 329              	.LVL28:
 330 0000 38B5     		push	{r3, r4, r5, lr}
 331              		.cfi_def_cfa_offset 16
 332              		.cfi_offset 3, -16
 333              		.cfi_offset 4, -12
 334              		.cfi_offset 5, -8
 335              		.cfi_offset 14, -4
 336 0002 0446     		mov	r4, r0
 337 0004 0D46     		mov	r5, r1
 126:..\source/infrared.c ****     {
 338              		.loc 1 126 0
 339 0006 FFF7FEFF 		bl	isEmpty
 340              	.LVL29:
 341 000a A8B9     		cbnz	r0, .L26
 131:..\source/infrared.c ****     *theItemValue = theQueue->p_items[theQueue->first];
 342              		.loc 1 131 0
 343 000c A369     		ldr	r3, [r4, #24]
 344 000e 9847     		blx	r3
 345              	.LVL30:
 132:..\source/infrared.c ****     theQueue->first = (theQueue->first+1)%theQueue->maxItems;
 346              		.loc 1 132 0
 347 0010 2369     		ldr	r3, [r4, #16]
 348 0012 2268     		ldr	r2, [r4]
 349 0014 53F82230 		ldr	r3, [r3, r2, lsl #2]
 350 0018 2B60     		str	r3, [r5]
 133:..\source/infrared.c ****     theQueue->validItems--;
 351              		.loc 1 133 0
 352 001a 2368     		ldr	r3, [r4]
 353 001c 0133     		adds	r3, r3, #1
 354 001e E168     		ldr	r1, [r4, #12]
 355 0020 93FBF1F2 		sdiv	r2, r3, r1
 356 0024 01FB1233 		mls	r3, r1, r2, r3
 357 0028 2360     		str	r3, [r4]
 134:..\source/infrared.c ****     theQueue->unlock();
 358              		.loc 1 134 0
 359 002a A368     		ldr	r3, [r4, #8]
 360 002c 013B     		subs	r3, r3, #1
 361 002e A360     		str	r3, [r4, #8]
 135:..\source/infrared.c ****     return 1;
 362              		.loc 1 135 0
 363 0030 E369     		ldr	r3, [r4, #28]
 364 0032 9847     		blx	r3
ARM GAS  C:\Users\Tim\AppData\Local\Temp\ccCoj1nC.s 			page 12


 365              	.LVL31:
 136:..\source/infrared.c **** }
 366              		.loc 1 136 0
 367 0034 0120     		movs	r0, #1
 368 0036 38BD     		pop	{r3, r4, r5, pc}
 369              	.LVL32:
 370              	.L26:
 128:..\source/infrared.c ****     }
 371              		.loc 1 128 0
 372 0038 0020     		movs	r0, #0
 137:..\source/infrared.c ****  
 373              		.loc 1 137 0
 374 003a 38BD     		pop	{r3, r4, r5, pc}
 375              		.cfi_endproc
 376              	.LFE66:
 377              		.size	getItem, .-getItem
 378              		.section	.text.printQueue,"ax",%progbits
 379              		.align	2
 380              		.global	printQueue
 381              		.thumb
 382              		.thumb_func
 383              		.type	printQueue, %function
 384              	printQueue:
 385              	.LFB67:
 140:..\source/infrared.c ****     int index, num_valid_items;
 386              		.loc 1 140 0
 387              		.cfi_startproc
 388              		@ args = 0, pretend = 0, frame = 0
 389              		@ frame_needed = 0, uses_anonymous_args = 0
 390              	.LVL33:
 391 0000 2DE9F041 		push	{r4, r5, r6, r7, r8, lr}
 392              		.cfi_def_cfa_offset 24
 393              		.cfi_offset 4, -24
 394              		.cfi_offset 5, -20
 395              		.cfi_offset 6, -16
 396              		.cfi_offset 7, -12
 397              		.cfi_offset 8, -8
 398              		.cfi_offset 14, -4
 399 0004 82B0     		sub	sp, sp, #8
 400              		.cfi_def_cfa_offset 32
 401 0006 0646     		mov	r6, r0
 142:..\source/infrared.c ****     index  = theQueue->first;
 402              		.loc 1 142 0
 403 0008 8369     		ldr	r3, [r0, #24]
 404 000a 9847     		blx	r3
 405              	.LVL34:
 143:..\source/infrared.c ****     num_valid_items = theQueue->validItems;
 406              		.loc 1 143 0
 407 000c 3468     		ldr	r4, [r6]
 408              	.LVL35:
 144:..\source/infrared.c ****     theQueue->unlock();
 409              		.loc 1 144 0
 410 000e B768     		ldr	r7, [r6, #8]
 411              	.LVL36:
 145:..\source/infrared.c ****     while(num_valid_items>0)
 412              		.loc 1 145 0
 413 0010 F369     		ldr	r3, [r6, #28]
ARM GAS  C:\Users\Tim\AppData\Local\Temp\ccCoj1nC.s 			page 13


 414 0012 9847     		blx	r3
 415              	.LVL37:
 146:..\source/infrared.c ****     {
 416              		.loc 1 146 0
 417 0014 1AE0     		b	.L29
 418              	.L30:
 419              	.LBB2:
 148:..\source/infrared.c ****         int entry = theQueue->p_items[index];
 420              		.loc 1 148 0
 421 0016 B369     		ldr	r3, [r6, #24]
 422 0018 9847     		blx	r3
 423              	.LVL38:
 149:..\source/infrared.c ****         index=(index+1)%theQueue->maxItems;
 424              		.loc 1 149 0
 425 001a 3369     		ldr	r3, [r6, #16]
 426 001c 53F82480 		ldr	r8, [r3, r4, lsl #2]
 427              	.LVL39:
 150:..\source/infrared.c ****         theQueue->unlock();
 428              		.loc 1 150 0
 429 0020 0134     		adds	r4, r4, #1
 430              	.LVL40:
 431 0022 F368     		ldr	r3, [r6, #12]
 432 0024 94FBF3F2 		sdiv	r2, r4, r3
 433 0028 03FB1244 		mls	r4, r3, r2, r4
 434              	.LVL41:
 151:..\source/infrared.c ****         num_valid_items--;
 435              		.loc 1 151 0
 436 002c F369     		ldr	r3, [r6, #28]
 437 002e 9847     		blx	r3
 438              	.LVL42:
 152:..\source/infrared.c ****         DEBUG_PRINT_ARG("Element #%d = %d\n", index, entry);
 439              		.loc 1 152 0
 440 0030 013F     		subs	r7, r7, #1
 441              	.LVL43:
 153:..\source/infrared.c ****     }
 442              		.loc 1 153 0
 443 0032 094D     		ldr	r5, .L32
 444 0034 CDF80080 		str	r8, [sp]
 445 0038 2846     		mov	r0, r5
 446 003a 4FF48071 		mov	r1, #256
 447 003e 074A     		ldr	r2, .L32+4
 448 0040 2346     		mov	r3, r4
 449 0042 FFF7FEFF 		bl	snprintf
 450              	.LVL44:
 451 0046 2846     		mov	r0, r5
 452 0048 FFF7FEFF 		bl	Ser_PutString
 453              	.LVL45:
 454              	.L29:
 455              	.LBE2:
 146:..\source/infrared.c ****     {
 456              		.loc 1 146 0
 457 004c 002F     		cmp	r7, #0
 458 004e E2DC     		bgt	.L30
 156:..\source/infrared.c **** 
 459              		.loc 1 156 0
 460 0050 02B0     		add	sp, sp, #8
 461              		.cfi_def_cfa_offset 24
ARM GAS  C:\Users\Tim\AppData\Local\Temp\ccCoj1nC.s 			page 14


 462              		@ sp needed
 463 0052 BDE8F081 		pop	{r4, r5, r6, r7, r8, pc}
 464              	.LVL46:
 465              	.L33:
 466 0056 00BF     		.align	2
 467              	.L32:
 468 0058 00000000 		.word	formatted_string
 469 005c 00000000 		.word	.LC0
 470              		.cfi_endproc
 471              	.LFE67:
 472              		.size	printQueue, .-printQueue
 473              		.section	.text.Infrared_Init,"ax",%progbits
 474              		.align	2
 475              		.global	Infrared_Init
 476              		.thumb
 477              		.thumb_func
 478              		.type	Infrared_Init, %function
 479              	Infrared_Init:
 480              	.LFB72:
 216:..\source/infrared.c **** }
 217:..\source/infrared.c **** 
 218:..\source/infrared.c **** void Infrared_Init()
 219:..\source/infrared.c **** {
 481              		.loc 1 219 0
 482              		.cfi_startproc
 483              		@ args = 0, pretend = 0, frame = 0
 484              		@ frame_needed = 0, uses_anonymous_args = 0
 485 0000 10B5     		push	{r4, lr}
 486              		.cfi_def_cfa_offset 8
 487              		.cfi_offset 4, -8
 488              		.cfi_offset 14, -4
 220:..\source/infrared.c ****     Front_AMuxSeq_DisconnectAll();
 489              		.loc 1 220 0
 490 0002 FFF7FEFF 		bl	Front_AMuxSeq_DisconnectAll
 491              	.LVL47:
 221:..\source/infrared.c ****     Rear_AMuxSeq_DisconnectAll();
 492              		.loc 1 221 0
 493 0006 FFF7FEFF 		bl	Rear_AMuxSeq_DisconnectAll
 494              	.LVL48:
 222:..\source/infrared.c **** 
 223:..\source/infrared.c ****     initializeQueue(&front_queue, &front_queue_items[0], &front_queue_data[0]);
 495              		.loc 1 223 0
 496 000a 084C     		ldr	r4, .L36
 497 000c 04F12800 		add	r0, r4, #40
 498 0010 04F14C01 		add	r1, r4, #76
 499 0014 04F16C02 		add	r2, r4, #108
 500 0018 FFF7FEFF 		bl	initializeQueue
 501              	.LVL49:
 224:..\source/infrared.c ****     initializeQueue(&rear_queue, &rear_queue_items[0], &rear_queue_data[0]);
 502              		.loc 1 224 0
 503 001c 201D     		adds	r0, r4, #4
 504 001e 04F1AC01 		add	r1, r4, #172
 505 0022 04F1CC02 		add	r2, r4, #204
 506 0026 FFF7FEFF 		bl	initializeQueue
 507              	.LVL50:
 508 002a 10BD     		pop	{r4, pc}
 509              	.L37:
ARM GAS  C:\Users\Tim\AppData\Local\Temp\ccCoj1nC.s 			page 15


 510              		.align	2
 511              	.L36:
 512 002c 00000000 		.word	.LANCHOR0
 513              		.cfi_endproc
 514              	.LFE72:
 515              		.size	Infrared_Init, .-Infrared_Init
 516              		.section	.text.Infrared_Start,"ax",%progbits
 517              		.align	2
 518              		.global	Infrared_Start
 519              		.thumb
 520              		.thumb_func
 521              		.type	Infrared_Start, %function
 522              	Infrared_Start:
 523              	.LFB73:
 225:..\source/infrared.c **** }
 226:..\source/infrared.c **** 
 227:..\source/infrared.c **** void Infrared_Start()
 228:..\source/infrared.c **** {
 524              		.loc 1 228 0
 525              		.cfi_startproc
 526              		@ args = 0, pretend = 0, frame = 0
 527              		@ frame_needed = 0, uses_anonymous_args = 0
 528 0000 08B5     		push	{r3, lr}
 529              		.cfi_def_cfa_offset 8
 530              		.cfi_offset 3, -8
 531              		.cfi_offset 14, -4
 229:..\source/infrared.c ****     Front_ADC_SAR_IRQ_StartEx(Front_EOC_Interrupt);
 532              		.loc 1 229 0
 533 0002 0E48     		ldr	r0, .L40
 534 0004 FFF7FEFF 		bl	Front_ADC_SAR_IRQ_StartEx
 535              	.LVL51:
 230:..\source/infrared.c ****     Rear_ADC_SAR_IRQ_StartEx(Rear_EOC_Interrupt);
 536              		.loc 1 230 0
 537 0008 0D48     		ldr	r0, .L40+4
 538 000a FFF7FEFF 		bl	Rear_ADC_SAR_IRQ_StartEx
 539              	.LVL52:
 231:..\source/infrared.c ****     
 232:..\source/infrared.c ****     Front_EOS_Intr_StartEx(Front_EOS_Interrupt);
 540              		.loc 1 232 0
 541 000e 0D48     		ldr	r0, .L40+8
 542 0010 FFF7FEFF 		bl	Front_EOS_Intr_StartEx
 543              	.LVL53:
 233:..\source/infrared.c ****     Rear_EOS_Intr_StartEx(Rear_EOS_Interrupt);
 544              		.loc 1 233 0
 545 0014 0C48     		ldr	r0, .L40+12
 546 0016 FFF7FEFF 		bl	Rear_EOS_Intr_StartEx
 547              	.LVL54:
 234:..\source/infrared.c ****     
 235:..\source/infrared.c ****     Front_AMuxSeq_Start();
 548              		.loc 1 235 0
 549 001a FFF7FEFF 		bl	Front_AMuxSeq_Start
 550              	.LVL55:
 236:..\source/infrared.c ****     Rear_AMuxSeq_Start();
 551              		.loc 1 236 0
 552 001e FFF7FEFF 		bl	Rear_AMuxSeq_Start
 553              	.LVL56:
 237:..\source/infrared.c ****     
ARM GAS  C:\Users\Tim\AppData\Local\Temp\ccCoj1nC.s 			page 16


 238:..\source/infrared.c ****     /* Switching/connecting the Mux before starting the ADC gives additional time for settling.  Bu
 239:..\source/infrared.c ****        any difference either.
 240:..\source/infrared.c ****      */
 241:..\source/infrared.c ****     Front_AMuxSeq_Next();
 554              		.loc 1 241 0
 555 0022 FFF7FEFF 		bl	Front_AMuxSeq_Next
 556              	.LVL57:
 242:..\source/infrared.c ****     Rear_AMuxSeq_Next();
 557              		.loc 1 242 0
 558 0026 FFF7FEFF 		bl	Rear_AMuxSeq_Next
 559              	.LVL58:
 243:..\source/infrared.c ****     
 244:..\source/infrared.c ****     Front_ADC_SAR_Start();
 560              		.loc 1 244 0
 561 002a FFF7FEFF 		bl	Front_ADC_SAR_Start
 562              	.LVL59:
 245:..\source/infrared.c ****     Rear_ADC_SAR_Start();
 563              		.loc 1 245 0
 564 002e FFF7FEFF 		bl	Rear_ADC_SAR_Start
 565              	.LVL60:
 246:..\source/infrared.c ****     
 247:..\source/infrared.c ****     Front_ADC_SAR_StartConvert();
 566              		.loc 1 247 0
 567 0032 FFF7FEFF 		bl	Front_ADC_SAR_StartConvert
 568              	.LVL61:
 248:..\source/infrared.c ****     Rear_ADC_SAR_StartConvert();
 569              		.loc 1 248 0
 570 0036 FFF7FEFF 		bl	Rear_ADC_SAR_StartConvert
 571              	.LVL62:
 572 003a 08BD     		pop	{r3, pc}
 573              	.L41:
 574              		.align	2
 575              	.L40:
 576 003c 00000000 		.word	Front_EOC_Interrupt
 577 0040 00000000 		.word	Rear_EOC_Interrupt
 578 0044 00000000 		.word	Front_EOS_Interrupt
 579 0048 00000000 		.word	Rear_EOS_Interrupt
 580              		.cfi_endproc
 581              	.LFE73:
 582              		.size	Infrared_Start, .-Infrared_Start
 583              		.global	__aeabi_fcmpgt
 584              		.global	__aeabi_fcmplt
 585              		.global	__aeabi_f2d
 586              		.global	__aeabi_dmul
 587              		.global	__aeabi_d2uiz
 588              		.section	.text.Infrared_Update,"ax",%progbits
 589              		.align	2
 590              		.global	Infrared_Update
 591              		.thumb
 592              		.thumb_func
 593              		.type	Infrared_Update, %function
 594              	Infrared_Update:
 595              	.LFB74:
 249:..\source/infrared.c **** }
 250:..\source/infrared.c **** 
 251:..\source/infrared.c **** void Infrared_Update()
 252:..\source/infrared.c **** {
ARM GAS  C:\Users\Tim\AppData\Local\Temp\ccCoj1nC.s 			page 17


 596              		.loc 1 252 0
 597              		.cfi_startproc
 598              		@ args = 0, pretend = 0, frame = 8
 599              		@ frame_needed = 0, uses_anonymous_args = 0
 600 0000 70B5     		push	{r4, r5, r6, lr}
 601              		.cfi_def_cfa_offset 16
 602              		.cfi_offset 4, -16
 603              		.cfi_offset 5, -12
 604              		.cfi_offset 6, -8
 605              		.cfi_offset 14, -4
 606 0002 82B0     		sub	sp, sp, #8
 607              		.cfi_def_cfa_offset 24
 253:..\source/infrared.c ****     int index;
 254:..\source/infrared.c ****     while (getItem(&front_queue, &index))
 608              		.loc 1 254 0
 609 0004 3AE0     		b	.L43
 610              	.L50:
 611              	.LBB3:
 255:..\source/infrared.c ****     {
 256:..\source/infrared.c ****         float voltage = front_queue.p_data[index].voltage;
 612              		.loc 1 256 0
 613 0006 4A4B     		ldr	r3, .L74+32
 614 0008 DB6B     		ldr	r3, [r3, #60]
 615 000a 019A     		ldr	r2, [sp, #4]
 616 000c 03EBC201 		add	r1, r3, r2, lsl #3
 617 0010 4C68     		ldr	r4, [r1, #4]	@ float
 618              	.LVL63:
 257:..\source/infrared.c ****         uint8 channel = front_queue.p_data[index].channel;
 619              		.loc 1 257 0
 620 0012 13F83260 		ldrb	r6, [r3, r2, lsl #3]	@ zero_extendqisi2
 621              	.LVL64:
 258:..\source/infrared.c ****         uint8 distance = CALCULATE_DISTANCE(constrain(voltage, ADC_MIN_VALUE, ADC_MAX_VALUE));
 622              		.loc 1 258 0
 623 0016 2046     		mov	r0, r4
 624 0018 4649     		ldr	r1, .L74+36
 625 001a FFF7FEFF 		bl	__aeabi_fcmpgt
 626              	.LVL65:
 627 001e 50B1     		cbz	r0, .L69
 628              		.loc 1 258 0 is_stmt 0 discriminator 1
 629 0020 4FF00105 		mov	r5, #1
 630 0024 2046     		mov	r0, r4
 631 0026 4449     		ldr	r1, .L74+40
 632 0028 FFF7FEFF 		bl	__aeabi_fcmplt
 633              	.LVL66:
 634 002c 08B9     		cbnz	r0, .L46
 635 002e 4FF00005 		mov	r5, #0
 636              	.L46:
 637 0032 EBB2     		uxtb	r3, r5
 638 0034 00E0     		b	.L44
 639              	.L69:
 640              		.loc 1 258 0
 641 0036 0123     		movs	r3, #1
 642              	.L44:
 643              		.loc 1 258 0 discriminator 4
 644 0038 63B1     		cbz	r3, .L60
 645              		.loc 1 258 0 discriminator 5
 646 003a 2046     		mov	r0, r4
ARM GAS  C:\Users\Tim\AppData\Local\Temp\ccCoj1nC.s 			page 18


 647 003c 3D49     		ldr	r1, .L74+36
 648 003e FFF7FEFF 		bl	__aeabi_fcmpgt
 649              	.LVL67:
 650 0042 18B1     		cbz	r0, .L70
 651              		.loc 1 258 0 discriminator 7
 652 0044 2046     		mov	r0, r4
 653 0046 FFF7FEFF 		bl	__aeabi_f2d
 654              	.LVL68:
 655 004a 06E0     		b	.L47
 656              	.L70:
 657              		.loc 1 258 0
 658 004c 30A1     		adr	r1, .L74
 659 004e D1E90001 		ldrd	r0, [r1]
 660 0052 02E0     		b	.L47
 661              	.L60:
 662 0054 30A1     		adr	r1, .L74+8
 663 0056 D1E90001 		ldrd	r0, [r1]
 664              	.L47:
 665              		.loc 1 258 0 discriminator 12
 666 005a 31A3     		adr	r3, .L74+16
 667 005c D3E90023 		ldrd	r2, [r3]
 668 0060 FFF7FEFF 		bl	pow
 669              	.LVL69:
 670 0064 30A3     		adr	r3, .L74+24
 671 0066 D3E90023 		ldrd	r2, [r3]
 672 006a FFF7FEFF 		bl	__aeabi_dmul
 673              	.LVL70:
 674 006e FFF7FEFF 		bl	__aeabi_d2uiz
 675              	.LVL71:
 676 0072 C1B2     		uxtb	r1, r0
 677              	.LVL72:
 259:..\source/infrared.c ****         front_queue.Report(channel, distance);
 678              		.loc 1 259 0 is_stmt 1 discriminator 12
 679 0074 2E4B     		ldr	r3, .L74+32
 680 0076 9B6C     		ldr	r3, [r3, #72]
 681 0078 3046     		mov	r0, r6
 682 007a 9847     		blx	r3
 683              	.LVL73:
 684              	.L43:
 685              	.LBE3:
 254:..\source/infrared.c ****     {
 686              		.loc 1 254 0
 687 007c 2F48     		ldr	r0, .L74+44
 688 007e 01A9     		add	r1, sp, #4
 689 0080 FFF7FEFF 		bl	getItem
 690              	.LVL74:
 691 0084 0028     		cmp	r0, #0
 692 0086 BED1     		bne	.L50
 693 0088 3AE0     		b	.L51
 694              	.L58:
 695              	.LBB4:
 260:..\source/infrared.c ****     }
 261:..\source/infrared.c ****     
 262:..\source/infrared.c ****     while (getItem(&rear_queue, &index))
 263:..\source/infrared.c ****     {
 264:..\source/infrared.c ****         float voltage = rear_queue_data[index].voltage;
 696              		.loc 1 264 0
ARM GAS  C:\Users\Tim\AppData\Local\Temp\ccCoj1nC.s 			page 19


 697 008a 294B     		ldr	r3, .L74+32
 698 008c 019A     		ldr	r2, [sp, #4]
 699 008e 03EBC203 		add	r3, r3, r2, lsl #3
 700 0092 D3F8D040 		ldr	r4, [r3, #208]	@ float
 701              	.LVL75:
 265:..\source/infrared.c ****         uint8 channel = rear_queue_data[index].channel;
 702              		.loc 1 265 0
 703 0096 93F8CC60 		ldrb	r6, [r3, #204]	@ zero_extendqisi2
 704              	.LVL76:
 266:..\source/infrared.c ****         uint8 distance = CALCULATE_DISTANCE(constrain(voltage, ADC_MIN_VALUE, ADC_MAX_VALUE));
 705              		.loc 1 266 0
 706 009a 2046     		mov	r0, r4
 707 009c 2549     		ldr	r1, .L74+36
 708 009e FFF7FEFF 		bl	__aeabi_fcmpgt
 709              	.LVL77:
 710 00a2 50B1     		cbz	r0, .L71
 711              		.loc 1 266 0 is_stmt 0 discriminator 1
 712 00a4 4FF00105 		mov	r5, #1
 713 00a8 2046     		mov	r0, r4
 714 00aa 2349     		ldr	r1, .L74+40
 715 00ac FFF7FEFF 		bl	__aeabi_fcmplt
 716              	.LVL78:
 717 00b0 08B9     		cbnz	r0, .L54
 718 00b2 4FF00005 		mov	r5, #0
 719              	.L54:
 720 00b6 EBB2     		uxtb	r3, r5
 721 00b8 00E0     		b	.L52
 722              	.L71:
 723              		.loc 1 266 0
 724 00ba 0123     		movs	r3, #1
 725              	.L52:
 726              		.loc 1 266 0 discriminator 4
 727 00bc 63B1     		cbz	r3, .L63
 728              		.loc 1 266 0 discriminator 5
 729 00be 2046     		mov	r0, r4
 730 00c0 1C49     		ldr	r1, .L74+36
 731 00c2 FFF7FEFF 		bl	__aeabi_fcmpgt
 732              	.LVL79:
 733 00c6 18B1     		cbz	r0, .L72
 734              		.loc 1 266 0 discriminator 7
 735 00c8 2046     		mov	r0, r4
 736 00ca FFF7FEFF 		bl	__aeabi_f2d
 737              	.LVL80:
 738 00ce 06E0     		b	.L55
 739              	.L72:
 740              		.loc 1 266 0
 741 00d0 0FA1     		adr	r1, .L74
 742 00d2 D1E90001 		ldrd	r0, [r1]
 743 00d6 02E0     		b	.L55
 744              	.L63:
 745 00d8 0FA1     		adr	r1, .L74+8
 746 00da D1E90001 		ldrd	r0, [r1]
 747              	.L55:
 748              		.loc 1 266 0 discriminator 12
 749 00de 10A3     		adr	r3, .L74+16
 750 00e0 D3E90023 		ldrd	r2, [r3]
 751 00e4 FFF7FEFF 		bl	pow
ARM GAS  C:\Users\Tim\AppData\Local\Temp\ccCoj1nC.s 			page 20


 752              	.LVL81:
 753 00e8 0FA3     		adr	r3, .L74+24
 754 00ea D3E90023 		ldrd	r2, [r3]
 755 00ee FFF7FEFF 		bl	__aeabi_dmul
 756              	.LVL82:
 757 00f2 FFF7FEFF 		bl	__aeabi_d2uiz
 758              	.LVL83:
 759 00f6 C1B2     		uxtb	r1, r0
 760              	.LVL84:
 267:..\source/infrared.c ****         rear_queue.Report(channel, distance);
 761              		.loc 1 267 0 is_stmt 1 discriminator 12
 762 00f8 0D4B     		ldr	r3, .L74+32
 763 00fa 5B6A     		ldr	r3, [r3, #36]
 764 00fc 3046     		mov	r0, r6
 765 00fe 9847     		blx	r3
 766              	.LVL85:
 767              	.L51:
 768              	.LBE4:
 262:..\source/infrared.c ****     {
 769              		.loc 1 262 0
 770 0100 0F48     		ldr	r0, .L74+48
 771 0102 01A9     		add	r1, sp, #4
 772 0104 FFF7FEFF 		bl	getItem
 773              	.LVL86:
 774 0108 0028     		cmp	r0, #0
 775 010a BED1     		bne	.L58
 268:..\source/infrared.c ****     }
 269:..\source/infrared.c **** }
 776              		.loc 1 269 0
 777 010c 02B0     		add	sp, sp, #8
 778              		.cfi_def_cfa_offset 16
 779              		@ sp needed
 780 010e 70BD     		pop	{r4, r5, r6, pc}
 781              	.L75:
 782              		.align	3
 783              	.L74:
 784 0110 00000000 		.word	0
 785 0114 00707440 		.word	1081372672
 786 0118 00000000 		.word	0
 787 011c 002C9F40 		.word	1084173312
 788 0120 66666666 		.word	1717986918
 789 0124 6666F2BF 		.word	-1074633114
 790 0128 5C8FC2F5 		.word	-171798692
 791 012c 28DC3B40 		.word	1077664808
 792 0130 00000000 		.word	.LANCHOR0
 793 0134 0080A343 		.word	1134788608
 794 0138 0060F944 		.word	1157193728
 795 013c 28000000 		.word	.LANCHOR0+40
 796 0140 04000000 		.word	.LANCHOR0+4
 797              		.cfi_endproc
 798              	.LFE74:
 799              		.size	Infrared_Update, .-Infrared_Update
 800 0144 AFF30080 		.section	.text.Infrared_Test,"ax",%progbits
 801              		.align	2
 802              		.global	Infrared_Test
 803              		.thumb
 804              		.thumb_func
ARM GAS  C:\Users\Tim\AppData\Local\Temp\ccCoj1nC.s 			page 21


 805              		.type	Infrared_Test, %function
 806              	Infrared_Test:
 807              	.LFB75:
 270:..\source/infrared.c **** 
 271:..\source/infrared.c **** void Infrared_Test()
 272:..\source/infrared.c **** {
 808              		.loc 1 272 0
 809              		.cfi_startproc
 810              		@ args = 0, pretend = 0, frame = 0
 811              		@ frame_needed = 0, uses_anonymous_args = 0
 812              		@ link register save eliminated.
 813 0000 7047     		bx	lr
 814              		.cfi_endproc
 815              	.LFE75:
 816              		.size	Infrared_Test, .-Infrared_Test
 817              		.comm	formatted_string,256,4
 818              		.comm	debug_control_enabled,2,2
 819 0002 00BF     		.section	.rodata.str1.4,"aMS",%progbits,1
 820              		.align	2
 821              	.LC0:
 822 0000 456C656D 		.ascii	"Element #%d = %d\012\000"
 822      656E7420 
 822      23256420 
 822      3D202564 
 822      0A00
 823 0012 0000     		.bss
 824              		.align	2
 825              		.set	.LANCHOR0,. + 0
 826              		.type	rear_adc_last_channel, %object
 827              		.size	rear_adc_last_channel, 1
 828              	rear_adc_last_channel:
 829 0000 00       		.space	1
 830              		.type	front_adc_last_channel, %object
 831              		.size	front_adc_last_channel, 1
 832              	front_adc_last_channel:
 833 0001 00       		.space	1
 834 0002 0000     		.space	2
 835              		.type	rear_queue, %object
 836              		.size	rear_queue, 36
 837              	rear_queue:
 838 0004 00000000 		.space	36
 838      00000000 
 838      00000000 
 838      00000000 
 838      00000000 
 839              		.type	front_queue, %object
 840              		.size	front_queue, 36
 841              	front_queue:
 842 0028 00000000 		.space	36
 842      00000000 
 842      00000000 
 842      00000000 
 842      00000000 
 843              		.type	front_queue_items, %object
 844              		.size	front_queue_items, 32
 845              	front_queue_items:
 846 004c 00000000 		.space	32
ARM GAS  C:\Users\Tim\AppData\Local\Temp\ccCoj1nC.s 			page 22


 846      00000000 
 846      00000000 
 846      00000000 
 846      00000000 
 847              		.type	front_queue_data, %object
 848              		.size	front_queue_data, 64
 849              	front_queue_data:
 850 006c 00000000 		.space	64
 850      00000000 
 850      00000000 
 850      00000000 
 850      00000000 
 851              		.type	rear_queue_items, %object
 852              		.size	rear_queue_items, 32
 853              	rear_queue_items:
 854 00ac 00000000 		.space	32
 854      00000000 
 854      00000000 
 854      00000000 
 854      00000000 
 855              		.type	rear_queue_data, %object
 856              		.size	rear_queue_data, 64
 857              	rear_queue_data:
 858 00cc 00000000 		.space	64
 858      00000000 
 858      00000000 
 858      00000000 
 858      00000000 
 859              		.text
 860              	.Letext0:
 861              		.file 2 "c:\\program files (x86)\\cypress\\psoc creator\\3.3\\psoc creator\\import\\gnu\\arm\\4.9.
 862              		.file 3 "c:\\program files (x86)\\cypress\\psoc creator\\3.3\\psoc creator\\import\\gnu\\arm\\4.9.
 863              		.file 4 "c:\\program files (x86)\\cypress\\psoc creator\\3.3\\psoc creator\\import\\gnu\\arm\\4.9.
 864              		.file 5 "Generated_Source\\PSoC5/cytypes.h"
 865              		.file 6 "Generated_Source\\PSoC5/core_cm3.h"
 866              		.file 7 "..\\source\\debug.h"
 867              		.file 8 "Generated_Source\\PSoC5/Rear_EOS_Intr.h"
 868              		.file 9 "Generated_Source\\PSoC5/cyfitter_cfg.h"
 869              		.file 10 "Generated_Source\\PSoC5/Rear_ADC_SAR.h"
 870              		.file 11 "Generated_Source\\PSoC5/Front_EOS_Intr.h"
 871              		.file 12 "Generated_Source\\PSoC5/Rear_AMuxSeq.h"
 872              		.file 13 "Generated_Source\\PSoC5/Front_AMuxSeq.h"
 873              		.file 14 "Generated_Source\\PSoC5/Front_ADC_SAR.h"
 874              		.file 15 "Generated_Source\\PSoC5/Rear_ADC_SAR_IRQ.h"
 875              		.file 16 "Generated_Source\\PSoC5/Front_ADC_SAR_IRQ.h"
 876              		.file 17 "c:\\program files (x86)\\cypress\\psoc creator\\3.3\\psoc creator\\import\\gnu\\arm\\4.9
 877              		.file 18 "..\\source\\serial.h"
 878              		.file 19 "c:\\program files (x86)\\cypress\\psoc creator\\3.3\\psoc creator\\import\\gnu\\arm\\4.9