ARM GAS  C:\Users\Tim\AppData\Local\Temp\ccrO72Ik.s 			page 1


   1              		.syntax unified
   2              		.cpu cortex-m3
   3              		.fpu softvfp
   4              		.eabi_attribute 20, 1
   5              		.eabi_attribute 21, 1
   6              		.eabi_attribute 23, 3
   7              		.eabi_attribute 24, 1
   8              		.eabi_attribute 25, 1
   9              		.eabi_attribute 26, 1
  10              		.eabi_attribute 30, 1
  11              		.eabi_attribute 34, 1
  12              		.eabi_attribute 18, 4
  13              		.thumb
  14              		.file	"motor.c"
  15              		.text
  16              	.Ltext0:
  17              		.cfi_sections	.debug_frame
  18              		.section	.text.Interpolate,"ax",%progbits
  19              		.align	2
  20              		.thumb
  21              		.thumb_func
  22              		.type	Interpolate, %function
  23              	Interpolate:
  24              	.LFB64:
  25              		.file 1 "..\\source\\motor.c"
   1:..\source/motor.c **** /* ========================================
   2:..\source/motor.c ****  *
   3:..\source/motor.c ****  * Copyright YOUR COMPANY, THE YEAR
   4:..\source/motor.c ****  * All Rights Reserved
   5:..\source/motor.c ****  * UNPUBLISHED, LICENSED SOFTWARE.
   6:..\source/motor.c ****  *
   7:..\source/motor.c ****  * CONFIDENTIAL AND PROPRIETARY INFORMATION
   8:..\source/motor.c ****  * WHICH IS THE PROPERTY OF your company.
   9:..\source/motor.c ****  *
  10:..\source/motor.c ****  * ========================================
  11:..\source/motor.c **** */
  12:..\source/motor.c **** 
  13:..\source/motor.c **** #include <stdio.h>
  14:..\source/motor.c **** #include "motor.h"
  15:..\source/motor.c **** #include "config.h"
  16:..\source/motor.c **** #include "utils.h"
  17:..\source/motor.c **** #include "encoder.h"
  18:..\source/motor.c **** #include "time.h"
  19:..\source/motor.c **** #include <math.h>
  20:..\source/motor.c **** #include "utils.h"
  21:..\source/motor.c **** #include "pwm.h"
  22:..\source/motor.c **** #include "cal.h"
  23:..\source/motor.c **** #include "debug.h"
  24:..\source/motor.c **** 
  25:..\source/motor.c **** #ifdef MOTOR_DUMP_ENABLED
  26:..\source/motor.c **** #define MOTOR_DUMP(motor)   DumpMotor(motor)
  27:..\source/motor.c **** #else    
  28:..\source/motor.c **** #define MOTOR_DUMP(motor)
  29:..\source/motor.c **** #endif
  30:..\source/motor.c **** 
  31:..\source/motor.c **** #define CAL_DATA_SIZE (CAL_NUM_SAMPLES)
  32:..\source/motor.c **** 
ARM GAS  C:\Users\Tim\AppData\Local\Temp\ccrO72Ik.s 			page 2


  33:..\source/motor.c **** /* Add a link to the HB25 data sheet
  34:..\source/motor.c ****    Ref: https://www.parallax.com/sites/default/files/downloads/HB-25-Motor-Controller-Guide-v1.3.pd
  35:..\source/motor.c ****  */
  36:..\source/motor.c **** 
  37:..\source/motor.c **** #define HB25_ENABLE     (0)
  38:..\source/motor.c **** #define HB25_DISABLE    (1)
  39:..\source/motor.c **** 
  40:..\source/motor.c **** 
  41:..\source/motor.c **** typedef struct _CAL_DATA_TYPE
  42:..\source/motor.c **** {
  43:..\source/motor.c ****     int32 cps_data[CAL_DATA_SIZE];
  44:..\source/motor.c ****     int32 cps_min;
  45:..\source/motor.c ****     int32 cps_max;
  46:..\source/motor.c ****     int   cps_scale;
  47:..\source/motor.c ****     uint16 pwm_data[CAL_DATA_SIZE];
  48:..\source/motor.c **** } CAL_DATA_TYPE;
  49:..\source/motor.c **** 
  50:..\source/motor.c **** typedef void (*HB25_ENABLE_TYPE)(uint8);
  51:..\source/motor.c **** typedef void (*START_PWM_TYPE)();
  52:..\source/motor.c **** //typedef void (*SET_PWM_TYPE)(uint32);
  53:..\source/motor.c **** typedef void (*SET_PWM_TYPE)(uint16);
  54:..\source/motor.c **** typedef void (*STOP_PWM_TYPE)();
  55:..\source/motor.c **** 
  56:..\source/motor.c **** typedef struct _motor_tag
  57:..\source/motor.c **** {
  58:..\source/motor.c ****     uint16 pwm;
  59:..\source/motor.c ****     float cps;
  60:..\source/motor.c ****     CAL_DATA_TYPE fwd_cal_data;
  61:..\source/motor.c ****     CAL_DATA_TYPE bwd_cal_data;
  62:..\source/motor.c ****     HB25_ENABLE_TYPE enable;
  63:..\source/motor.c ****     START_PWM_TYPE   start;
  64:..\source/motor.c ****     STOP_PWM_TYPE    stop;
  65:..\source/motor.c ****     SET_PWM_TYPE     set_pwm;
  66:..\source/motor.c **** } MOTOR_TYPE;
  67:..\source/motor.c **** 
  68:..\source/motor.c **** /*
  69:..\source/motor.c **** Left
  70:..\source/motor.c **** 
  71:..\source/motor.c **** Forward CPS
  72:..\source/motor.c **** 0,0,0,95,605,1270,1922,2580,3251,3917,4504,
  73:..\source/motor.c **** 5040,5629,6395,7064,7591,8220,8890,9404,10080,10736,
  74:..\source/motor.c **** 11326,11969,12539,13161,13767,14377,14961,15590,16126,16711,
  75:..\source/motor.c **** 17317,17854,18400,18915,19465,19998,20534,21071,21623,22157,
  76:..\source/motor.c **** 22660,23174,23684,24175,24667,25173,26212,27496,27940,28006
  77:..\source/motor.c **** Forward PWM
  78:..\source/motor.c **** 1500,1510,1520,1530,1540,1550,1560,1570,1580,1590,1600,
  79:..\source/motor.c **** 1610,1620,1630,1640,1650,1660,1670,1680,1690,1700,
  80:..\source/motor.c **** 1710,1720,1730,1740,1750,1760,1770,1780,1790,1800,
  81:..\source/motor.c **** 1810,1820,1830,1840,1850,1860,1870,1880,1890,1900,
  82:..\source/motor.c **** 1910,1920,1930,1940,1950,1960,1970,1980,1990,2000
  83:..\source/motor.c **** 
  84:..\source/motor.c **** Backward CPS
  85:..\source/motor.c **** -28447,-28021,-26732,-25679,-25219,-24723,-24232,-23750,-23327,-22774,-22266,
  86:..\source/motor.c **** -21779,-21238,-20692,-20130,-19573,-19003,-18434,-17850,-17264,-16676,
  87:..\source/motor.c **** -16057,-15457,-14850,-14243,-13631,-12968,-12352,-11705,-11079,-10446,
  88:..\source/motor.c **** -9808,-9189,-8516,-7862,-7279,-6610,-5966,-5317,-4671,-4036,
  89:..\source/motor.c **** -3417,-2779,-2161,-1558,-893,-236,0,0,0,0
ARM GAS  C:\Users\Tim\AppData\Local\Temp\ccrO72Ik.s 			page 3


  90:..\source/motor.c **** Backward PWM
  91:..\source/motor.c **** 1000,1010,1020,1030,1040,1050,1060,1070,1080,1090,1100,
  92:..\source/motor.c **** 1110,1120,1130,1140,1150,1160,1170,1180,1190,1200,
  93:..\source/motor.c **** 1210,1220,1230,1240,1250,1260,1270,1280,1290,1300,
  94:..\source/motor.c **** 1310,1320,1330,1340,1350,1360,1370,1380,1390,1400,
  95:..\source/motor.c **** 1410,1420,1430,1440,1450,1460,1470,1480,1490,1500
  96:..\source/motor.c **** */
  97:..\source/motor.c **** static MOTOR_TYPE left_motor = {
  98:..\source/motor.c ****     LEFT_PWM_STOP,
  99:..\source/motor.c ****     0,
 100:..\source/motor.c ****     {
 101:..\source/motor.c ****         { /*  1     2     3     4     5     6      7    8     9     10  */
 102:..\source/motor.c ****                 0,    0,    0,   95,  605, 1270, 1922, 2580, 3251, 3917,
 103:..\source/motor.c ****              4504, 5040, 5629, 6395, 7064, 7591, 8220, 8890, 9404,10080,
 104:..\source/motor.c ****             10736,11326,11969,12539,13161,13767,14377,14961,15590,16126,
 105:..\source/motor.c ****             16711,17317,17854,18400,18915,19465,19998,20534,21071,21623,
 106:..\source/motor.c ****             22157,22660,23174,23684,24175,24667,25173,26212,27496,27940,
 107:..\source/motor.c ****             28006
 108:..\source/motor.c ****         },
 109:..\source/motor.c ****         0,
 110:..\source/motor.c ****         28006,
 111:..\source/motor.c ****         CAL_SCALE_FACTOR,
 112:..\source/motor.c ****         {1500, 1510, 1520, 1530, 1540, 1550, 1560, 1570, 1580, 1590, 
 113:..\source/motor.c ****          1600, 1610, 1620, 1630, 1640, 1650, 1660, 1670, 1680, 1690, 
 114:..\source/motor.c ****          1700, 1710, 1720, 1730, 1740, 1750, 1760, 1770, 1780, 1790,  
 115:..\source/motor.c ****          1800, 1810, 1820, 1830, 1840, 1850, 1860, 1870, 1880, 1890, 
 116:..\source/motor.c ****          1900, 1910, 1920, 1930, 1940, 1950, 1960, 1970, 1980, 1990, 2000}
 117:..\source/motor.c ****     },
 118:..\source/motor.c ****     {
 119:..\source/motor.c ****         { /*   1      2      3      4      5      6      7      8      9     10  */
 120:..\source/motor.c ****             -28447,-28021,-26732,-25679,-25219,-24723,-24232,-23750,-23327,-22774,
 121:..\source/motor.c ****             -22266,-21779,-21238,-20692,-20130,-19573,-19003,-18434,-17850,-17264,
 122:..\source/motor.c ****             -16676,-16057,-15457,-14850,-14243,-13631,-12968,-12352,-11705,-11079,
 123:..\source/motor.c ****             -10446, -9808, -9189, -8516, -7862, -7279, -6610, -5966, -5317, -4671,
 124:..\source/motor.c ****              -4036, -3417, -2779, -2161, -1558,  -893,  -236,     0,     0,     0,
 125:..\source/motor.c ****             0
 126:..\source/motor.c ****         },
 127:..\source/motor.c ****         -28447,
 128:..\source/motor.c ****         0,
 129:..\source/motor.c ****         CAL_SCALE_FACTOR,
 130:..\source/motor.c ****         {1000,1010,1020,1030,1040,1050,1060,1070,1080,1090,
 131:..\source/motor.c ****          1100,1110,1120,1130,1140,1150,1160,1170,1180,1190,
 132:..\source/motor.c ****          1200,1210,1220,1230,1240,1250,1260,1270,1280,1290,
 133:..\source/motor.c ****          1300,1310,1320,1330,1340,1350,1360,1370,1380,1390,
 134:..\source/motor.c ****          1400,1410,1420,1430,1440,1450,1460,1470,1480,1490,1500}
 135:..\source/motor.c ****     },
 136:..\source/motor.c ****     Left_HB25_Enable_Pin_Write,
 137:..\source/motor.c ****     Left_HB25_PWM_Start,
 138:..\source/motor.c ****     Left_HB25_PWM_Stop,
 139:..\source/motor.c ****     Left_HB25_PWM_WriteCompare
 140:..\source/motor.c **** };
 141:..\source/motor.c **** 
 142:..\source/motor.c **** /*
 143:..\source/motor.c **** Right
 144:..\source/motor.c **** 
 145:..\source/motor.c **** Forward CPS
 146:..\source/motor.c **** 0,0,0,0,0,132,679,1344,1990,2558,3107,
ARM GAS  C:\Users\Tim\AppData\Local\Temp\ccrO72Ik.s 			page 4


 147:..\source/motor.c **** 3663,4263,4926,5625,6195,6708,7346,8051,8567,9202,
 148:..\source/motor.c **** 9828,10375,11009,11539,12171,12715,13365,13903,14546,15075,
 149:..\source/motor.c **** 15691,16247,16783,17358,17884,18379,18873,19401,19936,20404,
 150:..\source/motor.c **** 20881,21362,21848,22327,22795,23270,23744,24264,25274,26523
 151:..\source/motor.c **** 
 152:..\source/motor.c **** Forward PWM
 153:..\source/motor.c **** 1500,1490,1480,1470,1460,1450,1440,1430,1420,1410,1400,
 154:..\source/motor.c **** 1390,1380,1370,1360,1350,1340,1330,1320,1310,1300,
 155:..\source/motor.c **** 1290,1280,1270,1260,1250,1240,1230,1220,1210,1200,
 156:..\source/motor.c **** 1190,1180,1170,1160,1150,1140,1130,1120,1110,1100,
 157:..\source/motor.c **** 1090,1080,1070,1060,1050,1040,1030,1020,1010,1000
 158:..\source/motor.c **** 
 159:..\source/motor.c **** Backward CPS
 160:..\source/motor.c **** -27555,-27538,-27503,-27368,-26971,-25685,-24599,-24093,-23610,-23161,-22669,
 161:..\source/motor.c **** -22213,-21733,-21267,-20755,-20240,-19714,-19212,-18693,-18131,-17532,
 162:..\source/motor.c **** -16966,-16408,-15839,-15274,-14694,-14105,-13469,-12874,-12271,-11665,
 163:..\source/motor.c **** -11039,-10445,-9817,-9231,-8592,-7984,-7384,-6771,-6106,-5472,
 164:..\source/motor.c **** -4875,-4233,-3585,-2977,-2337,-1691,-1025,-333,-27,0
 165:..\source/motor.c **** 
 166:..\source/motor.c **** Backward PWM
 167:..\source/motor.c **** 2000,1990,1980,1970,1960,1950,1940,1930,1920,1910,1900,
 168:..\source/motor.c **** 1890,1880,1870,1860,1850,1840,1830,1820,1810,1800,
 169:..\source/motor.c **** 1790,1780,1770,1760,1750,1740,1730,1720,1710,1700,
 170:..\source/motor.c **** 1690,1680,1670,1660,1650,1640,1630,1620,1610,1600,
 171:..\source/motor.c **** 1590,1580,1570,1560,1550,1540,1530,1520,1510,1500
 172:..\source/motor.c **** */
 173:..\source/motor.c **** 
 174:..\source/motor.c **** static MOTOR_TYPE right_motor = {
 175:..\source/motor.c ****     RIGHT_PWM_STOP,
 176:..\source/motor.c ****     0,
 177:..\source/motor.c ****     {
 178:..\source/motor.c ****         { /*  1     2     3     4     5     6     7     8     9     10  */
 179:..\source/motor.c ****                 0,    0,    0,    0,    0,  132,  679, 1344, 1990, 2558,
 180:..\source/motor.c ****              3107, 3663, 4263, 4926, 5625, 6195, 6708, 7346, 8051, 8567,
 181:..\source/motor.c ****             9202,  9828,10375,11009,11539,12171,12715,13365,13903,14546,
 182:..\source/motor.c ****             15075,15691,16247,16783,17358,17884,18379,18873,19401,19936,
 183:..\source/motor.c ****             20404,20881,21362,21848,22327,22795,23270,23744,24264,25274,
 184:..\source/motor.c ****             26523
 185:..\source/motor.c ****         },
 186:..\source/motor.c ****         0,
 187:..\source/motor.c ****         26523,
 188:..\source/motor.c ****         CAL_SCALE_FACTOR,
 189:..\source/motor.c ****         {            
 190:..\source/motor.c ****             1500,1490,1480,1470,1460,1450,1440,1430,1420,1410,
 191:..\source/motor.c ****             1400,1390,1380,1370,1360,1350,1340,1330,1320,1310,
 192:..\source/motor.c ****             1300,1290,1280,1270,1260,1250,1240,1230,1220,1210,
 193:..\source/motor.c ****             1200,1190,1180,1170,1160,1150,1140,1130,1120,1110,
 194:..\source/motor.c ****             1100,1090,1080,1070,1060,1050,1040,1030,1020,1010,
 195:..\source/motor.c ****             1000    
 196:..\source/motor.c ****         }
 197:..\source/motor.c ****     },
 198:..\source/motor.c ****     {
 199:..\source/motor.c ****         { /*   1      2      3      4      5      6      7      8      9     10  */
 200:..\source/motor.c ****             -27555,-27538,-27503,-27368,-26971,-25685,-24599,-24093,-23610,-23161,
 201:..\source/motor.c ****             -22669,-22213,-21733,-21267,-20755,-20240,-19714,-19212,-18693,-18131,
 202:..\source/motor.c ****             -17532,-16966,-16408,-15839,-15274,-14694,-14105,-13469,-12874,-12271,
 203:..\source/motor.c ****             -11665,-11039,-10445, -9817, -9231, -8592, -7984, -7384, -6771, -6106,
ARM GAS  C:\Users\Tim\AppData\Local\Temp\ccrO72Ik.s 			page 5


 204:..\source/motor.c ****              -5472, -4875, -4233, -3585, -2977, -2337, -1691, -1025,  -333,   -27,
 205:..\source/motor.c ****             0
 206:..\source/motor.c ****         },
 207:..\source/motor.c ****         -27555,
 208:..\source/motor.c ****         0,
 209:..\source/motor.c ****         CAL_SCALE_FACTOR,
 210:..\source/motor.c ****         {
 211:..\source/motor.c ****             2000,1990,1980,1970,1960,1950,1940,1930,1920,1910,
 212:..\source/motor.c ****             1900,1890,1880,1870,1860,1850,1840,1830,1820,1810,
 213:..\source/motor.c ****             1800,1790,1780,1770,1760,1750,1740,1730,1720,1710,
 214:..\source/motor.c ****             1700,1690,1680,1670,1660,1650,1640,1630,1620,1610,
 215:..\source/motor.c ****             1600,1590,1580,1570,1560,1550,1540,1530,1520,1510,
 216:..\source/motor.c ****             1500
 217:..\source/motor.c ****         }
 218:..\source/motor.c ****     },
 219:..\source/motor.c ****     Right_HB25_Enable_Pin_Write,
 220:..\source/motor.c ****     Right_HB25_PWM_Start,
 221:..\source/motor.c ****     Right_HB25_PWM_Stop,
 222:..\source/motor.c ****     Right_HB25_PWM_WriteCompare
 223:..\source/motor.c **** };
 224:..\source/motor.c **** 
 225:..\source/motor.c **** #ifdef MOTOR_DUMP_ENABLED
 226:..\source/motor.c **** static void DumpMotor(MOTOR_TYPE *motor)
 227:..\source/motor.c **** {
 228:..\source/motor.c ****     char cps_str[10];
 229:..\source/motor.c ****     //char buf[100];
 230:..\source/motor.c ****     
 231:..\source/motor.c ****     ftoa(motor->cps, cps_str, 3);
 232:..\source/motor.c ****     
 233:..\source/motor.c ****     DEBUG_PRINT("%s %d \r\n", cps_str, motor->pwm);
 234:..\source/motor.c **** }
 235:..\source/motor.c **** #endif
 236:..\source/motor.c **** 
 237:..\source/motor.c **** static int16 Interpolate(int16 tgt_cps, int16 cps1, int16 cps2, uint16 pwm1, uint16 pwm2)
 238:..\source/motor.c **** {
  26              		.loc 1 238 0
  27              		.cfi_startproc
  28              		@ args = 4, pretend = 0, frame = 0
  29              		@ frame_needed = 0, uses_anonymous_args = 0
  30              		@ link register save eliminated.
  31              	.LVL0:
  32 0000 30B4     		push	{r4, r5}
  33              		.cfi_def_cfa_offset 8
  34              		.cfi_offset 4, -8
  35              		.cfi_offset 5, -4
  36 0002 BDF80840 		ldrh	r4, [sp, #8]
 239:..\source/motor.c ****     /* Y = ( ( X - X1 )( Y2 - Y1) / ( X2 - X1) ) + Y1
 240:..\source/motor.c **** 
 241:..\source/motor.c ****         tgt_cps => X
 242:..\source/motor.c ****            cps1 => X1
 243:..\source/motor.c ****            cps2 => X2
 244:..\source/motor.c ****            pwm1 => Y1
 245:..\source/motor.c ****            pwm2 => Y2
 246:..\source/motor.c ****         tgt_pwm => Y    
 247:..\source/motor.c ****     
 248:..\source/motor.c ****  */
 249:..\source/motor.c **** 
ARM GAS  C:\Users\Tim\AppData\Local\Temp\ccrO72Ik.s 			page 6


 250:..\source/motor.c ****     /* We are not guaranteed to not have duplicates in the array.
 251:..\source/motor.c ****        Handle the cases where the values may be equal so we don't divide by zero and so we return a
 252:..\source/motor.c ****      */
 253:..\source/motor.c ****     if (cps1 == cps2)
  37              		.loc 1 253 0
  38 0006 9142     		cmp	r1, r2
  39 0008 0AD1     		bne	.L2
 254:..\source/motor.c ****     {
 255:..\source/motor.c ****         if (pwm2 == pwm1)
  40              		.loc 1 255 0
  41 000a 9C42     		cmp	r4, r3
  42 000c 01D1     		bne	.L3
 256:..\source/motor.c ****         {
 257:..\source/motor.c ****             return pwm1;
  43              		.loc 1 257 0
  44 000e 98B2     		uxth	r0, r3
  45              	.LVL1:
  46 0010 11E0     		b	.L4
  47              	.LVL2:
  48              	.L3:
 258:..\source/motor.c ****         }
 259:..\source/motor.c ****         else
 260:..\source/motor.c ****         {
 261:..\source/motor.c ****             return (pwm2 - pwm1)/2 + pwm1;
  49              		.loc 1 261 0
  50 0012 E41A     		subs	r4, r4, r3
  51 0014 04EBD474 		add	r4, r4, r4, lsr #31
  52 0018 03EB6400 		add	r0, r3, r4, asr #1
  53              	.LVL3:
  54 001c 80B2     		uxth	r0, r0
  55 001e 0AE0     		b	.L4
  56              	.LVL4:
  57              	.L2:
 262:..\source/motor.c ****         }
 263:..\source/motor.c ****     }
 264:..\source/motor.c ****     
 265:..\source/motor.c ****     return ((tgt_cps - cps1)*((int16) pwm2 - (int16) pwm1))/(cps2 - cps1) + (int16) pwm1;
  58              		.loc 1 265 0
  59 0020 401A     		subs	r0, r0, r1
  60              	.LVL5:
  61 0022 25B2     		sxth	r5, r4
  62 0024 1CB2     		sxth	r4, r3
  63 0026 2C1B     		subs	r4, r5, r4
  64 0028 04FB00F4 		mul	r4, r4, r0
  65 002c 521A     		subs	r2, r2, r1
  66              	.LVL6:
  67 002e 94FBF2F2 		sdiv	r2, r4, r2
  68 0032 9818     		adds	r0, r3, r2
  69 0034 80B2     		uxth	r0, r0
  70              	.L4:
 266:..\source/motor.c **** }
  71              		.loc 1 266 0
  72 0036 00B2     		sxth	r0, r0
  73 0038 30BC     		pop	{r4, r5}
  74              		.cfi_restore 5
  75              		.cfi_restore 4
  76              		.cfi_def_cfa_offset 0
ARM GAS  C:\Users\Tim\AppData\Local\Temp\ccrO72Ik.s 			page 7


  77              	.LVL7:
  78 003a 7047     		bx	lr
  79              		.cfi_endproc
  80              	.LFE64:
  81              		.size	Interpolate, .-Interpolate
  82              		.section	.text.calculate_pwm,"ax",%progbits
  83              		.align	2
  84              		.thumb
  85              		.thumb_func
  86              		.type	calculate_pwm, %function
  87              	calculate_pwm:
  88              	.LFB65:
 267:..\source/motor.c **** 
 268:..\source/motor.c **** static uint16 calculate_pwm(int32 cps, int32 *cps_data, uint16 *pwm_data, uint8 data_size)
 269:..\source/motor.c **** {   
  89              		.loc 1 269 0
  90              		.cfi_startproc
  91              		@ args = 0, pretend = 0, frame = 8
  92              		@ frame_needed = 0, uses_anonymous_args = 0
  93              	.LVL8:
  94 0000 70B5     		push	{r4, r5, r6, lr}
  95              		.cfi_def_cfa_offset 16
  96              		.cfi_offset 4, -16
  97              		.cfi_offset 5, -12
  98              		.cfi_offset 6, -8
  99              		.cfi_offset 14, -4
 100 0002 84B0     		sub	sp, sp, #16
 101              		.cfi_def_cfa_offset 32
 102 0004 0C46     		mov	r4, r1
 103              	.LVL9:
 270:..\source/motor.c ****     uint16 tgt_pwm = PWM_STOP;
 271:..\source/motor.c ****     uint8 lower = 0;
 104              		.loc 1 271 0
 105 0006 0021     		movs	r1, #0
 106              	.LVL10:
 107 0008 8DF80F10 		strb	r1, [sp, #15]
 272:..\source/motor.c ****     uint8 upper = 0;
 108              		.loc 1 272 0
 109 000c 8DF80E10 		strb	r1, [sp, #14]
 273:..\source/motor.c **** 
 274:..\source/motor.c ****     if (cps > 0 || cps < 0)
 110              		.loc 1 274 0
 111 0010 58B3     		cbz	r0, .L9
 112 0012 1646     		mov	r6, r2
 113 0014 0546     		mov	r5, r0
 275:..\source/motor.c ****     {
 276:..\source/motor.c ****         BinaryRangeSearch( cps, cps_data, data_size, &lower, &upper);
 114              		.loc 1 276 0
 115 0016 0DF10E02 		add	r2, sp, #14
 116              	.LVL11:
 117 001a 0092     		str	r2, [sp]
 118 001c 2146     		mov	r1, r4
 119 001e 1A46     		mov	r2, r3
 120 0020 0DF10F03 		add	r3, sp, #15
 121              	.LVL12:
 122 0024 FFF7FEFF 		bl	BinaryRangeSearch
 123              	.LVL13:
ARM GAS  C:\Users\Tim\AppData\Local\Temp\ccrO72Ik.s 			page 8


 277:..\source/motor.c ****         
 278:..\source/motor.c ****         tgt_pwm = Interpolate(cps, cps_data[lower], cps_data[upper], pwm_data[lower], pwm_data[uppe
 124              		.loc 1 278 0
 125 0028 9DF80F30 		ldrb	r3, [sp, #15]	@ zero_extendqisi2
 126 002c 9DF80E00 		ldrb	r0, [sp, #14]	@ zero_extendqisi2
 127 0030 34F92310 		ldrsh	r1, [r4, r3, lsl #2]
 128 0034 34F92020 		ldrsh	r2, [r4, r0, lsl #2]
 129 0038 36F81330 		ldrh	r3, [r6, r3, lsl #1]
 130 003c 36F81000 		ldrh	r0, [r6, r0, lsl #1]
 131 0040 0090     		str	r0, [sp]
 132 0042 28B2     		sxth	r0, r5
 133 0044 FFF7FEFF 		bl	Interpolate
 134              	.LVL14:
 135 0048 80B2     		uxth	r0, r0
 136              	.LVL15:
 279:..\source/motor.c **** 
 280:..\source/motor.c ****         return constrain(tgt_pwm, MIN_PWM_VALUE, MAX_PWM_VALUE);
 137              		.loc 1 280 0
 138 004a A0F5FA63 		sub	r3, r0, #2000
 139 004e 9BB2     		uxth	r3, r3
 140 0050 4FF62F02 		movw	r2, #63535
 141 0054 9342     		cmp	r3, r2
 142 0056 05D9     		bls	.L10
 143              		.loc 1 280 0 is_stmt 0 discriminator 1
 144 0058 B0F57A7F 		cmp	r0, #1000
 145 005c 38BF     		it	cc
 146 005e 4FF47A70 		movcc	r0, #1000
 147              	.LVL16:
 148 0062 04E0     		b	.L7
 149              	.LVL17:
 150              	.L10:
 151              		.loc 1 280 0
 152 0064 4FF4FA60 		mov	r0, #2000
 153              	.LVL18:
 154 0068 01E0     		b	.L7
 155              	.LVL19:
 156              	.L9:
 281:..\source/motor.c ****     }
 282:..\source/motor.c **** 
 283:..\source/motor.c ****     return tgt_pwm;
 157              		.loc 1 283 0 is_stmt 1
 158 006a 40F2DC50 		movw	r0, #1500
 159              	.LVL20:
 160              	.L7:
 284:..\source/motor.c **** }
 161              		.loc 1 284 0
 162 006e 04B0     		add	sp, sp, #16
 163              		.cfi_def_cfa_offset 16
 164              		@ sp needed
 165 0070 70BD     		pop	{r4, r5, r6, pc}
 166              		.cfi_endproc
 167              	.LFE65:
 168              		.size	calculate_pwm, .-calculate_pwm
 169 0072 00BF     		.section	.text.DumpMotor,"ax",%progbits
 170              		.align	2
 171              		.thumb
 172              		.thumb_func
ARM GAS  C:\Users\Tim\AppData\Local\Temp\ccrO72Ik.s 			page 9


 173              		.type	DumpMotor, %function
 174              	DumpMotor:
 175              	.LFB63:
 227:..\source/motor.c ****     char cps_str[10];
 176              		.loc 1 227 0
 177              		.cfi_startproc
 178              		@ args = 0, pretend = 0, frame = 16
 179              		@ frame_needed = 0, uses_anonymous_args = 0
 180              	.LVL21:
 181 0000 30B5     		push	{r4, r5, lr}
 182              		.cfi_def_cfa_offset 12
 183              		.cfi_offset 4, -12
 184              		.cfi_offset 5, -8
 185              		.cfi_offset 14, -4
 186 0002 89B0     		sub	sp, sp, #36
 187              		.cfi_def_cfa_offset 48
 188 0004 0446     		mov	r4, r0
 231:..\source/motor.c ****     
 189              		.loc 1 231 0
 190 0006 05AD     		add	r5, sp, #20
 191 0008 4068     		ldr	r0, [r0, #4]	@ float
 192              	.LVL22:
 193 000a 2946     		mov	r1, r5
 194 000c 0322     		movs	r2, #3
 195 000e FFF7FEFF 		bl	ftoa
 196              	.LVL23:
 233:..\source/motor.c **** }
 197              		.loc 1 233 0
 198 0012 2388     		ldrh	r3, [r4]
 199 0014 094C     		ldr	r4, .L14
 200              	.LVL24:
 201 0016 0A4A     		ldr	r2, .L14+4
 202 0018 0092     		str	r2, [sp]
 203 001a E922     		movs	r2, #233
 204 001c 0192     		str	r2, [sp, #4]
 205 001e 0295     		str	r5, [sp, #8]
 206 0020 0393     		str	r3, [sp, #12]
 207 0022 2046     		mov	r0, r4
 208 0024 4FF48071 		mov	r1, #256
 209 0028 064A     		ldr	r2, .L14+8
 210 002a 074B     		ldr	r3, .L14+12
 211 002c FFF7FEFF 		bl	snprintf
 212              	.LVL25:
 213 0030 2046     		mov	r0, r4
 214 0032 FFF7FEFF 		bl	Ser_PutString
 215              	.LVL26:
 234:..\source/motor.c **** #endif
 216              		.loc 1 234 0
 217 0036 09B0     		add	sp, sp, #36
 218              		.cfi_def_cfa_offset 12
 219              		@ sp needed
 220 0038 30BD     		pop	{r4, r5, pc}
 221              	.L15:
 222 003a 00BF     		.align	2
 223              	.L14:
 224 003c 00000000 		.word	formatted_string
 225 0040 00000000 		.word	.LANCHOR0
ARM GAS  C:\Users\Tim\AppData\Local\Temp\ccrO72Ik.s 			page 10


 226 0044 00000000 		.word	.LC0
 227 0048 2C000000 		.word	.LC1
 228              		.cfi_endproc
 229              	.LFE63:
 230              		.size	DumpMotor, .-DumpMotor
 231              		.global	__aeabi_fcmpgt
 232              		.global	__aeabi_i2f
 233              		.global	__aeabi_fmul
 234              		.global	__aeabi_f2iz
 235              		.global	__aeabi_fcmplt
 236              		.section	.text.calc_motor_output_from_cps,"ax",%progbits
 237              		.align	2
 238              		.thumb
 239              		.thumb_func
 240              		.type	calc_motor_output_from_cps, %function
 241              	calc_motor_output_from_cps:
 242              	.LFB66:
 285:..\source/motor.c **** 
 286:..\source/motor.c **** static void calc_motor_output_from_cps(float cps, MOTOR_TYPE *motor)
 287:..\source/motor.c **** {
 243              		.loc 1 287 0
 244              		.cfi_startproc
 245              		@ args = 0, pretend = 0, frame = 0
 246              		@ frame_needed = 0, uses_anonymous_args = 0
 247              	.LVL27:
 248 0000 F8B5     		push	{r3, r4, r5, r6, r7, lr}
 249              		.cfi_def_cfa_offset 24
 250              		.cfi_offset 3, -24
 251              		.cfi_offset 4, -20
 252              		.cfi_offset 5, -16
 253              		.cfi_offset 6, -12
 254              		.cfi_offset 7, -8
 255              		.cfi_offset 14, -4
 256 0002 0746     		mov	r7, r0
 257 0004 0C46     		mov	r4, r1
 258              	.LVL28:
 288:..\source/motor.c ****     int32 tgt_cps = 0;
 289:..\source/motor.c **** 
 290:..\source/motor.c ****     if (cps > 0)
 259              		.loc 1 290 0
 260 0006 0021     		movs	r1, #0
 261              	.LVL29:
 262 0008 FFF7FEFF 		bl	__aeabi_fcmpgt
 263              	.LVL30:
 264 000c 00B3     		cbz	r0, .L24
 291:..\source/motor.c ****     {
 292:..\source/motor.c ****         tgt_cps = constrain((int32)(cps * motor->fwd_cal_data.cps_scale), motor->fwd_cal_data.cps_m
 265              		.loc 1 292 0
 266 000e D4F8D850 		ldr	r5, [r4, #216]
 267 0012 D4F8D460 		ldr	r6, [r4, #212]
 268 0016 D4F8DC00 		ldr	r0, [r4, #220]
 269 001a FFF7FEFF 		bl	__aeabi_i2f
 270              	.LVL31:
 271 001e 3946     		mov	r1, r7
 272 0020 FFF7FEFF 		bl	__aeabi_fmul
 273              	.LVL32:
 274 0024 FFF7FEFF 		bl	__aeabi_f2iz
ARM GAS  C:\Users\Tim\AppData\Local\Temp\ccrO72Ik.s 			page 11


 275              	.LVL33:
 276 0028 B042     		cmp	r0, r6
 277 002a B8BF     		it	lt
 278 002c 3046     		movlt	r0, r6
 279 002e 8542     		cmp	r5, r0
 280 0030 A8BF     		it	ge
 281 0032 0546     		movge	r5, r0
 282              	.LVL34:
 293:..\source/motor.c ****         motor->pwm = calculate_pwm(tgt_cps, &motor->fwd_cal_data.cps_data[0], &motor->fwd_cal_data.
 283              		.loc 1 293 0
 284 0034 2846     		mov	r0, r5
 285 0036 04F10801 		add	r1, r4, #8
 286 003a 04F1E002 		add	r2, r4, #224
 287 003e 3323     		movs	r3, #51
 288 0040 FFF7FEFF 		bl	calculate_pwm
 289              	.LVL35:
 290 0044 2080     		strh	r0, [r4]	@ movhi
 294:..\source/motor.c ****         motor->cps = tgt_cps;
 291              		.loc 1 294 0
 292 0046 2846     		mov	r0, r5
 293 0048 FFF7FEFF 		bl	__aeabi_i2f
 294              	.LVL36:
 295 004c 6060     		str	r0, [r4, #4]	@ float
 296 004e 2AE0     		b	.L19
 297              	.LVL37:
 298              	.L24:
 295:..\source/motor.c ****     }
 296:..\source/motor.c ****     else if (cps < 0)
 299              		.loc 1 296 0
 300 0050 3846     		mov	r0, r7
 301 0052 0021     		movs	r1, #0
 302 0054 FFF7FEFF 		bl	__aeabi_fcmplt
 303              	.LVL38:
 304 0058 00B3     		cbz	r0, .L25
 297:..\source/motor.c ****     {   
 298:..\source/motor.c ****         tgt_cps = constrain((int32)(cps * motor->bwd_cal_data.cps_scale), motor->bwd_cal_data.cps_m
 305              		.loc 1 298 0
 306 005a D4F81852 		ldr	r5, [r4, #536]
 307 005e D4F81462 		ldr	r6, [r4, #532]
 308 0062 D4F81C02 		ldr	r0, [r4, #540]
 309 0066 FFF7FEFF 		bl	__aeabi_i2f
 310              	.LVL39:
 311 006a 3946     		mov	r1, r7
 312 006c FFF7FEFF 		bl	__aeabi_fmul
 313              	.LVL40:
 314 0070 FFF7FEFF 		bl	__aeabi_f2iz
 315              	.LVL41:
 316 0074 B042     		cmp	r0, r6
 317 0076 B8BF     		it	lt
 318 0078 3046     		movlt	r0, r6
 319 007a 8542     		cmp	r5, r0
 320 007c A8BF     		it	ge
 321 007e 0546     		movge	r5, r0
 322              	.LVL42:
 299:..\source/motor.c ****         motor->pwm = calculate_pwm(tgt_cps, &motor->bwd_cal_data.cps_data[0], &motor->bwd_cal_data.
 323              		.loc 1 299 0
 324 0080 2846     		mov	r0, r5
ARM GAS  C:\Users\Tim\AppData\Local\Temp\ccrO72Ik.s 			page 12


 325 0082 04F5A471 		add	r1, r4, #328
 326 0086 04F50872 		add	r2, r4, #544
 327 008a 3323     		movs	r3, #51
 328 008c FFF7FEFF 		bl	calculate_pwm
 329              	.LVL43:
 330 0090 2080     		strh	r0, [r4]	@ movhi
 300:..\source/motor.c ****         motor->cps = tgt_cps;
 331              		.loc 1 300 0
 332 0092 2846     		mov	r0, r5
 333 0094 FFF7FEFF 		bl	__aeabi_i2f
 334              	.LVL44:
 335 0098 6060     		str	r0, [r4, #4]	@ float
 336 009a 04E0     		b	.L19
 337              	.LVL45:
 338              	.L25:
 301:..\source/motor.c ****     }
 302:..\source/motor.c ****     else
 303:..\source/motor.c ****     {
 304:..\source/motor.c ****         motor->pwm = PWM_STOP;
 339              		.loc 1 304 0
 340 009c 40F2DC53 		movw	r3, #1500
 341 00a0 2380     		strh	r3, [r4]	@ movhi
 305:..\source/motor.c ****         motor->cps = 0;
 342              		.loc 1 305 0
 343 00a2 0023     		movs	r3, #0
 344 00a4 6360     		str	r3, [r4, #4]	@ float
 345              	.LVL46:
 346              	.L19:
 306:..\source/motor.c ****     }
 307:..\source/motor.c **** 
 308:..\source/motor.c ****     MOTOR_DUMP(motor);
 347              		.loc 1 308 0
 348 00a6 2046     		mov	r0, r4
 349 00a8 FFF7FEFF 		bl	DumpMotor
 350              	.LVL47:
 351 00ac F8BD     		pop	{r3, r4, r5, r6, r7, pc}
 352              		.cfi_endproc
 353              	.LFE66:
 354              		.size	calc_motor_output_from_cps, .-calc_motor_output_from_cps
 355 00ae 00BF     		.section	.text.WriteTwoValues,"ax",%progbits
 356              		.align	2
 357              		.thumb
 358              		.thumb_func
 359              		.type	WriteTwoValues, %function
 360              	WriteTwoValues:
 361              	.LFB82:
 309:..\source/motor.c **** }
 310:..\source/motor.c **** 
 311:..\source/motor.c **** static void PrintFormatDataInt32(char *label, uint8 data_size, int32 *data)
 312:..\source/motor.c **** {
 313:..\source/motor.c ****     uint8 ii;
 314:..\source/motor.c ****     char buf[32];
 315:..\source/motor.c ****     char label_str[20];
 316:..\source/motor.c ****     
 317:..\source/motor.c ****     sprintf(label_str, "%s\r\n", label);
 318:..\source/motor.c ****     Ser_PutString(label_str);
 319:..\source/motor.c ****     for ( ii = 0; ii < data_size - 1; ++ii)
ARM GAS  C:\Users\Tim\AppData\Local\Temp\ccrO72Ik.s 			page 13


 320:..\source/motor.c ****     {
 321:..\source/motor.c ****         if ((ii > 0) && (ii % 10 == 0))
 322:..\source/motor.c ****         {
 323:..\source/motor.c ****             sprintf(buf, "%ld,\r\n", data[ii]);
 324:..\source/motor.c ****         }
 325:..\source/motor.c ****         else
 326:..\source/motor.c ****         {            
 327:..\source/motor.c ****             sprintf(buf, "%ld,", data[ii]);
 328:..\source/motor.c ****         }
 329:..\source/motor.c ****         Ser_PutString(buf);
 330:..\source/motor.c ****     }
 331:..\source/motor.c ****     sprintf(buf, "%ld\r\n", data[ii]);
 332:..\source/motor.c ****     Ser_PutString(buf);
 333:..\source/motor.c **** }
 334:..\source/motor.c **** 
 335:..\source/motor.c **** static void PrintFormatDataUint16(char *label, uint8 data_size, uint16 *data)
 336:..\source/motor.c **** {
 337:..\source/motor.c ****     uint8 ii;
 338:..\source/motor.c ****     char buf[32];
 339:..\source/motor.c ****     char label_str[20];
 340:..\source/motor.c ****     
 341:..\source/motor.c ****     sprintf(label_str, "%s\r\n", label);
 342:..\source/motor.c ****     Ser_PutString(label_str);
 343:..\source/motor.c ****     for ( ii = 0; ii < data_size - 1; ++ii)
 344:..\source/motor.c ****     {
 345:..\source/motor.c ****         if ((ii > 0) && (ii % 10 == 0))
 346:..\source/motor.c ****         {
 347:..\source/motor.c ****             sprintf(buf, "%d,\r\n", data[ii]);
 348:..\source/motor.c ****         }
 349:..\source/motor.c ****         else
 350:..\source/motor.c ****         {            
 351:..\source/motor.c ****             sprintf(buf, "%d,", data[ii]);
 352:..\source/motor.c ****         }
 353:..\source/motor.c ****         Ser_PutString(buf);
 354:..\source/motor.c ****     }
 355:..\source/motor.c ****     sprintf(buf, "%d\r\n", data[ii]);
 356:..\source/motor.c ****     Ser_PutString(buf);
 357:..\source/motor.c **** }
 358:..\source/motor.c **** 
 359:..\source/motor.c **** static void DumpMotorCal(char *name, MOTOR_TYPE *motor)
 360:..\source/motor.c **** {
 361:..\source/motor.c **** 
 362:..\source/motor.c ****     Ser_PutString(name);
 363:..\source/motor.c ****     
 364:..\source/motor.c ****     PrintFormatDataInt32("Forward CPS", CAL_DATA_SIZE, motor->fwd_cal_data.cps_data);
 365:..\source/motor.c ****     PrintFormatDataUint16("Forward PWM\r\n", CAL_DATA_SIZE, motor->fwd_cal_data.pwm_data);
 366:..\source/motor.c ****   
 367:..\source/motor.c ****     PrintFormatDataInt32("Backward CPS", CAL_DATA_SIZE, motor->bwd_cal_data.cps_data);
 368:..\source/motor.c ****     PrintFormatDataUint16("Backward PWM\r\n", CAL_DATA_SIZE, motor->bwd_cal_data.pwm_data);
 369:..\source/motor.c ****     
 370:..\source/motor.c **** }
 371:..\source/motor.c **** 
 372:..\source/motor.c **** void Motor_Init()
 373:..\source/motor.c **** {
 374:..\source/motor.c ****     left_motor.enable(HB25_DISABLE);
 375:..\source/motor.c ****     right_motor.enable(HB25_DISABLE);
 376:..\source/motor.c **** }
ARM GAS  C:\Users\Tim\AppData\Local\Temp\ccrO72Ik.s 			page 14


 377:..\source/motor.c **** 
 378:..\source/motor.c **** void Motor_Start()
 379:..\source/motor.c **** {
 380:..\source/motor.c ****     /* Enable the power on the HB-25 motor 
 381:..\source/motor.c ****        Note: The HB-25 has a specific initialization sequence that is handled in hardware (see HB-2
 382:..\source/motor.c ****        All that is necessary in software is to enable power to the HB-25 motor controller and start
 383:..\source/motor.c ****        The PWM will be enabled on to the HB-25 signal pin when the HB-25 indicates initialization i
 384:..\source/motor.c ****      */
 385:..\source/motor.c ****     left_motor.enable(HB25_ENABLE);    
 386:..\source/motor.c ****     left_motor.start();
 387:..\source/motor.c ****     left_motor.set_pwm(PWM_STOP);
 388:..\source/motor.c ****     right_motor.enable(HB25_ENABLE);
 389:..\source/motor.c ****     right_motor.start();
 390:..\source/motor.c ****     right_motor.set_pwm(PWM_STOP);    
 391:..\source/motor.c **** }
 392:..\source/motor.c **** 
 393:..\source/motor.c **** void Motor_LeftSetPwm(uint16 pwm)
 394:..\source/motor.c **** {
 395:..\source/motor.c ****     left_motor.pwm = constrain(pwm, MIN_PWM_VALUE, MAX_PWM_VALUE);
 396:..\source/motor.c ****     left_motor.set_pwm(left_motor.pwm);
 397:..\source/motor.c **** }
 398:..\source/motor.c **** 
 399:..\source/motor.c **** void Motor_RightSetPwm(uint16 pwm)
 400:..\source/motor.c **** {
 401:..\source/motor.c ****     right_motor.pwm = constrain(pwm, MIN_PWM_VALUE, MAX_PWM_VALUE);
 402:..\source/motor.c ****     right_motor.set_pwm(right_motor.pwm);
 403:..\source/motor.c **** }
 404:..\source/motor.c ****     
 405:..\source/motor.c **** void Motor_SetPwm(uint16 left_pwm, uint16 right_pwm)
 406:..\source/motor.c **** {
 407:..\source/motor.c ****     Motor_LeftSetPwm(left_pwm);
 408:..\source/motor.c ****     Motor_RightSetPwm(right_pwm);
 409:..\source/motor.c **** }
 410:..\source/motor.c ****         
 411:..\source/motor.c **** void Motor_LeftSetCntsPerSec(float cps)
 412:..\source/motor.c **** {
 413:..\source/motor.c ****     calc_motor_output_from_cps(cps, &left_motor);
 414:..\source/motor.c ****         
 415:..\source/motor.c ****     left_motor.set_pwm(left_motor.pwm);
 416:..\source/motor.c **** }
 417:..\source/motor.c ****         
 418:..\source/motor.c **** void Motor_RightSetCntsPerSec(float cps)
 419:..\source/motor.c **** {
 420:..\source/motor.c ****     calc_motor_output_from_cps(cps, &right_motor);
 421:..\source/motor.c ****           
 422:..\source/motor.c ****     right_motor.set_pwm(right_motor.pwm);
 423:..\source/motor.c **** }
 424:..\source/motor.c ****           
 425:..\source/motor.c **** void Motor_LeftSetMmPerSec(int16 mmps)
 426:..\source/motor.c **** {
 427:..\source/motor.c ****     /* convert mmps to cps and call Motor_LeftSetCntsPerSec */
 428:..\source/motor.c ****     int16 cps = mmps / MILLIMETER_PER_COUNT;
 429:..\source/motor.c ****     Motor_LeftSetCntsPerSec(cps);
 430:..\source/motor.c **** }
 431:..\source/motor.c ****           
 432:..\source/motor.c **** void Motor_RightSetMmPerSec(int16 mmps)
 433:..\source/motor.c **** {
ARM GAS  C:\Users\Tim\AppData\Local\Temp\ccrO72Ik.s 			page 15


 434:..\source/motor.c ****     /* convert mmps to cps and call Motor_RightSetCntsPerSec */
 435:..\source/motor.c ****     int16 cps = mmps / MILLIMETER_PER_COUNT;
 436:..\source/motor.c ****     Motor_RightSetCntsPerSec(cps);
 437:..\source/motor.c **** }
 438:..\source/motor.c ****           
 439:..\source/motor.c **** uint16 Motor_LeftGetPwm()
 440:..\source/motor.c **** {
 441:..\source/motor.c ****     return left_motor.pwm;
 442:..\source/motor.c **** }
 443:..\source/motor.c ****            
 444:..\source/motor.c **** uint16 Motor_RightGetPwm()
 445:..\source/motor.c **** {
 446:..\source/motor.c ****     return right_motor.pwm;
 447:..\source/motor.c **** }
 448:..\source/motor.c **** 
 449:..\source/motor.c **** void Motor_Stop()
 450:..\source/motor.c **** {
 451:..\source/motor.c ****     left_motor.stop();
 452:..\source/motor.c ****     right_motor.stop();
 453:..\source/motor.c ****     left_motor.enable(HB25_DISABLE);
 454:..\source/motor.c ****     right_motor.enable(HB25_DISABLE);
 455:..\source/motor.c **** }
 456:..\source/motor.c **** 
 457:..\source/motor.c **** static void WriteTwoValues(uint16 pwm, float cps)
 458:..\source/motor.c **** {
 362              		.loc 1 458 0
 363              		.cfi_startproc
 364              		@ args = 0, pretend = 0, frame = 16
 365              		@ frame_needed = 0, uses_anonymous_args = 0
 366              	.LVL48:
 367 0000 70B5     		push	{r4, r5, r6, lr}
 368              		.cfi_def_cfa_offset 16
 369              		.cfi_offset 4, -16
 370              		.cfi_offset 5, -12
 371              		.cfi_offset 6, -8
 372              		.cfi_offset 14, -4
 373 0002 88B0     		sub	sp, sp, #32
 374              		.cfi_def_cfa_offset 48
 375 0004 0646     		mov	r6, r0
 459:..\source/motor.c ****     char cps_str[10];
 460:..\source/motor.c ****     
 461:..\source/motor.c ****     ftoa(cps, cps_str, 3);
 376              		.loc 1 461 0
 377 0006 05AD     		add	r5, sp, #20
 378 0008 0846     		mov	r0, r1
 379              	.LVL49:
 380 000a 2946     		mov	r1, r5
 381              	.LVL50:
 382 000c 0322     		movs	r2, #3
 383 000e FFF7FEFF 		bl	ftoa
 384              	.LVL51:
 462:..\source/motor.c ****     
 463:..\source/motor.c ****     DEBUG_PRINT("%d %s \r\n", pwm, cps_str);
 385              		.loc 1 463 0
 386 0012 0A4C     		ldr	r4, .L29
 387 0014 0A4B     		ldr	r3, .L29+4
 388 0016 0093     		str	r3, [sp]
ARM GAS  C:\Users\Tim\AppData\Local\Temp\ccrO72Ik.s 			page 16


 389 0018 40F2CF13 		movw	r3, #463
 390 001c 0193     		str	r3, [sp, #4]
 391 001e 0296     		str	r6, [sp, #8]
 392 0020 0395     		str	r5, [sp, #12]
 393 0022 2046     		mov	r0, r4
 394 0024 4FF48071 		mov	r1, #256
 395 0028 064A     		ldr	r2, .L29+8
 396 002a 074B     		ldr	r3, .L29+12
 397 002c FFF7FEFF 		bl	snprintf
 398              	.LVL52:
 399 0030 2046     		mov	r0, r4
 400 0032 FFF7FEFF 		bl	Ser_PutString
 401              	.LVL53:
 464:..\source/motor.c **** }
 402              		.loc 1 464 0
 403 0036 08B0     		add	sp, sp, #32
 404              		.cfi_def_cfa_offset 16
 405              		@ sp needed
 406 0038 70BD     		pop	{r4, r5, r6, pc}
 407              	.L30:
 408 003a 00BF     		.align	2
 409              	.L29:
 410 003c 00000000 		.word	formatted_string
 411 0040 0C000000 		.word	.LANCHOR0+12
 412 0044 40000000 		.word	.LC2
 413 0048 2C000000 		.word	.LC1
 414              		.cfi_endproc
 415              	.LFE82:
 416              		.size	WriteTwoValues, .-WriteTwoValues
 417              		.section	.text.RampSpeed,"ax",%progbits
 418              		.align	2
 419              		.thumb
 420              		.thumb_func
 421              		.type	RampSpeed, %function
 422              	RampSpeed:
 423              	.LFB84:
 465:..\source/motor.c ****     
 466:..\source/motor.c **** static int32 CollectCpsPwmSamples(MOTOR_TYPE *motor, GET_ENCODER_TYPE encoder, uint8 num_avg_iter)
 467:..\source/motor.c **** {
 468:..\source/motor.c ****     uint8 ii;
 469:..\source/motor.c ****     float cnts_per_sec_sum;
 470:..\source/motor.c ****     float enc_cnts_per_sec;
 471:..\source/motor.c ****     uint16 iterations;
 472:..\source/motor.c ****     
 473:..\source/motor.c ****     cnts_per_sec_sum = 0;
 474:..\source/motor.c ****     num_avg_iter *= 5;
 475:..\source/motor.c ****     iterations = num_avg_iter + 5;
 476:..\source/motor.c ****     motor->set_pwm(motor->pwm);
 477:..\source/motor.c ****     for ( ii = 0; ii < iterations; ++ii)
 478:..\source/motor.c ****     {
 479:..\source/motor.c ****         Encoder_Update();
 480:..\source/motor.c ****         if (ii >= 5)
 481:..\source/motor.c ****         {
 482:..\source/motor.c ****             enc_cnts_per_sec = encoder();        
 483:..\source/motor.c ****             cnts_per_sec_sum += enc_cnts_per_sec * CAL_SCALE_FACTOR;
 484:..\source/motor.c ****         }
 485:..\source/motor.c ****         CyDelay(10);
ARM GAS  C:\Users\Tim\AppData\Local\Temp\ccrO72Ik.s 			page 17


 486:..\source/motor.c ****     }
 487:..\source/motor.c ****     
 488:..\source/motor.c ****     int32 avg_cps = (int32) cnts_per_sec_sum / num_avg_iter;
 489:..\source/motor.c ****     WriteTwoValues(motor->pwm, avg_cps);
 490:..\source/motor.c ****     return avg_cps;
 491:..\source/motor.c **** }
 492:..\source/motor.c **** 
 493:..\source/motor.c **** static void RampSpeed(MOTOR_TYPE *motor, uint32 time_ms, uint16 pwm)
 494:..\source/motor.c **** {
 424              		.loc 1 494 0
 425              		.cfi_startproc
 426              		@ args = 0, pretend = 0, frame = 0
 427              		@ frame_needed = 0, uses_anonymous_args = 0
 428              	.LVL54:
 429 0000 2DE9F041 		push	{r4, r5, r6, r7, r8, lr}
 430              		.cfi_def_cfa_offset 24
 431              		.cfi_offset 4, -24
 432              		.cfi_offset 5, -20
 433              		.cfi_offset 6, -16
 434              		.cfi_offset 7, -12
 435              		.cfi_offset 8, -8
 436              		.cfi_offset 14, -4
 437 0004 8046     		mov	r8, r0
 438 0006 0F46     		mov	r7, r1
 495:..\source/motor.c ****     uint16 speed_change = abs(motor->pwm - pwm);    
 439              		.loc 1 495 0
 440 0008 0488     		ldrh	r4, [r0]
 441 000a A31A     		subs	r3, r4, r2
 442 000c 002B     		cmp	r3, #0
 443 000e 03DA     		bge	.L32
 444              		.loc 1 495 0 is_stmt 0 discriminator 1
 445 0010 6642     		negs	r6, r4
 446 0012 B61A     		subs	r6, r6, r2
 447 0014 B6B2     		uxth	r6, r6
 448 0016 01E0     		b	.L33
 449              	.L32:
 450              		.loc 1 495 0 discriminator 2
 451 0018 A61A     		subs	r6, r4, r2
 452 001a B6B2     		uxth	r6, r6
 453              	.L33:
 454              	.LVL55:
 496:..\source/motor.c ****     int32 speed_step = (int32) speed_change / time_ms;
 455              		.loc 1 496 0 is_stmt 1 discriminator 4
 456 001c B6FBF7F6 		udiv	r6, r6, r7
 457              	.LVL56:
 497:..\source/motor.c ****     uint16 ii;
 498:..\source/motor.c ****     uint16 ramp_pwm = motor->pwm;
 499:..\source/motor.c ****     
 500:..\source/motor.c ****     for (ii = 0; ii < time_ms; ++ii)
 458              		.loc 1 500 0 discriminator 4
 459 0020 0025     		movs	r5, #0
 460 0022 0AE0     		b	.L34
 461              	.LVL57:
 462              	.L35:
 501:..\source/motor.c ****     {
 502:..\source/motor.c ****         ramp_pwm -= speed_step; 
 463              		.loc 1 502 0 discriminator 3
ARM GAS  C:\Users\Tim\AppData\Local\Temp\ccrO72Ik.s 			page 18


 464 0024 A41B     		subs	r4, r4, r6
 465              	.LVL58:
 466 0026 A4B2     		uxth	r4, r4
 467              	.LVL59:
 503:..\source/motor.c ****         motor->set_pwm(ramp_pwm);
 468              		.loc 1 503 0 discriminator 3
 469 0028 D8F89432 		ldr	r3, [r8, #660]
 470 002c 2046     		mov	r0, r4
 471 002e 9847     		blx	r3
 472              	.LVL60:
 504:..\source/motor.c ****         CyDelay(1);
 473              		.loc 1 504 0 discriminator 3
 474 0030 0120     		movs	r0, #1
 475 0032 FFF7FEFF 		bl	CyDelay
 476              	.LVL61:
 500:..\source/motor.c ****     {
 477              		.loc 1 500 0 discriminator 3
 478 0036 0135     		adds	r5, r5, #1
 479              	.LVL62:
 480 0038 ADB2     		uxth	r5, r5
 481              	.LVL63:
 482              	.L34:
 500:..\source/motor.c ****     {
 483              		.loc 1 500 0 is_stmt 0 discriminator 1
 484 003a BD42     		cmp	r5, r7
 485 003c F2D3     		bcc	.L35
 505:..\source/motor.c ****     }
 506:..\source/motor.c **** }
 486              		.loc 1 506 0 is_stmt 1
 487 003e BDE8F081 		pop	{r4, r5, r6, r7, r8, pc}
 488              		.cfi_endproc
 489              	.LFE84:
 490              		.size	RampSpeed, .-RampSpeed
 491              		.global	__aeabi_fadd
 492 0042 00BF     		.section	.text.CollectCpsPwmSamples,"ax",%progbits
 493              		.align	2
 494              		.thumb
 495              		.thumb_func
 496              		.type	CollectCpsPwmSamples, %function
 497              	CollectCpsPwmSamples:
 498              	.LFB83:
 467:..\source/motor.c ****     uint8 ii;
 499              		.loc 1 467 0
 500              		.cfi_startproc
 501              		@ args = 0, pretend = 0, frame = 0
 502              		@ frame_needed = 0, uses_anonymous_args = 0
 503              	.LVL64:
 504 0000 2DE9F843 		push	{r3, r4, r5, r6, r7, r8, r9, lr}
 505              		.cfi_def_cfa_offset 32
 506              		.cfi_offset 3, -32
 507              		.cfi_offset 4, -28
 508              		.cfi_offset 5, -24
 509              		.cfi_offset 6, -20
 510              		.cfi_offset 7, -16
 511              		.cfi_offset 8, -12
 512              		.cfi_offset 9, -8
 513              		.cfi_offset 14, -4
ARM GAS  C:\Users\Tim\AppData\Local\Temp\ccrO72Ik.s 			page 19


 514 0004 8046     		mov	r8, r0
 515 0006 8946     		mov	r9, r1
 516              	.LVL65:
 474:..\source/motor.c ****     iterations = num_avg_iter + 5;
 517              		.loc 1 474 0
 518 0008 02EB8202 		add	r2, r2, r2, lsl #2
 519              	.LVL66:
 520 000c D6B2     		uxtb	r6, r2
 521              	.LVL67:
 475:..\source/motor.c ****     motor->set_pwm(motor->pwm);
 522              		.loc 1 475 0
 523 000e 751D     		adds	r5, r6, #5
 524              	.LVL68:
 476:..\source/motor.c ****     for ( ii = 0; ii < iterations; ++ii)
 525              		.loc 1 476 0
 526 0010 D0F89432 		ldr	r3, [r0, #660]
 527 0014 0088     		ldrh	r0, [r0]
 528              	.LVL69:
 529 0016 9847     		blx	r3
 530              	.LVL70:
 473:..\source/motor.c ****     num_avg_iter *= 5;
 531              		.loc 1 473 0
 532 0018 0027     		movs	r7, #0
 477:..\source/motor.c ****     {
 533              		.loc 1 477 0
 534 001a 0024     		movs	r4, #0
 535 001c 11E0     		b	.L38
 536              	.LVL71:
 537              	.L40:
 479:..\source/motor.c ****         if (ii >= 5)
 538              		.loc 1 479 0
 539 001e FFF7FEFF 		bl	Encoder_Update
 540              	.LVL72:
 480:..\source/motor.c ****         {
 541              		.loc 1 480 0
 542 0022 042C     		cmp	r4, #4
 543 0024 08D9     		bls	.L39
 482:..\source/motor.c ****             cnts_per_sec_sum += enc_cnts_per_sec * CAL_SCALE_FACTOR;
 544              		.loc 1 482 0
 545 0026 C847     		blx	r9
 546              	.LVL73:
 483:..\source/motor.c ****         }
 547              		.loc 1 483 0
 548 0028 1049     		ldr	r1, .L42
 549 002a FFF7FEFF 		bl	__aeabi_fmul
 550              	.LVL74:
 551 002e 0146     		mov	r1, r0
 552 0030 3846     		mov	r0, r7
 553 0032 FFF7FEFF 		bl	__aeabi_fadd
 554              	.LVL75:
 555 0036 0746     		mov	r7, r0
 556              	.LVL76:
 557              	.L39:
 485:..\source/motor.c ****     }
 558              		.loc 1 485 0 discriminator 2
 559 0038 0A20     		movs	r0, #10
 560 003a FFF7FEFF 		bl	CyDelay
ARM GAS  C:\Users\Tim\AppData\Local\Temp\ccrO72Ik.s 			page 20


 561              	.LVL77:
 477:..\source/motor.c ****     {
 562              		.loc 1 477 0 discriminator 2
 563 003e 0134     		adds	r4, r4, #1
 564              	.LVL78:
 565 0040 E4B2     		uxtb	r4, r4
 566              	.LVL79:
 567              	.L38:
 477:..\source/motor.c ****     {
 568              		.loc 1 477 0 is_stmt 0 discriminator 1
 569 0042 A3B2     		uxth	r3, r4
 570 0044 AB42     		cmp	r3, r5
 571 0046 EAD3     		bcc	.L40
 488:..\source/motor.c ****     WriteTwoValues(motor->pwm, avg_cps);
 572              		.loc 1 488 0 is_stmt 1
 573 0048 3846     		mov	r0, r7
 574 004a FFF7FEFF 		bl	__aeabi_f2iz
 575              	.LVL80:
 576 004e 90FBF6F4 		sdiv	r4, r0, r6
 577              	.LVL81:
 489:..\source/motor.c ****     return avg_cps;
 578              		.loc 1 489 0
 579 0052 B8F80050 		ldrh	r5, [r8]
 580              	.LVL82:
 581 0056 2046     		mov	r0, r4
 582 0058 FFF7FEFF 		bl	__aeabi_i2f
 583              	.LVL83:
 584 005c 0146     		mov	r1, r0
 585 005e 2846     		mov	r0, r5
 586 0060 FFF7FEFF 		bl	WriteTwoValues
 587              	.LVL84:
 491:..\source/motor.c **** 
 588              		.loc 1 491 0
 589 0064 2046     		mov	r0, r4
 590 0066 BDE8F883 		pop	{r3, r4, r5, r6, r7, r8, r9, pc}
 591              	.LVL85:
 592              	.L43:
 593 006a 00BF     		.align	2
 594              	.L42:
 595 006c 0000C842 		.word	1120403456
 596              		.cfi_endproc
 597              	.LFE83:
 598              		.size	CollectCpsPwmSamples, .-CollectCpsPwmSamples
 599              		.section	.text.PrintFormatDataInt32,"ax",%progbits
 600              		.align	2
 601              		.thumb
 602              		.thumb_func
 603              		.type	PrintFormatDataInt32, %function
 604              	PrintFormatDataInt32:
 605              	.LFB67:
 312:..\source/motor.c ****     uint8 ii;
 606              		.loc 1 312 0
 607              		.cfi_startproc
 608              		@ args = 0, pretend = 0, frame = 56
 609              		@ frame_needed = 0, uses_anonymous_args = 0
 610              	.LVL86:
 611 0000 70B5     		push	{r4, r5, r6, lr}
ARM GAS  C:\Users\Tim\AppData\Local\Temp\ccrO72Ik.s 			page 21


 612              		.cfi_def_cfa_offset 16
 613              		.cfi_offset 4, -16
 614              		.cfi_offset 5, -12
 615              		.cfi_offset 6, -8
 616              		.cfi_offset 14, -4
 617 0002 8EB0     		sub	sp, sp, #56
 618              		.cfi_def_cfa_offset 72
 619 0004 0346     		mov	r3, r0
 620 0006 0D46     		mov	r5, r1
 621 0008 1646     		mov	r6, r2
 317:..\source/motor.c ****     Ser_PutString(label_str);
 622              		.loc 1 317 0
 623 000a 01A8     		add	r0, sp, #4
 624              	.LVL87:
 625 000c 1A49     		ldr	r1, .L50
 626              	.LVL88:
 627 000e 1A46     		mov	r2, r3
 628              	.LVL89:
 629 0010 FFF7FEFF 		bl	sprintf
 630              	.LVL90:
 318:..\source/motor.c ****     for ( ii = 0; ii < data_size - 1; ++ii)
 631              		.loc 1 318 0
 632 0014 01A8     		add	r0, sp, #4
 633 0016 FFF7FEFF 		bl	Ser_PutString
 634              	.LVL91:
 319:..\source/motor.c ****     {
 635              		.loc 1 319 0
 636 001a 0024     		movs	r4, #0
 637 001c 1DE0     		b	.L45
 638              	.LVL92:
 639              	.L48:
 321:..\source/motor.c ****         {
 640              		.loc 1 321 0
 641 001e 8CB1     		cbz	r4, .L46
 321:..\source/motor.c ****         {
 642              		.loc 1 321 0 is_stmt 0 discriminator 1
 643 0020 164B     		ldr	r3, .L50+4
 644 0022 A3FB0423 		umull	r2, r3, r3, r4
 645 0026 DB08     		lsrs	r3, r3, #3
 646 0028 03EB8303 		add	r3, r3, r3, lsl #2
 647 002c 5B00     		lsls	r3, r3, #1
 648 002e E31A     		subs	r3, r4, r3
 649 0030 13F0FF0F 		tst	r3, #255
 650 0034 06D1     		bne	.L46
 323:..\source/motor.c ****         }
 651              		.loc 1 323 0 is_stmt 1
 652 0036 06A8     		add	r0, sp, #24
 653 0038 1149     		ldr	r1, .L50+8
 654 003a 56F82420 		ldr	r2, [r6, r4, lsl #2]
 655 003e FFF7FEFF 		bl	sprintf
 656              	.LVL93:
 657 0042 05E0     		b	.L47
 658              	.L46:
 327:..\source/motor.c ****         }
 659              		.loc 1 327 0
 660 0044 06A8     		add	r0, sp, #24
 661 0046 0F49     		ldr	r1, .L50+12
ARM GAS  C:\Users\Tim\AppData\Local\Temp\ccrO72Ik.s 			page 22


 662 0048 56F82420 		ldr	r2, [r6, r4, lsl #2]
 663 004c FFF7FEFF 		bl	sprintf
 664              	.LVL94:
 665              	.L47:
 329:..\source/motor.c ****     }
 666              		.loc 1 329 0 discriminator 2
 667 0050 06A8     		add	r0, sp, #24
 668 0052 FFF7FEFF 		bl	Ser_PutString
 669              	.LVL95:
 319:..\source/motor.c ****     {
 670              		.loc 1 319 0 discriminator 2
 671 0056 0134     		adds	r4, r4, #1
 672              	.LVL96:
 673 0058 E4B2     		uxtb	r4, r4
 674              	.LVL97:
 675              	.L45:
 319:..\source/motor.c ****     {
 676              		.loc 1 319 0 is_stmt 0 discriminator 1
 677 005a 6B1E     		subs	r3, r5, #1
 678 005c 9C42     		cmp	r4, r3
 679 005e DEDB     		blt	.L48
 331:..\source/motor.c ****     Ser_PutString(buf);
 680              		.loc 1 331 0 is_stmt 1
 681 0060 06A8     		add	r0, sp, #24
 682 0062 0949     		ldr	r1, .L50+16
 683 0064 56F82420 		ldr	r2, [r6, r4, lsl #2]
 684 0068 FFF7FEFF 		bl	sprintf
 685              	.LVL98:
 332:..\source/motor.c **** }
 686              		.loc 1 332 0
 687 006c 06A8     		add	r0, sp, #24
 688 006e FFF7FEFF 		bl	Ser_PutString
 689              	.LVL99:
 333:..\source/motor.c **** 
 690              		.loc 1 333 0
 691 0072 0EB0     		add	sp, sp, #56
 692              		.cfi_def_cfa_offset 16
 693              		@ sp needed
 694 0074 70BD     		pop	{r4, r5, r6, pc}
 695              	.LVL100:
 696              	.L51:
 697 0076 00BF     		.align	2
 698              	.L50:
 699 0078 6C000000 		.word	.LC3
 700 007c CDCCCCCC 		.word	-858993459
 701 0080 74000000 		.word	.LC4
 702 0084 7C000000 		.word	.LC5
 703 0088 84000000 		.word	.LC6
 704              		.cfi_endproc
 705              	.LFE67:
 706              		.size	PrintFormatDataInt32, .-PrintFormatDataInt32
 707              		.section	.text.PrintFormatDataUint16,"ax",%progbits
 708              		.align	2
 709              		.thumb
 710              		.thumb_func
 711              		.type	PrintFormatDataUint16, %function
 712              	PrintFormatDataUint16:
ARM GAS  C:\Users\Tim\AppData\Local\Temp\ccrO72Ik.s 			page 23


 713              	.LFB68:
 336:..\source/motor.c ****     uint8 ii;
 714              		.loc 1 336 0
 715              		.cfi_startproc
 716              		@ args = 0, pretend = 0, frame = 56
 717              		@ frame_needed = 0, uses_anonymous_args = 0
 718              	.LVL101:
 719 0000 70B5     		push	{r4, r5, r6, lr}
 720              		.cfi_def_cfa_offset 16
 721              		.cfi_offset 4, -16
 722              		.cfi_offset 5, -12
 723              		.cfi_offset 6, -8
 724              		.cfi_offset 14, -4
 725 0002 8EB0     		sub	sp, sp, #56
 726              		.cfi_def_cfa_offset 72
 727 0004 0346     		mov	r3, r0
 728 0006 0D46     		mov	r5, r1
 729 0008 1646     		mov	r6, r2
 341:..\source/motor.c ****     Ser_PutString(label_str);
 730              		.loc 1 341 0
 731 000a 01A8     		add	r0, sp, #4
 732              	.LVL102:
 733 000c 1A49     		ldr	r1, .L58
 734              	.LVL103:
 735 000e 1A46     		mov	r2, r3
 736              	.LVL104:
 737 0010 FFF7FEFF 		bl	sprintf
 738              	.LVL105:
 342:..\source/motor.c ****     for ( ii = 0; ii < data_size - 1; ++ii)
 739              		.loc 1 342 0
 740 0014 01A8     		add	r0, sp, #4
 741 0016 FFF7FEFF 		bl	Ser_PutString
 742              	.LVL106:
 343:..\source/motor.c ****     {
 743              		.loc 1 343 0
 744 001a 0024     		movs	r4, #0
 745 001c 1DE0     		b	.L53
 746              	.LVL107:
 747              	.L56:
 345:..\source/motor.c ****         {
 748              		.loc 1 345 0
 749 001e 8CB1     		cbz	r4, .L54
 345:..\source/motor.c ****         {
 750              		.loc 1 345 0 is_stmt 0 discriminator 1
 751 0020 164B     		ldr	r3, .L58+4
 752 0022 A3FB0423 		umull	r2, r3, r3, r4
 753 0026 DB08     		lsrs	r3, r3, #3
 754 0028 03EB8303 		add	r3, r3, r3, lsl #2
 755 002c 5B00     		lsls	r3, r3, #1
 756 002e E31A     		subs	r3, r4, r3
 757 0030 13F0FF0F 		tst	r3, #255
 758 0034 06D1     		bne	.L54
 347:..\source/motor.c ****         }
 759              		.loc 1 347 0 is_stmt 1
 760 0036 06A8     		add	r0, sp, #24
 761 0038 1149     		ldr	r1, .L58+8
 762 003a 36F81420 		ldrh	r2, [r6, r4, lsl #1]
ARM GAS  C:\Users\Tim\AppData\Local\Temp\ccrO72Ik.s 			page 24


 763 003e FFF7FEFF 		bl	sprintf
 764              	.LVL108:
 765 0042 05E0     		b	.L55
 766              	.L54:
 351:..\source/motor.c ****         }
 767              		.loc 1 351 0
 768 0044 06A8     		add	r0, sp, #24
 769 0046 0F49     		ldr	r1, .L58+12
 770 0048 36F81420 		ldrh	r2, [r6, r4, lsl #1]
 771 004c FFF7FEFF 		bl	sprintf
 772              	.LVL109:
 773              	.L55:
 353:..\source/motor.c ****     }
 774              		.loc 1 353 0 discriminator 2
 775 0050 06A8     		add	r0, sp, #24
 776 0052 FFF7FEFF 		bl	Ser_PutString
 777              	.LVL110:
 343:..\source/motor.c ****     {
 778              		.loc 1 343 0 discriminator 2
 779 0056 0134     		adds	r4, r4, #1
 780              	.LVL111:
 781 0058 E4B2     		uxtb	r4, r4
 782              	.LVL112:
 783              	.L53:
 343:..\source/motor.c ****     {
 784              		.loc 1 343 0 is_stmt 0 discriminator 1
 785 005a 6B1E     		subs	r3, r5, #1
 786 005c 9C42     		cmp	r4, r3
 787 005e DEDB     		blt	.L56
 355:..\source/motor.c ****     Ser_PutString(buf);
 788              		.loc 1 355 0 is_stmt 1
 789 0060 06A8     		add	r0, sp, #24
 790 0062 0949     		ldr	r1, .L58+16
 791 0064 36F81420 		ldrh	r2, [r6, r4, lsl #1]
 792 0068 FFF7FEFF 		bl	sprintf
 793              	.LVL113:
 356:..\source/motor.c **** }
 794              		.loc 1 356 0
 795 006c 06A8     		add	r0, sp, #24
 796 006e FFF7FEFF 		bl	Ser_PutString
 797              	.LVL114:
 357:..\source/motor.c **** 
 798              		.loc 1 357 0
 799 0072 0EB0     		add	sp, sp, #56
 800              		.cfi_def_cfa_offset 16
 801              		@ sp needed
 802 0074 70BD     		pop	{r4, r5, r6, pc}
 803              	.LVL115:
 804              	.L59:
 805 0076 00BF     		.align	2
 806              	.L58:
 807 0078 6C000000 		.word	.LC3
 808 007c CDCCCCCC 		.word	-858993459
 809 0080 8C000000 		.word	.LC7
 810 0084 94000000 		.word	.LC8
 811 0088 98000000 		.word	.LC9
 812              		.cfi_endproc
ARM GAS  C:\Users\Tim\AppData\Local\Temp\ccrO72Ik.s 			page 25


 813              	.LFE68:
 814              		.size	PrintFormatDataUint16, .-PrintFormatDataUint16
 815              		.section	.text.DumpMotorCal,"ax",%progbits
 816              		.align	2
 817              		.thumb
 818              		.thumb_func
 819              		.type	DumpMotorCal, %function
 820              	DumpMotorCal:
 821              	.LFB69:
 360:..\source/motor.c **** 
 822              		.loc 1 360 0
 823              		.cfi_startproc
 824              		@ args = 0, pretend = 0, frame = 0
 825              		@ frame_needed = 0, uses_anonymous_args = 0
 826              	.LVL116:
 827 0000 10B5     		push	{r4, lr}
 828              		.cfi_def_cfa_offset 8
 829              		.cfi_offset 4, -8
 830              		.cfi_offset 14, -4
 831 0002 0C46     		mov	r4, r1
 362:..\source/motor.c ****     
 832              		.loc 1 362 0
 833 0004 FFF7FEFF 		bl	Ser_PutString
 834              	.LVL117:
 364:..\source/motor.c ****     PrintFormatDataUint16("Forward PWM\r\n", CAL_DATA_SIZE, motor->fwd_cal_data.pwm_data);
 835              		.loc 1 364 0
 836 0008 0C48     		ldr	r0, .L62
 837 000a 3321     		movs	r1, #51
 838 000c 04F10802 		add	r2, r4, #8
 839 0010 FFF7FEFF 		bl	PrintFormatDataInt32
 840              	.LVL118:
 365:..\source/motor.c ****   
 841              		.loc 1 365 0
 842 0014 0A48     		ldr	r0, .L62+4
 843 0016 3321     		movs	r1, #51
 844 0018 04F1E002 		add	r2, r4, #224
 845 001c FFF7FEFF 		bl	PrintFormatDataUint16
 846              	.LVL119:
 367:..\source/motor.c ****     PrintFormatDataUint16("Backward PWM\r\n", CAL_DATA_SIZE, motor->bwd_cal_data.pwm_data);
 847              		.loc 1 367 0
 848 0020 0848     		ldr	r0, .L62+8
 849 0022 3321     		movs	r1, #51
 850 0024 04F5A472 		add	r2, r4, #328
 851 0028 FFF7FEFF 		bl	PrintFormatDataInt32
 852              	.LVL120:
 368:..\source/motor.c ****     
 853              		.loc 1 368 0
 854 002c 0648     		ldr	r0, .L62+12
 855 002e 3321     		movs	r1, #51
 856 0030 04F50872 		add	r2, r4, #544
 857 0034 FFF7FEFF 		bl	PrintFormatDataUint16
 858              	.LVL121:
 859 0038 10BD     		pop	{r4, pc}
 860              	.LVL122:
 861              	.L63:
 862 003a 00BF     		.align	2
 863              	.L62:
ARM GAS  C:\Users\Tim\AppData\Local\Temp\ccrO72Ik.s 			page 26


 864 003c A0000000 		.word	.LC10
 865 0040 AC000000 		.word	.LC11
 866 0044 BC000000 		.word	.LC12
 867 0048 CC000000 		.word	.LC13
 868              		.cfi_endproc
 869              	.LFE69:
 870              		.size	DumpMotorCal, .-DumpMotorCal
 871              		.section	.text.Motor_Init,"ax",%progbits
 872              		.align	2
 873              		.global	Motor_Init
 874              		.thumb
 875              		.thumb_func
 876              		.type	Motor_Init, %function
 877              	Motor_Init:
 878              	.LFB70:
 373:..\source/motor.c ****     left_motor.enable(HB25_DISABLE);
 879              		.loc 1 373 0
 880              		.cfi_startproc
 881              		@ args = 0, pretend = 0, frame = 0
 882              		@ frame_needed = 0, uses_anonymous_args = 0
 883 0000 10B5     		push	{r4, lr}
 884              		.cfi_def_cfa_offset 8
 885              		.cfi_offset 4, -8
 886              		.cfi_offset 14, -4
 374:..\source/motor.c ****     right_motor.enable(HB25_DISABLE);
 887              		.loc 1 374 0
 888 0002 054C     		ldr	r4, .L66
 889 0004 D4F88832 		ldr	r3, [r4, #648]
 890 0008 0120     		movs	r0, #1
 891 000a 9847     		blx	r3
 892              	.LVL123:
 375:..\source/motor.c **** }
 893              		.loc 1 375 0
 894 000c D4F82035 		ldr	r3, [r4, #1312]
 895 0010 0120     		movs	r0, #1
 896 0012 9847     		blx	r3
 897              	.LVL124:
 898 0014 10BD     		pop	{r4, pc}
 899              	.L67:
 900 0016 00BF     		.align	2
 901              	.L66:
 902 0018 00000000 		.word	.LANCHOR1
 903              		.cfi_endproc
 904              	.LFE70:
 905              		.size	Motor_Init, .-Motor_Init
 906              		.section	.text.Motor_Start,"ax",%progbits
 907              		.align	2
 908              		.global	Motor_Start
 909              		.thumb
 910              		.thumb_func
 911              		.type	Motor_Start, %function
 912              	Motor_Start:
 913              	.LFB71:
 379:..\source/motor.c ****     /* Enable the power on the HB-25 motor 
 914              		.loc 1 379 0
 915              		.cfi_startproc
 916              		@ args = 0, pretend = 0, frame = 0
ARM GAS  C:\Users\Tim\AppData\Local\Temp\ccrO72Ik.s 			page 27


 917              		@ frame_needed = 0, uses_anonymous_args = 0
 918 0000 10B5     		push	{r4, lr}
 919              		.cfi_def_cfa_offset 8
 920              		.cfi_offset 4, -8
 921              		.cfi_offset 14, -4
 385:..\source/motor.c ****     left_motor.start();
 922              		.loc 1 385 0
 923 0002 0D4C     		ldr	r4, .L70
 924 0004 D4F88832 		ldr	r3, [r4, #648]
 925 0008 0020     		movs	r0, #0
 926 000a 9847     		blx	r3
 927              	.LVL125:
 386:..\source/motor.c ****     left_motor.set_pwm(PWM_STOP);
 928              		.loc 1 386 0
 929 000c D4F88C32 		ldr	r3, [r4, #652]
 930 0010 9847     		blx	r3
 931              	.LVL126:
 387:..\source/motor.c ****     right_motor.enable(HB25_ENABLE);
 932              		.loc 1 387 0
 933 0012 D4F89432 		ldr	r3, [r4, #660]
 934 0016 40F2DC50 		movw	r0, #1500
 935 001a 9847     		blx	r3
 936              	.LVL127:
 388:..\source/motor.c ****     right_motor.start();
 937              		.loc 1 388 0
 938 001c D4F82035 		ldr	r3, [r4, #1312]
 939 0020 0020     		movs	r0, #0
 940 0022 9847     		blx	r3
 941              	.LVL128:
 389:..\source/motor.c ****     right_motor.set_pwm(PWM_STOP);    
 942              		.loc 1 389 0
 943 0024 D4F82435 		ldr	r3, [r4, #1316]
 944 0028 9847     		blx	r3
 945              	.LVL129:
 390:..\source/motor.c **** }
 946              		.loc 1 390 0
 947 002a D4F82C35 		ldr	r3, [r4, #1324]
 948 002e 40F2DC50 		movw	r0, #1500
 949 0032 9847     		blx	r3
 950              	.LVL130:
 951 0034 10BD     		pop	{r4, pc}
 952              	.L71:
 953 0036 00BF     		.align	2
 954              	.L70:
 955 0038 00000000 		.word	.LANCHOR1
 956              		.cfi_endproc
 957              	.LFE71:
 958              		.size	Motor_Start, .-Motor_Start
 959              		.section	.text.Motor_LeftSetPwm,"ax",%progbits
 960              		.align	2
 961              		.global	Motor_LeftSetPwm
 962              		.thumb
 963              		.thumb_func
 964              		.type	Motor_LeftSetPwm, %function
 965              	Motor_LeftSetPwm:
 966              	.LFB72:
 394:..\source/motor.c ****     left_motor.pwm = constrain(pwm, MIN_PWM_VALUE, MAX_PWM_VALUE);
ARM GAS  C:\Users\Tim\AppData\Local\Temp\ccrO72Ik.s 			page 28


 967              		.loc 1 394 0
 968              		.cfi_startproc
 969              		@ args = 0, pretend = 0, frame = 0
 970              		@ frame_needed = 0, uses_anonymous_args = 0
 971              	.LVL131:
 972 0000 08B5     		push	{r3, lr}
 973              		.cfi_def_cfa_offset 8
 974              		.cfi_offset 3, -8
 975              		.cfi_offset 14, -4
 395:..\source/motor.c ****     left_motor.set_pwm(left_motor.pwm);
 976              		.loc 1 395 0
 977 0002 A0F5FA63 		sub	r3, r0, #2000
 978 0006 9BB2     		uxth	r3, r3
 979 0008 4FF62F02 		movw	r2, #63535
 980 000c 9342     		cmp	r3, r2
 981 000e 05D9     		bls	.L74
 395:..\source/motor.c ****     left_motor.set_pwm(left_motor.pwm);
 982              		.loc 1 395 0 is_stmt 0 discriminator 1
 983 0010 B0F57A7F 		cmp	r0, #1000
 984 0014 38BF     		it	cc
 985 0016 4FF47A70 		movcc	r0, #1000
 986              	.LVL132:
 987 001a 01E0     		b	.L73
 988              	.LVL133:
 989              	.L74:
 395:..\source/motor.c ****     left_motor.set_pwm(left_motor.pwm);
 990              		.loc 1 395 0
 991 001c 4FF4FA60 		mov	r0, #2000
 992              	.LVL134:
 993              	.L73:
 395:..\source/motor.c ****     left_motor.set_pwm(left_motor.pwm);
 994              		.loc 1 395 0 discriminator 4
 995 0020 024B     		ldr	r3, .L76
 996 0022 1880     		strh	r0, [r3]	@ movhi
 396:..\source/motor.c **** }
 997              		.loc 1 396 0 is_stmt 1 discriminator 4
 998 0024 D3F89432 		ldr	r3, [r3, #660]
 999 0028 9847     		blx	r3
 1000              	.LVL135:
 1001 002a 08BD     		pop	{r3, pc}
 1002              	.L77:
 1003              		.align	2
 1004              	.L76:
 1005 002c 00000000 		.word	.LANCHOR1
 1006              		.cfi_endproc
 1007              	.LFE72:
 1008              		.size	Motor_LeftSetPwm, .-Motor_LeftSetPwm
 1009              		.section	.text.Motor_RightSetPwm,"ax",%progbits
 1010              		.align	2
 1011              		.global	Motor_RightSetPwm
 1012              		.thumb
 1013              		.thumb_func
 1014              		.type	Motor_RightSetPwm, %function
 1015              	Motor_RightSetPwm:
 1016              	.LFB73:
 400:..\source/motor.c ****     right_motor.pwm = constrain(pwm, MIN_PWM_VALUE, MAX_PWM_VALUE);
 1017              		.loc 1 400 0
ARM GAS  C:\Users\Tim\AppData\Local\Temp\ccrO72Ik.s 			page 29


 1018              		.cfi_startproc
 1019              		@ args = 0, pretend = 0, frame = 0
 1020              		@ frame_needed = 0, uses_anonymous_args = 0
 1021              	.LVL136:
 1022 0000 08B5     		push	{r3, lr}
 1023              		.cfi_def_cfa_offset 8
 1024              		.cfi_offset 3, -8
 1025              		.cfi_offset 14, -4
 401:..\source/motor.c ****     right_motor.set_pwm(right_motor.pwm);
 1026              		.loc 1 401 0
 1027 0002 A0F5FA63 		sub	r3, r0, #2000
 1028 0006 9BB2     		uxth	r3, r3
 1029 0008 4FF62F02 		movw	r2, #63535
 1030 000c 9342     		cmp	r3, r2
 1031 000e 05D9     		bls	.L80
 401:..\source/motor.c ****     right_motor.set_pwm(right_motor.pwm);
 1032              		.loc 1 401 0 is_stmt 0 discriminator 1
 1033 0010 B0F57A7F 		cmp	r0, #1000
 1034 0014 38BF     		it	cc
 1035 0016 4FF47A70 		movcc	r0, #1000
 1036              	.LVL137:
 1037 001a 01E0     		b	.L79
 1038              	.LVL138:
 1039              	.L80:
 401:..\source/motor.c ****     right_motor.set_pwm(right_motor.pwm);
 1040              		.loc 1 401 0
 1041 001c 4FF4FA60 		mov	r0, #2000
 1042              	.LVL139:
 1043              	.L79:
 401:..\source/motor.c ****     right_motor.set_pwm(right_motor.pwm);
 1044              		.loc 1 401 0 discriminator 4
 1045 0020 034B     		ldr	r3, .L82
 1046 0022 A3F89802 		strh	r0, [r3, #664]	@ movhi
 402:..\source/motor.c **** }
 1047              		.loc 1 402 0 is_stmt 1 discriminator 4
 1048 0026 D3F82C35 		ldr	r3, [r3, #1324]
 1049 002a 9847     		blx	r3
 1050              	.LVL140:
 1051 002c 08BD     		pop	{r3, pc}
 1052              	.L83:
 1053 002e 00BF     		.align	2
 1054              	.L82:
 1055 0030 00000000 		.word	.LANCHOR1
 1056              		.cfi_endproc
 1057              	.LFE73:
 1058              		.size	Motor_RightSetPwm, .-Motor_RightSetPwm
 1059              		.section	.text.Motor_SetPwm,"ax",%progbits
 1060              		.align	2
 1061              		.global	Motor_SetPwm
 1062              		.thumb
 1063              		.thumb_func
 1064              		.type	Motor_SetPwm, %function
 1065              	Motor_SetPwm:
 1066              	.LFB74:
 406:..\source/motor.c ****     Motor_LeftSetPwm(left_pwm);
 1067              		.loc 1 406 0
 1068              		.cfi_startproc
ARM GAS  C:\Users\Tim\AppData\Local\Temp\ccrO72Ik.s 			page 30


 1069              		@ args = 0, pretend = 0, frame = 0
 1070              		@ frame_needed = 0, uses_anonymous_args = 0
 1071              	.LVL141:
 1072 0000 10B5     		push	{r4, lr}
 1073              		.cfi_def_cfa_offset 8
 1074              		.cfi_offset 4, -8
 1075              		.cfi_offset 14, -4
 1076 0002 0C46     		mov	r4, r1
 407:..\source/motor.c ****     Motor_RightSetPwm(right_pwm);
 1077              		.loc 1 407 0
 1078 0004 FFF7FEFF 		bl	Motor_LeftSetPwm
 1079              	.LVL142:
 408:..\source/motor.c **** }
 1080              		.loc 1 408 0
 1081 0008 2046     		mov	r0, r4
 1082 000a FFF7FEFF 		bl	Motor_RightSetPwm
 1083              	.LVL143:
 1084 000e 10BD     		pop	{r4, pc}
 1085              		.cfi_endproc
 1086              	.LFE74:
 1087              		.size	Motor_SetPwm, .-Motor_SetPwm
 1088              		.section	.text.Motor_LeftSetCntsPerSec,"ax",%progbits
 1089              		.align	2
 1090              		.global	Motor_LeftSetCntsPerSec
 1091              		.thumb
 1092              		.thumb_func
 1093              		.type	Motor_LeftSetCntsPerSec, %function
 1094              	Motor_LeftSetCntsPerSec:
 1095              	.LFB75:
 412:..\source/motor.c ****     calc_motor_output_from_cps(cps, &left_motor);
 1096              		.loc 1 412 0
 1097              		.cfi_startproc
 1098              		@ args = 0, pretend = 0, frame = 0
 1099              		@ frame_needed = 0, uses_anonymous_args = 0
 1100              	.LVL144:
 1101 0000 10B5     		push	{r4, lr}
 1102              		.cfi_def_cfa_offset 8
 1103              		.cfi_offset 4, -8
 1104              		.cfi_offset 14, -4
 413:..\source/motor.c ****         
 1105              		.loc 1 413 0
 1106 0002 044C     		ldr	r4, .L88
 1107 0004 2146     		mov	r1, r4
 1108 0006 FFF7FEFF 		bl	calc_motor_output_from_cps
 1109              	.LVL145:
 415:..\source/motor.c **** }
 1110              		.loc 1 415 0
 1111 000a D4F89432 		ldr	r3, [r4, #660]
 1112 000e 2088     		ldrh	r0, [r4]
 1113 0010 9847     		blx	r3
 1114              	.LVL146:
 1115 0012 10BD     		pop	{r4, pc}
 1116              	.L89:
 1117              		.align	2
 1118              	.L88:
 1119 0014 00000000 		.word	.LANCHOR1
 1120              		.cfi_endproc
ARM GAS  C:\Users\Tim\AppData\Local\Temp\ccrO72Ik.s 			page 31


 1121              	.LFE75:
 1122              		.size	Motor_LeftSetCntsPerSec, .-Motor_LeftSetCntsPerSec
 1123              		.section	.text.Motor_RightSetCntsPerSec,"ax",%progbits
 1124              		.align	2
 1125              		.global	Motor_RightSetCntsPerSec
 1126              		.thumb
 1127              		.thumb_func
 1128              		.type	Motor_RightSetCntsPerSec, %function
 1129              	Motor_RightSetCntsPerSec:
 1130              	.LFB76:
 419:..\source/motor.c ****     calc_motor_output_from_cps(cps, &right_motor);
 1131              		.loc 1 419 0
 1132              		.cfi_startproc
 1133              		@ args = 0, pretend = 0, frame = 0
 1134              		@ frame_needed = 0, uses_anonymous_args = 0
 1135              	.LVL147:
 1136 0000 10B5     		push	{r4, lr}
 1137              		.cfi_def_cfa_offset 8
 1138              		.cfi_offset 4, -8
 1139              		.cfi_offset 14, -4
 420:..\source/motor.c ****           
 1140              		.loc 1 420 0
 1141 0002 054C     		ldr	r4, .L92
 1142 0004 04F52671 		add	r1, r4, #664
 1143 0008 FFF7FEFF 		bl	calc_motor_output_from_cps
 1144              	.LVL148:
 422:..\source/motor.c **** }
 1145              		.loc 1 422 0
 1146 000c D4F82C35 		ldr	r3, [r4, #1324]
 1147 0010 B4F89802 		ldrh	r0, [r4, #664]
 1148 0014 9847     		blx	r3
 1149              	.LVL149:
 1150 0016 10BD     		pop	{r4, pc}
 1151              	.L93:
 1152              		.align	2
 1153              	.L92:
 1154 0018 00000000 		.word	.LANCHOR1
 1155              		.cfi_endproc
 1156              	.LFE76:
 1157              		.size	Motor_RightSetCntsPerSec, .-Motor_RightSetCntsPerSec
 1158              		.global	__aeabi_i2d
 1159              		.global	__aeabi_ddiv
 1160              		.global	__aeabi_d2iz
 1161              		.section	.text.Motor_LeftSetMmPerSec,"ax",%progbits
 1162              		.align	2
 1163              		.global	Motor_LeftSetMmPerSec
 1164              		.thumb
 1165              		.thumb_func
 1166              		.type	Motor_LeftSetMmPerSec, %function
 1167              	Motor_LeftSetMmPerSec:
 1168              	.LFB77:
 426:..\source/motor.c ****     /* convert mmps to cps and call Motor_LeftSetCntsPerSec */
 1169              		.loc 1 426 0
 1170              		.cfi_startproc
 1171              		@ args = 0, pretend = 0, frame = 0
 1172              		@ frame_needed = 0, uses_anonymous_args = 0
 1173              	.LVL150:
ARM GAS  C:\Users\Tim\AppData\Local\Temp\ccrO72Ik.s 			page 32


 1174 0000 08B5     		push	{r3, lr}
 1175              		.cfi_def_cfa_offset 8
 1176              		.cfi_offset 3, -8
 1177              		.cfi_offset 14, -4
 428:..\source/motor.c ****     Motor_LeftSetCntsPerSec(cps);
 1178              		.loc 1 428 0
 1179 0002 FFF7FEFF 		bl	__aeabi_i2d
 1180              	.LVL151:
 1181 0006 06A3     		adr	r3, .L96
 1182 0008 D3E90023 		ldrd	r2, [r3]
 1183 000c FFF7FEFF 		bl	__aeabi_ddiv
 1184              	.LVL152:
 1185 0010 FFF7FEFF 		bl	__aeabi_d2iz
 1186              	.LVL153:
 429:..\source/motor.c **** }
 1187              		.loc 1 429 0
 1188 0014 00B2     		sxth	r0, r0
 1189 0016 FFF7FEFF 		bl	__aeabi_i2f
 1190              	.LVL154:
 1191 001a FFF7FEFF 		bl	Motor_LeftSetCntsPerSec
 1192              	.LVL155:
 1193 001e 08BD     		pop	{r3, pc}
 1194              	.L97:
 1195              		.align	3
 1196              	.L96:
 1197 0020 C7711CC7 		.word	-954437177
 1198 0024 719C0A40 		.word	1074437233
 1199              		.cfi_endproc
 1200              	.LFE77:
 1201              		.size	Motor_LeftSetMmPerSec, .-Motor_LeftSetMmPerSec
 1202              		.section	.text.Motor_RightSetMmPerSec,"ax",%progbits
 1203              		.align	2
 1204              		.global	Motor_RightSetMmPerSec
 1205              		.thumb
 1206              		.thumb_func
 1207              		.type	Motor_RightSetMmPerSec, %function
 1208              	Motor_RightSetMmPerSec:
 1209              	.LFB78:
 433:..\source/motor.c ****     /* convert mmps to cps and call Motor_RightSetCntsPerSec */
 1210              		.loc 1 433 0
 1211              		.cfi_startproc
 1212              		@ args = 0, pretend = 0, frame = 0
 1213              		@ frame_needed = 0, uses_anonymous_args = 0
 1214              	.LVL156:
 1215 0000 08B5     		push	{r3, lr}
 1216              		.cfi_def_cfa_offset 8
 1217              		.cfi_offset 3, -8
 1218              		.cfi_offset 14, -4
 435:..\source/motor.c ****     Motor_RightSetCntsPerSec(cps);
 1219              		.loc 1 435 0
 1220 0002 FFF7FEFF 		bl	__aeabi_i2d
 1221              	.LVL157:
 1222 0006 06A3     		adr	r3, .L100
 1223 0008 D3E90023 		ldrd	r2, [r3]
 1224 000c FFF7FEFF 		bl	__aeabi_ddiv
 1225              	.LVL158:
 1226 0010 FFF7FEFF 		bl	__aeabi_d2iz
ARM GAS  C:\Users\Tim\AppData\Local\Temp\ccrO72Ik.s 			page 33


 1227              	.LVL159:
 436:..\source/motor.c **** }
 1228              		.loc 1 436 0
 1229 0014 00B2     		sxth	r0, r0
 1230 0016 FFF7FEFF 		bl	__aeabi_i2f
 1231              	.LVL160:
 1232 001a FFF7FEFF 		bl	Motor_RightSetCntsPerSec
 1233              	.LVL161:
 1234 001e 08BD     		pop	{r3, pc}
 1235              	.L101:
 1236              		.align	3
 1237              	.L100:
 1238 0020 C7711CC7 		.word	-954437177
 1239 0024 719C0A40 		.word	1074437233
 1240              		.cfi_endproc
 1241              	.LFE78:
 1242              		.size	Motor_RightSetMmPerSec, .-Motor_RightSetMmPerSec
 1243              		.section	.text.Motor_LeftGetPwm,"ax",%progbits
 1244              		.align	2
 1245              		.global	Motor_LeftGetPwm
 1246              		.thumb
 1247              		.thumb_func
 1248              		.type	Motor_LeftGetPwm, %function
 1249              	Motor_LeftGetPwm:
 1250              	.LFB79:
 440:..\source/motor.c ****     return left_motor.pwm;
 1251              		.loc 1 440 0
 1252              		.cfi_startproc
 1253              		@ args = 0, pretend = 0, frame = 0
 1254              		@ frame_needed = 0, uses_anonymous_args = 0
 1255              		@ link register save eliminated.
 442:..\source/motor.c ****            
 1256              		.loc 1 442 0
 1257 0000 014B     		ldr	r3, .L103
 1258 0002 1888     		ldrh	r0, [r3]
 1259 0004 7047     		bx	lr
 1260              	.L104:
 1261 0006 00BF     		.align	2
 1262              	.L103:
 1263 0008 00000000 		.word	.LANCHOR1
 1264              		.cfi_endproc
 1265              	.LFE79:
 1266              		.size	Motor_LeftGetPwm, .-Motor_LeftGetPwm
 1267              		.section	.text.Motor_RightGetPwm,"ax",%progbits
 1268              		.align	2
 1269              		.global	Motor_RightGetPwm
 1270              		.thumb
 1271              		.thumb_func
 1272              		.type	Motor_RightGetPwm, %function
 1273              	Motor_RightGetPwm:
 1274              	.LFB80:
 445:..\source/motor.c ****     return right_motor.pwm;
 1275              		.loc 1 445 0
 1276              		.cfi_startproc
 1277              		@ args = 0, pretend = 0, frame = 0
 1278              		@ frame_needed = 0, uses_anonymous_args = 0
 1279              		@ link register save eliminated.
ARM GAS  C:\Users\Tim\AppData\Local\Temp\ccrO72Ik.s 			page 34


 447:..\source/motor.c **** 
 1280              		.loc 1 447 0
 1281 0000 014B     		ldr	r3, .L106
 1282 0002 B3F89802 		ldrh	r0, [r3, #664]
 1283 0006 7047     		bx	lr
 1284              	.L107:
 1285              		.align	2
 1286              	.L106:
 1287 0008 00000000 		.word	.LANCHOR1
 1288              		.cfi_endproc
 1289              	.LFE80:
 1290              		.size	Motor_RightGetPwm, .-Motor_RightGetPwm
 1291              		.section	.text.Motor_Stop,"ax",%progbits
 1292              		.align	2
 1293              		.global	Motor_Stop
 1294              		.thumb
 1295              		.thumb_func
 1296              		.type	Motor_Stop, %function
 1297              	Motor_Stop:
 1298              	.LFB81:
 450:..\source/motor.c ****     left_motor.stop();
 1299              		.loc 1 450 0
 1300              		.cfi_startproc
 1301              		@ args = 0, pretend = 0, frame = 0
 1302              		@ frame_needed = 0, uses_anonymous_args = 0
 1303 0000 10B5     		push	{r4, lr}
 1304              		.cfi_def_cfa_offset 8
 1305              		.cfi_offset 4, -8
 1306              		.cfi_offset 14, -4
 451:..\source/motor.c ****     right_motor.stop();
 1307              		.loc 1 451 0
 1308 0002 084C     		ldr	r4, .L110
 1309 0004 D4F89032 		ldr	r3, [r4, #656]
 1310 0008 9847     		blx	r3
 1311              	.LVL162:
 452:..\source/motor.c ****     left_motor.enable(HB25_DISABLE);
 1312              		.loc 1 452 0
 1313 000a D4F82835 		ldr	r3, [r4, #1320]
 1314 000e 9847     		blx	r3
 1315              	.LVL163:
 453:..\source/motor.c ****     right_motor.enable(HB25_DISABLE);
 1316              		.loc 1 453 0
 1317 0010 D4F88832 		ldr	r3, [r4, #648]
 1318 0014 0120     		movs	r0, #1
 1319 0016 9847     		blx	r3
 1320              	.LVL164:
 454:..\source/motor.c **** }
 1321              		.loc 1 454 0
 1322 0018 D4F82035 		ldr	r3, [r4, #1312]
 1323 001c 0120     		movs	r0, #1
 1324 001e 9847     		blx	r3
 1325              	.LVL165:
 1326 0020 10BD     		pop	{r4, pc}
 1327              	.L111:
 1328 0022 00BF     		.align	2
 1329              	.L110:
 1330 0024 00000000 		.word	.LANCHOR1
ARM GAS  C:\Users\Tim\AppData\Local\Temp\ccrO72Ik.s 			page 35


 1331              		.cfi_endproc
 1332              	.LFE81:
 1333              		.size	Motor_Stop, .-Motor_Stop
 1334              		.section	.text.Motor_CollectPwmCpsSamples,"ax",%progbits
 1335              		.align	2
 1336              		.global	Motor_CollectPwmCpsSamples
 1337              		.thumb
 1338              		.thumb_func
 1339              		.type	Motor_CollectPwmCpsSamples, %function
 1340              	Motor_CollectPwmCpsSamples:
 1341              	.LFB85:
 507:..\source/motor.c **** 
 508:..\source/motor.c **** void Motor_CollectPwmCpsSamples(WHEEL_TYPE wheel, uint8 reverse_pwm, uint8 num_avg_iter, uint16 *pw
 509:..\source/motor.c **** {
 1342              		.loc 1 509 0
 1343              		.cfi_startproc
 1344              		@ args = 4, pretend = 0, frame = 0
 1345              		@ frame_needed = 0, uses_anonymous_args = 0
 1346              	.LVL166:
 1347 0000 2DE9F047 		push	{r4, r5, r6, r7, r8, r9, r10, lr}
 1348              		.cfi_def_cfa_offset 32
 1349              		.cfi_offset 4, -32
 1350              		.cfi_offset 5, -28
 1351              		.cfi_offset 6, -24
 1352              		.cfi_offset 7, -20
 1353              		.cfi_offset 8, -16
 1354              		.cfi_offset 9, -12
 1355              		.cfi_offset 10, -8
 1356              		.cfi_offset 14, -4
 1357 0004 0C46     		mov	r4, r1
 1358 0006 9046     		mov	r8, r2
 1359 0008 9946     		mov	r9, r3
 1360 000a 089E     		ldr	r6, [sp, #32]
 510:..\source/motor.c ****     uint8 index;
 511:..\source/motor.c ****     MOTOR_TYPE *motor;
 512:..\source/motor.c ****     GET_ENCODER_TYPE encoder;
 513:..\source/motor.c **** 
 514:..\source/motor.c ****     motor = (wheel == LEFT_WHEEL) ? &left_motor : &right_motor;
 1361              		.loc 1 514 0
 1362 000c 0346     		mov	r3, r0
 1363              	.LVL167:
 1364 000e 08B9     		cbnz	r0, .L120
 1365 0010 254D     		ldr	r5, .L124
 1366 0012 00E0     		b	.L113
 1367              	.L120:
 1368 0014 254D     		ldr	r5, .L124+4
 1369              	.L113:
 1370              	.LVL168:
 515:..\source/motor.c ****     encoder = (wheel == LEFT_WHEEL) ? Encoder_LeftGetCntsPerSec : Encoder_RightGetCntsPerSec;
 1371              		.loc 1 515 0 discriminator 4
 1372 0016 0BB9     		cbnz	r3, .L121
 1373              		.loc 1 515 0 is_stmt 0
 1374 0018 254F     		ldr	r7, .L124+8
 1375 001a 00E0     		b	.L114
 1376              	.L121:
 1377 001c 254F     		ldr	r7, .L124+12
 1378              	.L114:
ARM GAS  C:\Users\Tim\AppData\Local\Temp\ccrO72Ik.s 			page 36


 1379              	.LVL169:
 516:..\source/motor.c ****     motor->pwm = PWM_STOP;
 1380              		.loc 1 516 0 is_stmt 1 discriminator 4
 1381 001e 40F2DC50 		movw	r0, #1500
 1382              	.LVL170:
 1383 0022 2880     		strh	r0, [r5]	@ movhi
 517:..\source/motor.c ****     motor->set_pwm(motor->pwm);
 1384              		.loc 1 517 0 discriminator 4
 1385 0024 D5F89432 		ldr	r3, [r5, #660]
 1386 0028 9847     		blx	r3
 1387              	.LVL171:
 518:..\source/motor.c ****     CyDelay(500);
 1388              		.loc 1 518 0 discriminator 4
 1389 002a 4FF4FA70 		mov	r0, #500
 1390 002e FFF7FEFF 		bl	CyDelay
 1391              	.LVL172:
 519:..\source/motor.c ****     Encoder_Reset();
 1392              		.loc 1 519 0 discriminator 4
 1393 0032 FFF7FEFF 		bl	Encoder_Reset
 1394              	.LVL173:
 520:..\source/motor.c **** 
 521:..\source/motor.c ****     /* Note: The pwm samples are loaded in ascending order wrt to the pwm value, e.g., 1500 .. 200 
 522:..\source/motor.c ****        This is so the interpolation will work without any special handling.  However, when calculat
 523:..\source/motor.c ****        necessary to apply the pwm values in reverse order when collecting CPS values in the 1000 to
 524:..\source/motor.c ****        the motor moves in from stop to full speed.
 525:..\source/motor.c ****     
 526:..\source/motor.c ****        This range is in the backward direction on the left wheel and the forward direction on the r
 527:..\source/motor.c ****      */
 528:..\source/motor.c ****     memset(cps_samples, 0, CAL_NUM_SAMPLES * sizeof(int32));
 1395              		.loc 1 528 0 discriminator 4
 1396 0036 3046     		mov	r0, r6
 1397 0038 0021     		movs	r1, #0
 1398 003a CC22     		movs	r2, #204
 1399 003c FFF7FEFF 		bl	memset
 1400              	.LVL174:
 529:..\source/motor.c ****     
 530:..\source/motor.c ****     if (reverse_pwm)
 1401              		.loc 1 530 0 discriminator 4
 1402 0040 8CB9     		cbnz	r4, .L122
 1403 0042 20E0     		b	.L116
 1404              	.LVL175:
 1405              	.L117:
 1406              	.LBB2:
 531:..\source/motor.c **** {
 532:..\source/motor.c ****         for ( index = 0; index < CAL_NUM_SAMPLES; ++index)
 533:..\source/motor.c ****         {
 534:..\source/motor.c ****             uint8 offset = CAL_NUM_SAMPLES - 1 - index;
 1407              		.loc 1 534 0 discriminator 3
 1408 0044 C4F1320A 		rsb	r10, r4, #50
 1409 0048 5FFA8AFA 		uxtb	r10, r10
 1410              	.LVL176:
 535:..\source/motor.c ****             motor->pwm = pwm_samples[offset];
 1411              		.loc 1 535 0 discriminator 3
 1412 004c 39F81A30 		ldrh	r3, [r9, r10, lsl #1]
 1413 0050 2B80     		strh	r3, [r5]	@ movhi
 536:..\source/motor.c ****             cps_samples[offset] = CollectCpsPwmSamples(motor, encoder, num_avg_iter);
 1414              		.loc 1 536 0 discriminator 3
ARM GAS  C:\Users\Tim\AppData\Local\Temp\ccrO72Ik.s 			page 37


 1415 0052 2846     		mov	r0, r5
 1416 0054 3946     		mov	r1, r7
 1417 0056 4246     		mov	r2, r8
 1418 0058 FFF7FEFF 		bl	CollectCpsPwmSamples
 1419              	.LVL177:
 1420 005c 46F82A00 		str	r0, [r6, r10, lsl #2]
 1421              	.LBE2:
 532:..\source/motor.c ****         {
 1422              		.loc 1 532 0 discriminator 3
 1423 0060 0134     		adds	r4, r4, #1
 1424              	.LVL178:
 1425 0062 E4B2     		uxtb	r4, r4
 1426              	.LVL179:
 1427 0064 00E0     		b	.L115
 1428              	.LVL180:
 1429              	.L122:
 1430 0066 0024     		movs	r4, #0
 1431              	.L115:
 1432              	.LVL181:
 532:..\source/motor.c ****         {
 1433              		.loc 1 532 0 is_stmt 0 discriminator 1
 1434 0068 322C     		cmp	r4, #50
 1435 006a EBD9     		bls	.L117
 1436 006c 0DE0     		b	.L118
 1437              	.L119:
 537:..\source/motor.c ****         }
 538:..\source/motor.c **** }
 539:..\source/motor.c ****     else
 540:..\source/motor.c ****     {
 541:..\source/motor.c ****         for ( index = 0; index < CAL_NUM_SAMPLES; ++index)
 542:..\source/motor.c ****         {
 543:..\source/motor.c ****             motor->pwm = pwm_samples[index];
 1438              		.loc 1 543 0 is_stmt 1 discriminator 3
 1439 006e 39F81430 		ldrh	r3, [r9, r4, lsl #1]
 1440 0072 2B80     		strh	r3, [r5]	@ movhi
 544:..\source/motor.c ****             cps_samples[index] = CollectCpsPwmSamples(motor, encoder, num_avg_iter);
 1441              		.loc 1 544 0 discriminator 3
 1442 0074 2846     		mov	r0, r5
 1443 0076 3946     		mov	r1, r7
 1444 0078 4246     		mov	r2, r8
 1445 007a FFF7FEFF 		bl	CollectCpsPwmSamples
 1446              	.LVL182:
 1447 007e 46F82400 		str	r0, [r6, r4, lsl #2]
 541:..\source/motor.c ****         {
 1448              		.loc 1 541 0 discriminator 3
 1449 0082 0134     		adds	r4, r4, #1
 1450              	.LVL183:
 1451 0084 E4B2     		uxtb	r4, r4
 1452              	.LVL184:
 1453              	.L116:
 541:..\source/motor.c ****         {
 1454              		.loc 1 541 0 is_stmt 0 discriminator 1
 1455 0086 322C     		cmp	r4, #50
 1456 0088 F1D9     		bls	.L119
 1457              	.L118:
 545:..\source/motor.c ****         }
 546:..\source/motor.c ****     }
ARM GAS  C:\Users\Tim\AppData\Local\Temp\ccrO72Ik.s 			page 38


 547:..\source/motor.c ****     
 548:..\source/motor.c ****     RampSpeed(motor, 500, PWM_STOP);
 1458              		.loc 1 548 0 is_stmt 1
 1459 008a 2846     		mov	r0, r5
 1460 008c 4FF4FA71 		mov	r1, #500
 1461 0090 40F2DC52 		movw	r2, #1500
 1462 0094 FFF7FEFF 		bl	RampSpeed
 1463              	.LVL185:
 549:..\source/motor.c ****     motor->pwm = PWM_STOP;
 1464              		.loc 1 549 0
 1465 0098 40F2DC50 		movw	r0, #1500
 1466 009c 2880     		strh	r0, [r5]	@ movhi
 550:..\source/motor.c ****     motor->set_pwm(motor->pwm);
 1467              		.loc 1 550 0
 1468 009e D5F89432 		ldr	r3, [r5, #660]
 1469 00a2 9847     		blx	r3
 1470              	.LVL186:
 1471 00a4 BDE8F087 		pop	{r4, r5, r6, r7, r8, r9, r10, pc}
 1472              	.LVL187:
 1473              	.L125:
 1474              		.align	2
 1475              	.L124:
 1476 00a8 00000000 		.word	.LANCHOR1
 1477 00ac 98020000 		.word	.LANCHOR1+664
 1478 00b0 00000000 		.word	Encoder_LeftGetCntsPerSec
 1479 00b4 00000000 		.word	Encoder_RightGetCntsPerSec
 1480              		.cfi_endproc
 1481              	.LFE85:
 1482              		.size	Motor_CollectPwmCpsSamples, .-Motor_CollectPwmCpsSamples
 1483              		.section	.text.Motor_LeftSetCalibration,"ax",%progbits
 1484              		.align	2
 1485              		.global	Motor_LeftSetCalibration
 1486              		.thumb
 1487              		.thumb_func
 1488              		.type	Motor_LeftSetCalibration, %function
 1489              	Motor_LeftSetCalibration:
 1490              	.LFB86:
 551:..\source/motor.c **** }
 552:..\source/motor.c **** 
 553:..\source/motor.c **** void Motor_LeftSetCalibration(int32 *fwd_cps_samples, uint16 *fwd_pwm_samples, int32 *bwd_cps_sampl
 554:..\source/motor.c **** {
 1491              		.loc 1 554 0
 1492              		.cfi_startproc
 1493              		@ args = 0, pretend = 0, frame = 0
 1494              		@ frame_needed = 0, uses_anonymous_args = 0
 1495              	.LVL188:
 1496 0000 2DE9F843 		push	{r3, r4, r5, r6, r7, r8, r9, lr}
 1497              		.cfi_def_cfa_offset 32
 1498              		.cfi_offset 3, -32
 1499              		.cfi_offset 4, -28
 1500              		.cfi_offset 5, -24
 1501              		.cfi_offset 6, -20
 1502              		.cfi_offset 7, -16
 1503              		.cfi_offset 8, -12
 1504              		.cfi_offset 9, -8
 1505              		.cfi_offset 14, -4
 1506              	.LVL189:
ARM GAS  C:\Users\Tim\AppData\Local\Temp\ccrO72Ik.s 			page 39


 555:..\source/motor.c ****     uint8 ii;
 556:..\source/motor.c ****     
 557:..\source/motor.c ****     int32 max_fwd_cps = 0;
 558:..\source/motor.c ****     int32 min_fwd_cps = 0x7fffffff;
 559:..\source/motor.c ****     int32 max_bwd_cps = 0;
 560:..\source/motor.c ****     int32 min_bwd_cps = 0x7fffffff;
 1507              		.loc 1 560 0
 1508 0004 6FF0004E 		mvn	lr, #-2147483648
 559:..\source/motor.c ****     int32 min_bwd_cps = 0x7fffffff;
 1509              		.loc 1 559 0
 1510 0008 0027     		movs	r7, #0
 558:..\source/motor.c ****     int32 max_bwd_cps = 0;
 1511              		.loc 1 558 0
 1512 000a F046     		mov	r8, lr
 557:..\source/motor.c ****     int32 min_fwd_cps = 0x7fffffff;
 1513              		.loc 1 557 0
 1514 000c BC46     		mov	ip, r7
 561:..\source/motor.c **** 
 562:..\source/motor.c ****     for (ii = 0; ii < CAL_NUM_SAMPLES; ++ii)
 1515              		.loc 1 562 0
 1516 000e 3C46     		mov	r4, r7
 1517 0010 28E0     		b	.L127
 1518              	.LVL190:
 1519              	.L128:
 563:..\source/motor.c **** {
 564:..\source/motor.c ****         max_fwd_cps = max(max_fwd_cps, fwd_cps_samples[ii]);
 1520              		.loc 1 564 0 discriminator 3
 1521 0012 50F82460 		ldr	r6, [r0, r4, lsl #2]
 1522 0016 B445     		cmp	ip, r6
 1523 0018 B8BF     		it	lt
 1524 001a B446     		movlt	ip, r6
 1525              	.LVL191:
 565:..\source/motor.c ****         min_fwd_cps = min(min_fwd_cps, fwd_cps_samples[ii]);
 1526              		.loc 1 565 0 discriminator 3
 1527 001c B045     		cmp	r8, r6
 1528 001e A8BF     		it	ge
 1529 0020 B046     		movge	r8, r6
 1530              	.LVL192:
 566:..\source/motor.c ****         max_bwd_cps = max(max_bwd_cps, bwd_cps_samples[ii]);
 1531              		.loc 1 566 0 discriminator 3
 1532 0022 52F82450 		ldr	r5, [r2, r4, lsl #2]
 1533 0026 AF42     		cmp	r7, r5
 1534 0028 B8BF     		it	lt
 1535 002a 2F46     		movlt	r7, r5
 1536              	.LVL193:
 567:..\source/motor.c ****         min_bwd_cps = min(min_bwd_cps, bwd_cps_samples[ii]);
 1537              		.loc 1 567 0 discriminator 3
 1538 002c AE45     		cmp	lr, r5
 1539 002e A8BF     		it	ge
 1540 0030 AE46     		movge	lr, r5
 1541              	.LVL194:
 568:..\source/motor.c ****         
 569:..\source/motor.c ****         left_motor.fwd_cal_data.cps_data[ii] = fwd_cps_samples[ii];
 1542              		.loc 1 569 0 discriminator 3
 1543 0032 144D     		ldr	r5, .L130
 1544 0034 04F10209 		add	r9, r4, #2
 1545 0038 45F82960 		str	r6, [r5, r9, lsl #2]
ARM GAS  C:\Users\Tim\AppData\Local\Temp\ccrO72Ik.s 			page 40


 570:..\source/motor.c ****         left_motor.fwd_cal_data.pwm_data[ii] = fwd_pwm_samples[ii];
 1546              		.loc 1 570 0 discriminator 3
 1547 003c 31F81490 		ldrh	r9, [r1, r4, lsl #1]
 1548 0040 04F17006 		add	r6, r4, #112
 1549 0044 25F81690 		strh	r9, [r5, r6, lsl #1]	@ movhi
 571:..\source/motor.c ****         left_motor.bwd_cal_data.cps_data[ii] = bwd_cps_samples[ii];
 1550              		.loc 1 571 0 discriminator 3
 1551 0048 52F82460 		ldr	r6, [r2, r4, lsl #2]
 1552 004c 04F15209 		add	r9, r4, #82
 1553 0050 45F82960 		str	r6, [r5, r9, lsl #2]
 572:..\source/motor.c ****         left_motor.bwd_cal_data.pwm_data[ii] = bwd_pwm_samples[ii];
 1554              		.loc 1 572 0 discriminator 3
 1555 0054 33F81490 		ldrh	r9, [r3, r4, lsl #1]
 1556 0058 04F58876 		add	r6, r4, #272
 1557 005c 25F81690 		strh	r9, [r5, r6, lsl #1]	@ movhi
 562:..\source/motor.c **** {
 1558              		.loc 1 562 0 discriminator 3
 1559 0060 0134     		adds	r4, r4, #1
 1560              	.LVL195:
 1561 0062 E4B2     		uxtb	r4, r4
 1562              	.LVL196:
 1563              	.L127:
 562:..\source/motor.c **** {
 1564              		.loc 1 562 0 is_stmt 0 discriminator 1
 1565 0064 322C     		cmp	r4, #50
 1566 0066 D4D9     		bls	.L128
 573:..\source/motor.c ****     }
 574:..\source/motor.c **** 
 575:..\source/motor.c ****     left_motor.fwd_cal_data.cps_min = min_fwd_cps;
 1567              		.loc 1 575 0 is_stmt 1
 1568 0068 0649     		ldr	r1, .L130
 1569              	.LVL197:
 1570 006a C1F8D480 		str	r8, [r1, #212]
 576:..\source/motor.c ****     left_motor.fwd_cal_data.cps_max = max_fwd_cps;
 1571              		.loc 1 576 0
 1572 006e C1F8D8C0 		str	ip, [r1, #216]
 577:..\source/motor.c ****     left_motor.bwd_cal_data.cps_min = min_bwd_cps;
 1573              		.loc 1 577 0
 1574 0072 C1F814E2 		str	lr, [r1, #532]
 578:..\source/motor.c ****     left_motor.bwd_cal_data.cps_max = max_bwd_cps;
 1575              		.loc 1 578 0
 1576 0076 C1F81872 		str	r7, [r1, #536]
 579:..\source/motor.c ****     
 580:..\source/motor.c ****     DumpMotorCal("Left\r\n", &left_motor);
 1577              		.loc 1 580 0
 1578 007a 0348     		ldr	r0, .L130+4
 1579              	.LVL198:
 1580 007c FFF7FEFF 		bl	DumpMotorCal
 1581              	.LVL199:
 1582 0080 BDE8F883 		pop	{r3, r4, r5, r6, r7, r8, r9, pc}
 1583              	.LVL200:
 1584              	.L131:
 1585              		.align	2
 1586              	.L130:
 1587 0084 00000000 		.word	.LANCHOR1
 1588 0088 DC000000 		.word	.LC14
 1589              		.cfi_endproc
ARM GAS  C:\Users\Tim\AppData\Local\Temp\ccrO72Ik.s 			page 41


 1590              	.LFE86:
 1591              		.size	Motor_LeftSetCalibration, .-Motor_LeftSetCalibration
 1592              		.section	.text.Motor_RightSetCalibration,"ax",%progbits
 1593              		.align	2
 1594              		.global	Motor_RightSetCalibration
 1595              		.thumb
 1596              		.thumb_func
 1597              		.type	Motor_RightSetCalibration, %function
 1598              	Motor_RightSetCalibration:
 1599              	.LFB87:
 581:..\source/motor.c **** }
 582:..\source/motor.c **** 
 583:..\source/motor.c **** void Motor_RightSetCalibration(int32 *fwd_cps_samples, uint16 *fwd_pwm_samples, int32 *bwd_cps_samp
 584:..\source/motor.c **** {
 1600              		.loc 1 584 0
 1601              		.cfi_startproc
 1602              		@ args = 0, pretend = 0, frame = 0
 1603              		@ frame_needed = 0, uses_anonymous_args = 0
 1604              	.LVL201:
 1605 0000 2DE9F843 		push	{r3, r4, r5, r6, r7, r8, r9, lr}
 1606              		.cfi_def_cfa_offset 32
 1607              		.cfi_offset 3, -32
 1608              		.cfi_offset 4, -28
 1609              		.cfi_offset 5, -24
 1610              		.cfi_offset 6, -20
 1611              		.cfi_offset 7, -16
 1612              		.cfi_offset 8, -12
 1613              		.cfi_offset 9, -8
 1614              		.cfi_offset 14, -4
 1615              	.LVL202:
 585:..\source/motor.c ****     uint8 ii;
 586:..\source/motor.c ****     
 587:..\source/motor.c ****     int32 max_fwd_cps = 0;
 588:..\source/motor.c ****     int32 min_fwd_cps = 0x7fffffff;
 589:..\source/motor.c ****     int32 max_bwd_cps = 0;
 590:..\source/motor.c ****     int32 min_bwd_cps = 0x7fffffff;
 1616              		.loc 1 590 0
 1617 0004 6FF0004E 		mvn	lr, #-2147483648
 589:..\source/motor.c ****     int32 min_bwd_cps = 0x7fffffff;
 1618              		.loc 1 589 0
 1619 0008 0027     		movs	r7, #0
 588:..\source/motor.c ****     int32 max_bwd_cps = 0;
 1620              		.loc 1 588 0
 1621 000a F046     		mov	r8, lr
 587:..\source/motor.c ****     int32 min_fwd_cps = 0x7fffffff;
 1622              		.loc 1 587 0
 1623 000c BC46     		mov	ip, r7
 591:..\source/motor.c ****     
 592:..\source/motor.c ****     for (ii = 0; ii < CAL_NUM_SAMPLES; ++ii)
 1624              		.loc 1 592 0
 1625 000e 3C46     		mov	r4, r7
 1626 0010 28E0     		b	.L133
 1627              	.LVL203:
 1628              	.L134:
 593:..\source/motor.c ****     {
 594:..\source/motor.c ****         max_fwd_cps = max(max_fwd_cps, fwd_cps_samples[ii]);
 1629              		.loc 1 594 0 discriminator 3
ARM GAS  C:\Users\Tim\AppData\Local\Temp\ccrO72Ik.s 			page 42


 1630 0012 50F82460 		ldr	r6, [r0, r4, lsl #2]
 1631 0016 B445     		cmp	ip, r6
 1632 0018 B8BF     		it	lt
 1633 001a B446     		movlt	ip, r6
 1634              	.LVL204:
 595:..\source/motor.c ****         min_fwd_cps = min(min_fwd_cps, fwd_cps_samples[ii]);
 1635              		.loc 1 595 0 discriminator 3
 1636 001c B045     		cmp	r8, r6
 1637 001e A8BF     		it	ge
 1638 0020 B046     		movge	r8, r6
 1639              	.LVL205:
 596:..\source/motor.c ****         max_bwd_cps = max(max_bwd_cps, bwd_cps_samples[ii]);
 1640              		.loc 1 596 0 discriminator 3
 1641 0022 52F82450 		ldr	r5, [r2, r4, lsl #2]
 1642 0026 AF42     		cmp	r7, r5
 1643 0028 B8BF     		it	lt
 1644 002a 2F46     		movlt	r7, r5
 1645              	.LVL206:
 597:..\source/motor.c ****         min_bwd_cps = min(min_bwd_cps, bwd_cps_samples[ii]);
 1646              		.loc 1 597 0 discriminator 3
 1647 002c AE45     		cmp	lr, r5
 1648 002e A8BF     		it	ge
 1649 0030 AE46     		movge	lr, r5
 1650              	.LVL207:
 598:..\source/motor.c ****         
 599:..\source/motor.c ****         right_motor.fwd_cal_data.cps_data[ii] = fwd_cps_samples[ii];
 1651              		.loc 1 599 0 discriminator 3
 1652 0032 154D     		ldr	r5, .L136
 1653 0034 05EB8409 		add	r9, r5, r4, lsl #2
 1654 0038 C9F8A062 		str	r6, [r9, #672]
 600:..\source/motor.c ****         right_motor.fwd_cal_data.pwm_data[ii] = fwd_pwm_samples[ii];
 1655              		.loc 1 600 0 discriminator 3
 1656 003c 31F81490 		ldrh	r9, [r1, r4, lsl #1]
 1657 0040 05EB4406 		add	r6, r5, r4, lsl #1
 1658 0044 A6F87893 		strh	r9, [r6, #888]	@ movhi
 601:..\source/motor.c ****         right_motor.bwd_cal_data.cps_data[ii] = bwd_cps_samples[ii];
 1659              		.loc 1 601 0 discriminator 3
 1660 0048 52F82460 		ldr	r6, [r2, r4, lsl #2]
 1661 004c 05EB8409 		add	r9, r5, r4, lsl #2
 1662 0050 C9F8E063 		str	r6, [r9, #992]
 602:..\source/motor.c ****         right_motor.bwd_cal_data.pwm_data[ii] = bwd_pwm_samples[ii];
 1663              		.loc 1 602 0 discriminator 3
 1664 0054 33F81460 		ldrh	r6, [r3, r4, lsl #1]
 1665 0058 05EB4405 		add	r5, r5, r4, lsl #1
 1666 005c A5F8B864 		strh	r6, [r5, #1208]	@ movhi
 592:..\source/motor.c ****     {
 1667              		.loc 1 592 0 discriminator 3
 1668 0060 0134     		adds	r4, r4, #1
 1669              	.LVL208:
 1670 0062 E4B2     		uxtb	r4, r4
 1671              	.LVL209:
 1672              	.L133:
 592:..\source/motor.c ****     {
 1673              		.loc 1 592 0 is_stmt 0 discriminator 1
 1674 0064 322C     		cmp	r4, #50
 1675 0066 D4D9     		bls	.L134
 603:..\source/motor.c ****     }
ARM GAS  C:\Users\Tim\AppData\Local\Temp\ccrO72Ik.s 			page 43


 604:..\source/motor.c ****     
 605:..\source/motor.c ****     right_motor.fwd_cal_data.cps_min = min_fwd_cps;
 1676              		.loc 1 605 0 is_stmt 1
 1677 0068 0749     		ldr	r1, .L136
 1678              	.LVL210:
 1679 006a C1F86C83 		str	r8, [r1, #876]
 606:..\source/motor.c ****     right_motor.fwd_cal_data.cps_max = max_fwd_cps;
 1680              		.loc 1 606 0
 1681 006e C1F870C3 		str	ip, [r1, #880]
 607:..\source/motor.c ****     right_motor.bwd_cal_data.cps_min = min_bwd_cps;
 1682              		.loc 1 607 0
 1683 0072 C1F8ACE4 		str	lr, [r1, #1196]
 608:..\source/motor.c ****     right_motor.bwd_cal_data.cps_max = max_bwd_cps;
 1684              		.loc 1 608 0
 1685 0076 C1F8B074 		str	r7, [r1, #1200]
 609:..\source/motor.c ****     
 610:..\source/motor.c ****     DumpMotorCal("Right\r\n", &right_motor);
 1686              		.loc 1 610 0
 1687 007a 0448     		ldr	r0, .L136+4
 1688              	.LVL211:
 1689 007c 01F52671 		add	r1, r1, #664
 1690 0080 FFF7FEFF 		bl	DumpMotorCal
 1691              	.LVL212:
 1692 0084 BDE8F883 		pop	{r3, r4, r5, r6, r7, r8, r9, pc}
 1693              	.LVL213:
 1694              	.L137:
 1695              		.align	2
 1696              	.L136:
 1697 0088 00000000 		.word	.LANCHOR1
 1698 008c E4000000 		.word	.LC15
 1699              		.cfi_endproc
 1700              	.LFE87:
 1701              		.size	Motor_RightSetCalibration, .-Motor_RightSetCalibration
 1702              		.comm	formatted_string,256,4
 1703              		.section	.rodata
 1704              		.align	2
 1705              		.set	.LANCHOR0,. + 0
 1706              		.type	__func__.8885, %object
 1707              		.size	__func__.8885, 10
 1708              	__func__.8885:
 1709 0000 44756D70 		.ascii	"DumpMotor\000"
 1709      4D6F746F 
 1709      7200
 1710 000a 0000     		.space	2
 1711              		.type	__func__.8972, %object
 1712              		.size	__func__.8972, 15
 1713              	__func__.8972:
 1714 000c 57726974 		.ascii	"WriteTwoValues\000"
 1714      6554776F 
 1714      56616C75 
 1714      657300
 1715 001b 00       		.data
 1716              		.align	2
 1717              		.set	.LANCHOR1,. + 0
 1718              		.type	left_motor, %object
 1719              		.size	left_motor, 664
 1720              	left_motor:
ARM GAS  C:\Users\Tim\AppData\Local\Temp\ccrO72Ik.s 			page 44


 1721 0000 DC05     		.short	1500
 1722 0002 0000     		.space	2
 1723 0004 00000000 		.word	0
 1724 0008 00000000 		.word	0
 1725 000c 00000000 		.word	0
 1726 0010 00000000 		.word	0
 1727 0014 5F000000 		.word	95
 1728 0018 5D020000 		.word	605
 1729 001c F6040000 		.word	1270
 1730 0020 82070000 		.word	1922
 1731 0024 140A0000 		.word	2580
 1732 0028 B30C0000 		.word	3251
 1733 002c 4D0F0000 		.word	3917
 1734 0030 98110000 		.word	4504
 1735 0034 B0130000 		.word	5040
 1736 0038 FD150000 		.word	5629
 1737 003c FB180000 		.word	6395
 1738 0040 981B0000 		.word	7064
 1739 0044 A71D0000 		.word	7591
 1740 0048 1C200000 		.word	8220
 1741 004c BA220000 		.word	8890
 1742 0050 BC240000 		.word	9404
 1743 0054 60270000 		.word	10080
 1744 0058 F0290000 		.word	10736
 1745 005c 3E2C0000 		.word	11326
 1746 0060 C12E0000 		.word	11969
 1747 0064 FB300000 		.word	12539
 1748 0068 69330000 		.word	13161
 1749 006c C7350000 		.word	13767
 1750 0070 29380000 		.word	14377
 1751 0074 713A0000 		.word	14961
 1752 0078 E63C0000 		.word	15590
 1753 007c FE3E0000 		.word	16126
 1754 0080 47410000 		.word	16711
 1755 0084 A5430000 		.word	17317
 1756 0088 BE450000 		.word	17854
 1757 008c E0470000 		.word	18400
 1758 0090 E3490000 		.word	18915
 1759 0094 094C0000 		.word	19465
 1760 0098 1E4E0000 		.word	19998
 1761 009c 36500000 		.word	20534
 1762 00a0 4F520000 		.word	21071
 1763 00a4 77540000 		.word	21623
 1764 00a8 8D560000 		.word	22157
 1765 00ac 84580000 		.word	22660
 1766 00b0 865A0000 		.word	23174
 1767 00b4 845C0000 		.word	23684
 1768 00b8 6F5E0000 		.word	24175
 1769 00bc 5B600000 		.word	24667
 1770 00c0 55620000 		.word	25173
 1771 00c4 64660000 		.word	26212
 1772 00c8 686B0000 		.word	27496
 1773 00cc 246D0000 		.word	27940
 1774 00d0 666D0000 		.word	28006
 1775 00d4 00000000 		.word	0
 1776 00d8 666D0000 		.word	28006
 1777 00dc 64000000 		.word	100
ARM GAS  C:\Users\Tim\AppData\Local\Temp\ccrO72Ik.s 			page 45


 1778 00e0 DC05     		.short	1500
 1779 00e2 E605     		.short	1510
 1780 00e4 F005     		.short	1520
 1781 00e6 FA05     		.short	1530
 1782 00e8 0406     		.short	1540
 1783 00ea 0E06     		.short	1550
 1784 00ec 1806     		.short	1560
 1785 00ee 2206     		.short	1570
 1786 00f0 2C06     		.short	1580
 1787 00f2 3606     		.short	1590
 1788 00f4 4006     		.short	1600
 1789 00f6 4A06     		.short	1610
 1790 00f8 5406     		.short	1620
 1791 00fa 5E06     		.short	1630
 1792 00fc 6806     		.short	1640
 1793 00fe 7206     		.short	1650
 1794 0100 7C06     		.short	1660
 1795 0102 8606     		.short	1670
 1796 0104 9006     		.short	1680
 1797 0106 9A06     		.short	1690
 1798 0108 A406     		.short	1700
 1799 010a AE06     		.short	1710
 1800 010c B806     		.short	1720
 1801 010e C206     		.short	1730
 1802 0110 CC06     		.short	1740
 1803 0112 D606     		.short	1750
 1804 0114 E006     		.short	1760
 1805 0116 EA06     		.short	1770
 1806 0118 F406     		.short	1780
 1807 011a FE06     		.short	1790
 1808 011c 0807     		.short	1800
 1809 011e 1207     		.short	1810
 1810 0120 1C07     		.short	1820
 1811 0122 2607     		.short	1830
 1812 0124 3007     		.short	1840
 1813 0126 3A07     		.short	1850
 1814 0128 4407     		.short	1860
 1815 012a 4E07     		.short	1870
 1816 012c 5807     		.short	1880
 1817 012e 6207     		.short	1890
 1818 0130 6C07     		.short	1900
 1819 0132 7607     		.short	1910
 1820 0134 8007     		.short	1920
 1821 0136 8A07     		.short	1930
 1822 0138 9407     		.short	1940
 1823 013a 9E07     		.short	1950
 1824 013c A807     		.short	1960
 1825 013e B207     		.short	1970
 1826 0140 BC07     		.short	1980
 1827 0142 C607     		.short	1990
 1828 0144 D007     		.short	2000
 1829 0146 0000     		.space	2
 1830 0148 E190FFFF 		.word	-28447
 1831 014c 8B92FFFF 		.word	-28021
 1832 0150 9497FFFF 		.word	-26732
 1833 0154 B19BFFFF 		.word	-25679
 1834 0158 7D9DFFFF 		.word	-25219
ARM GAS  C:\Users\Tim\AppData\Local\Temp\ccrO72Ik.s 			page 46


 1835 015c 6D9FFFFF 		.word	-24723
 1836 0160 58A1FFFF 		.word	-24232
 1837 0164 3AA3FFFF 		.word	-23750
 1838 0168 E1A4FFFF 		.word	-23327
 1839 016c 0AA7FFFF 		.word	-22774
 1840 0170 06A9FFFF 		.word	-22266
 1841 0174 EDAAFFFF 		.word	-21779
 1842 0178 0AADFFFF 		.word	-21238
 1843 017c 2CAFFFFF 		.word	-20692
 1844 0180 5EB1FFFF 		.word	-20130
 1845 0184 8BB3FFFF 		.word	-19573
 1846 0188 C5B5FFFF 		.word	-19003
 1847 018c FEB7FFFF 		.word	-18434
 1848 0190 46BAFFFF 		.word	-17850
 1849 0194 90BCFFFF 		.word	-17264
 1850 0198 DCBEFFFF 		.word	-16676
 1851 019c 47C1FFFF 		.word	-16057
 1852 01a0 9FC3FFFF 		.word	-15457
 1853 01a4 FEC5FFFF 		.word	-14850
 1854 01a8 5DC8FFFF 		.word	-14243
 1855 01ac C1CAFFFF 		.word	-13631
 1856 01b0 58CDFFFF 		.word	-12968
 1857 01b4 C0CFFFFF 		.word	-12352
 1858 01b8 47D2FFFF 		.word	-11705
 1859 01bc B9D4FFFF 		.word	-11079
 1860 01c0 32D7FFFF 		.word	-10446
 1861 01c4 B0D9FFFF 		.word	-9808
 1862 01c8 1BDCFFFF 		.word	-9189
 1863 01cc BCDEFFFF 		.word	-8516
 1864 01d0 4AE1FFFF 		.word	-7862
 1865 01d4 91E3FFFF 		.word	-7279
 1866 01d8 2EE6FFFF 		.word	-6610
 1867 01dc B2E8FFFF 		.word	-5966
 1868 01e0 3BEBFFFF 		.word	-5317
 1869 01e4 C1EDFFFF 		.word	-4671
 1870 01e8 3CF0FFFF 		.word	-4036
 1871 01ec A7F2FFFF 		.word	-3417
 1872 01f0 25F5FFFF 		.word	-2779
 1873 01f4 8FF7FFFF 		.word	-2161
 1874 01f8 EAF9FFFF 		.word	-1558
 1875 01fc 83FCFFFF 		.word	-893
 1876 0200 14FFFFFF 		.word	-236
 1877 0204 00000000 		.word	0
 1878 0208 00000000 		.word	0
 1879 020c 00000000 		.word	0
 1880 0210 00000000 		.word	0
 1881 0214 E190FFFF 		.word	-28447
 1882 0218 00000000 		.word	0
 1883 021c 64000000 		.word	100
 1884 0220 E803     		.short	1000
 1885 0222 F203     		.short	1010
 1886 0224 FC03     		.short	1020
 1887 0226 0604     		.short	1030
 1888 0228 1004     		.short	1040
 1889 022a 1A04     		.short	1050
 1890 022c 2404     		.short	1060
 1891 022e 2E04     		.short	1070
ARM GAS  C:\Users\Tim\AppData\Local\Temp\ccrO72Ik.s 			page 47


 1892 0230 3804     		.short	1080
 1893 0232 4204     		.short	1090
 1894 0234 4C04     		.short	1100
 1895 0236 5604     		.short	1110
 1896 0238 6004     		.short	1120
 1897 023a 6A04     		.short	1130
 1898 023c 7404     		.short	1140
 1899 023e 7E04     		.short	1150
 1900 0240 8804     		.short	1160
 1901 0242 9204     		.short	1170
 1902 0244 9C04     		.short	1180
 1903 0246 A604     		.short	1190
 1904 0248 B004     		.short	1200
 1905 024a BA04     		.short	1210
 1906 024c C404     		.short	1220
 1907 024e CE04     		.short	1230
 1908 0250 D804     		.short	1240
 1909 0252 E204     		.short	1250
 1910 0254 EC04     		.short	1260
 1911 0256 F604     		.short	1270
 1912 0258 0005     		.short	1280
 1913 025a 0A05     		.short	1290
 1914 025c 1405     		.short	1300
 1915 025e 1E05     		.short	1310
 1916 0260 2805     		.short	1320
 1917 0262 3205     		.short	1330
 1918 0264 3C05     		.short	1340
 1919 0266 4605     		.short	1350
 1920 0268 5005     		.short	1360
 1921 026a 5A05     		.short	1370
 1922 026c 6405     		.short	1380
 1923 026e 6E05     		.short	1390
 1924 0270 7805     		.short	1400
 1925 0272 8205     		.short	1410
 1926 0274 8C05     		.short	1420
 1927 0276 9605     		.short	1430
 1928 0278 A005     		.short	1440
 1929 027a AA05     		.short	1450
 1930 027c B405     		.short	1460
 1931 027e BE05     		.short	1470
 1932 0280 C805     		.short	1480
 1933 0282 D205     		.short	1490
 1934 0284 DC05     		.short	1500
 1935 0286 0000     		.space	2
 1936 0288 00000000 		.word	Left_HB25_Enable_Pin_Write
 1937 028c 00000000 		.word	Left_HB25_PWM_Start
 1938 0290 00000000 		.word	Left_HB25_PWM_Stop
 1939 0294 00000000 		.word	Left_HB25_PWM_WriteCompare
 1940              		.type	right_motor, %object
 1941              		.size	right_motor, 664
 1942              	right_motor:
 1943 0298 DC05     		.short	1500
 1944 029a 0000     		.space	2
 1945 029c 00000000 		.word	0
 1946 02a0 00000000 		.word	0
 1947 02a4 00000000 		.word	0
 1948 02a8 00000000 		.word	0
ARM GAS  C:\Users\Tim\AppData\Local\Temp\ccrO72Ik.s 			page 48


 1949 02ac 00000000 		.word	0
 1950 02b0 00000000 		.word	0
 1951 02b4 84000000 		.word	132
 1952 02b8 A7020000 		.word	679
 1953 02bc 40050000 		.word	1344
 1954 02c0 C6070000 		.word	1990
 1955 02c4 FE090000 		.word	2558
 1956 02c8 230C0000 		.word	3107
 1957 02cc 4F0E0000 		.word	3663
 1958 02d0 A7100000 		.word	4263
 1959 02d4 3E130000 		.word	4926
 1960 02d8 F9150000 		.word	5625
 1961 02dc 33180000 		.word	6195
 1962 02e0 341A0000 		.word	6708
 1963 02e4 B21C0000 		.word	7346
 1964 02e8 731F0000 		.word	8051
 1965 02ec 77210000 		.word	8567
 1966 02f0 F2230000 		.word	9202
 1967 02f4 64260000 		.word	9828
 1968 02f8 87280000 		.word	10375
 1969 02fc 012B0000 		.word	11009
 1970 0300 132D0000 		.word	11539
 1971 0304 8B2F0000 		.word	12171
 1972 0308 AB310000 		.word	12715
 1973 030c 35340000 		.word	13365
 1974 0310 4F360000 		.word	13903
 1975 0314 D2380000 		.word	14546
 1976 0318 E33A0000 		.word	15075
 1977 031c 4B3D0000 		.word	15691
 1978 0320 773F0000 		.word	16247
 1979 0324 8F410000 		.word	16783
 1980 0328 CE430000 		.word	17358
 1981 032c DC450000 		.word	17884
 1982 0330 CB470000 		.word	18379
 1983 0334 B9490000 		.word	18873
 1984 0338 C94B0000 		.word	19401
 1985 033c E04D0000 		.word	19936
 1986 0340 B44F0000 		.word	20404
 1987 0344 91510000 		.word	20881
 1988 0348 72530000 		.word	21362
 1989 034c 58550000 		.word	21848
 1990 0350 37570000 		.word	22327
 1991 0354 0B590000 		.word	22795
 1992 0358 E65A0000 		.word	23270
 1993 035c C05C0000 		.word	23744
 1994 0360 C85E0000 		.word	24264
 1995 0364 BA620000 		.word	25274
 1996 0368 9B670000 		.word	26523
 1997 036c 00000000 		.word	0
 1998 0370 9B670000 		.word	26523
 1999 0374 64000000 		.word	100
 2000 0378 DC05     		.short	1500
 2001 037a D205     		.short	1490
 2002 037c C805     		.short	1480
 2003 037e BE05     		.short	1470
 2004 0380 B405     		.short	1460
 2005 0382 AA05     		.short	1450
ARM GAS  C:\Users\Tim\AppData\Local\Temp\ccrO72Ik.s 			page 49


 2006 0384 A005     		.short	1440
 2007 0386 9605     		.short	1430
 2008 0388 8C05     		.short	1420
 2009 038a 8205     		.short	1410
 2010 038c 7805     		.short	1400
 2011 038e 6E05     		.short	1390
 2012 0390 6405     		.short	1380
 2013 0392 5A05     		.short	1370
 2014 0394 5005     		.short	1360
 2015 0396 4605     		.short	1350
 2016 0398 3C05     		.short	1340
 2017 039a 3205     		.short	1330
 2018 039c 2805     		.short	1320
 2019 039e 1E05     		.short	1310
 2020 03a0 1405     		.short	1300
 2021 03a2 0A05     		.short	1290
 2022 03a4 0005     		.short	1280
 2023 03a6 F604     		.short	1270
 2024 03a8 EC04     		.short	1260
 2025 03aa E204     		.short	1250
 2026 03ac D804     		.short	1240
 2027 03ae CE04     		.short	1230
 2028 03b0 C404     		.short	1220
 2029 03b2 BA04     		.short	1210
 2030 03b4 B004     		.short	1200
 2031 03b6 A604     		.short	1190
 2032 03b8 9C04     		.short	1180
 2033 03ba 9204     		.short	1170
 2034 03bc 8804     		.short	1160
 2035 03be 7E04     		.short	1150
 2036 03c0 7404     		.short	1140
 2037 03c2 6A04     		.short	1130
 2038 03c4 6004     		.short	1120
 2039 03c6 5604     		.short	1110
 2040 03c8 4C04     		.short	1100
 2041 03ca 4204     		.short	1090
 2042 03cc 3804     		.short	1080
 2043 03ce 2E04     		.short	1070
 2044 03d0 2404     		.short	1060
 2045 03d2 1A04     		.short	1050
 2046 03d4 1004     		.short	1040
 2047 03d6 0604     		.short	1030
 2048 03d8 FC03     		.short	1020
 2049 03da F203     		.short	1010
 2050 03dc E803     		.short	1000
 2051 03de 0000     		.space	2
 2052 03e0 5D94FFFF 		.word	-27555
 2053 03e4 6E94FFFF 		.word	-27538
 2054 03e8 9194FFFF 		.word	-27503
 2055 03ec 1895FFFF 		.word	-27368
 2056 03f0 A596FFFF 		.word	-26971
 2057 03f4 AB9BFFFF 		.word	-25685
 2058 03f8 E99FFFFF 		.word	-24599
 2059 03fc E3A1FFFF 		.word	-24093
 2060 0400 C6A3FFFF 		.word	-23610
 2061 0404 87A5FFFF 		.word	-23161
 2062 0408 73A7FFFF 		.word	-22669
ARM GAS  C:\Users\Tim\AppData\Local\Temp\ccrO72Ik.s 			page 50


 2063 040c 3BA9FFFF 		.word	-22213
 2064 0410 1BABFFFF 		.word	-21733
 2065 0414 EDACFFFF 		.word	-21267
 2066 0418 EDAEFFFF 		.word	-20755
 2067 041c F0B0FFFF 		.word	-20240
 2068 0420 FEB2FFFF 		.word	-19714
 2069 0424 F4B4FFFF 		.word	-19212
 2070 0428 FBB6FFFF 		.word	-18693
 2071 042c 2DB9FFFF 		.word	-18131
 2072 0430 84BBFFFF 		.word	-17532
 2073 0434 BABDFFFF 		.word	-16966
 2074 0438 E8BFFFFF 		.word	-16408
 2075 043c 21C2FFFF 		.word	-15839
 2076 0440 56C4FFFF 		.word	-15274
 2077 0444 9AC6FFFF 		.word	-14694
 2078 0448 E7C8FFFF 		.word	-14105
 2079 044c 63CBFFFF 		.word	-13469
 2080 0450 B6CDFFFF 		.word	-12874
 2081 0454 11D0FFFF 		.word	-12271
 2082 0458 6FD2FFFF 		.word	-11665
 2083 045c E1D4FFFF 		.word	-11039
 2084 0460 33D7FFFF 		.word	-10445
 2085 0464 A7D9FFFF 		.word	-9817
 2086 0468 F1DBFFFF 		.word	-9231
 2087 046c 70DEFFFF 		.word	-8592
 2088 0470 D0E0FFFF 		.word	-7984
 2089 0474 28E3FFFF 		.word	-7384
 2090 0478 8DE5FFFF 		.word	-6771
 2091 047c 26E8FFFF 		.word	-6106
 2092 0480 A0EAFFFF 		.word	-5472
 2093 0484 F5ECFFFF 		.word	-4875
 2094 0488 77EFFFFF 		.word	-4233
 2095 048c FFF1FFFF 		.word	-3585
 2096 0490 5FF4FFFF 		.word	-2977
 2097 0494 DFF6FFFF 		.word	-2337
 2098 0498 65F9FFFF 		.word	-1691
 2099 049c FFFBFFFF 		.word	-1025
 2100 04a0 B3FEFFFF 		.word	-333
 2101 04a4 E5FFFFFF 		.word	-27
 2102 04a8 00000000 		.word	0
 2103 04ac 5D94FFFF 		.word	-27555
 2104 04b0 00000000 		.word	0
 2105 04b4 64000000 		.word	100
 2106 04b8 D007     		.short	2000
 2107 04ba C607     		.short	1990
 2108 04bc BC07     		.short	1980
 2109 04be B207     		.short	1970
 2110 04c0 A807     		.short	1960
 2111 04c2 9E07     		.short	1950
 2112 04c4 9407     		.short	1940
 2113 04c6 8A07     		.short	1930
 2114 04c8 8007     		.short	1920
 2115 04ca 7607     		.short	1910
 2116 04cc 6C07     		.short	1900
 2117 04ce 6207     		.short	1890
 2118 04d0 5807     		.short	1880
 2119 04d2 4E07     		.short	1870
ARM GAS  C:\Users\Tim\AppData\Local\Temp\ccrO72Ik.s 			page 51


 2120 04d4 4407     		.short	1860
 2121 04d6 3A07     		.short	1850
 2122 04d8 3007     		.short	1840
 2123 04da 2607     		.short	1830
 2124 04dc 1C07     		.short	1820
 2125 04de 1207     		.short	1810
 2126 04e0 0807     		.short	1800
 2127 04e2 FE06     		.short	1790
 2128 04e4 F406     		.short	1780
 2129 04e6 EA06     		.short	1770
 2130 04e8 E006     		.short	1760
 2131 04ea D606     		.short	1750
 2132 04ec CC06     		.short	1740
 2133 04ee C206     		.short	1730
 2134 04f0 B806     		.short	1720
 2135 04f2 AE06     		.short	1710
 2136 04f4 A406     		.short	1700
 2137 04f6 9A06     		.short	1690
 2138 04f8 9006     		.short	1680
 2139 04fa 8606     		.short	1670
 2140 04fc 7C06     		.short	1660
 2141 04fe 7206     		.short	1650
 2142 0500 6806     		.short	1640
 2143 0502 5E06     		.short	1630
 2144 0504 5406     		.short	1620
 2145 0506 4A06     		.short	1610
 2146 0508 4006     		.short	1600
 2147 050a 3606     		.short	1590
 2148 050c 2C06     		.short	1580
 2149 050e 2206     		.short	1570
 2150 0510 1806     		.short	1560
 2151 0512 0E06     		.short	1550
 2152 0514 0406     		.short	1540
 2153 0516 FA05     		.short	1530
 2154 0518 F005     		.short	1520
 2155 051a E605     		.short	1510
 2156 051c DC05     		.short	1500
 2157 051e 0000     		.space	2
 2158 0520 00000000 		.word	Right_HB25_Enable_Pin_Write
 2159 0524 00000000 		.word	Right_HB25_PWM_Start
 2160 0528 00000000 		.word	Right_HB25_PWM_Stop
 2161 052c 00000000 		.word	Right_HB25_PWM_WriteCompare
 2162              		.section	.rodata.str1.4,"aMS",%progbits,1
 2163              		.align	2
 2164              	.LC0:
 2165 0000 5B46494C 		.ascii	"[FILE : %s, FUNC : %s, LINE : %d]: %s %d \015\012\000"
 2165      45203A20 
 2165      25732C20 
 2165      46554E43 
 2165      203A2025 
 2166              	.LC1:
 2167 002c 2E2E5C73 		.ascii	"..\\source\\motor.c\000"
 2167      6F757263 
 2167      655C6D6F 
 2167      746F722E 
 2167      6300
 2168 003e 0000     		.space	2
ARM GAS  C:\Users\Tim\AppData\Local\Temp\ccrO72Ik.s 			page 52


 2169              	.LC2:
 2170 0040 5B46494C 		.ascii	"[FILE : %s, FUNC : %s, LINE : %d]: %d %s \015\012\000"
 2170      45203A20 
 2170      25732C20 
 2170      46554E43 
 2170      203A2025 
 2171              	.LC3:
 2172 006c 25730D0A 		.ascii	"%s\015\012\000"
 2172      00
 2173 0071 000000   		.space	3
 2174              	.LC4:
 2175 0074 256C642C 		.ascii	"%ld,\015\012\000"
 2175      0D0A00
 2176 007b 00       		.space	1
 2177              	.LC5:
 2178 007c 256C642C 		.ascii	"%ld,\000"
 2178      00
 2179 0081 000000   		.space	3
 2180              	.LC6:
 2181 0084 256C640D 		.ascii	"%ld\015\012\000"
 2181      0A00
 2182 008a 0000     		.space	2
 2183              	.LC7:
 2184 008c 25642C0D 		.ascii	"%d,\015\012\000"
 2184      0A00
 2185 0092 0000     		.space	2
 2186              	.LC8:
 2187 0094 25642C00 		.ascii	"%d,\000"
 2188              	.LC9:
 2189 0098 25640D0A 		.ascii	"%d\015\012\000"
 2189      00
 2190 009d 000000   		.space	3
 2191              	.LC10:
 2192 00a0 466F7277 		.ascii	"Forward CPS\000"
 2192      61726420 
 2192      43505300 
 2193              	.LC11:
 2194 00ac 466F7277 		.ascii	"Forward PWM\015\012\000"
 2194      61726420 
 2194      50574D0D 
 2194      0A00
 2195 00ba 0000     		.space	2
 2196              	.LC12:
 2197 00bc 4261636B 		.ascii	"Backward CPS\000"
 2197      77617264 
 2197      20435053 
 2197      00
 2198 00c9 000000   		.space	3
 2199              	.LC13:
 2200 00cc 4261636B 		.ascii	"Backward PWM\015\012\000"
 2200      77617264 
 2200      2050574D 
 2200      0D0A00
 2201 00db 00       		.space	1
 2202              	.LC14:
 2203 00dc 4C656674 		.ascii	"Left\015\012\000"
 2203      0D0A00
ARM GAS  C:\Users\Tim\AppData\Local\Temp\ccrO72Ik.s 			page 53


 2204 00e3 00       		.space	1
 2205              	.LC15:
 2206 00e4 52696768 		.ascii	"Right\015\012\000"
 2206      740D0A00 
 2207              		.text
 2208              	.Letext0:
 2209              		.file 2 "c:\\program files (x86)\\cypress\\psoc creator\\3.3\\psoc creator\\import\\gnu\\arm\\4.9.
 2210              		.file 3 "c:\\program files (x86)\\cypress\\psoc creator\\3.3\\psoc creator\\import\\gnu\\arm\\4.9.
 2211              		.file 4 "c:\\program files (x86)\\cypress\\psoc creator\\3.3\\psoc creator\\import\\gnu\\arm\\4.9.
 2212              		.file 5 "Generated_Source\\PSoC5/cytypes.h"
 2213              		.file 6 "..\\source\\config.h"
 2214              		.file 7 "Generated_Source\\PSoC5/core_cm3.h"
 2215              		.file 8 "..\\source\\debug.h"
 2216              		.file 9 "..\\source\\utils.h"
 2217              		.file 10 "..\\source\\serial.h"
 2218              		.file 11 "Generated_Source\\PSoC5/CyLib.h"
 2219              		.file 12 "c:\\program files (x86)\\cypress\\psoc creator\\3.3\\psoc creator\\import\\gnu\\arm\\4.9
 2220              		.file 13 "..\\source\\encoder.h"