ARM GAS  C:\Users\Tim\AppData\Local\Temp\ccM5w3Zz.s 			page 1


   1              		.syntax unified
   2              		.cpu cortex-m3
   3              		.fpu softvfp
   4              		.eabi_attribute 20, 1
   5              		.eabi_attribute 21, 1
   6              		.eabi_attribute 23, 3
   7              		.eabi_attribute 24, 1
   8              		.eabi_attribute 25, 1
   9              		.eabi_attribute 26, 1
  10              		.eabi_attribute 30, 1
  11              		.eabi_attribute 34, 1
  12              		.eabi_attribute 18, 4
  13              		.thumb
  14              		.file	"nvstore.c"
  15              		.text
  16              	.Ltext0:
  17              		.cfi_sections	.debug_frame
  18              		.section	.text.Nvstore_Init,"ax",%progbits
  19              		.align	2
  20              		.global	Nvstore_Init
  21              		.thumb
  22              		.thumb_func
  23              		.type	Nvstore_Init, %function
  24              	Nvstore_Init:
  25              	.LFB63:
  26              		.file 1 "..\\source\\nvstore.c"
   1:..\source/nvstore.c **** /* ========================================
   2:..\source/nvstore.c ****  *
   3:..\source/nvstore.c ****  * Copyright YOUR COMPANY, THE YEAR
   4:..\source/nvstore.c ****  * All Rights Reserved
   5:..\source/nvstore.c ****  * UNPUBLISHED, LICENSED SOFTWARE.
   6:..\source/nvstore.c ****  *
   7:..\source/nvstore.c ****  * CONFIDENTIAL AND PROPRIETARY INFORMATION
   8:..\source/nvstore.c ****  * WHICH IS THE PROPERTY OF your company.
   9:..\source/nvstore.c ****  *
  10:..\source/nvstore.c ****  * ========================================
  11:..\source/nvstore.c **** */
  12:..\source/nvstore.c **** 
  13:..\source/nvstore.c **** 
  14:..\source/nvstore.c **** /*-------------------------------------------------------------------------------------------------
  15:..\source/nvstore.c ****  * Includes
  16:..\source/nvstore.c ****  *-------------------------------------------------------------------------------------------------
  17:..\source/nvstore.c **** #include "nvstore.h"
  18:..\source/nvstore.c **** #include "assert.h"
  19:..\source/nvstore.c **** #include "utils.h"
  20:..\source/nvstore.c **** 
  21:..\source/nvstore.c **** 
  22:..\source/nvstore.c **** /*-------------------------------------------------------------------------------------------------
  23:..\source/nvstore.c ****  * Functions
  24:..\source/nvstore.c ****  *-------------------------------------------------------------------------------------------------
  25:..\source/nvstore.c **** 
  26:..\source/nvstore.c **** /*-------------------------------------------------------------------------------------------------
  27:..\source/nvstore.c ****  * Name: Nvstore_Init
  28:..\source/nvstore.c ****  * Description: Initializes module variables
  29:..\source/nvstore.c ****  * Parameters: None
  30:..\source/nvstore.c ****  * Return: None
  31:..\source/nvstore.c ****  * 
ARM GAS  C:\Users\Tim\AppData\Local\Temp\ccM5w3Zz.s 			page 2


  32:..\source/nvstore.c ****  *-------------------------------------------------------------------------------------------------
  33:..\source/nvstore.c **** void Nvstore_Init()
  34:..\source/nvstore.c **** {
  27              		.loc 1 34 0
  28              		.cfi_startproc
  29              		@ args = 0, pretend = 0, frame = 0
  30              		@ frame_needed = 0, uses_anonymous_args = 0
  31              		@ link register save eliminated.
  32 0000 7047     		bx	lr
  33              		.cfi_endproc
  34              	.LFE63:
  35              		.size	Nvstore_Init, .-Nvstore_Init
  36 0002 00BF     		.section	.text.Nvstore_Start,"ax",%progbits
  37              		.align	2
  38              		.global	Nvstore_Start
  39              		.thumb
  40              		.thumb_func
  41              		.type	Nvstore_Start, %function
  42              	Nvstore_Start:
  43              	.LFB64:
  35:..\source/nvstore.c **** }
  36:..\source/nvstore.c **** 
  37:..\source/nvstore.c **** /*-------------------------------------------------------------------------------------------------
  38:..\source/nvstore.c ****  * Name: Nvstore_Start
  39:..\source/nvstore.c ****  * Description: Starts the EEPROM component used for storing calibration information.
  40:..\source/nvstore.c ****  * Parameters: None
  41:..\source/nvstore.c ****  * Return: None
  42:..\source/nvstore.c ****  * 
  43:..\source/nvstore.c ****  *-------------------------------------------------------------------------------------------------
  44:..\source/nvstore.c **** void Nvstore_Start()
  45:..\source/nvstore.c **** {
  44              		.loc 1 45 0
  45              		.cfi_startproc
  46              		@ args = 0, pretend = 0, frame = 0
  47              		@ frame_needed = 0, uses_anonymous_args = 0
  48              		.loc 1 45 0
  49 0000 08B5     		push	{r3, lr}
  50              		.cfi_def_cfa_offset 8
  51              		.cfi_offset 3, -8
  52              		.cfi_offset 14, -4
  46:..\source/nvstore.c ****     EEPROM_Start();
  53              		.loc 1 46 0
  54 0002 FFF7FEFF 		bl	EEPROM_Start
  55              	.LVL0:
  56 0006 08BD     		pop	{r3, pc}
  57              		.cfi_endproc
  58              	.LFE64:
  59              		.size	Nvstore_Start, .-Nvstore_Start
  60              		.section	.text.Nvstore_WriteBytes,"ax",%progbits
  61              		.align	2
  62              		.global	Nvstore_WriteBytes
  63              		.thumb
  64              		.thumb_func
  65              		.type	Nvstore_WriteBytes, %function
  66              	Nvstore_WriteBytes:
  67              	.LFB65:
  47:..\source/nvstore.c ****     
ARM GAS  C:\Users\Tim\AppData\Local\Temp\ccM5w3Zz.s 			page 3


  48:..\source/nvstore.c ****     //EEPROM_EraseSector(0);
  49:..\source/nvstore.c ****     //EEPROM_EraseSector(1);
  50:..\source/nvstore.c **** }
  51:..\source/nvstore.c **** 
  52:..\source/nvstore.c **** /*-------------------------------------------------------------------------------------------------
  53:..\source/nvstore.c ****  * Name: Nvstore_WriteBytes
  54:..\source/nvstore.c ****  * Description: Writes the specified number of bytes to the location given in offset.  
  55:..\source/nvstore.c ****  *              Note: paging is handled within this routine.
  56:..\source/nvstore.c ****  * Parameters: bytes - pointer to array of bytes to be written
  57:..\source/nvstore.c ****  *             num_bytes - the number of bytes to be written
  58:..\source/nvstore.c ****  *             offset - the offset from the base address of non-volatile storage
  59:..\source/nvstore.c ****  * Return: None
  60:..\source/nvstore.c ****  * 
  61:..\source/nvstore.c ****  *-------------------------------------------------------------------------------------------------
  62:..\source/nvstore.c **** void Nvstore_WriteBytes(uint8 *bytes, uint16 num_bytes, uint16 offset)
  63:..\source/nvstore.c **** {
  68              		.loc 1 63 0
  69              		.cfi_startproc
  70              		@ args = 0, pretend = 0, frame = 0
  71              		@ frame_needed = 0, uses_anonymous_args = 0
  72              	.LVL1:
  73 0000 2DE9F047 		push	{r4, r5, r6, r7, r8, r9, r10, lr}
  74              		.cfi_def_cfa_offset 32
  75              		.cfi_offset 4, -32
  76              		.cfi_offset 5, -28
  77              		.cfi_offset 6, -24
  78              		.cfi_offset 7, -20
  79              		.cfi_offset 8, -16
  80              		.cfi_offset 9, -12
  81              		.cfi_offset 10, -8
  82              		.cfi_offset 14, -4
  83 0004 8046     		mov	r8, r0
  84 0006 0D46     		mov	r5, r1
  85              	.LVL2:
  64:..\source/nvstore.c ****     uint16 ii;
  65:..\source/nvstore.c ****     
  66:..\source/nvstore.c ****     // Need to calculate rowoffset from offset provided
  67:..\source/nvstore.c ****     //
  68:..\source/nvstore.c ****     //   Use EEPROM_WriteByte to write bytes that occur before the first complete row
  69:..\source/nvstore.c ****     //   Use EEPROM_Write to a full row of bytes
  70:..\source/nvstore.c ****     //   Use EEPROM_WriteByte to write remaining bytes that are less than a complete row
  71:..\source/nvstore.c ****     
  72:..\source/nvstore.c ****     uint16 index = 0;
  73:..\source/nvstore.c ****     uint16 row_offset = offset / CYDEV_EEPROM_ROW_SIZE;
  86              		.loc 1 73 0
  87 0008 1709     		lsrs	r7, r2, #4
  88              	.LVL3:
  74:..\source/nvstore.c ****     uint16 byte_offset = offset % CYDEV_EEPROM_ROW_SIZE;
  75:..\source/nvstore.c ****     
  76:..\source/nvstore.c ****     uint16 first_partial_row_start = byte_offset;
  77:..\source/nvstore.c ****     
  78:..\source/nvstore.c ****     if (first_partial_row_start)
  89              		.loc 1 78 0
  90 000a 12F00F02 		ands	r2, r2, #15
  91              	.LVL4:
  92 000e 1CD0     		beq	.L15
  93              	.LBB2:
ARM GAS  C:\Users\Tim\AppData\Local\Temp\ccM5w3Zz.s 			page 4


  79:..\source/nvstore.c ****     {
  80:..\source/nvstore.c ****         // write all the bytes up to the next row using EEPROM_WriteByte
  81:..\source/nvstore.c ****         
  82:..\source/nvstore.c ****         uint16 partial_row_num_bytes = CYDEV_EEPROM_ROW_SIZE - first_partial_row_start;
  94              		.loc 1 82 0
  95 0010 C2F1100A 		rsb	r10, r2, #16
  96 0014 1FFA8AFA 		uxth	r10, r10
  97              	.LVL5:
  83:..\source/nvstore.c ****         uint16 start = (row_offset * CYDEV_EEPROM_ROW_SIZE) + first_partial_row_start;
  98              		.loc 1 83 0
  99 0018 02EB0712 		add	r2, r2, r7, lsl #4
 100 001c 1FFA82F9 		uxth	r9, r2
 101              	.LVL6:
 102              	.LBE2:
  72:..\source/nvstore.c ****     uint16 row_offset = offset / CYDEV_EEPROM_ROW_SIZE;
 103              		.loc 1 72 0
 104 0020 0024     		movs	r4, #0
 105              	.LBB3:
  84:..\source/nvstore.c ****         for (ii = 0; ii < partial_row_num_bytes; ++ii)
 106              		.loc 1 84 0
 107 0022 2646     		mov	r6, r4
 108 0024 0CE0     		b	.L6
 109              	.LVL7:
 110              	.L7:
  85:..\source/nvstore.c ****         {
  86:..\source/nvstore.c ****             EEPROM_WriteByte(bytes[index], start + ii);
 111              		.loc 1 86 0 discriminator 3
 112 0026 09EB0601 		add	r1, r9, r6
 113 002a 18F80400 		ldrb	r0, [r8, r4]	@ zero_extendqisi2
 114 002e 89B2     		uxth	r1, r1
 115 0030 FFF7FEFF 		bl	EEPROM_WriteByte
 116              	.LVL8:
  87:..\source/nvstore.c ****             index++;
 117              		.loc 1 87 0 discriminator 3
 118 0034 0134     		adds	r4, r4, #1
 119              	.LVL9:
 120 0036 A4B2     		uxth	r4, r4
 121              	.LVL10:
  88:..\source/nvstore.c ****             num_bytes--;
 122              		.loc 1 88 0 discriminator 3
 123 0038 013D     		subs	r5, r5, #1
 124              	.LVL11:
 125 003a ADB2     		uxth	r5, r5
 126              	.LVL12:
  84:..\source/nvstore.c ****         {
 127              		.loc 1 84 0 discriminator 3
 128 003c 0136     		adds	r6, r6, #1
 129              	.LVL13:
 130 003e B6B2     		uxth	r6, r6
 131              	.LVL14:
 132              	.L6:
  84:..\source/nvstore.c ****         {
 133              		.loc 1 84 0 is_stmt 0 discriminator 1
 134 0040 5645     		cmp	r6, r10
 135 0042 F0D3     		bcc	.L7
  89:..\source/nvstore.c ****         }
  90:..\source/nvstore.c ****         row_offset++;
ARM GAS  C:\Users\Tim\AppData\Local\Temp\ccM5w3Zz.s 			page 5


 136              		.loc 1 90 0 is_stmt 1
 137 0044 0137     		adds	r7, r7, #1
 138              	.LVL15:
 139 0046 BFB2     		uxth	r7, r7
 140              	.LVL16:
 141 0048 00E0     		b	.L5
 142              	.LVL17:
 143              	.L15:
 144              	.LBE3:
  72:..\source/nvstore.c ****     uint16 row_offset = offset / CYDEV_EEPROM_ROW_SIZE;
 145              		.loc 1 72 0
 146 004a 0024     		movs	r4, #0
 147              	.LVL18:
 148              	.L5:
  91:..\source/nvstore.c ****     }
  92:..\source/nvstore.c **** 
  93:..\source/nvstore.c ****     uint16 num_full_rows = num_bytes / CYDEV_EEPROM_ROW_SIZE;
 149              		.loc 1 93 0
 150 004c C5F30F19 		ubfx	r9, r5, #4, #16
 151              	.LVL19:
  94:..\source/nvstore.c ****     
  95:..\source/nvstore.c ****     if (num_full_rows)
 152              		.loc 1 95 0
 153 0050 B9F1000F 		cmp	r9, #0
 154 0054 0ED1     		bne	.L16
 155 0056 10E0     		b	.L9
 156              	.LVL20:
 157              	.L10:
  96:..\source/nvstore.c ****     {
  97:..\source/nvstore.c ****         // Write out all of the full rows
  98:..\source/nvstore.c ****         for (ii = 0; ii < num_full_rows; ++ii)
  99:..\source/nvstore.c ****         {
 100:..\source/nvstore.c ****             EEPROM_Write(&bytes[index], row_offset);
 158              		.loc 1 100 0 discriminator 3
 159 0058 08EB0400 		add	r0, r8, r4
 160 005c F9B2     		uxtb	r1, r7
 161 005e FFF7FEFF 		bl	EEPROM_Write
 162              	.LVL21:
 101:..\source/nvstore.c ****             index += CYDEV_EEPROM_ROW_SIZE;
 163              		.loc 1 101 0 discriminator 3
 164 0062 1034     		adds	r4, r4, #16
 165              	.LVL22:
 166 0064 A4B2     		uxth	r4, r4
 167              	.LVL23:
 102:..\source/nvstore.c ****             num_bytes -= CYDEV_EEPROM_ROW_SIZE;
 168              		.loc 1 102 0 discriminator 3
 169 0066 103D     		subs	r5, r5, #16
 170              	.LVL24:
 171 0068 ADB2     		uxth	r5, r5
 172              	.LVL25:
 103:..\source/nvstore.c ****             row_offset++;
 173              		.loc 1 103 0 discriminator 3
 174 006a 0137     		adds	r7, r7, #1
 175              	.LVL26:
 176 006c BFB2     		uxth	r7, r7
 177              	.LVL27:
  98:..\source/nvstore.c ****         {
ARM GAS  C:\Users\Tim\AppData\Local\Temp\ccM5w3Zz.s 			page 6


 178              		.loc 1 98 0 discriminator 3
 179 006e 0136     		adds	r6, r6, #1
 180              	.LVL28:
 181 0070 B6B2     		uxth	r6, r6
 182              	.LVL29:
 183 0072 00E0     		b	.L8
 184              	.LVL30:
 185              	.L16:
 186 0074 0026     		movs	r6, #0
 187              	.L8:
 188              	.LVL31:
  98:..\source/nvstore.c ****         {
 189              		.loc 1 98 0 is_stmt 0 discriminator 1
 190 0076 4E45     		cmp	r6, r9
 191 0078 EED3     		bcc	.L10
 192              	.LVL32:
 193              	.L9:
 104:..\source/nvstore.c ****         }        
 105:..\source/nvstore.c ****     }
 106:..\source/nvstore.c ****     
 107:..\source/nvstore.c ****     uint16 num_remaining = num_bytes;
 108:..\source/nvstore.c ****     
 109:..\source/nvstore.c ****     if (num_remaining)
 194              		.loc 1 109 0 is_stmt 1
 195 007a ADB1     		cbz	r5, .L11
 196              	.LBB4:
 110:..\source/nvstore.c ****     {
 111:..\source/nvstore.c ****         // write all the bytes up to the next row using EEPROM_WriteByte
 112:..\source/nvstore.c ****         
 113:..\source/nvstore.c ****         uint16 start = row_offset * CYDEV_EEPROM_ROW_SIZE;
 197              		.loc 1 113 0
 198 007c 3F01     		lsls	r7, r7, #4
 199              	.LVL33:
 200 007e BFB2     		uxth	r7, r7
 201              	.LVL34:
 114:..\source/nvstore.c ****         for (ii = 0; ii < num_remaining; ++ii)
 202              		.loc 1 114 0
 203 0080 A946     		mov	r9, r5
 204              	.LVL35:
 205 0082 0026     		movs	r6, #0
 206 0084 0DE0     		b	.L12
 207              	.LVL36:
 208              	.L13:
 115:..\source/nvstore.c ****         {
 116:..\source/nvstore.c ****             EEPROM_WriteByte(bytes[index], start + ii);
 209              		.loc 1 116 0 discriminator 3
 210 0086 B919     		adds	r1, r7, r6
 211 0088 18F80400 		ldrb	r0, [r8, r4]	@ zero_extendqisi2
 212 008c 89B2     		uxth	r1, r1
 213 008e FFF7FEFF 		bl	EEPROM_WriteByte
 214              	.LVL37:
 117:..\source/nvstore.c ****             index++;
 215              		.loc 1 117 0 discriminator 3
 216 0092 0134     		adds	r4, r4, #1
 217              	.LVL38:
 218 0094 A4B2     		uxth	r4, r4
 219              	.LVL39:
ARM GAS  C:\Users\Tim\AppData\Local\Temp\ccM5w3Zz.s 			page 7


 118:..\source/nvstore.c ****             num_bytes--;
 220              		.loc 1 118 0 discriminator 3
 221 0096 09F1FF39 		add	r9, r9, #-1
 222              	.LVL40:
 223 009a 1FFA89F9 		uxth	r9, r9
 224              	.LVL41:
 114:..\source/nvstore.c ****         {
 225              		.loc 1 114 0 discriminator 3
 226 009e 0136     		adds	r6, r6, #1
 227              	.LVL42:
 228 00a0 B6B2     		uxth	r6, r6
 229              	.LVL43:
 230              	.L12:
 114:..\source/nvstore.c ****         {
 231              		.loc 1 114 0 is_stmt 0 discriminator 1
 232 00a2 B542     		cmp	r5, r6
 233 00a4 EFD8     		bhi	.L13
 234 00a6 4D46     		mov	r5, r9
 235              	.LVL44:
 236              	.L11:
 237              	.LBE4:
 119:..\source/nvstore.c ****         }
 120:..\source/nvstore.c ****     }
 121:..\source/nvstore.c ****     
 122:..\source/nvstore.c ****     assert(num_bytes == 0);    
 238              		.loc 1 122 0 is_stmt 1
 239 00a8 2DB1     		cbz	r5, .L4
 240              		.loc 1 122 0 is_stmt 0 discriminator 1
 241 00aa 0448     		ldr	r0, .L18
 242 00ac 7A21     		movs	r1, #122
 243 00ae 044A     		ldr	r2, .L18+4
 244 00b0 044B     		ldr	r3, .L18+8
 245 00b2 FFF7FEFF 		bl	__assert_func
 246              	.LVL45:
 247              	.L4:
 248 00b6 BDE8F087 		pop	{r4, r5, r6, r7, r8, r9, r10, pc}
 249              	.LVL46:
 250              	.L19:
 251 00ba 00BF     		.align	2
 252              	.L18:
 253 00bc 00000000 		.word	.LC0
 254 00c0 00000000 		.word	.LANCHOR0
 255 00c4 14000000 		.word	.LC1
 256              		.cfi_endproc
 257              	.LFE65:
 258              		.size	Nvstore_WriteBytes, .-Nvstore_WriteBytes
 259              		.section	.text.Nvstore_WriteUint16,"ax",%progbits
 260              		.align	2
 261              		.global	Nvstore_WriteUint16
 262              		.thumb
 263              		.thumb_func
 264              		.type	Nvstore_WriteUint16, %function
 265              	Nvstore_WriteUint16:
 266              	.LFB66:
 123:..\source/nvstore.c **** }
 124:..\source/nvstore.c **** 
 125:..\source/nvstore.c **** /*-------------------------------------------------------------------------------------------------
ARM GAS  C:\Users\Tim\AppData\Local\Temp\ccM5w3Zz.s 			page 8


 126:..\source/nvstore.c ****  * Name: Nvstore_WriteUint16
 127:..\source/nvstore.c ****  * Description: Writes the specified 16-bit value to the location given in offset.
 128:..\source/nvstore.c ****  * Parameters: value - a 16-bit value to be written
 129:..\source/nvstore.c ****  *             offset - the offset from the base address of non-volatile storage
 130:..\source/nvstore.c ****  * Return: None
 131:..\source/nvstore.c ****  * 
 132:..\source/nvstore.c ****  *-------------------------------------------------------------------------------------------------
 133:..\source/nvstore.c **** void Nvstore_WriteUint16(uint16 value, uint16 offset)
 134:..\source/nvstore.c **** {
 267              		.loc 1 134 0 is_stmt 1
 268              		.cfi_startproc
 269              		@ args = 0, pretend = 0, frame = 8
 270              		@ frame_needed = 0, uses_anonymous_args = 0
 271              	.LVL47:
 272 0000 30B5     		push	{r4, r5, lr}
 273              		.cfi_def_cfa_offset 12
 274              		.cfi_offset 4, -12
 275              		.cfi_offset 5, -8
 276              		.cfi_offset 14, -4
 277 0002 83B0     		sub	sp, sp, #12
 278              		.cfi_def_cfa_offset 24
 279 0004 0D46     		mov	r5, r1
 135:..\source/nvstore.c ****     uint8 ii;
 136:..\source/nvstore.c ****     uint8 bytes[sizeof(uint16)];
 137:..\source/nvstore.c ****     
 138:..\source/nvstore.c ****     Uint16ToTwoBytes(value, bytes);
 280              		.loc 1 138 0
 281 0006 01A9     		add	r1, sp, #4
 282              	.LVL48:
 283 0008 FFF7FEFF 		bl	Uint16ToTwoBytes
 284              	.LVL49:
 139:..\source/nvstore.c ****     for (ii = 0; ii < sizeof(uint16); ++ii)
 285              		.loc 1 139 0
 286 000c 0024     		movs	r4, #0
 287 000e 09E0     		b	.L21
 288              	.LVL50:
 289              	.L22:
 140:..\source/nvstore.c ****     {
 141:..\source/nvstore.c ****         EEPROM_WriteByte(bytes[ii], offset +ii);
 290              		.loc 1 141 0 discriminator 3
 291 0010 02AB     		add	r3, sp, #8
 292 0012 2344     		add	r3, r3, r4
 293 0014 2919     		adds	r1, r5, r4
 294 0016 13F8040C 		ldrb	r0, [r3, #-4]	@ zero_extendqisi2
 295 001a 89B2     		uxth	r1, r1
 296 001c FFF7FEFF 		bl	EEPROM_WriteByte
 297              	.LVL51:
 139:..\source/nvstore.c ****     for (ii = 0; ii < sizeof(uint16); ++ii)
 298              		.loc 1 139 0 discriminator 3
 299 0020 0134     		adds	r4, r4, #1
 300              	.LVL52:
 301 0022 E4B2     		uxtb	r4, r4
 302              	.LVL53:
 303              	.L21:
 139:..\source/nvstore.c ****     for (ii = 0; ii < sizeof(uint16); ++ii)
 304              		.loc 1 139 0 is_stmt 0 discriminator 1
 305 0024 012C     		cmp	r4, #1
ARM GAS  C:\Users\Tim\AppData\Local\Temp\ccM5w3Zz.s 			page 9


 306 0026 F3D9     		bls	.L22
 142:..\source/nvstore.c ****     }
 143:..\source/nvstore.c **** }
 307              		.loc 1 143 0 is_stmt 1
 308 0028 03B0     		add	sp, sp, #12
 309              		.cfi_def_cfa_offset 12
 310              		@ sp needed
 311 002a 30BD     		pop	{r4, r5, pc}
 312              		.cfi_endproc
 313              	.LFE66:
 314              		.size	Nvstore_WriteUint16, .-Nvstore_WriteUint16
 315              		.section	.text.Nvstore_WriteFloat,"ax",%progbits
 316              		.align	2
 317              		.global	Nvstore_WriteFloat
 318              		.thumb
 319              		.thumb_func
 320              		.type	Nvstore_WriteFloat, %function
 321              	Nvstore_WriteFloat:
 322              	.LFB67:
 144:..\source/nvstore.c **** 
 145:..\source/nvstore.c **** /*-------------------------------------------------------------------------------------------------
 146:..\source/nvstore.c ****  * Name: Nvstore_WriteFloat
 147:..\source/nvstore.c ****  * Description: Writes the specified float value to the location given in offset.
 148:..\source/nvstore.c ****  * Parameters: value - a floating point value to be written
 149:..\source/nvstore.c ****  *             offset - the offset from the base address of non-volatile storage
 150:..\source/nvstore.c ****  * Return: None
 151:..\source/nvstore.c ****  * 
 152:..\source/nvstore.c ****  *-------------------------------------------------------------------------------------------------
 153:..\source/nvstore.c **** void Nvstore_WriteFloat(float value, uint16 offset)
 154:..\source/nvstore.c **** {
 323              		.loc 1 154 0
 324              		.cfi_startproc
 325              		@ args = 0, pretend = 0, frame = 8
 326              		@ frame_needed = 0, uses_anonymous_args = 0
 327              	.LVL54:
 328 0000 30B5     		push	{r4, r5, lr}
 329              		.cfi_def_cfa_offset 12
 330              		.cfi_offset 4, -12
 331              		.cfi_offset 5, -8
 332              		.cfi_offset 14, -4
 333 0002 83B0     		sub	sp, sp, #12
 334              		.cfi_def_cfa_offset 24
 335 0004 0D46     		mov	r5, r1
 155:..\source/nvstore.c ****     uint8 ii;
 156:..\source/nvstore.c ****     uint8 bytes[sizeof(float)];
 157:..\source/nvstore.c ****     
 158:..\source/nvstore.c ****     FloatToFourBytes(value, bytes);
 336              		.loc 1 158 0
 337 0006 01A9     		add	r1, sp, #4
 338              	.LVL55:
 339 0008 FFF7FEFF 		bl	FloatToFourBytes
 340              	.LVL56:
 159:..\source/nvstore.c ****     for (ii = 0; ii < sizeof(float); ++ii)
 341              		.loc 1 159 0
 342 000c 0024     		movs	r4, #0
 343 000e 09E0     		b	.L25
 344              	.LVL57:
ARM GAS  C:\Users\Tim\AppData\Local\Temp\ccM5w3Zz.s 			page 10


 345              	.L26:
 160:..\source/nvstore.c ****     {
 161:..\source/nvstore.c ****         EEPROM_WriteByte(bytes[ii], offset + ii); 
 346              		.loc 1 161 0 discriminator 3
 347 0010 02AB     		add	r3, sp, #8
 348 0012 2344     		add	r3, r3, r4
 349 0014 2919     		adds	r1, r5, r4
 350 0016 13F8040C 		ldrb	r0, [r3, #-4]	@ zero_extendqisi2
 351 001a 89B2     		uxth	r1, r1
 352 001c FFF7FEFF 		bl	EEPROM_WriteByte
 353              	.LVL58:
 159:..\source/nvstore.c ****     for (ii = 0; ii < sizeof(float); ++ii)
 354              		.loc 1 159 0 discriminator 3
 355 0020 0134     		adds	r4, r4, #1
 356              	.LVL59:
 357 0022 E4B2     		uxtb	r4, r4
 358              	.LVL60:
 359              	.L25:
 159:..\source/nvstore.c ****     for (ii = 0; ii < sizeof(float); ++ii)
 360              		.loc 1 159 0 is_stmt 0 discriminator 1
 361 0024 032C     		cmp	r4, #3
 362 0026 F3D9     		bls	.L26
 162:..\source/nvstore.c ****     }
 163:..\source/nvstore.c **** }
 363              		.loc 1 163 0 is_stmt 1
 364 0028 03B0     		add	sp, sp, #12
 365              		.cfi_def_cfa_offset 12
 366              		@ sp needed
 367 002a 30BD     		pop	{r4, r5, pc}
 368              		.cfi_endproc
 369              	.LFE67:
 370              		.size	Nvstore_WriteFloat, .-Nvstore_WriteFloat
 371              		.section	.rodata
 372              		.align	2
 373              		.set	.LANCHOR0,. + 0
 374              		.type	__FUNCTION__.6674, %object
 375              		.size	__FUNCTION__.6674, 19
 376              	__FUNCTION__.6674:
 377 0000 4E767374 		.ascii	"Nvstore_WriteBytes\000"
 377      6F72655F 
 377      57726974 
 377      65427974 
 377      657300
 378 0013 00       		.section	.rodata.str1.4,"aMS",%progbits,1
 379              		.align	2
 380              	.LC0:
 381 0000 2E2E5C73 		.ascii	"..\\source\\nvstore.c\000"
 381      6F757263 
 381      655C6E76 
 381      73746F72 
 381      652E6300 
 382              	.LC1:
 383 0014 6E756D5F 		.ascii	"num_bytes == 0\000"
 383      62797465 
 383      73203D3D 
 383      203000
 384 0023 00       		.text
ARM GAS  C:\Users\Tim\AppData\Local\Temp\ccM5w3Zz.s 			page 11


 385              	.Letext0:
 386              		.file 2 "c:\\program files (x86)\\cypress\\psoc creator\\3.3\\psoc creator\\import\\gnu\\arm\\4.9.
 387              		.file 3 "c:\\program files (x86)\\cypress\\psoc creator\\3.3\\psoc creator\\import\\gnu\\arm\\4.9.
 388              		.file 4 "Generated_Source\\PSoC5/cytypes.h"
 389              		.file 5 "Generated_Source\\PSoC5/EEPROM.h"
 390              		.file 6 "c:\\program files (x86)\\cypress\\psoc creator\\3.3\\psoc creator\\import\\gnu\\arm\\4.9.
 391              		.file 7 "..\\source\\utils.h"
 392              		.file 8 "Generated_Source\\PSoC5/core_cm3.h"