ARM GAS  C:\Users\Tim\AppData\Local\Temp\ccrJKsmZ.s 			page 1


   1              		.syntax unified
   2              		.cpu cortex-m3
   3              		.fpu softvfp
   4              		.eabi_attribute 20, 1
   5              		.eabi_attribute 21, 1
   6              		.eabi_attribute 23, 3
   7              		.eabi_attribute 24, 1
   8              		.eabi_attribute 25, 1
   9              		.eabi_attribute 26, 1
  10              		.eabi_attribute 30, 1
  11              		.eabi_attribute 34, 1
  12              		.eabi_attribute 18, 4
  13              		.thumb
  14              		.file	"odom.c"
  15              		.text
  16              	.Ltext0:
  17              		.cfi_sections	.debug_frame
  18              		.global	__aeabi_fsub
  19              		.global	__aeabi_f2d
  20              		.global	__aeabi_ddiv
  21              		.global	__aeabi_d2f
  22              		.section	.text.CalculateOdometry,"ax",%progbits
  23              		.align	2
  24              		.thumb
  25              		.thumb_func
  26              		.type	CalculateOdometry, %function
  27              	CalculateOdometry:
  28              	.LFB66:
  29              		.file 1 "..\\source\\odom.c"
   1:..\source/odom.c **** /* ========================================
   2:..\source/odom.c ****  *
   3:..\source/odom.c ****  * Copyright YOUR COMPANY, THE YEAR
   4:..\source/odom.c ****  * All Rights Reserved
   5:..\source/odom.c ****  * UNPUBLISHED, LICENSED SOFTWARE.
   6:..\source/odom.c ****  *
   7:..\source/odom.c ****  * CONFIDENTIAL AND PROPRIETARY INFORMATION
   8:..\source/odom.c ****  * WHICH IS THE PROPERTY OF your company.
   9:..\source/odom.c ****  *
  10:..\source/odom.c ****  * ========================================
  11:..\source/odom.c **** */
  12:..\source/odom.c **** 
  13:..\source/odom.c **** /*-------------------------------------------------------------------------------------------------
  14:..\source/odom.c ****  * Includes
  15:..\source/odom.c ****  *-------------------------------------------------------------------------------------------------
  16:..\source/odom.c **** #include "odom.h"
  17:..\source/odom.c **** #include "config.h"
  18:..\source/odom.c **** #include "encoder.h"
  19:..\source/odom.c **** #include "math.h"
  20:..\source/odom.c **** #include "time.h"
  21:..\source/odom.c **** #include "i2c.h"
  22:..\source/odom.c **** #include "utils.h"
  23:..\source/odom.c **** #include "diag.h"
  24:..\source/odom.c **** #include "debug.h"
  25:..\source/odom.c **** #include "cal.h"
  26:..\source/odom.c **** 
  27:..\source/odom.c **** 
  28:..\source/odom.c **** /*
ARM GAS  C:\Users\Tim\AppData\Local\Temp\ccrJKsmZ.s 			page 2


  29:..\source/odom.c ****     References:
  30:..\source/odom.c **** 
  31:..\source/odom.c ****     http://rossum.sourceforge.net/papers/DiffSteer/
  32:..\source/odom.c ****     http://www-personal.umich.edu/~johannb/Papers/pos96rep.pdf
  33:..\source/odom.c ****     Add a reference to Control of Mobile Robots
  34:..\source/odom.c **** 
  35:..\source/odom.c ****  */
  36:..\source/odom.c **** 
  37:..\source/odom.c **** 
  38:..\source/odom.c **** /*-------------------------------------------------------------------------------------------------
  39:..\source/odom.c ****  * Macros
  40:..\source/odom.c ****  *-------------------------------------------------------------------------------------------------
  41:..\source/odom.c **** #ifdef ODOM_UPDATE_DELTA_ENABLED
  42:..\source/odom.c **** #define ODOM_DEBUG_DELTA(delta) DEBUG_DELTA_TIME("odom", delta)
  43:..\source/odom.c **** #else
  44:..\source/odom.c **** #define ODOM_DEBUG_DELTA(delta)
  45:..\source/odom.c **** #endif    
  46:..\source/odom.c **** 
  47:..\source/odom.c **** #ifdef ODOM_DUMP_ENABLED
  48:..\source/odom.c **** #define DUMP_ODOM()  DumpOdom()
  49:..\source/odom.c **** #else
  50:..\source/odom.c **** #define DUMP_ODOM()
  51:..\source/odom.c **** #endif    
  52:..\source/odom.c **** 
  53:..\source/odom.c **** #define ODOM_SAMPLE_TIME_MS  SAMPLE_TIME_MS(ODOM_SAMPLE_RATE)
  54:..\source/odom.c **** 
  55:..\source/odom.c **** /*-------------------------------------------------------------------------------------------------
  56:..\source/odom.c ****  * Variables
  57:..\source/odom.c ****  *-------------------------------------------------------------------------------------------------
  58:..\source/odom.c **** static float left_speed;
  59:..\source/odom.c **** static float right_speed;
  60:..\source/odom.c **** static float left_delta_dist;
  61:..\source/odom.c **** static float right_delta_dist;
  62:..\source/odom.c **** static float heading;
  63:..\source/odom.c **** 
  64:..\source/odom.c **** /*-------------------------------------------------------------------------------------------------
  65:..\source/odom.c ****  * Functions
  66:..\source/odom.c ****  *-------------------------------------------------------------------------------------------------
  67:..\source/odom.c **** 
  68:..\source/odom.c **** #ifdef ODOM_DUMP_ENABLED
  69:..\source/odom.c **** /*-------------------------------------------------------------------------------------------------
  70:..\source/odom.c ****  * Name: Nvstore_Start
  71:..\source/odom.c ****  * Description: Starts the EEPROM component used for storing calibration information.
  72:..\source/odom.c ****  * Parameters: None
  73:..\source/odom.c ****  * Return: None
  74:..\source/odom.c ****  * 
  75:..\source/odom.c ****  *-------------------------------------------------------------------------------------------------
  76:..\source/odom.c **** static void DumpOdom()
  77:..\source/odom.c **** {
  78:..\source/odom.c ****     char left_speed_str[10];
  79:..\source/odom.c ****     char right_speed_str[10];
  80:..\source/odom.c ****     char left_delta_dist_str[10];
  81:..\source/odom.c ****     char right_delta_dist_str[10];
  82:..\source/odom.c ****     char heading_str[10];
  83:..\source/odom.c ****     
  84:..\source/odom.c ****     ftoa(left_speed, left_speed_str, 3);
  85:..\source/odom.c ****     ftoa(right_speed, right_speed_str, 3);
ARM GAS  C:\Users\Tim\AppData\Local\Temp\ccrJKsmZ.s 			page 3


  86:..\source/odom.c ****     ftoa(left_delta_dist, left_delta_dist_str, 3);
  87:..\source/odom.c ****     ftoa(right_delta_dist, right_delta_dist_str, 3);
  88:..\source/odom.c ****     ftoa(heading, heading_str, 3);
  89:..\source/odom.c ****     
  90:..\source/odom.c ****     if (ODOM_DEBUG_CONTROL_ENABLED)
  91:..\source/odom.c ****     {
  92:..\source/odom.c ****         DEBUG_PRINT_ARG("ls: %s rs: %s ld: %s rd: %s hd: %s\r\n", left_speed_str, right_speed_str, 
  93:..\source/odom.c ****     }
  94:..\source/odom.c **** }
  95:..\source/odom.c **** #endif
  96:..\source/odom.c **** 
  97:..\source/odom.c **** /*-------------------------------------------------------------------------------------------------
  98:..\source/odom.c ****  * Name: Nvstore_Start
  99:..\source/odom.c ****  * Description: Starts the EEPROM component used for storing calibration information.
 100:..\source/odom.c ****  * Parameters: None
 101:..\source/odom.c ****  * Return: None
 102:..\source/odom.c ****  * 
 103:..\source/odom.c ****  *-------------------------------------------------------------------------------------------------
 104:..\source/odom.c **** void Odom_Init()
 105:..\source/odom.c **** {
 106:..\source/odom.c ****     left_speed = 0;
 107:..\source/odom.c ****     right_speed = 0;
 108:..\source/odom.c ****     left_delta_dist = 0;
 109:..\source/odom.c ****     right_delta_dist = 0;
 110:..\source/odom.c **** }
 111:..\source/odom.c **** 
 112:..\source/odom.c **** /*-------------------------------------------------------------------------------------------------
 113:..\source/odom.c ****  * Name: Nvstore_Start
 114:..\source/odom.c ****  * Description: Starts the EEPROM component used for storing calibration information.
 115:..\source/odom.c ****  * Parameters: None
 116:..\source/odom.c ****  * Return: None
 117:..\source/odom.c ****  * 
 118:..\source/odom.c ****  *-------------------------------------------------------------------------------------------------
 119:..\source/odom.c **** void Odom_Start()
 120:..\source/odom.c **** {
 121:..\source/odom.c **** }
 122:..\source/odom.c **** 
 123:..\source/odom.c **** /*-------------------------------------------------------------------------------------------------
 124:..\source/odom.c ****  * Name: CalculateOdometry
 125:..\source/odom.c ****  * Description: Calculates the odometry fields on each sample period.
 126:..\source/odom.c ****  * Parameters: delta_time - the number of milliseconds between each call.
 127:..\source/odom.c ****  * Return: None
 128:..\source/odom.c ****  * 
 129:..\source/odom.c ****  *-------------------------------------------------------------------------------------------------
 130:..\source/odom.c **** static void CalculateOdometry(uint32 delta_time)
 131:..\source/odom.c **** {
  30              		.loc 1 131 0
  31              		.cfi_startproc
  32              		@ args = 0, pretend = 0, frame = 0
  33              		@ frame_needed = 0, uses_anonymous_args = 0
  34              	.LVL0:
  35 0000 70B5     		push	{r4, r5, r6, lr}
  36              		.cfi_def_cfa_offset 16
  37              		.cfi_offset 4, -16
  38              		.cfi_offset 5, -12
  39              		.cfi_offset 6, -8
  40              		.cfi_offset 14, -4
ARM GAS  C:\Users\Tim\AppData\Local\Temp\ccrJKsmZ.s 			page 4


 132:..\source/odom.c ****     static float last_left_dist;
 133:..\source/odom.c ****     static float last_right_dist;
 134:..\source/odom.c ****     float left_dist;
 135:..\source/odom.c ****     float right_dist;
 136:..\source/odom.c ****     
 137:..\source/odom.c ****     left_speed = Encoder_LeftGetMeterPerSec();
  41              		.loc 1 137 0
  42 0002 FFF7FEFF 		bl	Encoder_LeftGetMeterPerSec
  43              	.LVL1:
  44 0006 164C     		ldr	r4, .L3+8
  45 0008 2060     		str	r0, [r4]	@ float
 138:..\source/odom.c ****     right_speed = Encoder_RightGetMeterPerSec();
  46              		.loc 1 138 0
  47 000a FFF7FEFF 		bl	Encoder_RightGetMeterPerSec
  48              	.LVL2:
  49 000e 6060     		str	r0, [r4, #4]	@ float
 139:..\source/odom.c ****     left_dist = Encoder_LeftGetDist();
  50              		.loc 1 139 0
  51 0010 FFF7FEFF 		bl	Encoder_LeftGetDist
  52              	.LVL3:
  53 0014 0646     		mov	r6, r0
  54              	.LVL4:
 140:..\source/odom.c ****     right_dist = Encoder_RightGetDist();
  55              		.loc 1 140 0
  56 0016 FFF7FEFF 		bl	Encoder_RightGetDist
  57              	.LVL5:
  58 001a 0546     		mov	r5, r0
  59              	.LVL6:
 141:..\source/odom.c **** 
 142:..\source/odom.c ****     heading = (left_dist - right_dist)/TRACK_WIDTH;
  60              		.loc 1 142 0
  61 001c 3046     		mov	r0, r6
  62              	.LVL7:
  63 001e 2946     		mov	r1, r5
  64 0020 FFF7FEFF 		bl	__aeabi_fsub
  65              	.LVL8:
  66 0024 FFF7FEFF 		bl	__aeabi_f2d
  67              	.LVL9:
  68 0028 0BA3     		adr	r3, .L3
  69 002a D3E90023 		ldrd	r2, [r3]
  70 002e FFF7FEFF 		bl	__aeabi_ddiv
  71              	.LVL10:
  72 0032 FFF7FEFF 		bl	__aeabi_d2f
  73              	.LVL11:
  74 0036 A060     		str	r0, [r4, #8]	@ float
 143:..\source/odom.c ****     
 144:..\source/odom.c ****     left_delta_dist = left_dist - last_left_dist;
  75              		.loc 1 144 0
  76 0038 3046     		mov	r0, r6
  77 003a E168     		ldr	r1, [r4, #12]	@ float
  78 003c FFF7FEFF 		bl	__aeabi_fsub
  79              	.LVL12:
  80 0040 2061     		str	r0, [r4, #16]	@ float
 145:..\source/odom.c ****     right_delta_dist = right_dist - last_right_dist;
  81              		.loc 1 145 0
  82 0042 2846     		mov	r0, r5
  83 0044 6169     		ldr	r1, [r4, #20]	@ float
ARM GAS  C:\Users\Tim\AppData\Local\Temp\ccrJKsmZ.s 			page 5


  84 0046 FFF7FEFF 		bl	__aeabi_fsub
  85              	.LVL13:
  86 004a A061     		str	r0, [r4, #24]	@ float
 146:..\source/odom.c ****     
 147:..\source/odom.c ****     last_left_dist = left_dist;
  87              		.loc 1 147 0
  88 004c E660     		str	r6, [r4, #12]	@ float
 148:..\source/odom.c ****     last_right_dist = right_dist;
  89              		.loc 1 148 0
  90 004e 6561     		str	r5, [r4, #20]	@ float
  91 0050 70BD     		pop	{r4, r5, r6, pc}
  92              	.LVL14:
  93              	.L4:
  94 0052 00BFAFF3 		.align	3
  94      0080
  95              	.L3:
  96 0058 986E1283 		.word	-2095944040
  97 005c C0CAD93F 		.word	1071237824
  98 0060 00000000 		.word	.LANCHOR0
  99              		.cfi_endproc
 100              	.LFE66:
 101              		.size	CalculateOdometry, .-CalculateOdometry
 102 0064 AFF30080 		.section	.text.DumpOdom,"ax",%progbits
 103              		.align	2
 104              		.thumb
 105              		.thumb_func
 106              		.type	DumpOdom, %function
 107              	DumpOdom:
 108              	.LFB63:
  77:..\source/odom.c ****     char left_speed_str[10];
 109              		.loc 1 77 0
 110              		.cfi_startproc
 111              		@ args = 0, pretend = 0, frame = 64
 112              		@ frame_needed = 0, uses_anonymous_args = 0
 113 0000 10B5     		push	{r4, lr}
 114              		.cfi_def_cfa_offset 8
 115              		.cfi_offset 4, -8
 116              		.cfi_offset 14, -4
 117 0002 94B0     		sub	sp, sp, #80
 118              		.cfi_def_cfa_offset 88
  84:..\source/odom.c ****     ftoa(right_speed, right_speed_str, 3);
 119              		.loc 1 84 0
 120 0004 1A4C     		ldr	r4, .L8
 121 0006 2068     		ldr	r0, [r4]	@ float
 122 0008 11A9     		add	r1, sp, #68
 123 000a 0322     		movs	r2, #3
 124 000c FFF7FEFF 		bl	ftoa
 125              	.LVL15:
  85:..\source/odom.c ****     ftoa(left_delta_dist, left_delta_dist_str, 3);
 126              		.loc 1 85 0
 127 0010 6068     		ldr	r0, [r4, #4]	@ float
 128 0012 0EA9     		add	r1, sp, #56
 129 0014 0322     		movs	r2, #3
 130 0016 FFF7FEFF 		bl	ftoa
 131              	.LVL16:
  86:..\source/odom.c ****     ftoa(right_delta_dist, right_delta_dist_str, 3);
 132              		.loc 1 86 0
ARM GAS  C:\Users\Tim\AppData\Local\Temp\ccrJKsmZ.s 			page 6


 133 001a 2069     		ldr	r0, [r4, #16]	@ float
 134 001c 0BA9     		add	r1, sp, #44
 135 001e 0322     		movs	r2, #3
 136 0020 FFF7FEFF 		bl	ftoa
 137              	.LVL17:
  87:..\source/odom.c ****     ftoa(heading, heading_str, 3);
 138              		.loc 1 87 0
 139 0024 A069     		ldr	r0, [r4, #24]	@ float
 140 0026 08A9     		add	r1, sp, #32
 141 0028 0322     		movs	r2, #3
 142 002a FFF7FEFF 		bl	ftoa
 143              	.LVL18:
  88:..\source/odom.c ****     
 144              		.loc 1 88 0
 145 002e A068     		ldr	r0, [r4, #8]	@ float
 146 0030 05A9     		add	r1, sp, #20
 147 0032 0322     		movs	r2, #3
 148 0034 FFF7FEFF 		bl	ftoa
 149              	.LVL19:
  90:..\source/odom.c ****     {
 150              		.loc 1 90 0
 151 0038 0E4B     		ldr	r3, .L8+4
 152 003a 1B88     		ldrh	r3, [r3]
 153 003c 03F04003 		and	r3, r3, #64
 154 0040 9BB2     		uxth	r3, r3
 155 0042 93B1     		cbz	r3, .L5
  92:..\source/odom.c ****     }
 156              		.loc 1 92 0
 157 0044 0C4C     		ldr	r4, .L8+8
 158 0046 0EAB     		add	r3, sp, #56
 159 0048 0093     		str	r3, [sp]
 160 004a 0BAB     		add	r3, sp, #44
 161 004c 0193     		str	r3, [sp, #4]
 162 004e 08AB     		add	r3, sp, #32
 163 0050 0293     		str	r3, [sp, #8]
 164 0052 05AB     		add	r3, sp, #20
 165 0054 0393     		str	r3, [sp, #12]
 166 0056 2046     		mov	r0, r4
 167 0058 4FF48071 		mov	r1, #256
 168 005c 074A     		ldr	r2, .L8+12
 169 005e 11AB     		add	r3, sp, #68
 170 0060 FFF7FEFF 		bl	snprintf
 171              	.LVL20:
 172 0064 2046     		mov	r0, r4
 173 0066 FFF7FEFF 		bl	Ser_PutString
 174              	.LVL21:
 175              	.L5:
  94:..\source/odom.c **** #endif
 176              		.loc 1 94 0
 177 006a 14B0     		add	sp, sp, #80
 178              		.cfi_def_cfa_offset 8
 179              		@ sp needed
 180 006c 10BD     		pop	{r4, pc}
 181              	.L9:
 182 006e 00BF     		.align	2
 183              	.L8:
 184 0070 00000000 		.word	.LANCHOR0
ARM GAS  C:\Users\Tim\AppData\Local\Temp\ccrJKsmZ.s 			page 7


 185 0074 00000000 		.word	debug_control_enabled
 186 0078 00000000 		.word	formatted_string
 187 007c 00000000 		.word	.LC0
 188              		.cfi_endproc
 189              	.LFE63:
 190              		.size	DumpOdom, .-DumpOdom
 191              		.section	.text.Odom_Init,"ax",%progbits
 192              		.align	2
 193              		.global	Odom_Init
 194              		.thumb
 195              		.thumb_func
 196              		.type	Odom_Init, %function
 197              	Odom_Init:
 198              	.LFB64:
 105:..\source/odom.c ****     left_speed = 0;
 199              		.loc 1 105 0
 200              		.cfi_startproc
 201              		@ args = 0, pretend = 0, frame = 0
 202              		@ frame_needed = 0, uses_anonymous_args = 0
 203              		@ link register save eliminated.
 106:..\source/odom.c ****     right_speed = 0;
 204              		.loc 1 106 0
 205 0000 034B     		ldr	r3, .L11
 206 0002 0022     		movs	r2, #0
 207 0004 1A60     		str	r2, [r3]	@ float
 107:..\source/odom.c ****     left_delta_dist = 0;
 208              		.loc 1 107 0
 209 0006 5A60     		str	r2, [r3, #4]	@ float
 108:..\source/odom.c ****     right_delta_dist = 0;
 210              		.loc 1 108 0
 211 0008 1A61     		str	r2, [r3, #16]	@ float
 109:..\source/odom.c **** }
 212              		.loc 1 109 0
 213 000a 9A61     		str	r2, [r3, #24]	@ float
 214 000c 7047     		bx	lr
 215              	.L12:
 216 000e 00BF     		.align	2
 217              	.L11:
 218 0010 00000000 		.word	.LANCHOR0
 219              		.cfi_endproc
 220              	.LFE64:
 221              		.size	Odom_Init, .-Odom_Init
 222              		.section	.text.Odom_Start,"ax",%progbits
 223              		.align	2
 224              		.global	Odom_Start
 225              		.thumb
 226              		.thumb_func
 227              		.type	Odom_Start, %function
 228              	Odom_Start:
 229              	.LFB65:
 120:..\source/odom.c **** }
 230              		.loc 1 120 0
 231              		.cfi_startproc
 232              		@ args = 0, pretend = 0, frame = 0
 233              		@ frame_needed = 0, uses_anonymous_args = 0
 234              		@ link register save eliminated.
 235 0000 7047     		bx	lr
ARM GAS  C:\Users\Tim\AppData\Local\Temp\ccrJKsmZ.s 			page 8


 236              		.cfi_endproc
 237              	.LFE65:
 238              		.size	Odom_Start, .-Odom_Start
 239              		.global	__aeabi_ui2d
 240              		.global	__aeabi_dcmpgt
 241 0002 00BF     		.section	.text.Odom_Update,"ax",%progbits
 242              		.align	2
 243              		.global	Odom_Update
 244              		.thumb
 245              		.thumb_func
 246              		.type	Odom_Update, %function
 247              	Odom_Update:
 248              	.LFB67:
 149:..\source/odom.c **** }
 150:..\source/odom.c **** 
 151:..\source/odom.c **** /*-------------------------------------------------------------------------------------------------
 152:..\source/odom.c ****  * Name: Odom_Update
 153:..\source/odom.c ****  * Description: Updates the odometry fields.  This function is called from the main loop and enforc
 154:..\source/odom.c ****  *              the sampling period for reporting odometry.
 155:..\source/odom.c ****  * Parameters: None
 156:..\source/odom.c ****  * Return: None
 157:..\source/odom.c ****  * 
 158:..\source/odom.c ****  *-------------------------------------------------------------------------------------------------
 159:..\source/odom.c **** void Odom_Update()
 160:..\source/odom.c **** {
 249              		.loc 1 160 0
 250              		.cfi_startproc
 251              		@ args = 0, pretend = 0, frame = 104
 252              		@ frame_needed = 0, uses_anonymous_args = 0
 253              		.loc 1 160 0
 254 0000 10B5     		push	{r4, lr}
 255              		.cfi_def_cfa_offset 8
 256              		.cfi_offset 4, -8
 257              		.cfi_offset 14, -4
 258 0002 9CB0     		sub	sp, sp, #112
 259              		.cfi_def_cfa_offset 120
 161:..\source/odom.c ****     static uint32 last_odom_time = 0;
 162:..\source/odom.c ****     static uint8 odom_sched_offset_applied = 0;
 163:..\source/odom.c ****     uint32 delta_time;
 164:..\source/odom.c ****         
 165:..\source/odom.c ****     delta_time = millis() - last_odom_time;
 260              		.loc 1 165 0
 261 0004 FFF7FEFF 		bl	millis
 262              	.LVL22:
 263 0008 1B4B     		ldr	r3, .L21
 264 000a DC69     		ldr	r4, [r3, #28]
 265 000c 041B     		subs	r4, r0, r4
 266              	.LVL23:
 166:..\source/odom.c ****     ODOM_DEBUG_DELTA(delta_time);
 267              		.loc 1 166 0
 268 000e 1B4B     		ldr	r3, .L21+4
 269 0010 1B88     		ldrh	r3, [r3]
 270 0012 03F08003 		and	r3, r3, #128
 271 0016 9BB2     		uxth	r3, r3
 272 0018 43B1     		cbz	r3, .L15
 273              	.LBB2:
 274              		.loc 1 166 0 is_stmt 0 discriminator 1
ARM GAS  C:\Users\Tim\AppData\Local\Temp\ccrJKsmZ.s 			page 9


 275 001a 03A8     		add	r0, sp, #12
 276 001c 1849     		ldr	r1, .L21+8
 277 001e 194A     		ldr	r2, .L21+12
 278 0020 2346     		mov	r3, r4
 279 0022 FFF7FEFF 		bl	sprintf
 280              	.LVL24:
 281 0026 03A8     		add	r0, sp, #12
 282 0028 FFF7FEFF 		bl	Ser_PutString
 283              	.LVL25:
 284              	.L15:
 285              	.LBE2:
 167:..\source/odom.c ****     if (delta_time > ODOM_SAMPLE_TIME_MS)
 286              		.loc 1 167 0 is_stmt 1
 287 002c 2046     		mov	r0, r4
 288 002e FFF7FEFF 		bl	__aeabi_ui2d
 289              	.LVL26:
 290 0032 0022     		movs	r2, #0
 291 0034 144B     		ldr	r3, .L21+16
 292 0036 FFF7FEFF 		bl	__aeabi_dcmpgt
 293              	.LVL27:
 294 003a D8B1     		cbz	r0, .L14
 168:..\source/odom.c ****     {
 169:..\source/odom.c ****         last_odom_time = millis();
 295              		.loc 1 169 0
 296 003c FFF7FEFF 		bl	millis
 297              	.LVL28:
 298 0040 0D4B     		ldr	r3, .L21
 299 0042 D861     		str	r0, [r3, #28]
 170:..\source/odom.c ****         
 171:..\source/odom.c ****         APPLY_SCHED_OFFSET(ODOM_SCHED_OFFSET, odom_sched_offset_applied);
 300              		.loc 1 171 0
 301 0044 93F82030 		ldrb	r3, [r3, #32]	@ zero_extendqisi2
 302 0048 33B9     		cbnz	r3, .L18
 303              		.loc 1 171 0 is_stmt 0 discriminator 1
 304 004a 0122     		movs	r2, #1
 305 004c 0A4B     		ldr	r3, .L21
 306 004e 83F82020 		strb	r2, [r3, #32]
 307 0052 0B20     		movs	r0, #11
 308 0054 FFF7FEFF 		bl	CyDelay
 309              	.LVL29:
 310              	.L18:
 172:..\source/odom.c ****         
 173:..\source/odom.c ****         CalculateOdometry(delta_time);
 311              		.loc 1 173 0 is_stmt 1
 312 0058 2046     		mov	r0, r4
 313 005a FFF7FEFF 		bl	CalculateOdometry
 314              	.LVL30:
 174:..\source/odom.c ****         I2c_WriteOdom(left_speed, right_speed, left_delta_dist, right_delta_dist, heading);
 315              		.loc 1 174 0
 316 005e 064C     		ldr	r4, .L21
 317              	.LVL31:
 318 0060 2068     		ldr	r0, [r4]	@ float
 319 0062 6168     		ldr	r1, [r4, #4]	@ float
 320 0064 2269     		ldr	r2, [r4, #16]	@ float
 321 0066 A369     		ldr	r3, [r4, #24]	@ float
 322 0068 A468     		ldr	r4, [r4, #8]	@ float
 323 006a 0094     		str	r4, [sp]	@ float
ARM GAS  C:\Users\Tim\AppData\Local\Temp\ccrJKsmZ.s 			page 10


 324 006c FFF7FEFF 		bl	I2c_WriteOdom
 325              	.LVL32:
 175:..\source/odom.c ****         DUMP_ODOM();
 326              		.loc 1 175 0
 327 0070 FFF7FEFF 		bl	DumpOdom
 328              	.LVL33:
 329              	.L14:
 176:..\source/odom.c ****     }
 177:..\source/odom.c **** }
 330              		.loc 1 177 0
 331 0074 1CB0     		add	sp, sp, #112
 332              		.cfi_def_cfa_offset 8
 333              		@ sp needed
 334 0076 10BD     		pop	{r4, pc}
 335              	.L22:
 336              		.align	2
 337              	.L21:
 338 0078 00000000 		.word	.LANCHOR0
 339 007c 00000000 		.word	debug_control_enabled
 340 0080 28000000 		.word	.LC1
 341 0084 34000000 		.word	.LC2
 342 0088 00004940 		.word	1078525952
 343              		.cfi_endproc
 344              	.LFE67:
 345              		.size	Odom_Update, .-Odom_Update
 346              		.section	.text.Odom_Reset,"ax",%progbits
 347              		.align	2
 348              		.global	Odom_Reset
 349              		.thumb
 350              		.thumb_func
 351              		.type	Odom_Reset, %function
 352              	Odom_Reset:
 353              	.LFB68:
 178:..\source/odom.c **** 
 179:..\source/odom.c **** /*-------------------------------------------------------------------------------------------------
 180:..\source/odom.c ****  * Name: Odom_Reset
 181:..\source/odom.c ****  * Description: Resets the odometry fields and updates them in the I2C interface.
 182:..\source/odom.c ****  * Parameters: None
 183:..\source/odom.c ****  * Return: None
 184:..\source/odom.c ****  * 
 185:..\source/odom.c ****  *-------------------------------------------------------------------------------------------------
 186:..\source/odom.c **** void Odom_Reset()
 187:..\source/odom.c **** {
 354              		.loc 1 187 0
 355              		.cfi_startproc
 356              		@ args = 0, pretend = 0, frame = 0
 357              		@ frame_needed = 0, uses_anonymous_args = 0
 358 0000 00B5     		push	{lr}
 359              		.cfi_def_cfa_offset 4
 360              		.cfi_offset 14, -4
 361 0002 83B0     		sub	sp, sp, #12
 362              		.cfi_def_cfa_offset 16
 188:..\source/odom.c ****     left_speed = 0;
 363              		.loc 1 188 0
 364 0004 074A     		ldr	r2, .L25
 365 0006 0023     		movs	r3, #0
 366 0008 1360     		str	r3, [r2]	@ float
ARM GAS  C:\Users\Tim\AppData\Local\Temp\ccrJKsmZ.s 			page 11


 189:..\source/odom.c ****     right_speed = 0;
 367              		.loc 1 189 0
 368 000a 5360     		str	r3, [r2, #4]	@ float
 190:..\source/odom.c ****     left_delta_dist = 0;
 369              		.loc 1 190 0
 370 000c 1361     		str	r3, [r2, #16]	@ float
 191:..\source/odom.c ****     right_delta_dist = 0;
 371              		.loc 1 191 0
 372 000e 9361     		str	r3, [r2, #24]	@ float
 192:..\source/odom.c ****     heading = 0;
 373              		.loc 1 192 0
 374 0010 9360     		str	r3, [r2, #8]	@ float
 193:..\source/odom.c ****     I2c_WriteOdom(left_speed, right_speed, left_delta_dist, right_delta_dist, heading);
 375              		.loc 1 193 0
 376 0012 0093     		str	r3, [sp]	@ float
 377 0014 1846     		mov	r0, r3
 378 0016 1946     		mov	r1, r3
 379 0018 1A46     		mov	r2, r3
 380 001a FFF7FEFF 		bl	I2c_WriteOdom
 381              	.LVL34:
 194:..\source/odom.c **** }
 382              		.loc 1 194 0
 383 001e 03B0     		add	sp, sp, #12
 384              		.cfi_def_cfa_offset 4
 385              		@ sp needed
 386 0020 5DF804FB 		ldr	pc, [sp], #4
 387              	.L26:
 388              		.align	2
 389              	.L25:
 390 0024 00000000 		.word	.LANCHOR0
 391              		.cfi_endproc
 392              	.LFE68:
 393              		.size	Odom_Reset, .-Odom_Reset
 394              		.comm	Cal_RightTarget,4,4
 395              		.comm	Cal_LeftTarget,4,4
 396              		.comm	p_cal_eeprom,4,4
 397              		.comm	debug_control_enabled,2,2
 398              		.comm	formatted_string,256,4
 399              		.section	.rodata.str1.4,"aMS",%progbits,1
 400              		.align	2
 401              	.LC0:
 402 0000 6C733A20 		.ascii	"ls: %s rs: %s ld: %s rd: %s hd: %s\015\012\000"
 402      25732072 
 402      733A2025 
 402      73206C64 
 402      3A202573 
 403 0025 000000   		.space	3
 404              	.LC1:
 405 0028 25733A20 		.ascii	"%s: %ld \015\012\000"
 405      256C6420 
 405      0D0A00
 406 0033 00       		.space	1
 407              	.LC2:
 408 0034 6F646F6D 		.ascii	"odom\000"
 408      00
 409 0039 000000   		.bss
 410              		.align	2
ARM GAS  C:\Users\Tim\AppData\Local\Temp\ccrJKsmZ.s 			page 12


 411              		.set	.LANCHOR0,. + 0
 412              		.type	left_speed, %object
 413              		.size	left_speed, 4
 414              	left_speed:
 415 0000 00000000 		.space	4
 416              		.type	right_speed, %object
 417              		.size	right_speed, 4
 418              	right_speed:
 419 0004 00000000 		.space	4
 420              		.type	heading, %object
 421              		.size	heading, 4
 422              	heading:
 423 0008 00000000 		.space	4
 424              		.type	last_left_dist.8115, %object
 425              		.size	last_left_dist.8115, 4
 426              	last_left_dist.8115:
 427 000c 00000000 		.space	4
 428              		.type	left_delta_dist, %object
 429              		.size	left_delta_dist, 4
 430              	left_delta_dist:
 431 0010 00000000 		.space	4
 432              		.type	last_right_dist.8116, %object
 433              		.size	last_right_dist.8116, 4
 434              	last_right_dist.8116:
 435 0014 00000000 		.space	4
 436              		.type	right_delta_dist, %object
 437              		.size	right_delta_dist, 4
 438              	right_delta_dist:
 439 0018 00000000 		.space	4
 440              		.type	last_odom_time.8121, %object
 441              		.size	last_odom_time.8121, 4
 442              	last_odom_time.8121:
 443 001c 00000000 		.space	4
 444              		.type	odom_sched_offset_applied.8122, %object
 445              		.size	odom_sched_offset_applied.8122, 1
 446              	odom_sched_offset_applied.8122:
 447 0020 00       		.space	1
 448 0021 000000   		.text
 449              	.Letext0:
 450              		.file 2 "c:\\program files (x86)\\cypress\\psoc creator\\3.3\\psoc creator\\import\\gnu\\arm\\4.9.
 451              		.file 3 "c:\\program files (x86)\\cypress\\psoc creator\\3.3\\psoc creator\\import\\gnu\\arm\\4.9.
 452              		.file 4 "Generated_Source\\PSoC5/cytypes.h"
 453              		.file 5 "c:\\program files (x86)\\cypress\\psoc creator\\3.3\\psoc creator\\import\\gnu\\arm\\4.9.
 454              		.file 6 "..\\source\\config.h"
 455              		.file 7 "..\\source\\calstore.h"
 456              		.file 8 "Generated_Source\\PSoC5/core_cm3.h"
 457              		.file 9 "..\\source\\debug.h"
 458              		.file 10 "..\\source\\cal.h"
 459              		.file 11 "..\\source\\encoder.h"
 460              		.file 12 "..\\source\\utils.h"
 461              		.file 13 "..\\source\\serial.h"
 462              		.file 14 "c:\\program files (x86)\\cypress\\psoc creator\\3.3\\psoc creator\\import\\gnu\\arm\\4.9
 463              		.file 15 "..\\source\\time.h"
 464              		.file 16 "Generated_Source\\PSoC5/CyLib.h"
 465              		.file 17 "..\\source\\i2c.h"