ARM GAS  C:\Users\tslator\AppData\Local\Temp\ccc72pkH.s 			page 1


   1              		.syntax unified
   2              		.cpu cortex-m3
   3              		.fpu softvfp
   4              		.eabi_attribute 20, 1
   5              		.eabi_attribute 21, 1
   6              		.eabi_attribute 23, 3
   7              		.eabi_attribute 24, 1
   8              		.eabi_attribute 25, 1
   9              		.eabi_attribute 26, 1
  10              		.eabi_attribute 30, 1
  11              		.eabi_attribute 34, 1
  12              		.eabi_attribute 18, 4
  13              		.thumb
  14              		.file	"pid.c"
  15              		.text
  16              	.Ltext0:
  17              		.cfi_sections	.debug_frame
  18              		.global	__aeabi_fcmpgt
  19              		.global	__aeabi_f2d
  20              		.global	__aeabi_ddiv
  21              		.global	__aeabi_dcmplt
  22              		.global	__aeabi_d2f
  23              		.global	__aeabi_fcmplt
  24              		.global	__aeabi_i2f
  25              		.global	__aeabi_fmul
  26              		.section	.text.ProcessPid,"ax",%progbits
  27              		.align	2
  28              		.thumb
  29              		.thumb_func
  30              		.type	ProcessPid, %function
  31              	ProcessPid:
  32              	.LFB66:
  33              		.file 1 "..\\source\\pid.c"
   1:..\source/pid.c **** /* ========================================
   2:..\source/pid.c ****  *
   3:..\source/pid.c ****  * Copyright YOUR COMPANY, THE YEAR
   4:..\source/pid.c ****  * All Rights Reserved
   5:..\source/pid.c ****  * UNPUBLISHED, LICENSED SOFTWARE.
   6:..\source/pid.c ****  *
   7:..\source/pid.c ****  * CONFIDENTIAL AND PROPRIETARY INFORMATION
   8:..\source/pid.c ****  * WHICH IS THE PROPERTY OF your company.
   9:..\source/pid.c ****  *
  10:..\source/pid.c ****  * ========================================
  11:..\source/pid.c **** */
  12:..\source/pid.c **** 
  13:..\source/pid.c **** #include <stdio.h>
  14:..\source/pid.c **** #include "config.h"
  15:..\source/pid.c **** #include "pid.h"
  16:..\source/pid.c **** #include "time.h"
  17:..\source/pid.c **** #include "utils.h"
  18:..\source/pid.c **** #include "encoder.h"
  19:..\source/pid.c **** #include "motor.h"
  20:..\source/pid.c **** #include "pid_controller.h"
  21:..\source/pid.c **** #include "diag.h"
  22:..\source/pid.c **** #include "debug.h"
  23:..\source/pid.c **** 
  24:..\source/pid.c **** #ifdef LEFT_PID_DUMP_ENABLED
ARM GAS  C:\Users\tslator\AppData\Local\Temp\ccc72pkH.s 			page 2


  25:..\source/pid.c **** #define LEFT_DUMP_PID(pid)  if (debug_control_enabled & DEBUG_LEFT_PID_ENABLE_BIT) DumpPid(pid)
  26:..\source/pid.c **** #else
  27:..\source/pid.c **** #define LEFT_DUMP_PID(pid)
  28:..\source/pid.c **** #endif
  29:..\source/pid.c **** 
  30:..\source/pid.c **** #ifdef RIGHT_PID_DUMP_ENABLED
  31:..\source/pid.c **** #define RIGHT_DUMP_PID(pid)  if (debug_control_enabled & DEBUG_RIGHT_PID_ENABLE_BIT) DumpPid(pid)
  32:..\source/pid.c **** #else
  33:..\source/pid.c **** #define RIGHT_DUMP_PID(pid)
  34:..\source/pid.c **** #endif
  35:..\source/pid.c **** 
  36:..\source/pid.c **** #ifdef PID_UPDATE_DELTA_ENABLED
  37:..\source/pid.c **** #define PID_DEBUG_DELTA(delta)  DEBUG_DELTA_TIME("pid", delta)
  38:..\source/pid.c **** #else
  39:..\source/pid.c **** #define PID_DEBUG_DELTA(delta)
  40:..\source/pid.c **** #endif
  41:..\source/pid.c **** 
  42:..\source/pid.c **** 
  43:..\source/pid.c **** 
  44:..\source/pid.c **** #define PID_SAMPLE_TIME_MS  SAMPLE_TIME_MS(PID_SAMPLE_RATE)
  45:..\source/pid.c **** #define PID_SAMPLE_TIME_SEC SAMPLE_TIME_SEC(PID_SAMPLE_RATE)
  46:..\source/pid.c **** 
  47:..\source/pid.c **** #define PID_MIN (0)
  48:..\source/pid.c **** #define PID_MAX (300)
  49:..\source/pid.c **** 
  50:..\source/pid.c **** typedef struct _pid_tag
  51:..\source/pid.c **** {
  52:..\source/pid.c ****     char name[6];
  53:..\source/pid.c ****     PIDControl pid;
  54:..\source/pid.c ****     GET_TARGET_TYPE get_target;
  55:..\source/pid.c ****     GET_ENCODER_TYPE get_encoder;
  56:..\source/pid.c ****     SET_MOTOR_TYPE set_motor;
  57:..\source/pid.c ****     GET_MOTOR_PWM_TYPE get_pwm;
  58:..\source/pid.c **** } PID_TYPE;
  59:..\source/pid.c **** 
  60:..\source/pid.c **** #define DEFAULT_KP (6.0)
  61:..\source/pid.c **** #define DEFAULT_KI (2.2)
  62:..\source/pid.c **** #define DEFAULT_KD (0.67)
  63:..\source/pid.c **** 
  64:..\source/pid.c **** 
  65:..\source/pid.c **** #define left_kp (TUNE_KP)
  66:..\source/pid.c **** #define left_ki (TUNE_KI)
  67:..\source/pid.c **** #define left_kd (TUNE_KD)
  68:..\source/pid.c **** 
  69:..\source/pid.c **** #define right_kp (TUNE_KP)
  70:..\source/pid.c **** #define right_ki (TUNE_KI)
  71:..\source/pid.c **** #define right_kd (TUNE_KD)
  72:..\source/pid.c **** 
  73:..\source/pid.c **** static PID_TYPE left_pid = { 
  74:..\source/pid.c ****     /* name */          "left",
  75:..\source/pid.c ****     /* pid */           {0, 0, 0, /*Kp*/0, /*Ki*/0, /*Kd*/0, 0, 0, 0, 0, 0, 0, 0, 0, DIRECT, AUTOMA
  76:..\source/pid.c ****     /* get_target */    0,
  77:..\source/pid.c ****     /* get_encoder */   Encoder_LeftGetCntsPerSec,
  78:..\source/pid.c ****     /* set_motor */     Motor_LeftSetCntsPerSec,
  79:..\source/pid.c ****     /* get_pwm */       Motor_LeftGetPwm
  80:..\source/pid.c **** };
  81:..\source/pid.c **** 
ARM GAS  C:\Users\tslator\AppData\Local\Temp\ccc72pkH.s 			page 3


  82:..\source/pid.c **** static PID_TYPE right_pid = { 
  83:..\source/pid.c ****     /* name */          "right",
  84:..\source/pid.c ****     /* pid */           {0, 0, 0, /*Kp*/0, /*Ki*/0, /*Kd*/0, 0, 0, 0, 0, 0, 0, 0, 0, DIRECT, AUTOMA
  85:..\source/pid.c ****     /* get_target */    0,    
  86:..\source/pid.c ****     /* get_encoder */   Encoder_RightGetCntsPerSec,
  87:..\source/pid.c ****     /* set_motor */     Motor_RightSetCntsPerSec,
  88:..\source/pid.c ****     /* get_pwm */       Motor_RightGetPwm
  89:..\source/pid.c **** };
  90:..\source/pid.c **** 
  91:..\source/pid.c **** #if defined (LEFT_PID_DUMP_ENABLED) || defined(RIGHT_PID_DUMP_ENABLED)
  92:..\source/pid.c **** static void DumpPid(PID_TYPE *pid)
  93:..\source/pid.c **** {
  94:..\source/pid.c ****     char set_point_str[10];
  95:..\source/pid.c ****     char input_str[10];
  96:..\source/pid.c ****     char error_str[10];
  97:..\source/pid.c ****     char last_input_str[10];
  98:..\source/pid.c ****     char iterm_str[10];
  99:..\source/pid.c ****     char output_str[10];
 100:..\source/pid.c **** 
 101:..\source/pid.c ****     ftoa(pid->pid.setpoint, set_point_str, 3);
 102:..\source/pid.c ****     ftoa(pid->pid.input, input_str, 3);
 103:..\source/pid.c ****     ftoa(pid->pid.setpoint - pid->pid.input, error_str, 6);
 104:..\source/pid.c ****     ftoa(pid->pid.lastInput, last_input_str, 3);
 105:..\source/pid.c ****     ftoa(pid->pid.iTerm, iterm_str, 6);
 106:..\source/pid.c ****     ftoa(pid->pid.output, output_str, 6);
 107:..\source/pid.c **** 
 108:..\source/pid.c ****     if (PID_DEBUG_CONTROL_ENABLED)
 109:..\source/pid.c ****     {
 110:..\source/pid.c ****         DEBUG_PRINT_ARG("%s pid: %s %s %s %s %s %s %d \r\n", pid->name, set_point_str, input_str, e
 111:..\source/pid.c ****     }
 112:..\source/pid.c **** }
 113:..\source/pid.c **** #endif
 114:..\source/pid.c **** 
 115:..\source/pid.c **** void Pid_Init(GET_TARGET_TYPE left_target, GET_TARGET_TYPE right_target)
 116:..\source/pid.c **** {
 117:..\source/pid.c ****     
 118:..\source/pid.c ****     left_pid.get_target = left_target;
 119:..\source/pid.c ****     right_pid.get_target = right_target;
 120:..\source/pid.c ****     
 121:..\source/pid.c ****     PIDInit(&left_pid.pid, 0, 0, 0, PID_SAMPLE_TIME_SEC, PID_MIN, PID_MAX, AUTOMATIC, DIRECT); 
 122:..\source/pid.c ****     PIDInit(&right_pid.pid, 0, 0, 0, PID_SAMPLE_TIME_SEC, PID_MIN, PID_MAX, AUTOMATIC, DIRECT); 
 123:..\source/pid.c **** }
 124:..\source/pid.c ****     
 125:..\source/pid.c **** void Pid_Start()
 126:..\source/pid.c **** {
 127:..\source/pid.c ****     CAL_PID_TYPE *p_gains;
 128:..\source/pid.c ****     
 129:..\source/pid.c ****     // Note: the PID gains are stored in EEPROM, so we don't have access to EEPROM until the EEPROM
 130:..\source/pid.c ****     // started.  Pid_Start is called after Nvstore_Start.
 131:..\source/pid.c ****     
 132:..\source/pid.c ****     p_gains = Cal_LeftGetPidGains();
 133:..\source/pid.c ****     PIDTuningsSet(&left_pid.pid, p_gains->kp, p_gains->ki, p_gains->kd);
 134:..\source/pid.c ****     
 135:..\source/pid.c ****     p_gains = Cal_RightGetPidGains();
 136:..\source/pid.c ****     PIDTuningsSet(&right_pid.pid, p_gains->kp, p_gains->ki, p_gains->kd);
 137:..\source/pid.c **** }
 138:..\source/pid.c **** 
ARM GAS  C:\Users\tslator\AppData\Local\Temp\ccc72pkH.s 			page 4


 139:..\source/pid.c **** static void ProcessPid(PID_TYPE *pid)
 140:..\source/pid.c **** {
  34              		.loc 1 140 0
  35              		.cfi_startproc
  36              		@ args = 0, pretend = 0, frame = 0
  37              		@ frame_needed = 0, uses_anonymous_args = 0
  38              	.LVL0:
  39 0000 2DE9F047 		push	{r4, r5, r6, r7, r8, r9, r10, lr}
  40              		.cfi_def_cfa_offset 32
  41              		.cfi_offset 4, -32
  42              		.cfi_offset 5, -28
  43              		.cfi_offset 6, -24
  44              		.cfi_offset 7, -20
  45              		.cfi_offset 8, -16
  46              		.cfi_offset 9, -12
  47              		.cfi_offset 10, -8
  48              		.cfi_offset 14, -4
  49 0004 0546     		mov	r5, r0
 141:..\source/pid.c ****     float tgt_speed;
 142:..\source/pid.c ****     int8 dir;
 143:..\source/pid.c ****     float enc_speed;
 144:..\source/pid.c ****     
 145:..\source/pid.c ****     tgt_speed = pid->get_target();
  50              		.loc 1 145 0
  51 0006 436C     		ldr	r3, [r0, #68]
  52 0008 9847     		blx	r3
  53              	.LVL1:
  54 000a 8146     		mov	r9, r0
  55              	.LVL2:
 146:..\source/pid.c ****     dir = tgt_speed > 0 ? 1 : -1;
  56              		.loc 1 146 0
  57 000c 0021     		movs	r1, #0
  58 000e FFF7FEFF 		bl	__aeabi_fcmpgt
  59              	.LVL3:
  60 0012 10B1     		cbz	r0, .L14
  61 0014 4FF0010A 		mov	r10, #1
  62 0018 01E0     		b	.L2
  63              	.L14:
  64 001a 4FF0FF0A 		mov	r10, #255
  65              	.L2:
  66              	.LVL4:
 147:..\source/pid.c ****     
 148:..\source/pid.c ****     enc_speed = pid->get_encoder();
  67              		.loc 1 148 0 discriminator 4
  68 001e AB6C     		ldr	r3, [r5, #72]
  69 0020 9847     		blx	r3
  70              	.LVL5:
  71 0022 0446     		mov	r4, r0
  72              	.LVL6:
 149:..\source/pid.c ****     
 150:..\source/pid.c ****     PIDSetpointSet(&pid->pid, abs(tgt_speed / METER_PER_COUNT));
  73              		.loc 1 150 0 discriminator 4
  74 0024 05F10808 		add	r8, r5, #8
  75 0028 4846     		mov	r0, r9
  76              	.LVL7:
  77 002a FFF7FEFF 		bl	__aeabi_f2d
  78              	.LVL8:
ARM GAS  C:\Users\tslator\AppData\Local\Temp\ccc72pkH.s 			page 5


  79 002e 1EA3     		adr	r3, .L17
  80 0030 D3E90023 		ldrd	r2, [r3]
  81 0034 FFF7FEFF 		bl	__aeabi_ddiv
  82              	.LVL9:
  83 0038 0646     		mov	r6, r0
  84 003a 0F46     		mov	r7, r1
  85 003c 0022     		movs	r2, #0
  86 003e 0023     		movs	r3, #0
  87 0040 FFF7FEFF 		bl	__aeabi_dcmplt
  88              	.LVL10:
  89 0044 50B1     		cbz	r0, .L4
  90              		.loc 1 150 0 is_stmt 0 discriminator 1
  91 0046 09F10040 		add	r0, r9, #-2147483648
  92 004a FFF7FEFF 		bl	__aeabi_f2d
  93              	.LVL11:
  94 004e 16A3     		adr	r3, .L17
  95 0050 D3E90023 		ldrd	r2, [r3]
  96 0054 FFF7FEFF 		bl	__aeabi_ddiv
  97              	.LVL12:
  98 0058 0646     		mov	r6, r0
  99 005a 0F46     		mov	r7, r1
 100              	.L4:
 101              		.loc 1 150 0 discriminator 4
 102 005c 3046     		mov	r0, r6
 103 005e 3946     		mov	r1, r7
 104 0060 FFF7FEFF 		bl	__aeabi_d2f
 105              	.LVL13:
 106 0064 0146     		mov	r1, r0
 107 0066 4046     		mov	r0, r8
 108 0068 FFF7FEFF 		bl	PIDSetpointSet
 109              	.LVL14:
 151:..\source/pid.c ****     PIDInputSet(&pid->pid, abs(enc_speed));
 110              		.loc 1 151 0 is_stmt 1 discriminator 4
 111 006c 2046     		mov	r0, r4
 112 006e 0021     		movs	r1, #0
 113 0070 FFF7FEFF 		bl	__aeabi_fcmplt
 114              	.LVL15:
 115 0074 10B1     		cbz	r0, .L15
 116              		.loc 1 151 0 is_stmt 0 discriminator 1
 117 0076 04F10041 		add	r1, r4, #-2147483648
 118 007a 00E0     		b	.L6
 119              	.L15:
 120              		.loc 1 151 0
 121 007c 2146     		mov	r1, r4
 122              	.L6:
 123              		.loc 1 151 0 discriminator 4
 124 007e 4046     		mov	r0, r8
 125 0080 FFF7FEFF 		bl	PIDInputSet
 126              	.LVL16:
 152:..\source/pid.c ****     
 153:..\source/pid.c ****     if (PIDCompute(&pid->pid))
 127              		.loc 1 153 0 is_stmt 1 discriminator 4
 128 0084 4046     		mov	r0, r8
 129 0086 FFF7FEFF 		bl	PIDCompute
 130              	.LVL17:
 131 008a 50B1     		cbz	r0, .L1
 154:..\source/pid.c ****     {
ARM GAS  C:\Users\tslator\AppData\Local\Temp\ccc72pkH.s 			page 6


 155:..\source/pid.c ****         pid->set_motor(pid->pid.output * dir);
 132              		.loc 1 155 0
 133 008c EC6C     		ldr	r4, [r5, #76]
 134              	.LVL18:
 135 008e 2D69     		ldr	r5, [r5, #16]	@ float
 136              	.LVL19:
 137 0090 4FFA8AF0 		sxtb	r0, r10
 138 0094 FFF7FEFF 		bl	__aeabi_i2f
 139              	.LVL20:
 140 0098 0146     		mov	r1, r0
 141 009a 2846     		mov	r0, r5
 142 009c FFF7FEFF 		bl	__aeabi_fmul
 143              	.LVL21:
 144 00a0 A047     		blx	r4
 145              	.LVL22:
 146              	.L1:
 147 00a2 BDE8F087 		pop	{r4, r5, r6, r7, r8, r9, r10, pc}
 148              	.LVL23:
 149              	.L18:
 150 00a6 00BF     		.align	3
 151              	.L17:
 152 00a8 57A393F4 		.word	-191650985
 153 00ac 923B6B3F 		.word	1063992210
 154              		.cfi_endproc
 155              	.LFE66:
 156              		.size	ProcessPid, .-ProcessPid
 157              		.global	__aeabi_fsub
 158              		.section	.text.DumpPid,"ax",%progbits
 159              		.align	2
 160              		.thumb
 161              		.thumb_func
 162              		.type	DumpPid, %function
 163              	DumpPid:
 164              	.LFB63:
  93:..\source/pid.c ****     char set_point_str[10];
 165              		.loc 1 93 0
 166              		.cfi_startproc
 167              		@ args = 0, pretend = 0, frame = 72
 168              		@ frame_needed = 0, uses_anonymous_args = 0
 169              	.LVL24:
 170 0000 30B5     		push	{r4, r5, lr}
 171              		.cfi_def_cfa_offset 12
 172              		.cfi_offset 4, -12
 173              		.cfi_offset 5, -8
 174              		.cfi_offset 14, -4
 175 0002 9BB0     		sub	sp, sp, #108
 176              		.cfi_def_cfa_offset 120
 177 0004 0446     		mov	r4, r0
 101:..\source/pid.c ****     ftoa(pid->pid.input, input_str, 3);
 178              		.loc 1 101 0
 179 0006 C06B     		ldr	r0, [r0, #60]	@ float
 180              	.LVL25:
 181 0008 17A9     		add	r1, sp, #92
 182 000a 0322     		movs	r2, #3
 183 000c FFF7FEFF 		bl	ftoa
 184              	.LVL26:
 102:..\source/pid.c ****     ftoa(pid->pid.setpoint - pid->pid.input, error_str, 6);
ARM GAS  C:\Users\tslator\AppData\Local\Temp\ccc72pkH.s 			page 7


 185              		.loc 1 102 0
 186 0010 A068     		ldr	r0, [r4, #8]	@ float
 187 0012 14A9     		add	r1, sp, #80
 188 0014 0322     		movs	r2, #3
 189 0016 FFF7FEFF 		bl	ftoa
 190              	.LVL27:
 103:..\source/pid.c ****     ftoa(pid->pid.lastInput, last_input_str, 3);
 191              		.loc 1 103 0
 192 001a E06B     		ldr	r0, [r4, #60]	@ float
 193 001c A168     		ldr	r1, [r4, #8]	@ float
 194 001e FFF7FEFF 		bl	__aeabi_fsub
 195              	.LVL28:
 196 0022 11A9     		add	r1, sp, #68
 197 0024 0622     		movs	r2, #6
 198 0026 FFF7FEFF 		bl	ftoa
 199              	.LVL29:
 104:..\source/pid.c ****     ftoa(pid->pid.iTerm, iterm_str, 6);
 200              		.loc 1 104 0
 201 002a E068     		ldr	r0, [r4, #12]	@ float
 202 002c 0EA9     		add	r1, sp, #56
 203 002e 0322     		movs	r2, #3
 204 0030 FFF7FEFF 		bl	ftoa
 205              	.LVL30:
 105:..\source/pid.c ****     ftoa(pid->pid.output, output_str, 6);
 206              		.loc 1 105 0
 207 0034 E06A     		ldr	r0, [r4, #44]	@ float
 208 0036 0BA9     		add	r1, sp, #44
 209 0038 0622     		movs	r2, #6
 210 003a FFF7FEFF 		bl	ftoa
 211              	.LVL31:
 106:..\source/pid.c **** 
 212              		.loc 1 106 0
 213 003e 2069     		ldr	r0, [r4, #16]	@ float
 214 0040 08A9     		add	r1, sp, #32
 215 0042 0622     		movs	r2, #6
 216 0044 FFF7FEFF 		bl	ftoa
 217              	.LVL32:
 108:..\source/pid.c ****     {
 218              		.loc 1 108 0
 219 0048 104B     		ldr	r3, .L22
 220 004a 1B88     		ldrh	r3, [r3]
 221 004c 03F00C03 		and	r3, r3, #12
 222 0050 CBB1     		cbz	r3, .L19
 110:..\source/pid.c ****     }
 223              		.loc 1 110 0
 224 0052 236D     		ldr	r3, [r4, #80]
 225 0054 9847     		blx	r3
 226              	.LVL33:
 227 0056 0E4D     		ldr	r5, .L22+4
 228 0058 17AB     		add	r3, sp, #92
 229 005a 0093     		str	r3, [sp]
 230 005c 14AB     		add	r3, sp, #80
 231 005e 0193     		str	r3, [sp, #4]
 232 0060 11AB     		add	r3, sp, #68
 233 0062 0293     		str	r3, [sp, #8]
 234 0064 0EAB     		add	r3, sp, #56
 235 0066 0393     		str	r3, [sp, #12]
ARM GAS  C:\Users\tslator\AppData\Local\Temp\ccc72pkH.s 			page 8


 236 0068 0BAB     		add	r3, sp, #44
 237 006a 0493     		str	r3, [sp, #16]
 238 006c 08AB     		add	r3, sp, #32
 239 006e 0593     		str	r3, [sp, #20]
 240 0070 0690     		str	r0, [sp, #24]
 241 0072 2846     		mov	r0, r5
 242 0074 4FF48071 		mov	r1, #256
 243 0078 064A     		ldr	r2, .L22+8
 244 007a 2346     		mov	r3, r4
 245 007c FFF7FEFF 		bl	snprintf
 246              	.LVL34:
 247 0080 2846     		mov	r0, r5
 248 0082 FFF7FEFF 		bl	Ser_PutString
 249              	.LVL35:
 250              	.L19:
 112:..\source/pid.c **** #endif
 251              		.loc 1 112 0
 252 0086 1BB0     		add	sp, sp, #108
 253              		.cfi_def_cfa_offset 12
 254              		@ sp needed
 255 0088 30BD     		pop	{r4, r5, pc}
 256              	.LVL36:
 257              	.L23:
 258 008a 00BF     		.align	2
 259              	.L22:
 260 008c 00000000 		.word	debug_control_enabled
 261 0090 00000000 		.word	formatted_string
 262 0094 00000000 		.word	.LC0
 263              		.cfi_endproc
 264              	.LFE63:
 265              		.size	DumpPid, .-DumpPid
 266              		.section	.text.Pid_Init,"ax",%progbits
 267              		.align	2
 268              		.global	Pid_Init
 269              		.thumb
 270              		.thumb_func
 271              		.type	Pid_Init, %function
 272              	Pid_Init:
 273              	.LFB64:
 116:..\source/pid.c ****     
 274              		.loc 1 116 0
 275              		.cfi_startproc
 276              		@ args = 0, pretend = 0, frame = 0
 277              		@ frame_needed = 0, uses_anonymous_args = 0
 278              	.LVL37:
 279 0000 2DE9F043 		push	{r4, r5, r6, r7, r8, r9, lr}
 280              		.cfi_def_cfa_offset 28
 281              		.cfi_offset 4, -28
 282              		.cfi_offset 5, -24
 283              		.cfi_offset 6, -20
 284              		.cfi_offset 7, -16
 285              		.cfi_offset 8, -12
 286              		.cfi_offset 9, -8
 287              		.cfi_offset 14, -4
 288 0004 87B0     		sub	sp, sp, #28
 289              		.cfi_def_cfa_offset 56
 118:..\source/pid.c ****     right_pid.get_target = right_target;
ARM GAS  C:\Users\tslator\AppData\Local\Temp\ccc72pkH.s 			page 9


 290              		.loc 1 118 0
 291 0006 154D     		ldr	r5, .L26
 292 0008 6864     		str	r0, [r5, #68]
 119:..\source/pid.c ****     
 293              		.loc 1 119 0
 294 000a C5F89810 		str	r1, [r5, #152]
 121:..\source/pid.c ****     PIDInit(&right_pid.pid, 0, 0, 0, PID_SAMPLE_TIME_SEC, PID_MIN, PID_MAX, AUTOMATIC, DIRECT); 
 295              		.loc 1 121 0
 296 000e 0024     		movs	r4, #0
 297 0010 DFF84C90 		ldr	r9, .L26+4
 298 0014 CDF80090 		str	r9, [sp]	@ float
 299 0018 0194     		str	r4, [sp, #4]	@ float
 300 001a DFF84880 		ldr	r8, .L26+8
 301 001e CDF80880 		str	r8, [sp, #8]	@ float
 302 0022 0127     		movs	r7, #1
 303 0024 0397     		str	r7, [sp, #12]
 304 0026 0026     		movs	r6, #0
 305 0028 0496     		str	r6, [sp, #16]
 306 002a 05F10800 		add	r0, r5, #8
 307              	.LVL38:
 308 002e 2146     		mov	r1, r4
 309              	.LVL39:
 310 0030 2246     		mov	r2, r4
 311 0032 2346     		mov	r3, r4
 312 0034 FFF7FEFF 		bl	PIDInit
 313              	.LVL40:
 122:..\source/pid.c **** }
 314              		.loc 1 122 0
 315 0038 CDF80090 		str	r9, [sp]	@ float
 316 003c 0194     		str	r4, [sp, #4]	@ float
 317 003e CDF80880 		str	r8, [sp, #8]	@ float
 318 0042 0397     		str	r7, [sp, #12]
 319 0044 0496     		str	r6, [sp, #16]
 320 0046 05F15C00 		add	r0, r5, #92
 321 004a 2146     		mov	r1, r4
 322 004c 2246     		mov	r2, r4
 323 004e 2346     		mov	r3, r4
 324 0050 FFF7FEFF 		bl	PIDInit
 325              	.LVL41:
 123:..\source/pid.c ****     
 326              		.loc 1 123 0
 327 0054 07B0     		add	sp, sp, #28
 328              		.cfi_def_cfa_offset 28
 329              		@ sp needed
 330 0056 BDE8F083 		pop	{r4, r5, r6, r7, r8, r9, pc}
 331              	.L27:
 332 005a 00BF     		.align	2
 333              	.L26:
 334 005c 00000000 		.word	.LANCHOR0
 335 0060 CDCC4C3D 		.word	1028443341
 336 0064 00009643 		.word	1133903872
 337              		.cfi_endproc
 338              	.LFE64:
 339              		.size	Pid_Init, .-Pid_Init
 340              		.section	.text.Pid_Start,"ax",%progbits
 341              		.align	2
 342              		.global	Pid_Start
ARM GAS  C:\Users\tslator\AppData\Local\Temp\ccc72pkH.s 			page 10


 343              		.thumb
 344              		.thumb_func
 345              		.type	Pid_Start, %function
 346              	Pid_Start:
 347              	.LFB65:
 126:..\source/pid.c ****     CAL_PID_TYPE *p_gains;
 348              		.loc 1 126 0
 349              		.cfi_startproc
 350              		@ args = 0, pretend = 0, frame = 0
 351              		@ frame_needed = 0, uses_anonymous_args = 0
 352 0000 10B5     		push	{r4, lr}
 353              		.cfi_def_cfa_offset 8
 354              		.cfi_offset 4, -8
 355              		.cfi_offset 14, -4
 132:..\source/pid.c ****     PIDTuningsSet(&left_pid.pid, p_gains->kp, p_gains->ki, p_gains->kd);
 356              		.loc 1 132 0
 357 0002 FFF7FEFF 		bl	Cal_LeftGetPidGains
 358              	.LVL42:
 133:..\source/pid.c ****     
 359              		.loc 1 133 0
 360 0006 094C     		ldr	r4, .L30
 361 0008 0168     		ldr	r1, [r0]	@ unaligned
 362 000a 4268     		ldr	r2, [r0, #4]	@ unaligned
 363 000c 8368     		ldr	r3, [r0, #8]	@ unaligned
 364 000e 04F10800 		add	r0, r4, #8
 365              	.LVL43:
 366 0012 FFF7FEFF 		bl	PIDTuningsSet
 367              	.LVL44:
 135:..\source/pid.c ****     PIDTuningsSet(&right_pid.pid, p_gains->kp, p_gains->ki, p_gains->kd);
 368              		.loc 1 135 0
 369 0016 FFF7FEFF 		bl	Cal_RightGetPidGains
 370              	.LVL45:
 136:..\source/pid.c **** }
 371              		.loc 1 136 0
 372 001a 0168     		ldr	r1, [r0]	@ unaligned
 373 001c 4268     		ldr	r2, [r0, #4]	@ unaligned
 374 001e 8368     		ldr	r3, [r0, #8]	@ unaligned
 375 0020 04F15C00 		add	r0, r4, #92
 376              	.LVL46:
 377 0024 FFF7FEFF 		bl	PIDTuningsSet
 378              	.LVL47:
 379 0028 10BD     		pop	{r4, pc}
 380              	.L31:
 381 002a 00BF     		.align	2
 382              	.L30:
 383 002c 00000000 		.word	.LANCHOR0
 384              		.cfi_endproc
 385              	.LFE65:
 386              		.size	Pid_Start, .-Pid_Start
 387              		.global	__aeabi_ui2d
 388              		.global	__aeabi_dcmpge
 389              		.section	.text.Pid_Update,"ax",%progbits
 390              		.align	2
 391              		.global	Pid_Update
 392              		.thumb
 393              		.thumb_func
 394              		.type	Pid_Update, %function
ARM GAS  C:\Users\tslator\AppData\Local\Temp\ccc72pkH.s 			page 11


 395              	Pid_Update:
 396              	.LFB67:
 156:..\source/pid.c ****     }
 157:..\source/pid.c **** }
 158:..\source/pid.c **** 
 159:..\source/pid.c **** void Pid_Update()
 160:..\source/pid.c **** {
 397              		.loc 1 160 0
 398              		.cfi_startproc
 399              		@ args = 0, pretend = 0, frame = 0
 400              		@ frame_needed = 0, uses_anonymous_args = 0
 401 0000 10B5     		push	{r4, lr}
 402              		.cfi_def_cfa_offset 8
 403              		.cfi_offset 4, -8
 404              		.cfi_offset 14, -4
 161:..\source/pid.c ****     static uint32 last_update_time = 0;
 162:..\source/pid.c ****     static uint8 pid_sched_offset_applied = 0;
 163:..\source/pid.c ****     uint32 delta_time;
 164:..\source/pid.c ****     
 165:..\source/pid.c ****     delta_time = millis() - last_update_time;
 405              		.loc 1 165 0
 406 0002 FFF7FEFF 		bl	millis
 407              	.LVL48:
 408 0006 184B     		ldr	r3, .L39
 409 0008 1B68     		ldr	r3, [r3]
 410              	.LVL49:
 166:..\source/pid.c ****     PID_DEBUG_DELTA(delta_time);
 167:..\source/pid.c ****     if (delta_time >= PID_SAMPLE_TIME_MS)
 411              		.loc 1 167 0
 412 000a C01A     		subs	r0, r0, r3
 413              	.LVL50:
 414 000c FFF7FEFF 		bl	__aeabi_ui2d
 415              	.LVL51:
 416 0010 0022     		movs	r2, #0
 417 0012 164B     		ldr	r3, .L39+4
 418 0014 FFF7FEFF 		bl	__aeabi_dcmpge
 419              	.LVL52:
 420 0018 28B3     		cbz	r0, .L32
 168:..\source/pid.c ****     {    
 169:..\source/pid.c ****         last_update_time = millis();
 421              		.loc 1 169 0
 422 001a FFF7FEFF 		bl	millis
 423              	.LVL53:
 424 001e 124B     		ldr	r3, .L39
 425 0020 1860     		str	r0, [r3]
 170:..\source/pid.c ****         
 171:..\source/pid.c ****         APPLY_SCHED_OFFSET(PID_SCHED_OFFSET, pid_sched_offset_applied);
 426              		.loc 1 171 0
 427 0022 1B79     		ldrb	r3, [r3, #4]	@ zero_extendqisi2
 428 0024 2BB9     		cbnz	r3, .L35
 429              		.loc 1 171 0 is_stmt 0 discriminator 1
 430 0026 0122     		movs	r2, #1
 431 0028 0F4B     		ldr	r3, .L39
 432 002a 1A71     		strb	r2, [r3, #4]
 433 002c 1320     		movs	r0, #19
 434 002e FFF7FEFF 		bl	CyDelay
 435              	.LVL54:
ARM GAS  C:\Users\tslator\AppData\Local\Temp\ccc72pkH.s 			page 12


 436              	.L35:
 172:..\source/pid.c ****         
 173:..\source/pid.c ****         ProcessPid(&left_pid);
 437              		.loc 1 173 0 is_stmt 1
 438 0032 0F4C     		ldr	r4, .L39+8
 439 0034 2046     		mov	r0, r4
 440 0036 FFF7FEFF 		bl	ProcessPid
 441              	.LVL55:
 174:..\source/pid.c ****         ProcessPid(&right_pid);
 442              		.loc 1 174 0
 443 003a 04F15400 		add	r0, r4, #84
 444 003e FFF7FEFF 		bl	ProcessPid
 445              	.LVL56:
 175:..\source/pid.c ****         LEFT_DUMP_PID(&left_pid);
 446              		.loc 1 175 0
 447 0042 0C4B     		ldr	r3, .L39+12
 448 0044 1B88     		ldrh	r3, [r3]
 449 0046 03F00403 		and	r3, r3, #4
 450 004a 9BB2     		uxth	r3, r3
 451 004c 13B1     		cbz	r3, .L36
 452              		.loc 1 175 0 is_stmt 0 discriminator 1
 453 004e 2046     		mov	r0, r4
 454 0050 FFF7FEFF 		bl	DumpPid
 455              	.LVL57:
 456              	.L36:
 176:..\source/pid.c ****         RIGHT_DUMP_PID(&right_pid);
 457              		.loc 1 176 0 is_stmt 1
 458 0054 074B     		ldr	r3, .L39+12
 459 0056 1B88     		ldrh	r3, [r3]
 460 0058 03F00803 		and	r3, r3, #8
 461 005c 9BB2     		uxth	r3, r3
 462 005e 13B1     		cbz	r3, .L32
 463              		.loc 1 176 0 is_stmt 0 discriminator 1
 464 0060 0548     		ldr	r0, .L39+16
 465 0062 FFF7FEFF 		bl	DumpPid
 466              	.LVL58:
 467              	.L32:
 468 0066 10BD     		pop	{r4, pc}
 469              	.L40:
 470              		.align	2
 471              	.L39:
 472 0068 00000000 		.word	.LANCHOR1
 473 006c 00004940 		.word	1078525952
 474 0070 00000000 		.word	.LANCHOR0
 475 0074 00000000 		.word	debug_control_enabled
 476 0078 54000000 		.word	.LANCHOR0+84
 477              		.cfi_endproc
 478              	.LFE67:
 479              		.size	Pid_Update, .-Pid_Update
 480              		.global	__aeabi_fadd
 481              		.global	__aeabi_ui2f
 482              		.global	__aeabi_fdiv
 483              		.section	.text.StepImpulse,"ax",%progbits
 484              		.align	2
 485              		.thumb
 486              		.thumb_func
 487              		.type	StepImpulse, %function
ARM GAS  C:\Users\tslator\AppData\Local\Temp\ccc72pkH.s 			page 13


 488              	StepImpulse:
 489              	.LFB68:
 177:..\source/pid.c ****     }
 178:..\source/pid.c **** }
 179:..\source/pid.c **** 
 180:..\source/pid.c **** static float StepImpulse(PID_TYPE *pid, float velocity, uint32 time_in_ms)
 181:..\source/pid.c **** /*
 182:..\source/pid.c ****     Apply the velocity to the motor
 183:..\source/pid.c ****     Update encoder and pid update
 184:..\source/pid.c ****     Quit after 5 seconds
 185:..\source/pid.c ****  */
 186:..\source/pid.c **** {
 490              		.loc 1 186 0 is_stmt 1
 491              		.cfi_startproc
 492              		@ args = 0, pretend = 0, frame = 0
 493              		@ frame_needed = 0, uses_anonymous_args = 0
 494              	.LVL59:
 495 0000 2DE9F843 		push	{r3, r4, r5, r6, r7, r8, r9, lr}
 496              		.cfi_def_cfa_offset 32
 497              		.cfi_offset 3, -32
 498              		.cfi_offset 4, -28
 499              		.cfi_offset 5, -24
 500              		.cfi_offset 6, -20
 501              		.cfi_offset 7, -16
 502              		.cfi_offset 8, -12
 503              		.cfi_offset 9, -8
 504              		.cfi_offset 14, -4
 505 0004 0546     		mov	r5, r0
 506 0006 0F46     		mov	r7, r1
 507 0008 1646     		mov	r6, r2
 508              	.LVL60:
 187:..\source/pid.c ****     float vel_error_sum = 0;
 188:..\source/pid.c ****     uint32 samples = 0;
 189:..\source/pid.c ****     uint32 start_time;
 190:..\source/pid.c ****     #define MIN_SAMPLE_TIME (1000)
 191:..\source/pid.c ****     
 192:..\source/pid.c ****     start_time = millis();
 509              		.loc 1 192 0
 510 000a FFF7FEFF 		bl	millis
 511              	.LVL61:
 512 000e 0446     		mov	r4, r0
 513              	.LVL62:
 188:..\source/pid.c ****     uint32 start_time;
 514              		.loc 1 188 0
 515 0010 4FF00009 		mov	r9, #0
 187:..\source/pid.c ****     float vel_error_sum = 0;
 516              		.loc 1 187 0
 517 0014 4FF00008 		mov	r8, #0
 193:..\source/pid.c ****     while (millis() - start_time < time_in_ms)
 518              		.loc 1 193 0
 519 0018 1CE0     		b	.L43
 520              	.LVL63:
 521              	.L44:
 194:..\source/pid.c ****     {
 195:..\source/pid.c ****         pid->set_motor(velocity);
 522              		.loc 1 195 0
 523 001a EB6C     		ldr	r3, [r5, #76]
ARM GAS  C:\Users\tslator\AppData\Local\Temp\ccc72pkH.s 			page 14


 524 001c 3846     		mov	r0, r7
 525 001e 9847     		blx	r3
 526              	.LVL64:
 196:..\source/pid.c ****         Encoder_Update();
 527              		.loc 1 196 0
 528 0020 FFF7FEFF 		bl	Encoder_Update
 529              	.LVL65:
 197:..\source/pid.c ****         Pid_Update();
 530              		.loc 1 197 0
 531 0024 FFF7FEFF 		bl	Pid_Update
 532              	.LVL66:
 198:..\source/pid.c ****         
 199:..\source/pid.c ****         if (millis() - start_time > MIN_SAMPLE_TIME)
 533              		.loc 1 199 0
 534 0028 FFF7FEFF 		bl	millis
 535              	.LVL67:
 536 002c 001B     		subs	r0, r0, r4
 537 002e B0F57A7F 		cmp	r0, #1000
 538 0032 0FD9     		bls	.L43
 539              	.LBB2:
 200:..\source/pid.c ****         {
 201:..\source/pid.c ****             float error = velocity - pid->get_encoder();
 540              		.loc 1 201 0
 541 0034 AB6C     		ldr	r3, [r5, #72]
 542 0036 9847     		blx	r3
 543              	.LVL68:
 544 0038 0146     		mov	r1, r0
 545 003a 3846     		mov	r0, r7
 546 003c FFF7FEFF 		bl	__aeabi_fsub
 547              	.LVL69:
 202:..\source/pid.c ****             vel_error_sum += error * error;
 548              		.loc 1 202 0
 549 0040 0146     		mov	r1, r0
 550 0042 FFF7FEFF 		bl	__aeabi_fmul
 551              	.LVL70:
 552 0046 0146     		mov	r1, r0
 553 0048 4046     		mov	r0, r8
 554 004a FFF7FEFF 		bl	__aeabi_fadd
 555              	.LVL71:
 556 004e 8046     		mov	r8, r0
 557              	.LVL72:
 203:..\source/pid.c ****             samples++;
 558              		.loc 1 203 0
 559 0050 09F10109 		add	r9, r9, #1
 560              	.LVL73:
 561              	.L43:
 562              	.LBE2:
 193:..\source/pid.c ****     {
 563              		.loc 1 193 0
 564 0054 FFF7FEFF 		bl	millis
 565              	.LVL74:
 566 0058 001B     		subs	r0, r0, r4
 567 005a B042     		cmp	r0, r6
 568 005c DDD3     		bcc	.L44
 204:..\source/pid.c ****         }
 205:..\source/pid.c ****     }
 206:..\source/pid.c **** 
ARM GAS  C:\Users\tslator\AppData\Local\Temp\ccc72pkH.s 			page 15


 207:..\source/pid.c ****     pid->set_motor(0);
 569              		.loc 1 207 0
 570 005e EB6C     		ldr	r3, [r5, #76]
 571 0060 0020     		movs	r0, #0
 572 0062 9847     		blx	r3
 573              	.LVL75:
 208:..\source/pid.c ****     CyDelay(500);
 574              		.loc 1 208 0
 575 0064 4FF4FA70 		mov	r0, #500
 576 0068 FFF7FEFF 		bl	CyDelay
 577              	.LVL76:
 209:..\source/pid.c ****     return vel_error_sum / samples;
 578              		.loc 1 209 0
 579 006c 4846     		mov	r0, r9
 580 006e FFF7FEFF 		bl	__aeabi_ui2f
 581              	.LVL77:
 582 0072 0146     		mov	r1, r0
 583 0074 4046     		mov	r0, r8
 584 0076 FFF7FEFF 		bl	__aeabi_fdiv
 585              	.LVL78:
 210:..\source/pid.c **** }
 586              		.loc 1 210 0
 587 007a BDE8F883 		pop	{r3, r4, r5, r6, r7, r8, r9, pc}
 588              		.cfi_endproc
 589              	.LFE68:
 590              		.size	StepImpulse, .-StepImpulse
 591 007e 00BF     		.section	.text.Pid_LeftStepInput,"ax",%progbits
 592              		.align	2
 593              		.global	Pid_LeftStepInput
 594              		.thumb
 595              		.thumb_func
 596              		.type	Pid_LeftStepInput, %function
 597              	Pid_LeftStepInput:
 598              	.LFB69:
 211:..\source/pid.c **** 
 212:..\source/pid.c **** float Pid_LeftStepInput(float *gains, float velocity, uint32 run_time)
 213:..\source/pid.c **** {
 599              		.loc 1 213 0
 600              		.cfi_startproc
 601              		@ args = 0, pretend = 0, frame = 0
 602              		@ frame_needed = 0, uses_anonymous_args = 0
 603              	.LVL79:
 604 0000 70B5     		push	{r4, r5, r6, lr}
 605              		.cfi_def_cfa_offset 16
 606              		.cfi_offset 4, -16
 607              		.cfi_offset 5, -12
 608              		.cfi_offset 6, -8
 609              		.cfi_offset 14, -4
 610 0002 0346     		mov	r3, r0
 611 0004 0E46     		mov	r6, r1
 612 0006 1546     		mov	r5, r2
 214:..\source/pid.c ****     PIDTuningsSet(&left_pid.pid, gains[0], gains[1], gains[2]);    
 613              		.loc 1 214 0
 614 0008 064C     		ldr	r4, .L48
 615 000a 04F10800 		add	r0, r4, #8
 616              	.LVL80:
 617 000e 1968     		ldr	r1, [r3]	@ float
ARM GAS  C:\Users\tslator\AppData\Local\Temp\ccc72pkH.s 			page 16


 618              	.LVL81:
 619 0010 5A68     		ldr	r2, [r3, #4]	@ float
 620              	.LVL82:
 621 0012 9B68     		ldr	r3, [r3, #8]	@ float
 622              	.LVL83:
 623 0014 FFF7FEFF 		bl	PIDTuningsSet
 624              	.LVL84:
 215:..\source/pid.c ****     
 216:..\source/pid.c ****     return StepImpulse(&left_pid, velocity, run_time);
 625              		.loc 1 216 0
 626 0018 2046     		mov	r0, r4
 627 001a 3146     		mov	r1, r6
 628 001c 2A46     		mov	r2, r5
 629 001e FFF7FEFF 		bl	StepImpulse
 630              	.LVL85:
 217:..\source/pid.c **** }
 631              		.loc 1 217 0
 632 0022 70BD     		pop	{r4, r5, r6, pc}
 633              	.LVL86:
 634              	.L49:
 635              		.align	2
 636              	.L48:
 637 0024 00000000 		.word	.LANCHOR0
 638              		.cfi_endproc
 639              	.LFE69:
 640              		.size	Pid_LeftStepInput, .-Pid_LeftStepInput
 641              		.section	.text.Pid_RightStepInput,"ax",%progbits
 642              		.align	2
 643              		.global	Pid_RightStepInput
 644              		.thumb
 645              		.thumb_func
 646              		.type	Pid_RightStepInput, %function
 647              	Pid_RightStepInput:
 648              	.LFB70:
 218:..\source/pid.c **** 
 219:..\source/pid.c **** float Pid_RightStepInput(float *gains, float velocity, uint32 run_time)
 220:..\source/pid.c **** {
 649              		.loc 1 220 0
 650              		.cfi_startproc
 651              		@ args = 0, pretend = 0, frame = 0
 652              		@ frame_needed = 0, uses_anonymous_args = 0
 653              	.LVL87:
 654 0000 38B5     		push	{r3, r4, r5, lr}
 655              		.cfi_def_cfa_offset 16
 656              		.cfi_offset 3, -16
 657              		.cfi_offset 4, -12
 658              		.cfi_offset 5, -8
 659              		.cfi_offset 14, -4
 660 0002 0346     		mov	r3, r0
 661 0004 0D46     		mov	r5, r1
 662 0006 1446     		mov	r4, r2
 221:..\source/pid.c ****     PIDTuningsSet(&right_pid.pid, gains[0], gains[1], gains[2]);    
 663              		.loc 1 221 0
 664 0008 0548     		ldr	r0, .L52
 665              	.LVL88:
 666 000a 1968     		ldr	r1, [r3]	@ float
 667              	.LVL89:
ARM GAS  C:\Users\tslator\AppData\Local\Temp\ccc72pkH.s 			page 17


 668 000c 5A68     		ldr	r2, [r3, #4]	@ float
 669              	.LVL90:
 670 000e 9B68     		ldr	r3, [r3, #8]	@ float
 671              	.LVL91:
 672 0010 FFF7FEFF 		bl	PIDTuningsSet
 673              	.LVL92:
 222:..\source/pid.c ****     
 223:..\source/pid.c ****     return StepImpulse(&right_pid, velocity, run_time);
 674              		.loc 1 223 0
 675 0014 0348     		ldr	r0, .L52+4
 676 0016 2946     		mov	r1, r5
 677 0018 2246     		mov	r2, r4
 678 001a FFF7FEFF 		bl	StepImpulse
 679              	.LVL93:
 224:..\source/pid.c **** }
 680              		.loc 1 224 0
 681 001e 38BD     		pop	{r3, r4, r5, pc}
 682              	.LVL94:
 683              	.L53:
 684              		.align	2
 685              	.L52:
 686 0020 5C000000 		.word	.LANCHOR0+92
 687 0024 54000000 		.word	.LANCHOR0+84
 688              		.cfi_endproc
 689              	.LFE70:
 690              		.size	Pid_RightStepInput, .-Pid_RightStepInput
 691              		.section	.text.Pid_SetLeftRightTarget,"ax",%progbits
 692              		.align	2
 693              		.global	Pid_SetLeftRightTarget
 694              		.thumb
 695              		.thumb_func
 696              		.type	Pid_SetLeftRightTarget, %function
 697              	Pid_SetLeftRightTarget:
 698              	.LFB71:
 225:..\source/pid.c **** 
 226:..\source/pid.c **** void Pid_SetLeftRightTarget(GET_TARGET_TYPE left_target, GET_TARGET_TYPE right_target)
 227:..\source/pid.c **** {
 699              		.loc 1 227 0
 700              		.cfi_startproc
 701              		@ args = 0, pretend = 0, frame = 0
 702              		@ frame_needed = 0, uses_anonymous_args = 0
 703              		@ link register save eliminated.
 704              	.LVL95:
 228:..\source/pid.c ****     left_pid.get_target = left_target;
 705              		.loc 1 228 0
 706 0000 024B     		ldr	r3, .L55
 707 0002 5864     		str	r0, [r3, #68]
 229:..\source/pid.c ****     right_pid.get_target = right_target;
 708              		.loc 1 229 0
 709 0004 C3F89810 		str	r1, [r3, #152]
 710 0008 7047     		bx	lr
 711              	.L56:
 712 000a 00BF     		.align	2
 713              	.L55:
 714 000c 00000000 		.word	.LANCHOR0
 715              		.cfi_endproc
 716              	.LFE71:
ARM GAS  C:\Users\tslator\AppData\Local\Temp\ccc72pkH.s 			page 18


 717              		.size	Pid_SetLeftRightTarget, .-Pid_SetLeftRightTarget
 718              		.comm	formatted_string,256,4
 719              		.comm	debug_control_enabled,2,2
 720              		.comm	p_cal_eeprom,4,4
 721              		.data
 722              		.align	2
 723              		.set	.LANCHOR0,. + 0
 724              		.type	left_pid, %object
 725              		.size	left_pid, 84
 726              	left_pid:
 727 0000 6C656674 		.ascii	"left\000"
 727      00
 728 0005 00       		.space	1
 729 0006 0000     		.space	2
 730 0008 00000000 		.word	0
 731 000c 00000000 		.word	0
 732 0010 00000000 		.word	0
 733 0014 00000000 		.word	0
 734 0018 00000000 		.word	0
 735 001c 00000000 		.word	0
 736 0020 00000000 		.word	0
 737 0024 00000000 		.word	0
 738 0028 00000000 		.word	0
 739 002c 00000000 		.word	0
 740 0030 00000000 		.word	0
 741 0034 00000000 		.word	0
 742 0038 00000000 		.word	0
 743 003c 00000000 		.word	0
 744 0040 00       		.byte	0
 745 0041 01       		.byte	1
 746 0042 0000     		.space	2
 747 0044 00000000 		.word	0
 748 0048 00000000 		.word	Encoder_LeftGetCntsPerSec
 749 004c 00000000 		.word	Motor_LeftSetCntsPerSec
 750 0050 00000000 		.word	Motor_LeftGetPwm
 751              		.type	right_pid, %object
 752              		.size	right_pid, 84
 753              	right_pid:
 754 0054 72696768 		.ascii	"right\000"
 754      7400
 755 005a 0000     		.space	2
 756 005c 00000000 		.word	0
 757 0060 00000000 		.word	0
 758 0064 00000000 		.word	0
 759 0068 00000000 		.word	0
 760 006c 00000000 		.word	0
 761 0070 00000000 		.word	0
 762 0074 00000000 		.word	0
 763 0078 00000000 		.word	0
 764 007c 00000000 		.word	0
 765 0080 00000000 		.word	0
 766 0084 00000000 		.word	0
 767 0088 00000000 		.word	0
 768 008c 00000000 		.word	0
 769 0090 00000000 		.word	0
 770 0094 00       		.byte	0
 771 0095 01       		.byte	1
ARM GAS  C:\Users\tslator\AppData\Local\Temp\ccc72pkH.s 			page 19


 772 0096 0000     		.space	2
 773 0098 00000000 		.word	0
 774 009c 00000000 		.word	Encoder_RightGetCntsPerSec
 775 00a0 00000000 		.word	Motor_RightSetCntsPerSec
 776 00a4 00000000 		.word	Motor_RightGetPwm
 777              		.section	.rodata.str1.4,"aMS",%progbits,1
 778              		.align	2
 779              	.LC0:
 780 0000 25732070 		.ascii	"%s pid: %s %s %s %s %s %s %d \015\012\000"
 780      69643A20 
 780      25732025 
 780      73202573 
 780      20257320 
 781              		.bss
 782              		.align	2
 783              		.set	.LANCHOR1,. + 0
 784              		.type	last_update_time.8462, %object
 785              		.size	last_update_time.8462, 4
 786              	last_update_time.8462:
 787 0000 00000000 		.space	4
 788              		.type	pid_sched_offset_applied.8463, %object
 789              		.size	pid_sched_offset_applied.8463, 1
 790              	pid_sched_offset_applied.8463:
 791 0004 00       		.space	1
 792 0005 000000   		.text
 793              	.Letext0:
 794              		.file 2 "c:\\program files (x86)\\cypress\\psoc creator\\3.3\\psoc creator\\import\\gnu\\arm\\4.9.
 795              		.file 3 "c:\\program files (x86)\\cypress\\psoc creator\\3.3\\psoc creator\\import\\gnu\\arm\\4.9.
 796              		.file 4 "c:\\program files (x86)\\cypress\\psoc creator\\3.3\\psoc creator\\import\\gnu\\arm\\4.9.
 797              		.file 5 "Generated_Source\\PSoC5/cytypes.h"
 798              		.file 6 "..\\source\\config.h"
 799              		.file 7 "..\\source\\cal.h"
 800              		.file 8 "..\\source\\pid_controller.h"
 801              		.file 9 "Generated_Source\\PSoC5/core_cm3.h"
 802              		.file 10 "..\\source\\debug.h"
 803              		.file 11 "..\\source\\utils.h"
 804              		.file 12 "c:\\program files (x86)\\cypress\\psoc creator\\3.3\\psoc creator\\import\\gnu\\arm\\4.9
 805              		.file 13 "..\\source\\serial.h"
 806              		.file 14 "..\\source\\time.h"
 807              		.file 15 "Generated_Source\\PSoC5/CyLib.h"
 808              		.file 16 "..\\source\\encoder.h"