ARM GAS  C:\Users\Tim\AppData\Local\Temp\cciVyr30.s 			page 1


   1              		.syntax unified
   2              		.cpu cortex-m3
   3              		.fpu softvfp
   4              		.eabi_attribute 20, 1
   5              		.eabi_attribute 21, 1
   6              		.eabi_attribute 23, 3
   7              		.eabi_attribute 24, 1
   8              		.eabi_attribute 25, 1
   9              		.eabi_attribute 26, 1
  10              		.eabi_attribute 30, 1
  11              		.eabi_attribute 34, 1
  12              		.eabi_attribute 18, 4
  13              		.thumb
  14              		.file	"pid_controller.c"
  15              		.text
  16              	.Ltext0:
  17              		.cfi_sections	.debug_frame
  18              		.global	__aeabi_fsub
  19              		.global	__aeabi_fmul
  20              		.global	__aeabi_fadd
  21              		.global	__aeabi_fcmplt
  22              		.global	__aeabi_fcmpgt
  23              		.section	.text.PIDCompute,"ax",%progbits
  24              		.align	2
  25              		.global	PIDCompute
  26              		.thumb
  27              		.thumb_func
  28              		.type	PIDCompute, %function
  29              	PIDCompute:
  30              	.LFB1:
  31              		.file 1 "..\\source\\pid_controller.c"
   1:..\source/pid_controller.c **** //*********************************************************************************
   2:..\source/pid_controller.c **** // Arduino PID Library Version 1.0.1 Modified Version for C -
   3:..\source/pid_controller.c **** // Platform Independent
   4:..\source/pid_controller.c **** // 
   5:..\source/pid_controller.c **** // Revision: 1.1
   6:..\source/pid_controller.c **** // 
   7:..\source/pid_controller.c **** // Description: The PID Controller module originally meant for Arduino made
   8:..\source/pid_controller.c **** // platform independent. Some small bugs present in the original Arduino source
   9:..\source/pid_controller.c **** // have been rectified as well.
  10:..\source/pid_controller.c **** // 
  11:..\source/pid_controller.c **** // For a detailed explanation of the theory behind this library, go to:
  12:..\source/pid_controller.c **** // http://brettbeauregard.com/blog/2011/04/improving-the-beginners-pid-introduction/
  13:..\source/pid_controller.c **** // 
  14:..\source/pid_controller.c **** // Revisions can be found here:
  15:..\source/pid_controller.c **** // https://github.com/tcleg
  16:..\source/pid_controller.c **** // 
  17:..\source/pid_controller.c **** // Modified by: Trent Cleghorn , <trentoncleghorn@gmail.com>
  18:..\source/pid_controller.c **** // 
  19:..\source/pid_controller.c **** // Copyright (C) Brett Beauregard , <br3ttb@gmail.com>
  20:..\source/pid_controller.c **** // 
  21:..\source/pid_controller.c **** //                                 GPLv3 License
  22:..\source/pid_controller.c **** // 
  23:..\source/pid_controller.c **** // This program is free software: you can redistribute it and/or modify it under 
  24:..\source/pid_controller.c **** // the terms of the GNU General Public License as published by the Free Software 
  25:..\source/pid_controller.c **** // Foundation, either version 3 of the License, or (at your option) any later 
  26:..\source/pid_controller.c **** // version.
ARM GAS  C:\Users\Tim\AppData\Local\Temp\cciVyr30.s 			page 2


  27:..\source/pid_controller.c **** // 
  28:..\source/pid_controller.c **** // This program is distributed in the hope that it will be useful, but WITHOUT ANY 
  29:..\source/pid_controller.c **** // WARRANTY; without even the implied warranty of MERCHANTABILITY or FITNESS FOR A 
  30:..\source/pid_controller.c **** // PARTICULAR PURPOSE.  See the GNU General Public License for more details.
  31:..\source/pid_controller.c **** // 
  32:..\source/pid_controller.c **** // You should have received a copy of the GNU General Public License along with 
  33:..\source/pid_controller.c **** // this program.  If not, see <http://www.gnu.org/licenses/>.
  34:..\source/pid_controller.c **** //*********************************************************************************
  35:..\source/pid_controller.c **** 
  36:..\source/pid_controller.c **** //*********************************************************************************
  37:..\source/pid_controller.c **** // Headers
  38:..\source/pid_controller.c **** //*********************************************************************************
  39:..\source/pid_controller.c **** #include "pid_controller.h"
  40:..\source/pid_controller.c **** 
  41:..\source/pid_controller.c **** //*********************************************************************************
  42:..\source/pid_controller.c **** // Macros and Globals
  43:..\source/pid_controller.c **** //*********************************************************************************
  44:..\source/pid_controller.c **** #define CONSTRAIN(x,lower,upper)    ((x)<(lower)?(lower):((x)>(upper)?(upper):(x)))
  45:..\source/pid_controller.c **** 
  46:..\source/pid_controller.c **** //*********************************************************************************
  47:..\source/pid_controller.c **** // Functions
  48:..\source/pid_controller.c **** //*********************************************************************************
  49:..\source/pid_controller.c **** void PIDInit(PIDControl *pid, float kp, float ki, float kd, 
  50:..\source/pid_controller.c ****              float sampleTimeSeconds, float minOutput, float maxOutput, 
  51:..\source/pid_controller.c ****              PIDMode mode, PIDDirection controllerDirection)     	
  52:..\source/pid_controller.c **** {
  53:..\source/pid_controller.c ****     pid->controllerDirection = controllerDirection;
  54:..\source/pid_controller.c ****     pid->mode = mode;
  55:..\source/pid_controller.c ****     pid->iTerm = 0.0f;
  56:..\source/pid_controller.c ****     pid->input = 0.0f;
  57:..\source/pid_controller.c ****     pid->lastInput = 0.0f;
  58:..\source/pid_controller.c ****     pid->output = 0.0f;
  59:..\source/pid_controller.c ****     pid->setpoint = 0.0f;
  60:..\source/pid_controller.c ****     
  61:..\source/pid_controller.c ****     if(sampleTimeSeconds > 0.0f)
  62:..\source/pid_controller.c ****     {
  63:..\source/pid_controller.c ****         pid->sampleTime = sampleTimeSeconds;
  64:..\source/pid_controller.c ****     }
  65:..\source/pid_controller.c ****     else
  66:..\source/pid_controller.c ****     {
  67:..\source/pid_controller.c ****         // If the passed parameter was incorrect, set to 1 second
  68:..\source/pid_controller.c ****         pid->sampleTime = 1.0f;
  69:..\source/pid_controller.c ****     }
  70:..\source/pid_controller.c ****     
  71:..\source/pid_controller.c ****     PIDOutputLimitsSet(pid, minOutput, maxOutput);
  72:..\source/pid_controller.c ****     PIDTuningsSet(pid, kp, ki, kd);
  73:..\source/pid_controller.c **** }
  74:..\source/pid_controller.c ****         
  75:..\source/pid_controller.c **** bool
  76:..\source/pid_controller.c **** PIDCompute(PIDControl *pid) 
  77:..\source/pid_controller.c **** {
  32              		.loc 1 77 0
  33              		.cfi_startproc
  34              		@ args = 0, pretend = 0, frame = 0
  35              		@ frame_needed = 0, uses_anonymous_args = 0
  36              	.LVL0:
  37 0000 2DE9F843 		push	{r3, r4, r5, r6, r7, r8, r9, lr}
ARM GAS  C:\Users\Tim\AppData\Local\Temp\cciVyr30.s 			page 3


  38              		.cfi_def_cfa_offset 32
  39              		.cfi_offset 3, -32
  40              		.cfi_offset 4, -28
  41              		.cfi_offset 5, -24
  42              		.cfi_offset 6, -20
  43              		.cfi_offset 7, -16
  44              		.cfi_offset 8, -12
  45              		.cfi_offset 9, -8
  46              		.cfi_offset 14, -4
  78:..\source/pid_controller.c ****     float error, dInput;
  79:..\source/pid_controller.c **** 
  80:..\source/pid_controller.c ****     if(pid->mode == MANUAL)
  47              		.loc 1 80 0
  48 0004 90F83930 		ldrb	r3, [r0, #57]	@ zero_extendqisi2
  49 0008 002B     		cmp	r3, #0
  50 000a 48D0     		beq	.L9
  51 000c 0446     		mov	r4, r0
  81:..\source/pid_controller.c ****     {
  82:..\source/pid_controller.c ****         return false;
  83:..\source/pid_controller.c ****     }
  84:..\source/pid_controller.c ****     
  85:..\source/pid_controller.c ****     // The classic PID error term
  86:..\source/pid_controller.c ****     error = (pid->setpoint) - (pid->input);
  52              		.loc 1 86 0
  53 000e 0768     		ldr	r7, [r0]	@ float
  54 0010 406B     		ldr	r0, [r0, #52]	@ float
  55              	.LVL1:
  56 0012 3946     		mov	r1, r7
  57 0014 FFF7FEFF 		bl	__aeabi_fsub
  58              	.LVL2:
  59 0018 8046     		mov	r8, r0
  60              	.LVL3:
  87:..\source/pid_controller.c ****     
  88:..\source/pid_controller.c ****     // Compute the integral term separately ahead of time
  89:..\source/pid_controller.c ****     pid->iTerm += (pid->alteredKi) * error;
  61              		.loc 1 89 0
  62 001a E069     		ldr	r0, [r4, #28]	@ float
  63              	.LVL4:
  64 001c 4146     		mov	r1, r8
  65 001e FFF7FEFF 		bl	__aeabi_fmul
  66              	.LVL5:
  67 0022 616A     		ldr	r1, [r4, #36]	@ float
  68 0024 FFF7FEFF 		bl	__aeabi_fadd
  69              	.LVL6:
  70 0028 0546     		mov	r5, r0
  71 002a 6062     		str	r0, [r4, #36]	@ float
  90:..\source/pid_controller.c ****     
  91:..\source/pid_controller.c ****     // Constrain the integrator to make sure it does not exceed output bounds
  92:..\source/pid_controller.c ****     pid->iTerm = CONSTRAIN( (pid->iTerm), (pid->outMin), (pid->outMax) );
  72              		.loc 1 92 0
  73 002c E66A     		ldr	r6, [r4, #44]	@ float
  74 002e 3146     		mov	r1, r6
  75 0030 FFF7FEFF 		bl	__aeabi_fcmplt
  76              	.LVL7:
  77 0034 40B9     		cbnz	r0, .L10
  78              		.loc 1 92 0 is_stmt 0 discriminator 2
  79 0036 D4F83090 		ldr	r9, [r4, #48]	@ float
ARM GAS  C:\Users\Tim\AppData\Local\Temp\cciVyr30.s 			page 4


  80 003a 2846     		mov	r0, r5
  81 003c 4946     		mov	r1, r9
  82 003e FFF7FEFF 		bl	__aeabi_fcmpgt
  83              	.LVL8:
  84 0042 10B1     		cbz	r0, .L3
  85              		.loc 1 92 0
  86 0044 4D46     		mov	r5, r9
  87 0046 00E0     		b	.L3
  88              	.L10:
  89 0048 3546     		mov	r5, r6
  90              	.L3:
  91              		.loc 1 92 0 discriminator 8
  92 004a 6562     		str	r5, [r4, #36]	@ float
  93:..\source/pid_controller.c ****     
  94:..\source/pid_controller.c ****     // Take the "derivative on measurement" instead of "derivative on error"
  95:..\source/pid_controller.c ****     dInput = (pid->input) - (pid->lastInput);
  93              		.loc 1 95 0 is_stmt 1 discriminator 8
  94 004c 3846     		mov	r0, r7
  95 004e 6168     		ldr	r1, [r4, #4]	@ float
  96 0050 FFF7FEFF 		bl	__aeabi_fsub
  97              	.LVL9:
  98 0054 8146     		mov	r9, r0
  99              	.LVL10:
  96:..\source/pid_controller.c ****     
  97:..\source/pid_controller.c ****     // Run all the terms together to get the overall output
  98:..\source/pid_controller.c ****     pid->output = (pid->alteredKp) * error + (pid->iTerm) - (pid->alteredKd) * dInput;
 100              		.loc 1 98 0 discriminator 8
 101 0056 A069     		ldr	r0, [r4, #24]	@ float
 102              	.LVL11:
 103 0058 4146     		mov	r1, r8
 104 005a FFF7FEFF 		bl	__aeabi_fmul
 105              	.LVL12:
 106 005e 0146     		mov	r1, r0
 107 0060 2846     		mov	r0, r5
 108 0062 FFF7FEFF 		bl	__aeabi_fadd
 109              	.LVL13:
 110 0066 0546     		mov	r5, r0
 111 0068 206A     		ldr	r0, [r4, #32]	@ float
 112 006a 4946     		mov	r1, r9
 113 006c FFF7FEFF 		bl	__aeabi_fmul
 114              	.LVL14:
 115 0070 0146     		mov	r1, r0
 116 0072 2846     		mov	r0, r5
 117 0074 FFF7FEFF 		bl	__aeabi_fsub
 118              	.LVL15:
 119 0078 0546     		mov	r5, r0
 120 007a A060     		str	r0, [r4, #8]	@ float
  99:..\source/pid_controller.c ****     
 100:..\source/pid_controller.c ****     // Bound the output
 101:..\source/pid_controller.c ****     pid->output = CONSTRAIN( (pid->output), (pid->outMin), (pid->outMax) );
 121              		.loc 1 101 0 discriminator 8
 122 007c 3046     		mov	r0, r6
 123 007e 2946     		mov	r1, r5
 124 0080 FFF7FEFF 		bl	__aeabi_fcmpgt
 125              	.LVL16:
 126 0084 30B9     		cbnz	r0, .L6
 127              		.loc 1 101 0 is_stmt 0 discriminator 2
ARM GAS  C:\Users\Tim\AppData\Local\Temp\cciVyr30.s 			page 5


 128 0086 266B     		ldr	r6, [r4, #48]	@ float
 129 0088 2846     		mov	r0, r5
 130 008a 3146     		mov	r1, r6
 131 008c FFF7FEFF 		bl	__aeabi_fcmpgt
 132              	.LVL17:
 133 0090 00B9     		cbnz	r0, .L6
 134 0092 2E46     		mov	r6, r5
 135              	.L6:
 136              		.loc 1 101 0 discriminator 8
 137 0094 A660     		str	r6, [r4, #8]	@ float
 102:..\source/pid_controller.c ****     
 103:..\source/pid_controller.c ****     // Make the current input the former input
 104:..\source/pid_controller.c ****     pid->lastInput = pid->input;
 138              		.loc 1 104 0 is_stmt 1 discriminator 8
 139 0096 6760     		str	r7, [r4, #4]	@ float
 105:..\source/pid_controller.c ****     
 106:..\source/pid_controller.c ****     return true;
 140              		.loc 1 106 0 discriminator 8
 141 0098 0120     		movs	r0, #1
 142 009a BDE8F883 		pop	{r3, r4, r5, r6, r7, r8, r9, pc}
 143              	.LVL18:
 144              	.L9:
  82:..\source/pid_controller.c ****     }
 145              		.loc 1 82 0
 146 009e 0020     		movs	r0, #0
 147              	.LVL19:
 107:..\source/pid_controller.c **** }
 148              		.loc 1 107 0
 149 00a0 BDE8F883 		pop	{r3, r4, r5, r6, r7, r8, r9, pc}
 150              		.cfi_endproc
 151              	.LFE1:
 152              		.size	PIDCompute, .-PIDCompute
 153              		.section	.text.PIDModeSet,"ax",%progbits
 154              		.align	2
 155              		.global	PIDModeSet
 156              		.thumb
 157              		.thumb_func
 158              		.type	PIDModeSet, %function
 159              	PIDModeSet:
 160              	.LFB2:
 108:..\source/pid_controller.c ****      
 109:..\source/pid_controller.c **** void 
 110:..\source/pid_controller.c **** PIDModeSet(PIDControl *pid, PIDMode mode)                                                          
 111:..\source/pid_controller.c **** {
 161              		.loc 1 111 0
 162              		.cfi_startproc
 163              		@ args = 0, pretend = 0, frame = 0
 164              		@ frame_needed = 0, uses_anonymous_args = 0
 165              	.LVL20:
 166 0000 F8B5     		push	{r3, r4, r5, r6, r7, lr}
 167              		.cfi_def_cfa_offset 24
 168              		.cfi_offset 3, -24
 169              		.cfi_offset 4, -20
 170              		.cfi_offset 5, -16
 171              		.cfi_offset 6, -12
 172              		.cfi_offset 7, -8
 173              		.cfi_offset 14, -4
ARM GAS  C:\Users\Tim\AppData\Local\Temp\cciVyr30.s 			page 6


 174 0002 0446     		mov	r4, r0
 175 0004 0D46     		mov	r5, r1
 112:..\source/pid_controller.c ****     // If the mode changed from MANUAL to AUTOMATIC
 113:..\source/pid_controller.c ****     if(pid->mode != mode && mode == AUTOMATIC)
 176              		.loc 1 113 0
 177 0006 90F83930 		ldrb	r3, [r0, #57]	@ zero_extendqisi2
 178 000a 8B42     		cmp	r3, r1
 179 000c 14D0     		beq	.L15
 180              		.loc 1 113 0 is_stmt 0 discriminator 1
 181 000e 0129     		cmp	r1, #1
 182 0010 12D1     		bne	.L15
 114:..\source/pid_controller.c ****     {
 115:..\source/pid_controller.c ****         // Initialize a few PID parameters to new values
 116:..\source/pid_controller.c ****         pid->iTerm = pid->output;
 183              		.loc 1 116 0 is_stmt 1
 184 0012 8668     		ldr	r6, [r0, #8]	@ float
 185 0014 4662     		str	r6, [r0, #36]	@ float
 117:..\source/pid_controller.c ****         pid->lastInput = pid->input;
 186              		.loc 1 117 0
 187 0016 0368     		ldr	r3, [r0]	@ float
 188 0018 4360     		str	r3, [r0, #4]	@ float
 118:..\source/pid_controller.c ****         
 119:..\source/pid_controller.c ****         // Constrain the integrator to make sure it does not exceed output bounds
 120:..\source/pid_controller.c ****         pid->iTerm = CONSTRAIN( (pid->iTerm), (pid->outMin), (pid->outMax) );
 189              		.loc 1 120 0
 190 001a C76A     		ldr	r7, [r0, #44]	@ float
 191 001c 3046     		mov	r0, r6
 192              	.LVL21:
 193 001e 3946     		mov	r1, r7
 194              	.LVL22:
 195 0020 FFF7FEFF 		bl	__aeabi_fcmplt
 196              	.LVL23:
 197 0024 38B9     		cbnz	r0, .L16
 198              		.loc 1 120 0 is_stmt 0 discriminator 2
 199 0026 276B     		ldr	r7, [r4, #48]	@ float
 200 0028 3046     		mov	r0, r6
 201 002a 3946     		mov	r1, r7
 202 002c FFF7FEFF 		bl	__aeabi_fcmpgt
 203              	.LVL24:
 204 0030 00B1     		cbz	r0, .L17
 205              		.loc 1 120 0
 206 0032 3E46     		mov	r6, r7
 207              	.L17:
 208              		.loc 1 120 0 discriminator 7
 209 0034 3746     		mov	r7, r6
 210              	.L16:
 211              		.loc 1 120 0 discriminator 8
 212 0036 6762     		str	r7, [r4, #36]	@ float
 213              	.L15:
 121:..\source/pid_controller.c ****     }
 122:..\source/pid_controller.c ****     
 123:..\source/pid_controller.c ****     pid->mode = mode;
 214              		.loc 1 123 0 is_stmt 1
 215 0038 84F83950 		strb	r5, [r4, #57]
 216 003c F8BD     		pop	{r3, r4, r5, r6, r7, pc}
 217              		.cfi_endproc
 218              	.LFE2:
ARM GAS  C:\Users\Tim\AppData\Local\Temp\cciVyr30.s 			page 7


 219              		.size	PIDModeSet, .-PIDModeSet
 220              		.global	__aeabi_fcmpge
 221 003e 00BF     		.section	.text.PIDOutputLimitsSet,"ax",%progbits
 222              		.align	2
 223              		.global	PIDOutputLimitsSet
 224              		.thumb
 225              		.thumb_func
 226              		.type	PIDOutputLimitsSet, %function
 227              	PIDOutputLimitsSet:
 228              	.LFB3:
 124:..\source/pid_controller.c **** }
 125:..\source/pid_controller.c **** 
 126:..\source/pid_controller.c **** void 
 127:..\source/pid_controller.c **** PIDOutputLimitsSet(PIDControl *pid, float min, float max) 							  							  
 128:..\source/pid_controller.c **** {
 229              		.loc 1 128 0
 230              		.cfi_startproc
 231              		@ args = 0, pretend = 0, frame = 0
 232              		@ frame_needed = 0, uses_anonymous_args = 0
 233              	.LVL25:
 234 0000 F8B5     		push	{r3, r4, r5, r6, r7, lr}
 235              		.cfi_def_cfa_offset 24
 236              		.cfi_offset 3, -24
 237              		.cfi_offset 4, -20
 238              		.cfi_offset 5, -16
 239              		.cfi_offset 6, -12
 240              		.cfi_offset 7, -8
 241              		.cfi_offset 14, -4
 242 0002 0446     		mov	r4, r0
 243 0004 0D46     		mov	r5, r1
 244 0006 1646     		mov	r6, r2
 129:..\source/pid_controller.c ****     // Check if the parameters are valid
 130:..\source/pid_controller.c ****     if(min >= max)
 245              		.loc 1 130 0
 246 0008 0846     		mov	r0, r1
 247              	.LVL26:
 248 000a 1146     		mov	r1, r2
 249              	.LVL27:
 250 000c FFF7FEFF 		bl	__aeabi_fcmpge
 251              	.LVL28:
 252 0010 18BB     		cbnz	r0, .L21
 131:..\source/pid_controller.c ****     {
 132:..\source/pid_controller.c ****         return;
 133:..\source/pid_controller.c ****     }
 134:..\source/pid_controller.c ****     
 135:..\source/pid_controller.c ****     // Save the parameters
 136:..\source/pid_controller.c ****     pid->outMin = min;
 253              		.loc 1 136 0
 254 0012 E562     		str	r5, [r4, #44]	@ float
 137:..\source/pid_controller.c ****     pid->outMax = max;
 255              		.loc 1 137 0
 256 0014 2663     		str	r6, [r4, #48]	@ float
 138:..\source/pid_controller.c ****     
 139:..\source/pid_controller.c ****     // If in automatic, apply the new constraints
 140:..\source/pid_controller.c ****     if(pid->mode == AUTOMATIC)
 257              		.loc 1 140 0
 258 0016 94F83930 		ldrb	r3, [r4, #57]	@ zero_extendqisi2
ARM GAS  C:\Users\Tim\AppData\Local\Temp\cciVyr30.s 			page 8


 259 001a 012B     		cmp	r3, #1
 260 001c 1DD1     		bne	.L21
 141:..\source/pid_controller.c ****     {
 142:..\source/pid_controller.c ****         pid->output = CONSTRAIN(pid->output, min, max);
 261              		.loc 1 142 0
 262 001e A768     		ldr	r7, [r4, #8]	@ float
 263 0020 3846     		mov	r0, r7
 264 0022 2946     		mov	r1, r5
 265 0024 FFF7FEFF 		bl	__aeabi_fcmplt
 266              	.LVL29:
 267 0028 30B9     		cbnz	r0, .L29
 268              		.loc 1 142 0 is_stmt 0 discriminator 2
 269 002a 3046     		mov	r0, r6
 270 002c 3946     		mov	r1, r7
 271 002e FFF7FEFF 		bl	__aeabi_fcmplt
 272              	.LVL30:
 273 0032 10B1     		cbz	r0, .L23
 274              		.loc 1 142 0
 275 0034 3746     		mov	r7, r6
 276 0036 00E0     		b	.L23
 277              	.L29:
 278 0038 2F46     		mov	r7, r5
 279              	.L23:
 280              		.loc 1 142 0 discriminator 8
 281 003a A760     		str	r7, [r4, #8]	@ float
 143:..\source/pid_controller.c ****         pid->iTerm  = CONSTRAIN(pid->iTerm,  min, max);
 282              		.loc 1 143 0 is_stmt 1 discriminator 8
 283 003c 676A     		ldr	r7, [r4, #36]	@ float
 284 003e 3846     		mov	r0, r7
 285 0040 2946     		mov	r1, r5
 286 0042 FFF7FEFF 		bl	__aeabi_fcmplt
 287              	.LVL31:
 288 0046 30B9     		cbnz	r0, .L30
 289              		.loc 1 143 0 is_stmt 0 discriminator 2
 290 0048 3046     		mov	r0, r6
 291 004a 3946     		mov	r1, r7
 292 004c FFF7FEFF 		bl	__aeabi_fcmplt
 293              	.LVL32:
 294 0050 10B1     		cbz	r0, .L26
 295              		.loc 1 143 0
 296 0052 3746     		mov	r7, r6
 297 0054 00E0     		b	.L26
 298              	.L30:
 299 0056 2F46     		mov	r7, r5
 300              	.L26:
 301              		.loc 1 143 0 discriminator 8
 302 0058 6762     		str	r7, [r4, #36]	@ float
 303              	.L21:
 304 005a F8BD     		pop	{r3, r4, r5, r6, r7, pc}
 305              		.cfi_endproc
 306              	.LFE3:
 307              		.size	PIDOutputLimitsSet, .-PIDOutputLimitsSet
 308              		.global	__aeabi_fdiv
 309              		.section	.text.PIDTuningsSet,"ax",%progbits
 310              		.align	2
 311              		.global	PIDTuningsSet
 312              		.thumb
ARM GAS  C:\Users\Tim\AppData\Local\Temp\cciVyr30.s 			page 9


 313              		.thumb_func
 314              		.type	PIDTuningsSet, %function
 315              	PIDTuningsSet:
 316              	.LFB4:
 144:..\source/pid_controller.c ****     }
 145:..\source/pid_controller.c **** }
 146:..\source/pid_controller.c **** 
 147:..\source/pid_controller.c **** void 
 148:..\source/pid_controller.c **** PIDTuningsSet(PIDControl *pid, float kp, float ki, float kd)         	                             
 149:..\source/pid_controller.c **** {
 317              		.loc 1 149 0 is_stmt 1
 318              		.cfi_startproc
 319              		@ args = 0, pretend = 0, frame = 0
 320              		@ frame_needed = 0, uses_anonymous_args = 0
 321              	.LVL33:
 322 0000 2DE9F041 		push	{r4, r5, r6, r7, r8, lr}
 323              		.cfi_def_cfa_offset 24
 324              		.cfi_offset 4, -24
 325              		.cfi_offset 5, -20
 326              		.cfi_offset 6, -16
 327              		.cfi_offset 7, -12
 328              		.cfi_offset 8, -8
 329              		.cfi_offset 14, -4
 330 0004 0446     		mov	r4, r0
 331 0006 0D46     		mov	r5, r1
 332 0008 1646     		mov	r6, r2
 333 000a 1F46     		mov	r7, r3
 150:..\source/pid_controller.c ****     // Check if the parameters are valid
 151:..\source/pid_controller.c ****     if(kp < 0.0f || ki < 0.0f || kd < 0.0f)
 334              		.loc 1 151 0
 335 000c 0846     		mov	r0, r1
 336              	.LVL34:
 337 000e 0021     		movs	r1, #0
 338              	.LVL35:
 339 0010 FFF7FEFF 		bl	__aeabi_fcmplt
 340              	.LVL36:
 341 0014 38BB     		cbnz	r0, .L34
 342              		.loc 1 151 0 is_stmt 0 discriminator 1
 343 0016 3046     		mov	r0, r6
 344 0018 0021     		movs	r1, #0
 345 001a FFF7FEFF 		bl	__aeabi_fcmplt
 346              	.LVL37:
 347 001e 10BB     		cbnz	r0, .L34
 348              		.loc 1 151 0 discriminator 2
 349 0020 3846     		mov	r0, r7
 350 0022 0021     		movs	r1, #0
 351 0024 FFF7FEFF 		bl	__aeabi_fcmplt
 352              	.LVL38:
 353 0028 E8B9     		cbnz	r0, .L34
 152:..\source/pid_controller.c ****     {
 153:..\source/pid_controller.c ****         return;
 154:..\source/pid_controller.c ****     }
 155:..\source/pid_controller.c ****     
 156:..\source/pid_controller.c ****     // Save the parameters for displaying purposes
 157:..\source/pid_controller.c ****     pid->dispKp = kp;
 354              		.loc 1 157 0 is_stmt 1
 355 002a E560     		str	r5, [r4, #12]	@ float
ARM GAS  C:\Users\Tim\AppData\Local\Temp\cciVyr30.s 			page 10


 158:..\source/pid_controller.c ****     pid->dispKi = ki;
 356              		.loc 1 158 0
 357 002c 2661     		str	r6, [r4, #16]	@ float
 159:..\source/pid_controller.c ****     pid->dispKd = kd;
 358              		.loc 1 159 0
 359 002e 6761     		str	r7, [r4, #20]	@ float
 160:..\source/pid_controller.c ****     
 161:..\source/pid_controller.c ****     // Alter the parameters for PID
 162:..\source/pid_controller.c ****     pid->alteredKp = kp;
 360              		.loc 1 162 0
 361 0030 A561     		str	r5, [r4, #24]	@ float
 163:..\source/pid_controller.c ****     pid->alteredKi = ki * pid->sampleTime;
 362              		.loc 1 163 0
 363 0032 D4F82880 		ldr	r8, [r4, #40]	@ float
 364 0036 4046     		mov	r0, r8
 365 0038 3146     		mov	r1, r6
 366 003a FFF7FEFF 		bl	__aeabi_fmul
 367              	.LVL39:
 368 003e 0646     		mov	r6, r0
 369              	.LVL40:
 370 0040 E061     		str	r0, [r4, #28]	@ float
 164:..\source/pid_controller.c ****     pid->alteredKd = kd / pid->sampleTime;
 371              		.loc 1 164 0
 372 0042 3846     		mov	r0, r7
 373 0044 4146     		mov	r1, r8
 374 0046 FFF7FEFF 		bl	__aeabi_fdiv
 375              	.LVL41:
 376 004a 2062     		str	r0, [r4, #32]	@ float
 165:..\source/pid_controller.c ****     
 166:..\source/pid_controller.c ****     // Apply reverse direction to the altered values if necessary
 167:..\source/pid_controller.c ****     if(pid->controllerDirection == REVERSE)
 377              		.loc 1 167 0
 378 004c 94F83830 		ldrb	r3, [r4, #56]	@ zero_extendqisi2
 379 0050 012B     		cmp	r3, #1
 380 0052 08D1     		bne	.L34
 168:..\source/pid_controller.c ****     {
 169:..\source/pid_controller.c ****         pid->alteredKp = -(pid->alteredKp);
 381              		.loc 1 169 0
 382 0054 05F10045 		add	r5, r5, #-2147483648
 383              	.LVL42:
 384 0058 A561     		str	r5, [r4, #24]	@ float
 170:..\source/pid_controller.c ****         pid->alteredKi = -(pid->alteredKi);
 385              		.loc 1 170 0
 386 005a 06F10046 		add	r6, r6, #-2147483648
 387 005e E661     		str	r6, [r4, #28]	@ float
 171:..\source/pid_controller.c ****         pid->alteredKd = -(pid->alteredKd);
 388              		.loc 1 171 0
 389 0060 00F10040 		add	r0, r0, #-2147483648
 390 0064 2062     		str	r0, [r4, #32]	@ float
 391              	.L34:
 392 0066 BDE8F081 		pop	{r4, r5, r6, r7, r8, pc}
 393              		.cfi_endproc
 394              	.LFE4:
 395              		.size	PIDTuningsSet, .-PIDTuningsSet
 396 006a 00BF     		.section	.text.PIDInit,"ax",%progbits
 397              		.align	2
 398              		.global	PIDInit
ARM GAS  C:\Users\Tim\AppData\Local\Temp\cciVyr30.s 			page 11


 399              		.thumb
 400              		.thumb_func
 401              		.type	PIDInit, %function
 402              	PIDInit:
 403              	.LFB0:
  52:..\source/pid_controller.c ****     pid->controllerDirection = controllerDirection;
 404              		.loc 1 52 0
 405              		.cfi_startproc
 406              		@ args = 20, pretend = 0, frame = 0
 407              		@ frame_needed = 0, uses_anonymous_args = 0
 408              	.LVL43:
 409 0000 F8B5     		push	{r3, r4, r5, r6, r7, lr}
 410              		.cfi_def_cfa_offset 24
 411              		.cfi_offset 3, -24
 412              		.cfi_offset 4, -20
 413              		.cfi_offset 5, -16
 414              		.cfi_offset 6, -12
 415              		.cfi_offset 7, -8
 416              		.cfi_offset 14, -4
 417 0002 0446     		mov	r4, r0
 418 0004 0F46     		mov	r7, r1
 419 0006 1646     		mov	r6, r2
 420 0008 1D46     		mov	r5, r3
  53:..\source/pid_controller.c ****     pid->mode = mode;
 421              		.loc 1 53 0
 422 000a 9DF82830 		ldrb	r3, [sp, #40]	@ zero_extendqisi2
 423              	.LVL44:
 424 000e 80F83830 		strb	r3, [r0, #56]
  54:..\source/pid_controller.c ****     pid->iTerm = 0.0f;
 425              		.loc 1 54 0
 426 0012 9DF82430 		ldrb	r3, [sp, #36]	@ zero_extendqisi2
 427 0016 80F83930 		strb	r3, [r0, #57]
  55:..\source/pid_controller.c ****     pid->input = 0.0f;
 428              		.loc 1 55 0
 429 001a 0021     		movs	r1, #0
 430              	.LVL45:
 431 001c 4162     		str	r1, [r0, #36]	@ float
  56:..\source/pid_controller.c ****     pid->lastInput = 0.0f;
 432              		.loc 1 56 0
 433 001e 0160     		str	r1, [r0]	@ float
  57:..\source/pid_controller.c ****     pid->output = 0.0f;
 434              		.loc 1 57 0
 435 0020 4160     		str	r1, [r0, #4]	@ float
  58:..\source/pid_controller.c ****     pid->setpoint = 0.0f;
 436              		.loc 1 58 0
 437 0022 8160     		str	r1, [r0, #8]	@ float
  59:..\source/pid_controller.c ****     
 438              		.loc 1 59 0
 439 0024 4163     		str	r1, [r0, #52]	@ float
  61:..\source/pid_controller.c ****     {
 440              		.loc 1 61 0
 441 0026 0698     		ldr	r0, [sp, #24]	@ float
 442              	.LVL46:
 443 0028 FFF7FEFF 		bl	__aeabi_fcmpgt
 444              	.LVL47:
 445 002c 10B1     		cbz	r0, .L42
  63:..\source/pid_controller.c ****     }
ARM GAS  C:\Users\Tim\AppData\Local\Temp\cciVyr30.s 			page 12


 446              		.loc 1 63 0
 447 002e 069B     		ldr	r3, [sp, #24]	@ float
 448 0030 A362     		str	r3, [r4, #40]	@ float
 449 0032 02E0     		b	.L40
 450              	.L42:
  68:..\source/pid_controller.c ****     }
 451              		.loc 1 68 0
 452 0034 4FF07E53 		mov	r3, #1065353216
 453 0038 A362     		str	r3, [r4, #40]	@ float
 454              	.L40:
  71:..\source/pid_controller.c ****     PIDTuningsSet(pid, kp, ki, kd);
 455              		.loc 1 71 0
 456 003a 2046     		mov	r0, r4
 457 003c 0799     		ldr	r1, [sp, #28]	@ float
 458 003e 089A     		ldr	r2, [sp, #32]	@ float
 459 0040 FFF7FEFF 		bl	PIDOutputLimitsSet
 460              	.LVL48:
  72:..\source/pid_controller.c **** }
 461              		.loc 1 72 0
 462 0044 2046     		mov	r0, r4
 463 0046 3946     		mov	r1, r7
 464 0048 3246     		mov	r2, r6
 465 004a 2B46     		mov	r3, r5
 466 004c FFF7FEFF 		bl	PIDTuningsSet
 467              	.LVL49:
 468 0050 F8BD     		pop	{r3, r4, r5, r6, r7, pc}
 469              		.cfi_endproc
 470              	.LFE0:
 471              		.size	PIDInit, .-PIDInit
 472 0052 00BF     		.section	.text.PIDTuningKpSet,"ax",%progbits
 473              		.align	2
 474              		.global	PIDTuningKpSet
 475              		.thumb
 476              		.thumb_func
 477              		.type	PIDTuningKpSet, %function
 478              	PIDTuningKpSet:
 479              	.LFB5:
 172:..\source/pid_controller.c ****     }
 173:..\source/pid_controller.c **** }
 174:..\source/pid_controller.c **** 
 175:..\source/pid_controller.c **** void 
 176:..\source/pid_controller.c **** PIDTuningKpSet(PIDControl *pid, float kp)
 177:..\source/pid_controller.c **** {
 480              		.loc 1 177 0
 481              		.cfi_startproc
 482              		@ args = 0, pretend = 0, frame = 0
 483              		@ frame_needed = 0, uses_anonymous_args = 0
 484              	.LVL50:
 485 0000 08B5     		push	{r3, lr}
 486              		.cfi_def_cfa_offset 8
 487              		.cfi_offset 3, -8
 488              		.cfi_offset 14, -4
 178:..\source/pid_controller.c ****     PIDTuningsSet(pid, kp, pid->dispKi, pid->dispKd);
 489              		.loc 1 178 0
 490 0002 0269     		ldr	r2, [r0, #16]	@ float
 491 0004 4369     		ldr	r3, [r0, #20]	@ float
 492 0006 FFF7FEFF 		bl	PIDTuningsSet
ARM GAS  C:\Users\Tim\AppData\Local\Temp\cciVyr30.s 			page 13


 493              	.LVL51:
 494 000a 08BD     		pop	{r3, pc}
 495              		.cfi_endproc
 496              	.LFE5:
 497              		.size	PIDTuningKpSet, .-PIDTuningKpSet
 498              		.section	.text.PIDTuningKiSet,"ax",%progbits
 499              		.align	2
 500              		.global	PIDTuningKiSet
 501              		.thumb
 502              		.thumb_func
 503              		.type	PIDTuningKiSet, %function
 504              	PIDTuningKiSet:
 505              	.LFB6:
 179:..\source/pid_controller.c **** }
 180:..\source/pid_controller.c **** 
 181:..\source/pid_controller.c **** void 
 182:..\source/pid_controller.c **** PIDTuningKiSet(PIDControl *pid, float ki)
 183:..\source/pid_controller.c **** {
 506              		.loc 1 183 0
 507              		.cfi_startproc
 508              		@ args = 0, pretend = 0, frame = 0
 509              		@ frame_needed = 0, uses_anonymous_args = 0
 510              	.LVL52:
 511 0000 08B5     		push	{r3, lr}
 512              		.cfi_def_cfa_offset 8
 513              		.cfi_offset 3, -8
 514              		.cfi_offset 14, -4
 515 0002 0A46     		mov	r2, r1
 184:..\source/pid_controller.c ****     PIDTuningsSet(pid, pid->dispKp, ki, pid->dispKd);
 516              		.loc 1 184 0
 517 0004 C168     		ldr	r1, [r0, #12]	@ float
 518              	.LVL53:
 519 0006 4369     		ldr	r3, [r0, #20]	@ float
 520 0008 FFF7FEFF 		bl	PIDTuningsSet
 521              	.LVL54:
 522 000c 08BD     		pop	{r3, pc}
 523              		.cfi_endproc
 524              	.LFE6:
 525              		.size	PIDTuningKiSet, .-PIDTuningKiSet
 526 000e 00BF     		.section	.text.PIDTuningKdSet,"ax",%progbits
 527              		.align	2
 528              		.global	PIDTuningKdSet
 529              		.thumb
 530              		.thumb_func
 531              		.type	PIDTuningKdSet, %function
 532              	PIDTuningKdSet:
 533              	.LFB7:
 185:..\source/pid_controller.c **** }
 186:..\source/pid_controller.c **** 
 187:..\source/pid_controller.c **** void 
 188:..\source/pid_controller.c **** PIDTuningKdSet(PIDControl *pid, float kd)
 189:..\source/pid_controller.c **** {
 534              		.loc 1 189 0
 535              		.cfi_startproc
 536              		@ args = 0, pretend = 0, frame = 0
 537              		@ frame_needed = 0, uses_anonymous_args = 0
 538              	.LVL55:
ARM GAS  C:\Users\Tim\AppData\Local\Temp\cciVyr30.s 			page 14


 539 0000 08B5     		push	{r3, lr}
 540              		.cfi_def_cfa_offset 8
 541              		.cfi_offset 3, -8
 542              		.cfi_offset 14, -4
 543 0002 0B46     		mov	r3, r1
 190:..\source/pid_controller.c ****     PIDTuningsSet(pid, pid->dispKp, pid->dispKi, kd);
 544              		.loc 1 190 0
 545 0004 C168     		ldr	r1, [r0, #12]	@ float
 546              	.LVL56:
 547 0006 0269     		ldr	r2, [r0, #16]	@ float
 548 0008 FFF7FEFF 		bl	PIDTuningsSet
 549              	.LVL57:
 550 000c 08BD     		pop	{r3, pc}
 551              		.cfi_endproc
 552              	.LFE7:
 553              		.size	PIDTuningKdSet, .-PIDTuningKdSet
 554 000e 00BF     		.section	.text.PIDControllerDirectionSet,"ax",%progbits
 555              		.align	2
 556              		.global	PIDControllerDirectionSet
 557              		.thumb
 558              		.thumb_func
 559              		.type	PIDControllerDirectionSet, %function
 560              	PIDControllerDirectionSet:
 561              	.LFB8:
 191:..\source/pid_controller.c **** }
 192:..\source/pid_controller.c **** 
 193:..\source/pid_controller.c **** void 
 194:..\source/pid_controller.c **** PIDControllerDirectionSet(PIDControl *pid, PIDDirection controllerDirection)	  									  									
 195:..\source/pid_controller.c **** {
 562              		.loc 1 195 0
 563              		.cfi_startproc
 564              		@ args = 0, pretend = 0, frame = 0
 565              		@ frame_needed = 0, uses_anonymous_args = 0
 566              		@ link register save eliminated.
 567              	.LVL58:
 196:..\source/pid_controller.c ****     // If in automatic mode and the controller's sense of direction is reversed
 197:..\source/pid_controller.c ****     if(pid->mode == AUTOMATIC && controllerDirection == REVERSE)
 568              		.loc 1 197 0
 569 0000 90F83930 		ldrb	r3, [r0, #57]	@ zero_extendqisi2
 570 0004 012B     		cmp	r3, #1
 571 0006 0DD1     		bne	.L51
 572              		.loc 1 197 0 is_stmt 0 discriminator 1
 573 0008 0129     		cmp	r1, #1
 574 000a 0BD1     		bne	.L51
 198:..\source/pid_controller.c ****     {
 199:..\source/pid_controller.c ****         // Reverse sense of direction of PID gain constants
 200:..\source/pid_controller.c ****         pid->alteredKp = -(pid->alteredKp);
 575              		.loc 1 200 0 is_stmt 1
 576 000c 8369     		ldr	r3, [r0, #24]	@ float
 577 000e 03F10043 		add	r3, r3, #-2147483648
 578 0012 8361     		str	r3, [r0, #24]	@ float
 201:..\source/pid_controller.c ****         pid->alteredKi = -(pid->alteredKi);
 579              		.loc 1 201 0
 580 0014 C369     		ldr	r3, [r0, #28]	@ float
 581 0016 03F10043 		add	r3, r3, #-2147483648
 582 001a C361     		str	r3, [r0, #28]	@ float
 202:..\source/pid_controller.c ****         pid->alteredKd = -(pid->alteredKd);
ARM GAS  C:\Users\Tim\AppData\Local\Temp\cciVyr30.s 			page 15


 583              		.loc 1 202 0
 584 001c 036A     		ldr	r3, [r0, #32]	@ float
 585 001e 03F10043 		add	r3, r3, #-2147483648
 586 0022 0362     		str	r3, [r0, #32]	@ float
 587              	.L51:
 203:..\source/pid_controller.c ****     }
 204:..\source/pid_controller.c ****     
 205:..\source/pid_controller.c ****     pid->controllerDirection = controllerDirection;
 588              		.loc 1 205 0
 589 0024 80F83810 		strb	r1, [r0, #56]
 590 0028 7047     		bx	lr
 591              		.cfi_endproc
 592              	.LFE8:
 593              		.size	PIDControllerDirectionSet, .-PIDControllerDirectionSet
 594 002a 00BF     		.section	.text.PIDSampleTimeSet,"ax",%progbits
 595              		.align	2
 596              		.global	PIDSampleTimeSet
 597              		.thumb
 598              		.thumb_func
 599              		.type	PIDSampleTimeSet, %function
 600              	PIDSampleTimeSet:
 601              	.LFB9:
 206:..\source/pid_controller.c **** }
 207:..\source/pid_controller.c **** 
 208:..\source/pid_controller.c **** void 
 209:..\source/pid_controller.c **** PIDSampleTimeSet(PIDControl *pid, float sampleTimeSeconds)                                         
 210:..\source/pid_controller.c **** {
 602              		.loc 1 210 0
 603              		.cfi_startproc
 604              		@ args = 0, pretend = 0, frame = 0
 605              		@ frame_needed = 0, uses_anonymous_args = 0
 606              	.LVL59:
 607 0000 70B5     		push	{r4, r5, r6, lr}
 608              		.cfi_def_cfa_offset 16
 609              		.cfi_offset 4, -16
 610              		.cfi_offset 5, -12
 611              		.cfi_offset 6, -8
 612              		.cfi_offset 14, -4
 613 0002 0446     		mov	r4, r0
 614 0004 0D46     		mov	r5, r1
 211:..\source/pid_controller.c ****     float ratio;
 212:..\source/pid_controller.c **** 
 213:..\source/pid_controller.c ****     if(sampleTimeSeconds > 0.0f)
 615              		.loc 1 213 0
 616 0006 0846     		mov	r0, r1
 617              	.LVL60:
 618 0008 0021     		movs	r1, #0
 619              	.LVL61:
 620 000a FFF7FEFF 		bl	__aeabi_fcmpgt
 621              	.LVL62:
 622 000e 78B1     		cbz	r0, .L52
 214:..\source/pid_controller.c ****     {
 215:..\source/pid_controller.c ****         // Find the ratio of change and apply to the altered values
 216:..\source/pid_controller.c ****         ratio = sampleTimeSeconds / pid->sampleTime;
 623              		.loc 1 216 0
 624 0010 2846     		mov	r0, r5
 625 0012 A16A     		ldr	r1, [r4, #40]	@ float
ARM GAS  C:\Users\Tim\AppData\Local\Temp\cciVyr30.s 			page 16


 626 0014 FFF7FEFF 		bl	__aeabi_fdiv
 627              	.LVL63:
 628 0018 0646     		mov	r6, r0
 629              	.LVL64:
 217:..\source/pid_controller.c ****         pid->alteredKi *= ratio;
 630              		.loc 1 217 0
 631 001a E069     		ldr	r0, [r4, #28]	@ float
 632              	.LVL65:
 633 001c 3146     		mov	r1, r6
 634 001e FFF7FEFF 		bl	__aeabi_fmul
 635              	.LVL66:
 636 0022 E061     		str	r0, [r4, #28]	@ float
 218:..\source/pid_controller.c ****         pid->alteredKd /= ratio;
 637              		.loc 1 218 0
 638 0024 206A     		ldr	r0, [r4, #32]	@ float
 639 0026 3146     		mov	r1, r6
 640 0028 FFF7FEFF 		bl	__aeabi_fdiv
 641              	.LVL67:
 642 002c 2062     		str	r0, [r4, #32]	@ float
 219:..\source/pid_controller.c ****         
 220:..\source/pid_controller.c ****         // Save the new sampling time
 221:..\source/pid_controller.c ****         pid->sampleTime = sampleTimeSeconds;
 643              		.loc 1 221 0
 644 002e A562     		str	r5, [r4, #40]	@ float
 645              	.LVL68:
 646              	.L52:
 647 0030 70BD     		pop	{r4, r5, r6, pc}
 648              		.cfi_endproc
 649              	.LFE9:
 650              		.size	PIDSampleTimeSet, .-PIDSampleTimeSet
 651 0032 00BF     		.section	.text.PIDSetpointSet,"ax",%progbits
 652              		.align	2
 653              		.global	PIDSetpointSet
 654              		.thumb
 655              		.thumb_func
 656              		.type	PIDSetpointSet, %function
 657              	PIDSetpointSet:
 658              	.LFB10:
 222:..\source/pid_controller.c ****     }
 223:..\source/pid_controller.c **** }
 224:..\source/pid_controller.c **** 
 225:..\source/pid_controller.c **** void PIDSetpointSet(PIDControl *pid, float setpoint) { pid->setpoint = setpoint; }
 659              		.loc 1 225 0
 660              		.cfi_startproc
 661              		@ args = 0, pretend = 0, frame = 0
 662              		@ frame_needed = 0, uses_anonymous_args = 0
 663              		@ link register save eliminated.
 664              	.LVL69:
 665              		.loc 1 225 0
 666 0000 4163     		str	r1, [r0, #52]	@ float
 667 0002 7047     		bx	lr
 668              		.cfi_endproc
 669              	.LFE10:
 670              		.size	PIDSetpointSet, .-PIDSetpointSet
 671              		.section	.text.PIDInputSet,"ax",%progbits
 672              		.align	2
 673              		.global	PIDInputSet
ARM GAS  C:\Users\Tim\AppData\Local\Temp\cciVyr30.s 			page 17


 674              		.thumb
 675              		.thumb_func
 676              		.type	PIDInputSet, %function
 677              	PIDInputSet:
 678              	.LFB11:
 226:..\source/pid_controller.c **** 
 227:..\source/pid_controller.c **** void PIDInputSet(PIDControl *pid, float input) { pid->input = input; }
 679              		.loc 1 227 0
 680              		.cfi_startproc
 681              		@ args = 0, pretend = 0, frame = 0
 682              		@ frame_needed = 0, uses_anonymous_args = 0
 683              		@ link register save eliminated.
 684              	.LVL70:
 685              		.loc 1 227 0
 686 0000 0160     		str	r1, [r0]	@ float
 687 0002 7047     		bx	lr
 688              		.cfi_endproc
 689              	.LFE11:
 690              		.size	PIDInputSet, .-PIDInputSet
 691              		.section	.text.PIDOutputGet,"ax",%progbits
 692              		.align	2
 693              		.global	PIDOutputGet
 694              		.thumb
 695              		.thumb_func
 696              		.type	PIDOutputGet, %function
 697              	PIDOutputGet:
 698              	.LFB12:
 228:..\source/pid_controller.c **** 
 229:..\source/pid_controller.c **** float PIDOutputGet(PIDControl *pid) { return pid->output; }
 699              		.loc 1 229 0
 700              		.cfi_startproc
 701              		@ args = 0, pretend = 0, frame = 0
 702              		@ frame_needed = 0, uses_anonymous_args = 0
 703              		@ link register save eliminated.
 704              	.LVL71:
 705              		.loc 1 229 0
 706 0000 8068     		ldr	r0, [r0, #8]	@ float
 707              	.LVL72:
 708 0002 7047     		bx	lr
 709              		.cfi_endproc
 710              	.LFE12:
 711              		.size	PIDOutputGet, .-PIDOutputGet
 712              		.section	.text.PIDKpGet,"ax",%progbits
 713              		.align	2
 714              		.global	PIDKpGet
 715              		.thumb
 716              		.thumb_func
 717              		.type	PIDKpGet, %function
 718              	PIDKpGet:
 719              	.LFB13:
 230:..\source/pid_controller.c **** 
 231:..\source/pid_controller.c **** float PIDKpGet(PIDControl *pid) { return pid->dispKp; }						  
 720              		.loc 1 231 0
 721              		.cfi_startproc
 722              		@ args = 0, pretend = 0, frame = 0
 723              		@ frame_needed = 0, uses_anonymous_args = 0
 724              		@ link register save eliminated.
ARM GAS  C:\Users\Tim\AppData\Local\Temp\cciVyr30.s 			page 18


 725              	.LVL73:
 726              		.loc 1 231 0
 727 0000 C068     		ldr	r0, [r0, #12]	@ float
 728              	.LVL74:
 729 0002 7047     		bx	lr
 730              		.cfi_endproc
 731              	.LFE13:
 732              		.size	PIDKpGet, .-PIDKpGet
 733              		.section	.text.PIDKiGet,"ax",%progbits
 734              		.align	2
 735              		.global	PIDKiGet
 736              		.thumb
 737              		.thumb_func
 738              		.type	PIDKiGet, %function
 739              	PIDKiGet:
 740              	.LFB14:
 232:..\source/pid_controller.c **** 
 233:..\source/pid_controller.c **** float PIDKiGet(PIDControl *pid) { return pid->dispKi; }						  
 741              		.loc 1 233 0
 742              		.cfi_startproc
 743              		@ args = 0, pretend = 0, frame = 0
 744              		@ frame_needed = 0, uses_anonymous_args = 0
 745              		@ link register save eliminated.
 746              	.LVL75:
 747              		.loc 1 233 0
 748 0000 0069     		ldr	r0, [r0, #16]	@ float
 749              	.LVL76:
 750 0002 7047     		bx	lr
 751              		.cfi_endproc
 752              	.LFE14:
 753              		.size	PIDKiGet, .-PIDKiGet
 754              		.section	.text.PIDKdGet,"ax",%progbits
 755              		.align	2
 756              		.global	PIDKdGet
 757              		.thumb
 758              		.thumb_func
 759              		.type	PIDKdGet, %function
 760              	PIDKdGet:
 761              	.LFB15:
 234:..\source/pid_controller.c **** 
 235:..\source/pid_controller.c **** float PIDKdGet(PIDControl *pid) { return pid->dispKd; }						  
 762              		.loc 1 235 0
 763              		.cfi_startproc
 764              		@ args = 0, pretend = 0, frame = 0
 765              		@ frame_needed = 0, uses_anonymous_args = 0
 766              		@ link register save eliminated.
 767              	.LVL77:
 768              		.loc 1 235 0
 769 0000 4069     		ldr	r0, [r0, #20]	@ float
 770              	.LVL78:
 771 0002 7047     		bx	lr
 772              		.cfi_endproc
 773              	.LFE15:
 774              		.size	PIDKdGet, .-PIDKdGet
 775              		.section	.text.PIDModeGet,"ax",%progbits
 776              		.align	2
 777              		.global	PIDModeGet
ARM GAS  C:\Users\Tim\AppData\Local\Temp\cciVyr30.s 			page 19


 778              		.thumb
 779              		.thumb_func
 780              		.type	PIDModeGet, %function
 781              	PIDModeGet:
 782              	.LFB16:
 236:..\source/pid_controller.c **** 
 237:..\source/pid_controller.c **** PIDMode PIDModeGet(PIDControl *pid) { return pid->mode; }						  
 783              		.loc 1 237 0
 784              		.cfi_startproc
 785              		@ args = 0, pretend = 0, frame = 0
 786              		@ frame_needed = 0, uses_anonymous_args = 0
 787              		@ link register save eliminated.
 788              	.LVL79:
 789              		.loc 1 237 0
 790 0000 90F83900 		ldrb	r0, [r0, #57]	@ zero_extendqisi2
 791              	.LVL80:
 792 0004 7047     		bx	lr
 793              		.cfi_endproc
 794              	.LFE16:
 795              		.size	PIDModeGet, .-PIDModeGet
 796 0006 00BF     		.section	.text.PIDDirectionGet,"ax",%progbits
 797              		.align	2
 798              		.global	PIDDirectionGet
 799              		.thumb
 800              		.thumb_func
 801              		.type	PIDDirectionGet, %function
 802              	PIDDirectionGet:
 803              	.LFB17:
 238:..\source/pid_controller.c **** 
 239:..\source/pid_controller.c **** PIDDirection PIDDirectionGet(PIDControl *pid) { return pid->controllerDirection; }		
 804              		.loc 1 239 0
 805              		.cfi_startproc
 806              		@ args = 0, pretend = 0, frame = 0
 807              		@ frame_needed = 0, uses_anonymous_args = 0
 808              		@ link register save eliminated.
 809              	.LVL81:
 810              		.loc 1 239 0
 811 0000 90F83800 		ldrb	r0, [r0, #56]	@ zero_extendqisi2
 812              	.LVL82:
 813 0004 7047     		bx	lr
 814              		.cfi_endproc
 815              	.LFE17:
 816              		.size	PIDDirectionGet, .-PIDDirectionGet
 817 0006 00BF     		.text
 818              	.Letext0:
 819              		.file 2 "..\\source\\pid_controller.h"