ARM GAS  C:\Users\tslator\AppData\Local\Temp\cc3tI0lw.s 			page 1


   1              		.syntax unified
   2              		.cpu cortex-m3
   3              		.fpu softvfp
   4              		.eabi_attribute 20, 1
   5              		.eabi_attribute 21, 1
   6              		.eabi_attribute 23, 3
   7              		.eabi_attribute 24, 1
   8              		.eabi_attribute 25, 1
   9              		.eabi_attribute 26, 1
  10              		.eabi_attribute 30, 1
  11              		.eabi_attribute 34, 1
  12              		.eabi_attribute 18, 4
  13              		.thumb
  14              		.file	"pidutil.c"
  15              		.text
  16              	.Ltext0:
  17              		.cfi_sections	.debug_frame
  18              		.global	__aeabi_fsub
  19              		.section	.text.DumpPid,"ax",%progbits
  20              		.align	2
  21              		.global	DumpPid
  22              		.thumb
  23              		.thumb_func
  24              		.type	DumpPid, %function
  25              	DumpPid:
  26              	.LFB63:
  27              		.file 1 "..\\source\\pidutil.c"
   1:..\source/pidutil.c **** 
   2:..\source/pidutil.c **** #include "pidutil.h"
   3:..\source/pidutil.c **** #include "config.h"
   4:..\source/pidutil.c **** #include "debug.h"
   5:..\source/pidutil.c **** #include "utils.h"
   6:..\source/pidutil.c **** 
   7:..\source/pidutil.c **** #if defined (LEFT_PID_DUMP_ENABLED) || defined(RIGHT_PID_DUMP_ENABLED) || defined(CTRL_LINEAR_PID_D
   8:..\source/pidutil.c **** void DumpPid(char *name, PIDControl *pid)
   9:..\source/pidutil.c **** {
  28              		.loc 1 9 0
  29              		.cfi_startproc
  30              		@ args = 0, pretend = 0, frame = 72
  31              		@ frame_needed = 0, uses_anonymous_args = 0
  32              	.LVL0:
  33 0000 30B5     		push	{r4, r5, lr}
  34              		.cfi_def_cfa_offset 12
  35              		.cfi_offset 4, -12
  36              		.cfi_offset 5, -8
  37              		.cfi_offset 14, -4
  38 0002 99B0     		sub	sp, sp, #100
  39              		.cfi_def_cfa_offset 112
  40 0004 0546     		mov	r5, r0
  41 0006 0C46     		mov	r4, r1
  10:..\source/pidutil.c ****     char set_point_str[10];
  11:..\source/pidutil.c ****     char input_str[10];
  12:..\source/pidutil.c ****     char error_str[10];
  13:..\source/pidutil.c ****     char last_input_str[10];
  14:..\source/pidutil.c ****     char iterm_str[10];
  15:..\source/pidutil.c ****     char output_str[10];
  16:..\source/pidutil.c **** 
ARM GAS  C:\Users\tslator\AppData\Local\Temp\cc3tI0lw.s 			page 2


  17:..\source/pidutil.c ****     ftoa(pid->setpoint, set_point_str, 3);
  42              		.loc 1 17 0
  43 0008 486B     		ldr	r0, [r1, #52]	@ float
  44              	.LVL1:
  45 000a 15A9     		add	r1, sp, #84
  46              	.LVL2:
  47 000c 0322     		movs	r2, #3
  48 000e FFF7FEFF 		bl	ftoa
  49              	.LVL3:
  18:..\source/pidutil.c ****     ftoa(pid->input, input_str, 3);
  50              		.loc 1 18 0
  51 0012 2068     		ldr	r0, [r4]	@ float
  52 0014 12A9     		add	r1, sp, #72
  53 0016 0322     		movs	r2, #3
  54 0018 FFF7FEFF 		bl	ftoa
  55              	.LVL4:
  19:..\source/pidutil.c ****     ftoa(pid->setpoint - pid->input, error_str, 6);
  56              		.loc 1 19 0
  57 001c 606B     		ldr	r0, [r4, #52]	@ float
  58 001e 2168     		ldr	r1, [r4]	@ float
  59 0020 FFF7FEFF 		bl	__aeabi_fsub
  60              	.LVL5:
  61 0024 0FA9     		add	r1, sp, #60
  62 0026 0622     		movs	r2, #6
  63 0028 FFF7FEFF 		bl	ftoa
  64              	.LVL6:
  20:..\source/pidutil.c ****     ftoa(pid->lastInput, last_input_str, 3);
  65              		.loc 1 20 0
  66 002c 6068     		ldr	r0, [r4, #4]	@ float
  67 002e 0CA9     		add	r1, sp, #48
  68 0030 0322     		movs	r2, #3
  69 0032 FFF7FEFF 		bl	ftoa
  70              	.LVL7:
  21:..\source/pidutil.c ****     ftoa(pid->iTerm, iterm_str, 6);
  71              		.loc 1 21 0
  72 0036 606A     		ldr	r0, [r4, #36]	@ float
  73 0038 09A9     		add	r1, sp, #36
  74 003a 0622     		movs	r2, #6
  75 003c FFF7FEFF 		bl	ftoa
  76              	.LVL8:
  22:..\source/pidutil.c ****     ftoa(pid->output, output_str, 6);
  77              		.loc 1 22 0
  78 0040 A068     		ldr	r0, [r4, #8]	@ float
  79 0042 06A9     		add	r1, sp, #24
  80 0044 0622     		movs	r2, #6
  81 0046 FFF7FEFF 		bl	ftoa
  82              	.LVL9:
  23:..\source/pidutil.c **** 
  24:..\source/pidutil.c ****     if (PID_DEBUG_CONTROL_ENABLED)
  83              		.loc 1 24 0
  84 004a 0F4B     		ldr	r3, .L4
  85 004c 1B88     		ldrh	r3, [r3]
  86 004e 13F03C0F 		tst	r3, #60
  87 0052 16D0     		beq	.L1
  25:..\source/pidutil.c ****     {
  26:..\source/pidutil.c ****         DEBUG_PRINT_ARG("%s pid: %s %s %s %s %s %s\r\n", name, set_point_str, input_str, error_str,
  88              		.loc 1 26 0
ARM GAS  C:\Users\tslator\AppData\Local\Temp\cc3tI0lw.s 			page 3


  89 0054 0D4C     		ldr	r4, .L4+4
  90              	.LVL10:
  91 0056 15AB     		add	r3, sp, #84
  92 0058 0093     		str	r3, [sp]
  93 005a 12AB     		add	r3, sp, #72
  94 005c 0193     		str	r3, [sp, #4]
  95 005e 0FAB     		add	r3, sp, #60
  96 0060 0293     		str	r3, [sp, #8]
  97 0062 0CAB     		add	r3, sp, #48
  98 0064 0393     		str	r3, [sp, #12]
  99 0066 09AB     		add	r3, sp, #36
 100 0068 0493     		str	r3, [sp, #16]
 101 006a 06AB     		add	r3, sp, #24
 102 006c 0593     		str	r3, [sp, #20]
 103 006e 2046     		mov	r0, r4
 104 0070 4FF48071 		mov	r1, #256
 105 0074 064A     		ldr	r2, .L4+8
 106 0076 2B46     		mov	r3, r5
 107 0078 FFF7FEFF 		bl	snprintf
 108              	.LVL11:
 109 007c 2046     		mov	r0, r4
 110 007e FFF7FEFF 		bl	Ser_PutString
 111              	.LVL12:
 112              	.L1:
  27:..\source/pidutil.c ****     }
  28:..\source/pidutil.c **** }
 113              		.loc 1 28 0
 114 0082 19B0     		add	sp, sp, #100
 115              		.cfi_def_cfa_offset 12
 116              		@ sp needed
 117 0084 30BD     		pop	{r4, r5, pc}
 118              	.LVL13:
 119              	.L5:
 120 0086 00BF     		.align	2
 121              	.L4:
 122 0088 00000000 		.word	debug_control_enabled
 123 008c 00000000 		.word	formatted_string
 124 0090 00000000 		.word	.LC0
 125              		.cfi_endproc
 126              	.LFE63:
 127              		.size	DumpPid, .-DumpPid
 128              		.comm	formatted_string,256,4
 129              		.comm	debug_control_enabled,2,2
 130              		.section	.rodata.str1.4,"aMS",%progbits,1
 131              		.align	2
 132              	.LC0:
 133 0000 25732070 		.ascii	"%s pid: %s %s %s %s %s %s\015\012\000"
 133      69643A20 
 133      25732025 
 133      73202573 
 133      20257320 
 134              		.text
 135              	.Letext0:
 136              		.file 2 "c:\\program files (x86)\\cypress\\psoc creator\\3.3\\psoc creator\\import\\gnu\\arm\\4.9.
 137              		.file 3 "c:\\program files (x86)\\cypress\\psoc creator\\3.3\\psoc creator\\import\\gnu\\arm\\4.9.
 138              		.file 4 "Generated_Source\\PSoC5/cytypes.h"
 139              		.file 5 "c:\\program files (x86)\\cypress\\psoc creator\\3.3\\psoc creator\\import\\gnu\\arm\\4.9.
ARM GAS  C:\Users\tslator\AppData\Local\Temp\cc3tI0lw.s 			page 4


 140              		.file 6 "..\\source\\pid_controller.h"
 141              		.file 7 "Generated_Source\\PSoC5/core_cm3.h"
 142              		.file 8 "..\\source\\debug.h"
 143              		.file 9 "..\\source\\utils.h"
 144              		.file 10 "c:\\program files (x86)\\cypress\\psoc creator\\3.3\\psoc creator\\import\\gnu\\arm\\4.9
 145              		.file 11 "..\\source\\serial.h"