ARM GAS  C:\Users\tslator\AppData\Local\Temp\ccy9bisX.s 			page 1


   1              		.syntax unified
   2              		.cpu cortex-m3
   3              		.fpu softvfp
   4              		.eabi_attribute 20, 1
   5              		.eabi_attribute 21, 1
   6              		.eabi_attribute 23, 3
   7              		.eabi_attribute 24, 1
   8              		.eabi_attribute 25, 1
   9              		.eabi_attribute 26, 1
  10              		.eabi_attribute 30, 1
  11              		.eabi_attribute 34, 1
  12              		.eabi_attribute 18, 4
  13              		.thumb
  14              		.file	"Rear_Echo_Timer.c"
  15              		.text
  16              	.Ltext0:
  17              		.cfi_sections	.debug_frame
  18              		.section	.text.Rear_Echo_Timer_Enable,"ax",%progbits
  19              		.align	2
  20              		.global	Rear_Echo_Timer_Enable
  21              		.thumb
  22              		.thumb_func
  23              		.type	Rear_Echo_Timer_Enable, %function
  24              	Rear_Echo_Timer_Enable:
  25              	.LFB1:
  26              		.file 1 ".\\Generated_Source\\PSoC5\\Rear_Echo_Timer.c"
   1:.\Generated_Source\PSoC5/Rear_Echo_Timer.c **** /*******************************************************************************
   2:.\Generated_Source\PSoC5/Rear_Echo_Timer.c **** * File Name: Rear_Echo_Timer.c
   3:.\Generated_Source\PSoC5/Rear_Echo_Timer.c **** * Version 2.70
   4:.\Generated_Source\PSoC5/Rear_Echo_Timer.c **** *
   5:.\Generated_Source\PSoC5/Rear_Echo_Timer.c **** * Description:
   6:.\Generated_Source\PSoC5/Rear_Echo_Timer.c **** *  The Timer component consists of a 8, 16, 24 or 32-bit timer with
   7:.\Generated_Source\PSoC5/Rear_Echo_Timer.c **** *  a selectable period between 2 and 2^Width - 1.  The timer may free run
   8:.\Generated_Source\PSoC5/Rear_Echo_Timer.c **** *  or be used as a capture timer as well.  The capture can be initiated
   9:.\Generated_Source\PSoC5/Rear_Echo_Timer.c **** *  by a positive or negative edge signal as well as via software.
  10:.\Generated_Source\PSoC5/Rear_Echo_Timer.c **** *  A trigger input can be programmed to enable the timer on rising edge
  11:.\Generated_Source\PSoC5/Rear_Echo_Timer.c **** *  falling edge, either edge or continous run.
  12:.\Generated_Source\PSoC5/Rear_Echo_Timer.c **** *  Interrupts may be generated due to a terminal count condition
  13:.\Generated_Source\PSoC5/Rear_Echo_Timer.c **** *  or a capture event.
  14:.\Generated_Source\PSoC5/Rear_Echo_Timer.c **** *
  15:.\Generated_Source\PSoC5/Rear_Echo_Timer.c **** * Note:
  16:.\Generated_Source\PSoC5/Rear_Echo_Timer.c **** *
  17:.\Generated_Source\PSoC5/Rear_Echo_Timer.c **** ********************************************************************************
  18:.\Generated_Source\PSoC5/Rear_Echo_Timer.c **** * Copyright 2008-2014, Cypress Semiconductor Corporation.  All rights reserved.
  19:.\Generated_Source\PSoC5/Rear_Echo_Timer.c **** * You may use this file only in accordance with the license, terms, conditions,
  20:.\Generated_Source\PSoC5/Rear_Echo_Timer.c **** * disclaimers, and limitations in the end user license agreement accompanying
  21:.\Generated_Source\PSoC5/Rear_Echo_Timer.c **** * the software package with which this file was provided.
  22:.\Generated_Source\PSoC5/Rear_Echo_Timer.c **** ********************************************************************************/
  23:.\Generated_Source\PSoC5/Rear_Echo_Timer.c **** 
  24:.\Generated_Source\PSoC5/Rear_Echo_Timer.c **** #include "Rear_Echo_Timer.h"
  25:.\Generated_Source\PSoC5/Rear_Echo_Timer.c **** 
  26:.\Generated_Source\PSoC5/Rear_Echo_Timer.c **** uint8 Rear_Echo_Timer_initVar = 0u;
  27:.\Generated_Source\PSoC5/Rear_Echo_Timer.c **** 
  28:.\Generated_Source\PSoC5/Rear_Echo_Timer.c **** 
  29:.\Generated_Source\PSoC5/Rear_Echo_Timer.c **** /*******************************************************************************
  30:.\Generated_Source\PSoC5/Rear_Echo_Timer.c **** * Function Name: Rear_Echo_Timer_Init
  31:.\Generated_Source\PSoC5/Rear_Echo_Timer.c **** ********************************************************************************
ARM GAS  C:\Users\tslator\AppData\Local\Temp\ccy9bisX.s 			page 2


  32:.\Generated_Source\PSoC5/Rear_Echo_Timer.c **** *
  33:.\Generated_Source\PSoC5/Rear_Echo_Timer.c **** * Summary:
  34:.\Generated_Source\PSoC5/Rear_Echo_Timer.c **** *  Initialize to the schematic state
  35:.\Generated_Source\PSoC5/Rear_Echo_Timer.c **** *
  36:.\Generated_Source\PSoC5/Rear_Echo_Timer.c **** * Parameters:
  37:.\Generated_Source\PSoC5/Rear_Echo_Timer.c **** *  void
  38:.\Generated_Source\PSoC5/Rear_Echo_Timer.c **** *
  39:.\Generated_Source\PSoC5/Rear_Echo_Timer.c **** * Return:
  40:.\Generated_Source\PSoC5/Rear_Echo_Timer.c **** *  void
  41:.\Generated_Source\PSoC5/Rear_Echo_Timer.c **** *
  42:.\Generated_Source\PSoC5/Rear_Echo_Timer.c **** *******************************************************************************/
  43:.\Generated_Source\PSoC5/Rear_Echo_Timer.c **** void Rear_Echo_Timer_Init(void) 
  44:.\Generated_Source\PSoC5/Rear_Echo_Timer.c **** {
  45:.\Generated_Source\PSoC5/Rear_Echo_Timer.c ****     #if(!Rear_Echo_Timer_UsingFixedFunction)
  46:.\Generated_Source\PSoC5/Rear_Echo_Timer.c ****             /* Interrupt State Backup for Critical Region*/
  47:.\Generated_Source\PSoC5/Rear_Echo_Timer.c ****             uint8 Rear_Echo_Timer_interruptState;
  48:.\Generated_Source\PSoC5/Rear_Echo_Timer.c ****     #endif /* Interrupt state back up for Fixed Function only */
  49:.\Generated_Source\PSoC5/Rear_Echo_Timer.c **** 
  50:.\Generated_Source\PSoC5/Rear_Echo_Timer.c ****     #if (Rear_Echo_Timer_UsingFixedFunction)
  51:.\Generated_Source\PSoC5/Rear_Echo_Timer.c ****         /* Clear all bits but the enable bit (if it's already set) for Timer operation */
  52:.\Generated_Source\PSoC5/Rear_Echo_Timer.c ****         Rear_Echo_Timer_CONTROL &= Rear_Echo_Timer_CTRL_ENABLE;
  53:.\Generated_Source\PSoC5/Rear_Echo_Timer.c **** 
  54:.\Generated_Source\PSoC5/Rear_Echo_Timer.c ****         /* Clear the mode bits for continuous run mode */
  55:.\Generated_Source\PSoC5/Rear_Echo_Timer.c ****         #if (CY_PSOC5A)
  56:.\Generated_Source\PSoC5/Rear_Echo_Timer.c ****             Rear_Echo_Timer_CONTROL2 &= ((uint8)(~Rear_Echo_Timer_CTRL_MODE_MASK));
  57:.\Generated_Source\PSoC5/Rear_Echo_Timer.c ****         #endif /* Clear bits in CONTROL2 only in PSOC5A */
  58:.\Generated_Source\PSoC5/Rear_Echo_Timer.c **** 
  59:.\Generated_Source\PSoC5/Rear_Echo_Timer.c ****         #if (CY_PSOC3 || CY_PSOC5LP)
  60:.\Generated_Source\PSoC5/Rear_Echo_Timer.c ****             Rear_Echo_Timer_CONTROL3 &= ((uint8)(~Rear_Echo_Timer_CTRL_MODE_MASK));
  61:.\Generated_Source\PSoC5/Rear_Echo_Timer.c ****         #endif /* CONTROL3 register exists only in PSoC3 OR PSoC5LP */
  62:.\Generated_Source\PSoC5/Rear_Echo_Timer.c **** 
  63:.\Generated_Source\PSoC5/Rear_Echo_Timer.c ****         /* Check if One Shot mode is enabled i.e. RunMode !=0*/
  64:.\Generated_Source\PSoC5/Rear_Echo_Timer.c ****         #if (Rear_Echo_Timer_RunModeUsed != 0x0u)
  65:.\Generated_Source\PSoC5/Rear_Echo_Timer.c ****             /* Set 3rd bit of Control register to enable one shot mode */
  66:.\Generated_Source\PSoC5/Rear_Echo_Timer.c ****             Rear_Echo_Timer_CONTROL |= 0x04u;
  67:.\Generated_Source\PSoC5/Rear_Echo_Timer.c ****         #endif /* One Shot enabled only when RunModeUsed is not Continuous*/
  68:.\Generated_Source\PSoC5/Rear_Echo_Timer.c **** 
  69:.\Generated_Source\PSoC5/Rear_Echo_Timer.c ****         #if (Rear_Echo_Timer_RunModeUsed == 2)
  70:.\Generated_Source\PSoC5/Rear_Echo_Timer.c ****             #if (CY_PSOC5A)
  71:.\Generated_Source\PSoC5/Rear_Echo_Timer.c ****                 /* Set last 2 bits of control2 register if one shot(halt on
  72:.\Generated_Source\PSoC5/Rear_Echo_Timer.c ****                 interrupt) is enabled*/
  73:.\Generated_Source\PSoC5/Rear_Echo_Timer.c ****                 Rear_Echo_Timer_CONTROL2 |= 0x03u;
  74:.\Generated_Source\PSoC5/Rear_Echo_Timer.c ****             #endif /* Set One-Shot Halt on Interrupt bit in CONTROL2 for PSoC5A */
  75:.\Generated_Source\PSoC5/Rear_Echo_Timer.c **** 
  76:.\Generated_Source\PSoC5/Rear_Echo_Timer.c ****             #if (CY_PSOC3 || CY_PSOC5LP)
  77:.\Generated_Source\PSoC5/Rear_Echo_Timer.c ****                 /* Set last 2 bits of control3 register if one shot(halt on
  78:.\Generated_Source\PSoC5/Rear_Echo_Timer.c ****                 interrupt) is enabled*/
  79:.\Generated_Source\PSoC5/Rear_Echo_Timer.c ****                 Rear_Echo_Timer_CONTROL3 |= 0x03u;
  80:.\Generated_Source\PSoC5/Rear_Echo_Timer.c ****             #endif /* Set One-Shot Halt on Interrupt bit in CONTROL3 for PSoC3 or PSoC5LP */
  81:.\Generated_Source\PSoC5/Rear_Echo_Timer.c **** 
  82:.\Generated_Source\PSoC5/Rear_Echo_Timer.c ****         #endif /* Remove section if One Shot Halt on Interrupt is not enabled */
  83:.\Generated_Source\PSoC5/Rear_Echo_Timer.c **** 
  84:.\Generated_Source\PSoC5/Rear_Echo_Timer.c ****         #if (Rear_Echo_Timer_UsingHWEnable != 0)
  85:.\Generated_Source\PSoC5/Rear_Echo_Timer.c ****             #if (CY_PSOC5A)
  86:.\Generated_Source\PSoC5/Rear_Echo_Timer.c ****                 /* Set the default Run Mode of the Timer to Continuous */
  87:.\Generated_Source\PSoC5/Rear_Echo_Timer.c ****                 Rear_Echo_Timer_CONTROL2 |= Rear_Echo_Timer_CTRL_MODE_PULSEWIDTH;
  88:.\Generated_Source\PSoC5/Rear_Echo_Timer.c ****             #endif /* Set Continuous Run Mode in CONTROL2 for PSoC5A */
ARM GAS  C:\Users\tslator\AppData\Local\Temp\ccy9bisX.s 			page 3


  89:.\Generated_Source\PSoC5/Rear_Echo_Timer.c **** 
  90:.\Generated_Source\PSoC5/Rear_Echo_Timer.c ****             #if (CY_PSOC3 || CY_PSOC5LP)
  91:.\Generated_Source\PSoC5/Rear_Echo_Timer.c ****                 /* Clear and Set ROD and COD bits of CFG2 register */
  92:.\Generated_Source\PSoC5/Rear_Echo_Timer.c ****                 Rear_Echo_Timer_CONTROL3 &= ((uint8)(~Rear_Echo_Timer_CTRL_RCOD_MASK));
  93:.\Generated_Source\PSoC5/Rear_Echo_Timer.c ****                 Rear_Echo_Timer_CONTROL3 |= Rear_Echo_Timer_CTRL_RCOD;
  94:.\Generated_Source\PSoC5/Rear_Echo_Timer.c **** 
  95:.\Generated_Source\PSoC5/Rear_Echo_Timer.c ****                 /* Clear and Enable the HW enable bit in CFG2 register */
  96:.\Generated_Source\PSoC5/Rear_Echo_Timer.c ****                 Rear_Echo_Timer_CONTROL3 &= ((uint8)(~Rear_Echo_Timer_CTRL_ENBL_MASK));
  97:.\Generated_Source\PSoC5/Rear_Echo_Timer.c ****                 Rear_Echo_Timer_CONTROL3 |= Rear_Echo_Timer_CTRL_ENBL;
  98:.\Generated_Source\PSoC5/Rear_Echo_Timer.c **** 
  99:.\Generated_Source\PSoC5/Rear_Echo_Timer.c ****                 /* Set the default Run Mode of the Timer to Continuous */
 100:.\Generated_Source\PSoC5/Rear_Echo_Timer.c ****                 Rear_Echo_Timer_CONTROL3 |= Rear_Echo_Timer_CTRL_MODE_CONTINUOUS;
 101:.\Generated_Source\PSoC5/Rear_Echo_Timer.c ****             #endif /* Set Continuous Run Mode in CONTROL3 for PSoC3ES3 or PSoC5A */
 102:.\Generated_Source\PSoC5/Rear_Echo_Timer.c **** 
 103:.\Generated_Source\PSoC5/Rear_Echo_Timer.c ****         #endif /* Configure Run Mode with hardware enable */
 104:.\Generated_Source\PSoC5/Rear_Echo_Timer.c **** 
 105:.\Generated_Source\PSoC5/Rear_Echo_Timer.c ****         /* Clear and Set SYNCTC and SYNCCMP bits of RT1 register */
 106:.\Generated_Source\PSoC5/Rear_Echo_Timer.c ****         Rear_Echo_Timer_RT1 &= ((uint8)(~Rear_Echo_Timer_RT1_MASK));
 107:.\Generated_Source\PSoC5/Rear_Echo_Timer.c ****         Rear_Echo_Timer_RT1 |= Rear_Echo_Timer_SYNC;
 108:.\Generated_Source\PSoC5/Rear_Echo_Timer.c **** 
 109:.\Generated_Source\PSoC5/Rear_Echo_Timer.c ****         /*Enable DSI Sync all all inputs of the Timer*/
 110:.\Generated_Source\PSoC5/Rear_Echo_Timer.c ****         Rear_Echo_Timer_RT1 &= ((uint8)(~Rear_Echo_Timer_SYNCDSI_MASK));
 111:.\Generated_Source\PSoC5/Rear_Echo_Timer.c ****         Rear_Echo_Timer_RT1 |= Rear_Echo_Timer_SYNCDSI_EN;
 112:.\Generated_Source\PSoC5/Rear_Echo_Timer.c **** 
 113:.\Generated_Source\PSoC5/Rear_Echo_Timer.c ****         /* Set the IRQ to use the status register interrupts */
 114:.\Generated_Source\PSoC5/Rear_Echo_Timer.c ****         Rear_Echo_Timer_CONTROL2 |= Rear_Echo_Timer_CTRL2_IRQ_SEL;
 115:.\Generated_Source\PSoC5/Rear_Echo_Timer.c ****     #endif /* Configuring registers of fixed function implementation */
 116:.\Generated_Source\PSoC5/Rear_Echo_Timer.c **** 
 117:.\Generated_Source\PSoC5/Rear_Echo_Timer.c ****     /* Set Initial values from Configuration */
 118:.\Generated_Source\PSoC5/Rear_Echo_Timer.c ****     Rear_Echo_Timer_WritePeriod(Rear_Echo_Timer_INIT_PERIOD);
 119:.\Generated_Source\PSoC5/Rear_Echo_Timer.c ****     Rear_Echo_Timer_WriteCounter(Rear_Echo_Timer_INIT_PERIOD);
 120:.\Generated_Source\PSoC5/Rear_Echo_Timer.c **** 
 121:.\Generated_Source\PSoC5/Rear_Echo_Timer.c ****     #if (Rear_Echo_Timer_UsingHWCaptureCounter)/* Capture counter is enabled */
 122:.\Generated_Source\PSoC5/Rear_Echo_Timer.c ****         Rear_Echo_Timer_CAPTURE_COUNT_CTRL |= Rear_Echo_Timer_CNTR_ENABLE;
 123:.\Generated_Source\PSoC5/Rear_Echo_Timer.c ****         Rear_Echo_Timer_SetCaptureCount(Rear_Echo_Timer_INIT_CAPTURE_COUNT);
 124:.\Generated_Source\PSoC5/Rear_Echo_Timer.c ****     #endif /* Configure capture counter value */
 125:.\Generated_Source\PSoC5/Rear_Echo_Timer.c **** 
 126:.\Generated_Source\PSoC5/Rear_Echo_Timer.c ****     #if (!Rear_Echo_Timer_UsingFixedFunction)
 127:.\Generated_Source\PSoC5/Rear_Echo_Timer.c ****         #if (Rear_Echo_Timer_SoftwareCaptureMode)
 128:.\Generated_Source\PSoC5/Rear_Echo_Timer.c ****             Rear_Echo_Timer_SetCaptureMode(Rear_Echo_Timer_INIT_CAPTURE_MODE);
 129:.\Generated_Source\PSoC5/Rear_Echo_Timer.c ****         #endif /* Set Capture Mode for UDB implementation if capture mode is software controlled */
 130:.\Generated_Source\PSoC5/Rear_Echo_Timer.c **** 
 131:.\Generated_Source\PSoC5/Rear_Echo_Timer.c ****         #if (Rear_Echo_Timer_SoftwareTriggerMode)
 132:.\Generated_Source\PSoC5/Rear_Echo_Timer.c ****             #if (!Rear_Echo_Timer_UDB_CONTROL_REG_REMOVED)
 133:.\Generated_Source\PSoC5/Rear_Echo_Timer.c ****                 if (0u == (Rear_Echo_Timer_CONTROL & Rear_Echo_Timer__B_TIMER__TM_SOFTWARE))
 134:.\Generated_Source\PSoC5/Rear_Echo_Timer.c ****                 {
 135:.\Generated_Source\PSoC5/Rear_Echo_Timer.c ****                     Rear_Echo_Timer_SetTriggerMode(Rear_Echo_Timer_INIT_TRIGGER_MODE);
 136:.\Generated_Source\PSoC5/Rear_Echo_Timer.c ****                 }
 137:.\Generated_Source\PSoC5/Rear_Echo_Timer.c ****             #endif /* (!Rear_Echo_Timer_UDB_CONTROL_REG_REMOVED) */
 138:.\Generated_Source\PSoC5/Rear_Echo_Timer.c ****         #endif /* Set trigger mode for UDB Implementation if trigger mode is software controlled */
 139:.\Generated_Source\PSoC5/Rear_Echo_Timer.c **** 
 140:.\Generated_Source\PSoC5/Rear_Echo_Timer.c ****         /* CyEnterCriticalRegion and CyExitCriticalRegion are used to mark following region critica
 141:.\Generated_Source\PSoC5/Rear_Echo_Timer.c ****         /* Enter Critical Region*/
 142:.\Generated_Source\PSoC5/Rear_Echo_Timer.c ****         Rear_Echo_Timer_interruptState = CyEnterCriticalSection();
 143:.\Generated_Source\PSoC5/Rear_Echo_Timer.c **** 
 144:.\Generated_Source\PSoC5/Rear_Echo_Timer.c ****         /* Use the interrupt output of the status register for IRQ output */
 145:.\Generated_Source\PSoC5/Rear_Echo_Timer.c ****         Rear_Echo_Timer_STATUS_AUX_CTRL |= Rear_Echo_Timer_STATUS_ACTL_INT_EN_MASK;
ARM GAS  C:\Users\tslator\AppData\Local\Temp\ccy9bisX.s 			page 4


 146:.\Generated_Source\PSoC5/Rear_Echo_Timer.c **** 
 147:.\Generated_Source\PSoC5/Rear_Echo_Timer.c ****         /* Exit Critical Region*/
 148:.\Generated_Source\PSoC5/Rear_Echo_Timer.c ****         CyExitCriticalSection(Rear_Echo_Timer_interruptState);
 149:.\Generated_Source\PSoC5/Rear_Echo_Timer.c **** 
 150:.\Generated_Source\PSoC5/Rear_Echo_Timer.c ****         #if (Rear_Echo_Timer_EnableTriggerMode)
 151:.\Generated_Source\PSoC5/Rear_Echo_Timer.c ****             Rear_Echo_Timer_EnableTrigger();
 152:.\Generated_Source\PSoC5/Rear_Echo_Timer.c ****         #endif /* Set Trigger enable bit for UDB implementation in the control register*/
 153:.\Generated_Source\PSoC5/Rear_Echo_Timer.c **** 		
 154:.\Generated_Source\PSoC5/Rear_Echo_Timer.c **** 		
 155:.\Generated_Source\PSoC5/Rear_Echo_Timer.c ****         #if (Rear_Echo_Timer_InterruptOnCaptureCount && !Rear_Echo_Timer_UDB_CONTROL_REG_REMOVED)
 156:.\Generated_Source\PSoC5/Rear_Echo_Timer.c ****             Rear_Echo_Timer_SetInterruptCount(Rear_Echo_Timer_INIT_INT_CAPTURE_COUNT);
 157:.\Generated_Source\PSoC5/Rear_Echo_Timer.c ****         #endif /* Set interrupt count in UDB implementation if interrupt count feature is checked.*
 158:.\Generated_Source\PSoC5/Rear_Echo_Timer.c **** 
 159:.\Generated_Source\PSoC5/Rear_Echo_Timer.c ****         Rear_Echo_Timer_ClearFIFO();
 160:.\Generated_Source\PSoC5/Rear_Echo_Timer.c ****     #endif /* Configure additional features of UDB implementation */
 161:.\Generated_Source\PSoC5/Rear_Echo_Timer.c **** 
 162:.\Generated_Source\PSoC5/Rear_Echo_Timer.c ****     Rear_Echo_Timer_SetInterruptMode(Rear_Echo_Timer_INIT_INTERRUPT_MODE);
 163:.\Generated_Source\PSoC5/Rear_Echo_Timer.c **** }
 164:.\Generated_Source\PSoC5/Rear_Echo_Timer.c **** 
 165:.\Generated_Source\PSoC5/Rear_Echo_Timer.c **** 
 166:.\Generated_Source\PSoC5/Rear_Echo_Timer.c **** /*******************************************************************************
 167:.\Generated_Source\PSoC5/Rear_Echo_Timer.c **** * Function Name: Rear_Echo_Timer_Enable
 168:.\Generated_Source\PSoC5/Rear_Echo_Timer.c **** ********************************************************************************
 169:.\Generated_Source\PSoC5/Rear_Echo_Timer.c **** *
 170:.\Generated_Source\PSoC5/Rear_Echo_Timer.c **** * Summary:
 171:.\Generated_Source\PSoC5/Rear_Echo_Timer.c **** *  Enable the Timer
 172:.\Generated_Source\PSoC5/Rear_Echo_Timer.c **** *
 173:.\Generated_Source\PSoC5/Rear_Echo_Timer.c **** * Parameters:
 174:.\Generated_Source\PSoC5/Rear_Echo_Timer.c **** *  void
 175:.\Generated_Source\PSoC5/Rear_Echo_Timer.c **** *
 176:.\Generated_Source\PSoC5/Rear_Echo_Timer.c **** * Return:
 177:.\Generated_Source\PSoC5/Rear_Echo_Timer.c **** *  void
 178:.\Generated_Source\PSoC5/Rear_Echo_Timer.c **** *
 179:.\Generated_Source\PSoC5/Rear_Echo_Timer.c **** *******************************************************************************/
 180:.\Generated_Source\PSoC5/Rear_Echo_Timer.c **** void Rear_Echo_Timer_Enable(void) 
 181:.\Generated_Source\PSoC5/Rear_Echo_Timer.c **** {
  27              		.loc 1 181 0
  28              		.cfi_startproc
  29              		@ args = 0, pretend = 0, frame = 0
  30              		@ frame_needed = 0, uses_anonymous_args = 0
  31              		@ link register save eliminated.
  32 0000 7047     		bx	lr
  33              		.cfi_endproc
  34              	.LFE1:
  35              		.size	Rear_Echo_Timer_Enable, .-Rear_Echo_Timer_Enable
  36 0002 00BF     		.section	.text.Rear_Echo_Timer_Stop,"ax",%progbits
  37              		.align	2
  38              		.global	Rear_Echo_Timer_Stop
  39              		.thumb
  40              		.thumb_func
  41              		.type	Rear_Echo_Timer_Stop, %function
  42              	Rear_Echo_Timer_Stop:
  43              	.LFB3:
 182:.\Generated_Source\PSoC5/Rear_Echo_Timer.c ****     /* Globally Enable the Fixed Function Block chosen */
 183:.\Generated_Source\PSoC5/Rear_Echo_Timer.c ****     #if (Rear_Echo_Timer_UsingFixedFunction)
 184:.\Generated_Source\PSoC5/Rear_Echo_Timer.c ****         Rear_Echo_Timer_GLOBAL_ENABLE |= Rear_Echo_Timer_BLOCK_EN_MASK;
 185:.\Generated_Source\PSoC5/Rear_Echo_Timer.c ****         Rear_Echo_Timer_GLOBAL_STBY_ENABLE |= Rear_Echo_Timer_BLOCK_STBY_EN_MASK;
ARM GAS  C:\Users\tslator\AppData\Local\Temp\ccy9bisX.s 			page 5


 186:.\Generated_Source\PSoC5/Rear_Echo_Timer.c ****     #endif /* Set Enable bit for enabling Fixed function timer*/
 187:.\Generated_Source\PSoC5/Rear_Echo_Timer.c **** 
 188:.\Generated_Source\PSoC5/Rear_Echo_Timer.c ****     /* Remove assignment if control register is removed */
 189:.\Generated_Source\PSoC5/Rear_Echo_Timer.c ****     #if (!Rear_Echo_Timer_UDB_CONTROL_REG_REMOVED || Rear_Echo_Timer_UsingFixedFunction)
 190:.\Generated_Source\PSoC5/Rear_Echo_Timer.c ****         Rear_Echo_Timer_CONTROL |= Rear_Echo_Timer_CTRL_ENABLE;
 191:.\Generated_Source\PSoC5/Rear_Echo_Timer.c ****     #endif /* Remove assignment if control register is removed */
 192:.\Generated_Source\PSoC5/Rear_Echo_Timer.c **** }
 193:.\Generated_Source\PSoC5/Rear_Echo_Timer.c **** 
 194:.\Generated_Source\PSoC5/Rear_Echo_Timer.c **** 
 195:.\Generated_Source\PSoC5/Rear_Echo_Timer.c **** /*******************************************************************************
 196:.\Generated_Source\PSoC5/Rear_Echo_Timer.c **** * Function Name: Rear_Echo_Timer_Start
 197:.\Generated_Source\PSoC5/Rear_Echo_Timer.c **** ********************************************************************************
 198:.\Generated_Source\PSoC5/Rear_Echo_Timer.c **** *
 199:.\Generated_Source\PSoC5/Rear_Echo_Timer.c **** * Summary:
 200:.\Generated_Source\PSoC5/Rear_Echo_Timer.c **** *  The start function initializes the timer with the default values, the
 201:.\Generated_Source\PSoC5/Rear_Echo_Timer.c **** *  enables the timerto begin counting.  It does not enable interrupts,
 202:.\Generated_Source\PSoC5/Rear_Echo_Timer.c **** *  the EnableInt command should be called if interrupt generation is required.
 203:.\Generated_Source\PSoC5/Rear_Echo_Timer.c **** *
 204:.\Generated_Source\PSoC5/Rear_Echo_Timer.c **** * Parameters:
 205:.\Generated_Source\PSoC5/Rear_Echo_Timer.c **** *  void
 206:.\Generated_Source\PSoC5/Rear_Echo_Timer.c **** *
 207:.\Generated_Source\PSoC5/Rear_Echo_Timer.c **** * Return:
 208:.\Generated_Source\PSoC5/Rear_Echo_Timer.c **** *  void
 209:.\Generated_Source\PSoC5/Rear_Echo_Timer.c **** *
 210:.\Generated_Source\PSoC5/Rear_Echo_Timer.c **** * Global variables:
 211:.\Generated_Source\PSoC5/Rear_Echo_Timer.c **** *  Rear_Echo_Timer_initVar: Is modified when this function is called for the
 212:.\Generated_Source\PSoC5/Rear_Echo_Timer.c **** *   first time. Is used to ensure that initialization happens only once.
 213:.\Generated_Source\PSoC5/Rear_Echo_Timer.c **** *
 214:.\Generated_Source\PSoC5/Rear_Echo_Timer.c **** *******************************************************************************/
 215:.\Generated_Source\PSoC5/Rear_Echo_Timer.c **** void Rear_Echo_Timer_Start(void) 
 216:.\Generated_Source\PSoC5/Rear_Echo_Timer.c **** {
 217:.\Generated_Source\PSoC5/Rear_Echo_Timer.c ****     if(Rear_Echo_Timer_initVar == 0u)
 218:.\Generated_Source\PSoC5/Rear_Echo_Timer.c ****     {
 219:.\Generated_Source\PSoC5/Rear_Echo_Timer.c ****         Rear_Echo_Timer_Init();
 220:.\Generated_Source\PSoC5/Rear_Echo_Timer.c **** 
 221:.\Generated_Source\PSoC5/Rear_Echo_Timer.c ****         Rear_Echo_Timer_initVar = 1u;   /* Clear this bit for Initialization */
 222:.\Generated_Source\PSoC5/Rear_Echo_Timer.c ****     }
 223:.\Generated_Source\PSoC5/Rear_Echo_Timer.c **** 
 224:.\Generated_Source\PSoC5/Rear_Echo_Timer.c ****     /* Enable the Timer */
 225:.\Generated_Source\PSoC5/Rear_Echo_Timer.c ****     Rear_Echo_Timer_Enable();
 226:.\Generated_Source\PSoC5/Rear_Echo_Timer.c **** }
 227:.\Generated_Source\PSoC5/Rear_Echo_Timer.c **** 
 228:.\Generated_Source\PSoC5/Rear_Echo_Timer.c **** 
 229:.\Generated_Source\PSoC5/Rear_Echo_Timer.c **** /*******************************************************************************
 230:.\Generated_Source\PSoC5/Rear_Echo_Timer.c **** * Function Name: Rear_Echo_Timer_Stop
 231:.\Generated_Source\PSoC5/Rear_Echo_Timer.c **** ********************************************************************************
 232:.\Generated_Source\PSoC5/Rear_Echo_Timer.c **** *
 233:.\Generated_Source\PSoC5/Rear_Echo_Timer.c **** * Summary:
 234:.\Generated_Source\PSoC5/Rear_Echo_Timer.c **** *  The stop function halts the timer, but does not change any modes or disable
 235:.\Generated_Source\PSoC5/Rear_Echo_Timer.c **** *  interrupts.
 236:.\Generated_Source\PSoC5/Rear_Echo_Timer.c **** *
 237:.\Generated_Source\PSoC5/Rear_Echo_Timer.c **** * Parameters:
 238:.\Generated_Source\PSoC5/Rear_Echo_Timer.c **** *  void
 239:.\Generated_Source\PSoC5/Rear_Echo_Timer.c **** *
 240:.\Generated_Source\PSoC5/Rear_Echo_Timer.c **** * Return:
 241:.\Generated_Source\PSoC5/Rear_Echo_Timer.c **** *  void
 242:.\Generated_Source\PSoC5/Rear_Echo_Timer.c **** *
ARM GAS  C:\Users\tslator\AppData\Local\Temp\ccy9bisX.s 			page 6


 243:.\Generated_Source\PSoC5/Rear_Echo_Timer.c **** * Side Effects: If the Enable mode is set to Hardware only then this function
 244:.\Generated_Source\PSoC5/Rear_Echo_Timer.c **** *               has no effect on the operation of the timer.
 245:.\Generated_Source\PSoC5/Rear_Echo_Timer.c **** *
 246:.\Generated_Source\PSoC5/Rear_Echo_Timer.c **** *******************************************************************************/
 247:.\Generated_Source\PSoC5/Rear_Echo_Timer.c **** void Rear_Echo_Timer_Stop(void) 
 248:.\Generated_Source\PSoC5/Rear_Echo_Timer.c **** {
  44              		.loc 1 248 0
  45              		.cfi_startproc
  46              		@ args = 0, pretend = 0, frame = 0
  47              		@ frame_needed = 0, uses_anonymous_args = 0
  48              		@ link register save eliminated.
  49 0000 7047     		bx	lr
  50              		.cfi_endproc
  51              	.LFE3:
  52              		.size	Rear_Echo_Timer_Stop, .-Rear_Echo_Timer_Stop
  53 0002 00BF     		.section	.text.Rear_Echo_Timer_SetInterruptMode,"ax",%progbits
  54              		.align	2
  55              		.global	Rear_Echo_Timer_SetInterruptMode
  56              		.thumb
  57              		.thumb_func
  58              		.type	Rear_Echo_Timer_SetInterruptMode, %function
  59              	Rear_Echo_Timer_SetInterruptMode:
  60              	.LFB4:
 249:.\Generated_Source\PSoC5/Rear_Echo_Timer.c ****     /* Disable Timer */
 250:.\Generated_Source\PSoC5/Rear_Echo_Timer.c ****     #if(!Rear_Echo_Timer_UDB_CONTROL_REG_REMOVED || Rear_Echo_Timer_UsingFixedFunction)
 251:.\Generated_Source\PSoC5/Rear_Echo_Timer.c ****         Rear_Echo_Timer_CONTROL &= ((uint8)(~Rear_Echo_Timer_CTRL_ENABLE));
 252:.\Generated_Source\PSoC5/Rear_Echo_Timer.c ****     #endif /* Remove assignment if control register is removed */
 253:.\Generated_Source\PSoC5/Rear_Echo_Timer.c **** 
 254:.\Generated_Source\PSoC5/Rear_Echo_Timer.c ****     /* Globally disable the Fixed Function Block chosen */
 255:.\Generated_Source\PSoC5/Rear_Echo_Timer.c ****     #if (Rear_Echo_Timer_UsingFixedFunction)
 256:.\Generated_Source\PSoC5/Rear_Echo_Timer.c ****         Rear_Echo_Timer_GLOBAL_ENABLE &= ((uint8)(~Rear_Echo_Timer_BLOCK_EN_MASK));
 257:.\Generated_Source\PSoC5/Rear_Echo_Timer.c ****         Rear_Echo_Timer_GLOBAL_STBY_ENABLE &= ((uint8)(~Rear_Echo_Timer_BLOCK_STBY_EN_MASK));
 258:.\Generated_Source\PSoC5/Rear_Echo_Timer.c ****     #endif /* Disable global enable for the Timer Fixed function block to stop the Timer*/
 259:.\Generated_Source\PSoC5/Rear_Echo_Timer.c **** }
 260:.\Generated_Source\PSoC5/Rear_Echo_Timer.c **** 
 261:.\Generated_Source\PSoC5/Rear_Echo_Timer.c **** 
 262:.\Generated_Source\PSoC5/Rear_Echo_Timer.c **** /*******************************************************************************
 263:.\Generated_Source\PSoC5/Rear_Echo_Timer.c **** * Function Name: Rear_Echo_Timer_SetInterruptMode
 264:.\Generated_Source\PSoC5/Rear_Echo_Timer.c **** ********************************************************************************
 265:.\Generated_Source\PSoC5/Rear_Echo_Timer.c **** *
 266:.\Generated_Source\PSoC5/Rear_Echo_Timer.c **** * Summary:
 267:.\Generated_Source\PSoC5/Rear_Echo_Timer.c **** *  This function selects which of the interrupt inputs may cause an interrupt.
 268:.\Generated_Source\PSoC5/Rear_Echo_Timer.c **** *  The twosources are caputure and terminal.  One, both or neither may
 269:.\Generated_Source\PSoC5/Rear_Echo_Timer.c **** *  be selected.
 270:.\Generated_Source\PSoC5/Rear_Echo_Timer.c **** *
 271:.\Generated_Source\PSoC5/Rear_Echo_Timer.c **** * Parameters:
 272:.\Generated_Source\PSoC5/Rear_Echo_Timer.c **** *  interruptMode:   This parameter is used to enable interrups on either/or
 273:.\Generated_Source\PSoC5/Rear_Echo_Timer.c **** *                   terminal count or capture.
 274:.\Generated_Source\PSoC5/Rear_Echo_Timer.c **** *
 275:.\Generated_Source\PSoC5/Rear_Echo_Timer.c **** * Return:
 276:.\Generated_Source\PSoC5/Rear_Echo_Timer.c **** *  void
 277:.\Generated_Source\PSoC5/Rear_Echo_Timer.c **** *
 278:.\Generated_Source\PSoC5/Rear_Echo_Timer.c **** *******************************************************************************/
 279:.\Generated_Source\PSoC5/Rear_Echo_Timer.c **** void Rear_Echo_Timer_SetInterruptMode(uint8 interruptMode) 
 280:.\Generated_Source\PSoC5/Rear_Echo_Timer.c **** {
  61              		.loc 1 280 0
  62              		.cfi_startproc
ARM GAS  C:\Users\tslator\AppData\Local\Temp\ccy9bisX.s 			page 7


  63              		@ args = 0, pretend = 0, frame = 0
  64              		@ frame_needed = 0, uses_anonymous_args = 0
  65              		@ link register save eliminated.
  66              	.LVL0:
 281:.\Generated_Source\PSoC5/Rear_Echo_Timer.c ****     Rear_Echo_Timer_STATUS_MASK = interruptMode;
  67              		.loc 1 281 0
  68 0000 014B     		ldr	r3, .L4
  69 0002 1870     		strb	r0, [r3]
  70 0004 7047     		bx	lr
  71              	.L5:
  72 0006 00BF     		.align	2
  73              	.L4:
  74 0008 89650040 		.word	1073767817
  75              		.cfi_endproc
  76              	.LFE4:
  77              		.size	Rear_Echo_Timer_SetInterruptMode, .-Rear_Echo_Timer_SetInterruptMode
  78              		.section	.text.Rear_Echo_Timer_SoftwareCapture,"ax",%progbits
  79              		.align	2
  80              		.global	Rear_Echo_Timer_SoftwareCapture
  81              		.thumb
  82              		.thumb_func
  83              		.type	Rear_Echo_Timer_SoftwareCapture, %function
  84              	Rear_Echo_Timer_SoftwareCapture:
  85              	.LFB5:
 282:.\Generated_Source\PSoC5/Rear_Echo_Timer.c **** }
 283:.\Generated_Source\PSoC5/Rear_Echo_Timer.c **** 
 284:.\Generated_Source\PSoC5/Rear_Echo_Timer.c **** 
 285:.\Generated_Source\PSoC5/Rear_Echo_Timer.c **** /*******************************************************************************
 286:.\Generated_Source\PSoC5/Rear_Echo_Timer.c **** * Function Name: Rear_Echo_Timer_SoftwareCapture
 287:.\Generated_Source\PSoC5/Rear_Echo_Timer.c **** ********************************************************************************
 288:.\Generated_Source\PSoC5/Rear_Echo_Timer.c **** *
 289:.\Generated_Source\PSoC5/Rear_Echo_Timer.c **** * Summary:
 290:.\Generated_Source\PSoC5/Rear_Echo_Timer.c **** *  This function forces a capture independent of the capture signal.
 291:.\Generated_Source\PSoC5/Rear_Echo_Timer.c **** *
 292:.\Generated_Source\PSoC5/Rear_Echo_Timer.c **** * Parameters:
 293:.\Generated_Source\PSoC5/Rear_Echo_Timer.c **** *  void
 294:.\Generated_Source\PSoC5/Rear_Echo_Timer.c **** *
 295:.\Generated_Source\PSoC5/Rear_Echo_Timer.c **** * Return:
 296:.\Generated_Source\PSoC5/Rear_Echo_Timer.c **** *  void
 297:.\Generated_Source\PSoC5/Rear_Echo_Timer.c **** *
 298:.\Generated_Source\PSoC5/Rear_Echo_Timer.c **** * Side Effects:
 299:.\Generated_Source\PSoC5/Rear_Echo_Timer.c **** *  An existing hardware capture could be overwritten.
 300:.\Generated_Source\PSoC5/Rear_Echo_Timer.c **** *
 301:.\Generated_Source\PSoC5/Rear_Echo_Timer.c **** *******************************************************************************/
 302:.\Generated_Source\PSoC5/Rear_Echo_Timer.c **** void Rear_Echo_Timer_SoftwareCapture(void) 
 303:.\Generated_Source\PSoC5/Rear_Echo_Timer.c **** {
  86              		.loc 1 303 0
  87              		.cfi_startproc
  88              		@ args = 0, pretend = 0, frame = 0
  89              		@ frame_needed = 0, uses_anonymous_args = 0
  90              		@ link register save eliminated.
 304:.\Generated_Source\PSoC5/Rear_Echo_Timer.c ****     /* Generate a software capture by reading the counter register */
 305:.\Generated_Source\PSoC5/Rear_Echo_Timer.c ****     #if(Rear_Echo_Timer_UsingFixedFunction)
 306:.\Generated_Source\PSoC5/Rear_Echo_Timer.c ****         (void)CY_GET_REG16(Rear_Echo_Timer_COUNTER_LSB_PTR);
 307:.\Generated_Source\PSoC5/Rear_Echo_Timer.c ****     #else
 308:.\Generated_Source\PSoC5/Rear_Echo_Timer.c ****         (void)CY_GET_REG8(Rear_Echo_Timer_COUNTER_LSB_PTR_8BIT);
  91              		.loc 1 308 0
ARM GAS  C:\Users\tslator\AppData\Local\Temp\ccy9bisX.s 			page 8


  92 0000 014B     		ldr	r3, .L7
  93 0002 1B78     		ldrb	r3, [r3]	@ zero_extendqisi2
  94 0004 7047     		bx	lr
  95              	.L8:
  96 0006 00BF     		.align	2
  97              	.L7:
  98 0008 08650040 		.word	1073767688
  99              		.cfi_endproc
 100              	.LFE5:
 101              		.size	Rear_Echo_Timer_SoftwareCapture, .-Rear_Echo_Timer_SoftwareCapture
 102              		.section	.text.Rear_Echo_Timer_ReadStatusRegister,"ax",%progbits
 103              		.align	2
 104              		.global	Rear_Echo_Timer_ReadStatusRegister
 105              		.thumb
 106              		.thumb_func
 107              		.type	Rear_Echo_Timer_ReadStatusRegister, %function
 108              	Rear_Echo_Timer_ReadStatusRegister:
 109              	.LFB6:
 309:.\Generated_Source\PSoC5/Rear_Echo_Timer.c ****     #endif/* (Rear_Echo_Timer_UsingFixedFunction) */
 310:.\Generated_Source\PSoC5/Rear_Echo_Timer.c ****     /* Capture Data is now in the FIFO */
 311:.\Generated_Source\PSoC5/Rear_Echo_Timer.c **** }
 312:.\Generated_Source\PSoC5/Rear_Echo_Timer.c **** 
 313:.\Generated_Source\PSoC5/Rear_Echo_Timer.c **** 
 314:.\Generated_Source\PSoC5/Rear_Echo_Timer.c **** /*******************************************************************************
 315:.\Generated_Source\PSoC5/Rear_Echo_Timer.c **** * Function Name: Rear_Echo_Timer_ReadStatusRegister
 316:.\Generated_Source\PSoC5/Rear_Echo_Timer.c **** ********************************************************************************
 317:.\Generated_Source\PSoC5/Rear_Echo_Timer.c **** *
 318:.\Generated_Source\PSoC5/Rear_Echo_Timer.c **** * Summary:
 319:.\Generated_Source\PSoC5/Rear_Echo_Timer.c **** *  Reads the status register and returns it's state. This function should use
 320:.\Generated_Source\PSoC5/Rear_Echo_Timer.c **** *  defined types for the bit-field information as the bits in this register may
 321:.\Generated_Source\PSoC5/Rear_Echo_Timer.c **** *  be permuteable.
 322:.\Generated_Source\PSoC5/Rear_Echo_Timer.c **** *
 323:.\Generated_Source\PSoC5/Rear_Echo_Timer.c **** * Parameters:
 324:.\Generated_Source\PSoC5/Rear_Echo_Timer.c **** *  void
 325:.\Generated_Source\PSoC5/Rear_Echo_Timer.c **** *
 326:.\Generated_Source\PSoC5/Rear_Echo_Timer.c **** * Return:
 327:.\Generated_Source\PSoC5/Rear_Echo_Timer.c **** *  The contents of the status register
 328:.\Generated_Source\PSoC5/Rear_Echo_Timer.c **** *
 329:.\Generated_Source\PSoC5/Rear_Echo_Timer.c **** * Side Effects:
 330:.\Generated_Source\PSoC5/Rear_Echo_Timer.c **** *  Status register bits may be clear on read.
 331:.\Generated_Source\PSoC5/Rear_Echo_Timer.c **** *
 332:.\Generated_Source\PSoC5/Rear_Echo_Timer.c **** *******************************************************************************/
 333:.\Generated_Source\PSoC5/Rear_Echo_Timer.c **** uint8   Rear_Echo_Timer_ReadStatusRegister(void) 
 334:.\Generated_Source\PSoC5/Rear_Echo_Timer.c **** {
 110              		.loc 1 334 0
 111              		.cfi_startproc
 112              		@ args = 0, pretend = 0, frame = 0
 113              		@ frame_needed = 0, uses_anonymous_args = 0
 114              		@ link register save eliminated.
 335:.\Generated_Source\PSoC5/Rear_Echo_Timer.c ****     return (Rear_Echo_Timer_STATUS);
 115              		.loc 1 335 0
 116 0000 014B     		ldr	r3, .L10
 117 0002 1878     		ldrb	r0, [r3]	@ zero_extendqisi2
 336:.\Generated_Source\PSoC5/Rear_Echo_Timer.c **** }
 118              		.loc 1 336 0
 119 0004 7047     		bx	lr
 120              	.L11:
ARM GAS  C:\Users\tslator\AppData\Local\Temp\ccy9bisX.s 			page 9


 121 0006 00BF     		.align	2
 122              	.L10:
 123 0008 69650040 		.word	1073767785
 124              		.cfi_endproc
 125              	.LFE6:
 126              		.size	Rear_Echo_Timer_ReadStatusRegister, .-Rear_Echo_Timer_ReadStatusRegister
 127              		.section	.text.Rear_Echo_Timer_ReadPeriod,"ax",%progbits
 128              		.align	2
 129              		.global	Rear_Echo_Timer_ReadPeriod
 130              		.thumb
 131              		.thumb_func
 132              		.type	Rear_Echo_Timer_ReadPeriod, %function
 133              	Rear_Echo_Timer_ReadPeriod:
 134              	.LFB7:
 337:.\Generated_Source\PSoC5/Rear_Echo_Timer.c **** 
 338:.\Generated_Source\PSoC5/Rear_Echo_Timer.c **** 
 339:.\Generated_Source\PSoC5/Rear_Echo_Timer.c **** #if (!Rear_Echo_Timer_UDB_CONTROL_REG_REMOVED) /* Remove API if control register is unused */
 340:.\Generated_Source\PSoC5/Rear_Echo_Timer.c **** 
 341:.\Generated_Source\PSoC5/Rear_Echo_Timer.c **** 
 342:.\Generated_Source\PSoC5/Rear_Echo_Timer.c **** /*******************************************************************************
 343:.\Generated_Source\PSoC5/Rear_Echo_Timer.c **** * Function Name: Rear_Echo_Timer_ReadControlRegister
 344:.\Generated_Source\PSoC5/Rear_Echo_Timer.c **** ********************************************************************************
 345:.\Generated_Source\PSoC5/Rear_Echo_Timer.c **** *
 346:.\Generated_Source\PSoC5/Rear_Echo_Timer.c **** * Summary:
 347:.\Generated_Source\PSoC5/Rear_Echo_Timer.c **** *  Reads the control register and returns it's value.
 348:.\Generated_Source\PSoC5/Rear_Echo_Timer.c **** *
 349:.\Generated_Source\PSoC5/Rear_Echo_Timer.c **** * Parameters:
 350:.\Generated_Source\PSoC5/Rear_Echo_Timer.c **** *  void
 351:.\Generated_Source\PSoC5/Rear_Echo_Timer.c **** *
 352:.\Generated_Source\PSoC5/Rear_Echo_Timer.c **** * Return:
 353:.\Generated_Source\PSoC5/Rear_Echo_Timer.c **** *  The contents of the control register
 354:.\Generated_Source\PSoC5/Rear_Echo_Timer.c **** *
 355:.\Generated_Source\PSoC5/Rear_Echo_Timer.c **** *******************************************************************************/
 356:.\Generated_Source\PSoC5/Rear_Echo_Timer.c **** uint8 Rear_Echo_Timer_ReadControlRegister(void) 
 357:.\Generated_Source\PSoC5/Rear_Echo_Timer.c **** {
 358:.\Generated_Source\PSoC5/Rear_Echo_Timer.c ****     #if (!Rear_Echo_Timer_UDB_CONTROL_REG_REMOVED) 
 359:.\Generated_Source\PSoC5/Rear_Echo_Timer.c ****         return ((uint8)Rear_Echo_Timer_CONTROL);
 360:.\Generated_Source\PSoC5/Rear_Echo_Timer.c ****     #else
 361:.\Generated_Source\PSoC5/Rear_Echo_Timer.c ****         return (0);
 362:.\Generated_Source\PSoC5/Rear_Echo_Timer.c ****     #endif /* (!Rear_Echo_Timer_UDB_CONTROL_REG_REMOVED) */
 363:.\Generated_Source\PSoC5/Rear_Echo_Timer.c **** }
 364:.\Generated_Source\PSoC5/Rear_Echo_Timer.c **** 
 365:.\Generated_Source\PSoC5/Rear_Echo_Timer.c **** 
 366:.\Generated_Source\PSoC5/Rear_Echo_Timer.c **** /*******************************************************************************
 367:.\Generated_Source\PSoC5/Rear_Echo_Timer.c **** * Function Name: Rear_Echo_Timer_WriteControlRegister
 368:.\Generated_Source\PSoC5/Rear_Echo_Timer.c **** ********************************************************************************
 369:.\Generated_Source\PSoC5/Rear_Echo_Timer.c **** *
 370:.\Generated_Source\PSoC5/Rear_Echo_Timer.c **** * Summary:
 371:.\Generated_Source\PSoC5/Rear_Echo_Timer.c **** *  Sets the bit-field of the control register.
 372:.\Generated_Source\PSoC5/Rear_Echo_Timer.c **** *
 373:.\Generated_Source\PSoC5/Rear_Echo_Timer.c **** * Parameters:
 374:.\Generated_Source\PSoC5/Rear_Echo_Timer.c **** *  control: The contents of the control register
 375:.\Generated_Source\PSoC5/Rear_Echo_Timer.c **** *
 376:.\Generated_Source\PSoC5/Rear_Echo_Timer.c **** * Return:
 377:.\Generated_Source\PSoC5/Rear_Echo_Timer.c **** *
 378:.\Generated_Source\PSoC5/Rear_Echo_Timer.c **** *******************************************************************************/
 379:.\Generated_Source\PSoC5/Rear_Echo_Timer.c **** void Rear_Echo_Timer_WriteControlRegister(uint8 control) 
ARM GAS  C:\Users\tslator\AppData\Local\Temp\ccy9bisX.s 			page 10


 380:.\Generated_Source\PSoC5/Rear_Echo_Timer.c **** {
 381:.\Generated_Source\PSoC5/Rear_Echo_Timer.c ****     #if (!Rear_Echo_Timer_UDB_CONTROL_REG_REMOVED) 
 382:.\Generated_Source\PSoC5/Rear_Echo_Timer.c ****         Rear_Echo_Timer_CONTROL = control;
 383:.\Generated_Source\PSoC5/Rear_Echo_Timer.c ****     #else
 384:.\Generated_Source\PSoC5/Rear_Echo_Timer.c ****         control = 0u;
 385:.\Generated_Source\PSoC5/Rear_Echo_Timer.c ****     #endif /* (!Rear_Echo_Timer_UDB_CONTROL_REG_REMOVED) */
 386:.\Generated_Source\PSoC5/Rear_Echo_Timer.c **** }
 387:.\Generated_Source\PSoC5/Rear_Echo_Timer.c **** 
 388:.\Generated_Source\PSoC5/Rear_Echo_Timer.c **** #endif /* Remove API if control register is unused */
 389:.\Generated_Source\PSoC5/Rear_Echo_Timer.c **** 
 390:.\Generated_Source\PSoC5/Rear_Echo_Timer.c **** 
 391:.\Generated_Source\PSoC5/Rear_Echo_Timer.c **** /*******************************************************************************
 392:.\Generated_Source\PSoC5/Rear_Echo_Timer.c **** * Function Name: Rear_Echo_Timer_ReadPeriod
 393:.\Generated_Source\PSoC5/Rear_Echo_Timer.c **** ********************************************************************************
 394:.\Generated_Source\PSoC5/Rear_Echo_Timer.c **** *
 395:.\Generated_Source\PSoC5/Rear_Echo_Timer.c **** * Summary:
 396:.\Generated_Source\PSoC5/Rear_Echo_Timer.c **** *  This function returns the current value of the Period.
 397:.\Generated_Source\PSoC5/Rear_Echo_Timer.c **** *
 398:.\Generated_Source\PSoC5/Rear_Echo_Timer.c **** * Parameters:
 399:.\Generated_Source\PSoC5/Rear_Echo_Timer.c **** *  void
 400:.\Generated_Source\PSoC5/Rear_Echo_Timer.c **** *
 401:.\Generated_Source\PSoC5/Rear_Echo_Timer.c **** * Return:
 402:.\Generated_Source\PSoC5/Rear_Echo_Timer.c **** *  The present value of the counter.
 403:.\Generated_Source\PSoC5/Rear_Echo_Timer.c **** *
 404:.\Generated_Source\PSoC5/Rear_Echo_Timer.c **** *******************************************************************************/
 405:.\Generated_Source\PSoC5/Rear_Echo_Timer.c **** uint16 Rear_Echo_Timer_ReadPeriod(void) 
 406:.\Generated_Source\PSoC5/Rear_Echo_Timer.c **** {
 135              		.loc 1 406 0
 136              		.cfi_startproc
 137              		@ args = 0, pretend = 0, frame = 0
 138              		@ frame_needed = 0, uses_anonymous_args = 0
 139              		@ link register save eliminated.
 407:.\Generated_Source\PSoC5/Rear_Echo_Timer.c ****    #if(Rear_Echo_Timer_UsingFixedFunction)
 408:.\Generated_Source\PSoC5/Rear_Echo_Timer.c ****        return ((uint16)CY_GET_REG16(Rear_Echo_Timer_PERIOD_LSB_PTR));
 409:.\Generated_Source\PSoC5/Rear_Echo_Timer.c ****    #else
 410:.\Generated_Source\PSoC5/Rear_Echo_Timer.c ****        return (CY_GET_REG16(Rear_Echo_Timer_PERIOD_LSB_PTR));
 140              		.loc 1 410 0
 141 0000 014B     		ldr	r3, .L13
 142 0002 1888     		ldrh	r0, [r3]
 411:.\Generated_Source\PSoC5/Rear_Echo_Timer.c ****    #endif /* (Rear_Echo_Timer_UsingFixedFunction) */
 412:.\Generated_Source\PSoC5/Rear_Echo_Timer.c **** }
 143              		.loc 1 412 0
 144 0004 80B2     		uxth	r0, r0
 145 0006 7047     		bx	lr
 146              	.L14:
 147              		.align	2
 148              	.L13:
 149 0008 506A0040 		.word	1073769040
 150              		.cfi_endproc
 151              	.LFE7:
 152              		.size	Rear_Echo_Timer_ReadPeriod, .-Rear_Echo_Timer_ReadPeriod
 153              		.section	.text.Rear_Echo_Timer_WritePeriod,"ax",%progbits
 154              		.align	2
 155              		.global	Rear_Echo_Timer_WritePeriod
 156              		.thumb
 157              		.thumb_func
 158              		.type	Rear_Echo_Timer_WritePeriod, %function
ARM GAS  C:\Users\tslator\AppData\Local\Temp\ccy9bisX.s 			page 11


 159              	Rear_Echo_Timer_WritePeriod:
 160              	.LFB8:
 413:.\Generated_Source\PSoC5/Rear_Echo_Timer.c **** 
 414:.\Generated_Source\PSoC5/Rear_Echo_Timer.c **** 
 415:.\Generated_Source\PSoC5/Rear_Echo_Timer.c **** /*******************************************************************************
 416:.\Generated_Source\PSoC5/Rear_Echo_Timer.c **** * Function Name: Rear_Echo_Timer_WritePeriod
 417:.\Generated_Source\PSoC5/Rear_Echo_Timer.c **** ********************************************************************************
 418:.\Generated_Source\PSoC5/Rear_Echo_Timer.c **** *
 419:.\Generated_Source\PSoC5/Rear_Echo_Timer.c **** * Summary:
 420:.\Generated_Source\PSoC5/Rear_Echo_Timer.c **** *  This function is used to change the period of the counter.  The new period
 421:.\Generated_Source\PSoC5/Rear_Echo_Timer.c **** *  will be loaded the next time terminal count is detected.
 422:.\Generated_Source\PSoC5/Rear_Echo_Timer.c **** *
 423:.\Generated_Source\PSoC5/Rear_Echo_Timer.c **** * Parameters:
 424:.\Generated_Source\PSoC5/Rear_Echo_Timer.c **** *  period: This value may be between 1 and (2^Resolution)-1.  A value of 0 will
 425:.\Generated_Source\PSoC5/Rear_Echo_Timer.c **** *          result in the counter remaining at zero.
 426:.\Generated_Source\PSoC5/Rear_Echo_Timer.c **** *
 427:.\Generated_Source\PSoC5/Rear_Echo_Timer.c **** * Return:
 428:.\Generated_Source\PSoC5/Rear_Echo_Timer.c **** *  void
 429:.\Generated_Source\PSoC5/Rear_Echo_Timer.c **** *
 430:.\Generated_Source\PSoC5/Rear_Echo_Timer.c **** *******************************************************************************/
 431:.\Generated_Source\PSoC5/Rear_Echo_Timer.c **** void Rear_Echo_Timer_WritePeriod(uint16 period) 
 432:.\Generated_Source\PSoC5/Rear_Echo_Timer.c **** {
 161              		.loc 1 432 0
 162              		.cfi_startproc
 163              		@ args = 0, pretend = 0, frame = 0
 164              		@ frame_needed = 0, uses_anonymous_args = 0
 165              		@ link register save eliminated.
 166              	.LVL1:
 433:.\Generated_Source\PSoC5/Rear_Echo_Timer.c ****     #if(Rear_Echo_Timer_UsingFixedFunction)
 434:.\Generated_Source\PSoC5/Rear_Echo_Timer.c ****         uint16 period_temp = (uint16)period;
 435:.\Generated_Source\PSoC5/Rear_Echo_Timer.c ****         CY_SET_REG16(Rear_Echo_Timer_PERIOD_LSB_PTR, period_temp);
 436:.\Generated_Source\PSoC5/Rear_Echo_Timer.c ****     #else
 437:.\Generated_Source\PSoC5/Rear_Echo_Timer.c ****         CY_SET_REG16(Rear_Echo_Timer_PERIOD_LSB_PTR, period);
 167              		.loc 1 437 0
 168 0000 014B     		ldr	r3, .L16
 169 0002 1880     		strh	r0, [r3]	@ movhi
 170 0004 7047     		bx	lr
 171              	.L17:
 172 0006 00BF     		.align	2
 173              	.L16:
 174 0008 506A0040 		.word	1073769040
 175              		.cfi_endproc
 176              	.LFE8:
 177              		.size	Rear_Echo_Timer_WritePeriod, .-Rear_Echo_Timer_WritePeriod
 178              		.section	.text.Rear_Echo_Timer_ReadCapture,"ax",%progbits
 179              		.align	2
 180              		.global	Rear_Echo_Timer_ReadCapture
 181              		.thumb
 182              		.thumb_func
 183              		.type	Rear_Echo_Timer_ReadCapture, %function
 184              	Rear_Echo_Timer_ReadCapture:
 185              	.LFB9:
 438:.\Generated_Source\PSoC5/Rear_Echo_Timer.c ****     #endif /*Write Period value with appropriate resolution suffix depending on UDB or fixed functi
 439:.\Generated_Source\PSoC5/Rear_Echo_Timer.c **** }
 440:.\Generated_Source\PSoC5/Rear_Echo_Timer.c **** 
 441:.\Generated_Source\PSoC5/Rear_Echo_Timer.c **** 
 442:.\Generated_Source\PSoC5/Rear_Echo_Timer.c **** /*******************************************************************************
ARM GAS  C:\Users\tslator\AppData\Local\Temp\ccy9bisX.s 			page 12


 443:.\Generated_Source\PSoC5/Rear_Echo_Timer.c **** * Function Name: Rear_Echo_Timer_ReadCapture
 444:.\Generated_Source\PSoC5/Rear_Echo_Timer.c **** ********************************************************************************
 445:.\Generated_Source\PSoC5/Rear_Echo_Timer.c **** *
 446:.\Generated_Source\PSoC5/Rear_Echo_Timer.c **** * Summary:
 447:.\Generated_Source\PSoC5/Rear_Echo_Timer.c **** *  This function returns the last value captured.
 448:.\Generated_Source\PSoC5/Rear_Echo_Timer.c **** *
 449:.\Generated_Source\PSoC5/Rear_Echo_Timer.c **** * Parameters:
 450:.\Generated_Source\PSoC5/Rear_Echo_Timer.c **** *  void
 451:.\Generated_Source\PSoC5/Rear_Echo_Timer.c **** *
 452:.\Generated_Source\PSoC5/Rear_Echo_Timer.c **** * Return:
 453:.\Generated_Source\PSoC5/Rear_Echo_Timer.c **** *  Present Capture value.
 454:.\Generated_Source\PSoC5/Rear_Echo_Timer.c **** *
 455:.\Generated_Source\PSoC5/Rear_Echo_Timer.c **** *******************************************************************************/
 456:.\Generated_Source\PSoC5/Rear_Echo_Timer.c **** uint16 Rear_Echo_Timer_ReadCapture(void) 
 457:.\Generated_Source\PSoC5/Rear_Echo_Timer.c **** {
 186              		.loc 1 457 0
 187              		.cfi_startproc
 188              		@ args = 0, pretend = 0, frame = 0
 189              		@ frame_needed = 0, uses_anonymous_args = 0
 190              		@ link register save eliminated.
 458:.\Generated_Source\PSoC5/Rear_Echo_Timer.c ****    #if(Rear_Echo_Timer_UsingFixedFunction)
 459:.\Generated_Source\PSoC5/Rear_Echo_Timer.c ****        return ((uint16)CY_GET_REG16(Rear_Echo_Timer_CAPTURE_LSB_PTR));
 460:.\Generated_Source\PSoC5/Rear_Echo_Timer.c ****    #else
 461:.\Generated_Source\PSoC5/Rear_Echo_Timer.c ****        return (CY_GET_REG16(Rear_Echo_Timer_CAPTURE_LSB_PTR));
 191              		.loc 1 461 0
 192 0000 014B     		ldr	r3, .L19
 193 0002 1888     		ldrh	r0, [r3]
 462:.\Generated_Source\PSoC5/Rear_Echo_Timer.c ****    #endif /* (Rear_Echo_Timer_UsingFixedFunction) */
 463:.\Generated_Source\PSoC5/Rear_Echo_Timer.c **** }
 194              		.loc 1 463 0
 195 0004 80B2     		uxth	r0, r0
 196 0006 7047     		bx	lr
 197              	.L20:
 198              		.align	2
 199              	.L19:
 200 0008 906A0040 		.word	1073769104
 201              		.cfi_endproc
 202              	.LFE9:
 203              		.size	Rear_Echo_Timer_ReadCapture, .-Rear_Echo_Timer_ReadCapture
 204              		.section	.text.Rear_Echo_Timer_WriteCounter,"ax",%progbits
 205              		.align	2
 206              		.global	Rear_Echo_Timer_WriteCounter
 207              		.thumb
 208              		.thumb_func
 209              		.type	Rear_Echo_Timer_WriteCounter, %function
 210              	Rear_Echo_Timer_WriteCounter:
 211              	.LFB10:
 464:.\Generated_Source\PSoC5/Rear_Echo_Timer.c **** 
 465:.\Generated_Source\PSoC5/Rear_Echo_Timer.c **** 
 466:.\Generated_Source\PSoC5/Rear_Echo_Timer.c **** /*******************************************************************************
 467:.\Generated_Source\PSoC5/Rear_Echo_Timer.c **** * Function Name: Rear_Echo_Timer_WriteCounter
 468:.\Generated_Source\PSoC5/Rear_Echo_Timer.c **** ********************************************************************************
 469:.\Generated_Source\PSoC5/Rear_Echo_Timer.c **** *
 470:.\Generated_Source\PSoC5/Rear_Echo_Timer.c **** * Summary:
 471:.\Generated_Source\PSoC5/Rear_Echo_Timer.c **** *  This funtion is used to set the counter to a specific value
 472:.\Generated_Source\PSoC5/Rear_Echo_Timer.c **** *
 473:.\Generated_Source\PSoC5/Rear_Echo_Timer.c **** * Parameters:
ARM GAS  C:\Users\tslator\AppData\Local\Temp\ccy9bisX.s 			page 13


 474:.\Generated_Source\PSoC5/Rear_Echo_Timer.c **** *  counter:  New counter value.
 475:.\Generated_Source\PSoC5/Rear_Echo_Timer.c **** *
 476:.\Generated_Source\PSoC5/Rear_Echo_Timer.c **** * Return:
 477:.\Generated_Source\PSoC5/Rear_Echo_Timer.c **** *  void
 478:.\Generated_Source\PSoC5/Rear_Echo_Timer.c **** *
 479:.\Generated_Source\PSoC5/Rear_Echo_Timer.c **** *******************************************************************************/
 480:.\Generated_Source\PSoC5/Rear_Echo_Timer.c **** void Rear_Echo_Timer_WriteCounter(uint16 counter) 
 481:.\Generated_Source\PSoC5/Rear_Echo_Timer.c **** {
 212              		.loc 1 481 0
 213              		.cfi_startproc
 214              		@ args = 0, pretend = 0, frame = 0
 215              		@ frame_needed = 0, uses_anonymous_args = 0
 216              		@ link register save eliminated.
 217              	.LVL2:
 482:.\Generated_Source\PSoC5/Rear_Echo_Timer.c ****    #if(Rear_Echo_Timer_UsingFixedFunction)
 483:.\Generated_Source\PSoC5/Rear_Echo_Timer.c ****         /* This functionality is removed until a FixedFunction HW update to
 484:.\Generated_Source\PSoC5/Rear_Echo_Timer.c ****          * allow this register to be written
 485:.\Generated_Source\PSoC5/Rear_Echo_Timer.c ****          */
 486:.\Generated_Source\PSoC5/Rear_Echo_Timer.c ****         CY_SET_REG16(Rear_Echo_Timer_COUNTER_LSB_PTR, (uint16)counter);
 487:.\Generated_Source\PSoC5/Rear_Echo_Timer.c ****         
 488:.\Generated_Source\PSoC5/Rear_Echo_Timer.c ****     #else
 489:.\Generated_Source\PSoC5/Rear_Echo_Timer.c ****         CY_SET_REG16(Rear_Echo_Timer_COUNTER_LSB_PTR, counter);
 218              		.loc 1 489 0
 219 0000 014B     		ldr	r3, .L22
 220 0002 1880     		strh	r0, [r3]	@ movhi
 221 0004 7047     		bx	lr
 222              	.L23:
 223 0006 00BF     		.align	2
 224              	.L22:
 225 0008 106A0040 		.word	1073768976
 226              		.cfi_endproc
 227              	.LFE10:
 228              		.size	Rear_Echo_Timer_WriteCounter, .-Rear_Echo_Timer_WriteCounter
 229              		.section	.text.Rear_Echo_Timer_ReadCounter,"ax",%progbits
 230              		.align	2
 231              		.global	Rear_Echo_Timer_ReadCounter
 232              		.thumb
 233              		.thumb_func
 234              		.type	Rear_Echo_Timer_ReadCounter, %function
 235              	Rear_Echo_Timer_ReadCounter:
 236              	.LFB11:
 490:.\Generated_Source\PSoC5/Rear_Echo_Timer.c ****     #endif /* Set Write Counter only for the UDB implementation (Write Counter not available in fix
 491:.\Generated_Source\PSoC5/Rear_Echo_Timer.c **** }
 492:.\Generated_Source\PSoC5/Rear_Echo_Timer.c **** 
 493:.\Generated_Source\PSoC5/Rear_Echo_Timer.c **** 
 494:.\Generated_Source\PSoC5/Rear_Echo_Timer.c **** /*******************************************************************************
 495:.\Generated_Source\PSoC5/Rear_Echo_Timer.c **** * Function Name: Rear_Echo_Timer_ReadCounter
 496:.\Generated_Source\PSoC5/Rear_Echo_Timer.c **** ********************************************************************************
 497:.\Generated_Source\PSoC5/Rear_Echo_Timer.c **** *
 498:.\Generated_Source\PSoC5/Rear_Echo_Timer.c **** * Summary:
 499:.\Generated_Source\PSoC5/Rear_Echo_Timer.c **** *  This function returns the current counter value.
 500:.\Generated_Source\PSoC5/Rear_Echo_Timer.c **** *
 501:.\Generated_Source\PSoC5/Rear_Echo_Timer.c **** * Parameters:
 502:.\Generated_Source\PSoC5/Rear_Echo_Timer.c **** *  void
 503:.\Generated_Source\PSoC5/Rear_Echo_Timer.c **** *
 504:.\Generated_Source\PSoC5/Rear_Echo_Timer.c **** * Return:
 505:.\Generated_Source\PSoC5/Rear_Echo_Timer.c **** *  Present compare value.
ARM GAS  C:\Users\tslator\AppData\Local\Temp\ccy9bisX.s 			page 14


 506:.\Generated_Source\PSoC5/Rear_Echo_Timer.c **** *
 507:.\Generated_Source\PSoC5/Rear_Echo_Timer.c **** *******************************************************************************/
 508:.\Generated_Source\PSoC5/Rear_Echo_Timer.c **** uint16 Rear_Echo_Timer_ReadCounter(void) 
 509:.\Generated_Source\PSoC5/Rear_Echo_Timer.c **** {
 237              		.loc 1 509 0
 238              		.cfi_startproc
 239              		@ args = 0, pretend = 0, frame = 0
 240              		@ frame_needed = 0, uses_anonymous_args = 0
 241              		@ link register save eliminated.
 510:.\Generated_Source\PSoC5/Rear_Echo_Timer.c ****     /* Force capture by reading Accumulator */
 511:.\Generated_Source\PSoC5/Rear_Echo_Timer.c ****     /* Must first do a software capture to be able to read the counter */
 512:.\Generated_Source\PSoC5/Rear_Echo_Timer.c ****     /* It is up to the user code to make sure there isn't already captured data in the FIFO */
 513:.\Generated_Source\PSoC5/Rear_Echo_Timer.c ****     #if(Rear_Echo_Timer_UsingFixedFunction)
 514:.\Generated_Source\PSoC5/Rear_Echo_Timer.c ****         (void)CY_GET_REG16(Rear_Echo_Timer_COUNTER_LSB_PTR);
 515:.\Generated_Source\PSoC5/Rear_Echo_Timer.c ****     #else
 516:.\Generated_Source\PSoC5/Rear_Echo_Timer.c ****         (void)CY_GET_REG8(Rear_Echo_Timer_COUNTER_LSB_PTR_8BIT);
 242              		.loc 1 516 0
 243 0000 024B     		ldr	r3, .L25
 244 0002 1B78     		ldrb	r3, [r3]	@ zero_extendqisi2
 517:.\Generated_Source\PSoC5/Rear_Echo_Timer.c ****     #endif/* (Rear_Echo_Timer_UsingFixedFunction) */
 518:.\Generated_Source\PSoC5/Rear_Echo_Timer.c **** 
 519:.\Generated_Source\PSoC5/Rear_Echo_Timer.c ****     /* Read the data from the FIFO (or capture register for Fixed Function)*/
 520:.\Generated_Source\PSoC5/Rear_Echo_Timer.c ****     #if(Rear_Echo_Timer_UsingFixedFunction)
 521:.\Generated_Source\PSoC5/Rear_Echo_Timer.c ****         return ((uint16)CY_GET_REG16(Rear_Echo_Timer_CAPTURE_LSB_PTR));
 522:.\Generated_Source\PSoC5/Rear_Echo_Timer.c ****     #else
 523:.\Generated_Source\PSoC5/Rear_Echo_Timer.c ****         return (CY_GET_REG16(Rear_Echo_Timer_CAPTURE_LSB_PTR));
 245              		.loc 1 523 0
 246 0004 024B     		ldr	r3, .L25+4
 247 0006 1888     		ldrh	r0, [r3]
 524:.\Generated_Source\PSoC5/Rear_Echo_Timer.c ****     #endif /* (Rear_Echo_Timer_UsingFixedFunction) */
 525:.\Generated_Source\PSoC5/Rear_Echo_Timer.c **** }
 248              		.loc 1 525 0
 249 0008 80B2     		uxth	r0, r0
 250 000a 7047     		bx	lr
 251              	.L26:
 252              		.align	2
 253              	.L25:
 254 000c 08650040 		.word	1073767688
 255 0010 906A0040 		.word	1073769104
 256              		.cfi_endproc
 257              	.LFE11:
 258              		.size	Rear_Echo_Timer_ReadCounter, .-Rear_Echo_Timer_ReadCounter
 259              		.section	.text.Rear_Echo_Timer_EnableTrigger,"ax",%progbits
 260              		.align	2
 261              		.global	Rear_Echo_Timer_EnableTrigger
 262              		.thumb
 263              		.thumb_func
 264              		.type	Rear_Echo_Timer_EnableTrigger, %function
 265              	Rear_Echo_Timer_EnableTrigger:
 266              	.LFB12:
 526:.\Generated_Source\PSoC5/Rear_Echo_Timer.c **** 
 527:.\Generated_Source\PSoC5/Rear_Echo_Timer.c **** 
 528:.\Generated_Source\PSoC5/Rear_Echo_Timer.c **** #if(!Rear_Echo_Timer_UsingFixedFunction) /* UDB Specific Functions */
 529:.\Generated_Source\PSoC5/Rear_Echo_Timer.c **** 
 530:.\Generated_Source\PSoC5/Rear_Echo_Timer.c ****     
 531:.\Generated_Source\PSoC5/Rear_Echo_Timer.c **** /*******************************************************************************
 532:.\Generated_Source\PSoC5/Rear_Echo_Timer.c ****  * The functions below this point are only available using the UDB
ARM GAS  C:\Users\tslator\AppData\Local\Temp\ccy9bisX.s 			page 15


 533:.\Generated_Source\PSoC5/Rear_Echo_Timer.c ****  * implementation.  If a feature is selected, then the API is enabled.
 534:.\Generated_Source\PSoC5/Rear_Echo_Timer.c ****  ******************************************************************************/
 535:.\Generated_Source\PSoC5/Rear_Echo_Timer.c **** 
 536:.\Generated_Source\PSoC5/Rear_Echo_Timer.c **** 
 537:.\Generated_Source\PSoC5/Rear_Echo_Timer.c **** #if (Rear_Echo_Timer_SoftwareCaptureMode)
 538:.\Generated_Source\PSoC5/Rear_Echo_Timer.c **** 
 539:.\Generated_Source\PSoC5/Rear_Echo_Timer.c **** 
 540:.\Generated_Source\PSoC5/Rear_Echo_Timer.c **** /*******************************************************************************
 541:.\Generated_Source\PSoC5/Rear_Echo_Timer.c **** * Function Name: Rear_Echo_Timer_SetCaptureMode
 542:.\Generated_Source\PSoC5/Rear_Echo_Timer.c **** ********************************************************************************
 543:.\Generated_Source\PSoC5/Rear_Echo_Timer.c **** *
 544:.\Generated_Source\PSoC5/Rear_Echo_Timer.c **** * Summary:
 545:.\Generated_Source\PSoC5/Rear_Echo_Timer.c **** *  This function sets the capture mode to either rising or falling edge.
 546:.\Generated_Source\PSoC5/Rear_Echo_Timer.c **** *
 547:.\Generated_Source\PSoC5/Rear_Echo_Timer.c **** * Parameters:
 548:.\Generated_Source\PSoC5/Rear_Echo_Timer.c **** *  captureMode: This parameter sets the capture mode of the UDB capture feature
 549:.\Generated_Source\PSoC5/Rear_Echo_Timer.c **** *  The parameter values are defined using the
 550:.\Generated_Source\PSoC5/Rear_Echo_Timer.c **** *  #define Rear_Echo_Timer__B_TIMER__CM_NONE 0
 551:.\Generated_Source\PSoC5/Rear_Echo_Timer.c **** #define Rear_Echo_Timer__B_TIMER__CM_RISINGEDGE 1
 552:.\Generated_Source\PSoC5/Rear_Echo_Timer.c **** #define Rear_Echo_Timer__B_TIMER__CM_FALLINGEDGE 2
 553:.\Generated_Source\PSoC5/Rear_Echo_Timer.c **** #define Rear_Echo_Timer__B_TIMER__CM_EITHEREDGE 3
 554:.\Generated_Source\PSoC5/Rear_Echo_Timer.c **** #define Rear_Echo_Timer__B_TIMER__CM_SOFTWARE 4
 555:.\Generated_Source\PSoC5/Rear_Echo_Timer.c ****  identifiers
 556:.\Generated_Source\PSoC5/Rear_Echo_Timer.c **** *  The following are the possible values of the parameter
 557:.\Generated_Source\PSoC5/Rear_Echo_Timer.c **** *  Rear_Echo_Timer__B_TIMER__CM_NONE        - Set Capture mode to None
 558:.\Generated_Source\PSoC5/Rear_Echo_Timer.c **** *  Rear_Echo_Timer__B_TIMER__CM_RISINGEDGE  - Rising edge of Capture input
 559:.\Generated_Source\PSoC5/Rear_Echo_Timer.c **** *  Rear_Echo_Timer__B_TIMER__CM_FALLINGEDGE - Falling edge of Capture input
 560:.\Generated_Source\PSoC5/Rear_Echo_Timer.c **** *  Rear_Echo_Timer__B_TIMER__CM_EITHEREDGE  - Either edge of Capture input
 561:.\Generated_Source\PSoC5/Rear_Echo_Timer.c **** *
 562:.\Generated_Source\PSoC5/Rear_Echo_Timer.c **** * Return:
 563:.\Generated_Source\PSoC5/Rear_Echo_Timer.c **** *  void
 564:.\Generated_Source\PSoC5/Rear_Echo_Timer.c **** *
 565:.\Generated_Source\PSoC5/Rear_Echo_Timer.c **** *******************************************************************************/
 566:.\Generated_Source\PSoC5/Rear_Echo_Timer.c **** void Rear_Echo_Timer_SetCaptureMode(uint8 captureMode) 
 567:.\Generated_Source\PSoC5/Rear_Echo_Timer.c **** {
 568:.\Generated_Source\PSoC5/Rear_Echo_Timer.c ****     /* This must only set to two bits of the control register associated */
 569:.\Generated_Source\PSoC5/Rear_Echo_Timer.c ****     captureMode = ((uint8)((uint8)captureMode << Rear_Echo_Timer_CTRL_CAP_MODE_SHIFT));
 570:.\Generated_Source\PSoC5/Rear_Echo_Timer.c ****     captureMode &= (Rear_Echo_Timer_CTRL_CAP_MODE_MASK);
 571:.\Generated_Source\PSoC5/Rear_Echo_Timer.c **** 
 572:.\Generated_Source\PSoC5/Rear_Echo_Timer.c ****     #if (!Rear_Echo_Timer_UDB_CONTROL_REG_REMOVED)
 573:.\Generated_Source\PSoC5/Rear_Echo_Timer.c ****         /* Clear the Current Setting */
 574:.\Generated_Source\PSoC5/Rear_Echo_Timer.c ****         Rear_Echo_Timer_CONTROL &= ((uint8)(~Rear_Echo_Timer_CTRL_CAP_MODE_MASK));
 575:.\Generated_Source\PSoC5/Rear_Echo_Timer.c **** 
 576:.\Generated_Source\PSoC5/Rear_Echo_Timer.c ****         /* Write The New Setting */
 577:.\Generated_Source\PSoC5/Rear_Echo_Timer.c ****         Rear_Echo_Timer_CONTROL |= captureMode;
 578:.\Generated_Source\PSoC5/Rear_Echo_Timer.c ****     #endif /* (!Rear_Echo_Timer_UDB_CONTROL_REG_REMOVED) */
 579:.\Generated_Source\PSoC5/Rear_Echo_Timer.c **** }
 580:.\Generated_Source\PSoC5/Rear_Echo_Timer.c **** #endif /* Remove API if Capture Mode is not Software Controlled */
 581:.\Generated_Source\PSoC5/Rear_Echo_Timer.c **** 
 582:.\Generated_Source\PSoC5/Rear_Echo_Timer.c **** 
 583:.\Generated_Source\PSoC5/Rear_Echo_Timer.c **** #if (Rear_Echo_Timer_SoftwareTriggerMode)
 584:.\Generated_Source\PSoC5/Rear_Echo_Timer.c **** 
 585:.\Generated_Source\PSoC5/Rear_Echo_Timer.c **** 
 586:.\Generated_Source\PSoC5/Rear_Echo_Timer.c **** /*******************************************************************************
 587:.\Generated_Source\PSoC5/Rear_Echo_Timer.c **** * Function Name: Rear_Echo_Timer_SetTriggerMode
 588:.\Generated_Source\PSoC5/Rear_Echo_Timer.c **** ********************************************************************************
 589:.\Generated_Source\PSoC5/Rear_Echo_Timer.c **** *
ARM GAS  C:\Users\tslator\AppData\Local\Temp\ccy9bisX.s 			page 16


 590:.\Generated_Source\PSoC5/Rear_Echo_Timer.c **** * Summary:
 591:.\Generated_Source\PSoC5/Rear_Echo_Timer.c **** *  This function sets the trigger input mode
 592:.\Generated_Source\PSoC5/Rear_Echo_Timer.c **** *
 593:.\Generated_Source\PSoC5/Rear_Echo_Timer.c **** * Parameters:
 594:.\Generated_Source\PSoC5/Rear_Echo_Timer.c **** *  triggerMode: Pass one of the pre-defined Trigger Modes (except Software)
 595:.\Generated_Source\PSoC5/Rear_Echo_Timer.c ****     #define Rear_Echo_Timer__B_TIMER__TM_NONE 0x00u
 596:.\Generated_Source\PSoC5/Rear_Echo_Timer.c ****     #define Rear_Echo_Timer__B_TIMER__TM_RISINGEDGE 0x04u
 597:.\Generated_Source\PSoC5/Rear_Echo_Timer.c ****     #define Rear_Echo_Timer__B_TIMER__TM_FALLINGEDGE 0x08u
 598:.\Generated_Source\PSoC5/Rear_Echo_Timer.c ****     #define Rear_Echo_Timer__B_TIMER__TM_EITHEREDGE 0x0Cu
 599:.\Generated_Source\PSoC5/Rear_Echo_Timer.c ****     #define Rear_Echo_Timer__B_TIMER__TM_SOFTWARE 0x10u
 600:.\Generated_Source\PSoC5/Rear_Echo_Timer.c **** *
 601:.\Generated_Source\PSoC5/Rear_Echo_Timer.c **** * Return:
 602:.\Generated_Source\PSoC5/Rear_Echo_Timer.c **** *  void
 603:.\Generated_Source\PSoC5/Rear_Echo_Timer.c **** *
 604:.\Generated_Source\PSoC5/Rear_Echo_Timer.c **** *******************************************************************************/
 605:.\Generated_Source\PSoC5/Rear_Echo_Timer.c **** void Rear_Echo_Timer_SetTriggerMode(uint8 triggerMode) 
 606:.\Generated_Source\PSoC5/Rear_Echo_Timer.c **** {
 607:.\Generated_Source\PSoC5/Rear_Echo_Timer.c ****     /* This must only set to two bits of the control register associated */
 608:.\Generated_Source\PSoC5/Rear_Echo_Timer.c ****     triggerMode &= Rear_Echo_Timer_CTRL_TRIG_MODE_MASK;
 609:.\Generated_Source\PSoC5/Rear_Echo_Timer.c **** 
 610:.\Generated_Source\PSoC5/Rear_Echo_Timer.c ****     #if (!Rear_Echo_Timer_UDB_CONTROL_REG_REMOVED)   /* Remove assignment if control register is re
 611:.\Generated_Source\PSoC5/Rear_Echo_Timer.c ****     
 612:.\Generated_Source\PSoC5/Rear_Echo_Timer.c ****         /* Clear the Current Setting */
 613:.\Generated_Source\PSoC5/Rear_Echo_Timer.c ****         Rear_Echo_Timer_CONTROL &= ((uint8)(~Rear_Echo_Timer_CTRL_TRIG_MODE_MASK));
 614:.\Generated_Source\PSoC5/Rear_Echo_Timer.c **** 
 615:.\Generated_Source\PSoC5/Rear_Echo_Timer.c ****         /* Write The New Setting */
 616:.\Generated_Source\PSoC5/Rear_Echo_Timer.c ****         Rear_Echo_Timer_CONTROL |= (triggerMode | Rear_Echo_Timer__B_TIMER__TM_SOFTWARE);
 617:.\Generated_Source\PSoC5/Rear_Echo_Timer.c ****     #endif /* Remove code section if control register is not used */
 618:.\Generated_Source\PSoC5/Rear_Echo_Timer.c **** }
 619:.\Generated_Source\PSoC5/Rear_Echo_Timer.c **** #endif /* Remove API if Trigger Mode is not Software Controlled */
 620:.\Generated_Source\PSoC5/Rear_Echo_Timer.c **** 
 621:.\Generated_Source\PSoC5/Rear_Echo_Timer.c **** #if (Rear_Echo_Timer_EnableTriggerMode)
 622:.\Generated_Source\PSoC5/Rear_Echo_Timer.c **** 
 623:.\Generated_Source\PSoC5/Rear_Echo_Timer.c **** 
 624:.\Generated_Source\PSoC5/Rear_Echo_Timer.c **** /*******************************************************************************
 625:.\Generated_Source\PSoC5/Rear_Echo_Timer.c **** * Function Name: Rear_Echo_Timer_EnableTrigger
 626:.\Generated_Source\PSoC5/Rear_Echo_Timer.c **** ********************************************************************************
 627:.\Generated_Source\PSoC5/Rear_Echo_Timer.c **** *
 628:.\Generated_Source\PSoC5/Rear_Echo_Timer.c **** * Summary:
 629:.\Generated_Source\PSoC5/Rear_Echo_Timer.c **** *  Sets the control bit enabling Hardware Trigger mode
 630:.\Generated_Source\PSoC5/Rear_Echo_Timer.c **** *
 631:.\Generated_Source\PSoC5/Rear_Echo_Timer.c **** * Parameters:
 632:.\Generated_Source\PSoC5/Rear_Echo_Timer.c **** *  void
 633:.\Generated_Source\PSoC5/Rear_Echo_Timer.c **** *
 634:.\Generated_Source\PSoC5/Rear_Echo_Timer.c **** * Return:
 635:.\Generated_Source\PSoC5/Rear_Echo_Timer.c **** *  void
 636:.\Generated_Source\PSoC5/Rear_Echo_Timer.c **** *
 637:.\Generated_Source\PSoC5/Rear_Echo_Timer.c **** *******************************************************************************/
 638:.\Generated_Source\PSoC5/Rear_Echo_Timer.c **** void Rear_Echo_Timer_EnableTrigger(void) 
 639:.\Generated_Source\PSoC5/Rear_Echo_Timer.c **** {
 267              		.loc 1 639 0
 268              		.cfi_startproc
 269              		@ args = 0, pretend = 0, frame = 0
 270              		@ frame_needed = 0, uses_anonymous_args = 0
 271              		@ link register save eliminated.
 272 0000 7047     		bx	lr
 273              		.cfi_endproc
ARM GAS  C:\Users\tslator\AppData\Local\Temp\ccy9bisX.s 			page 17


 274              	.LFE12:
 275              		.size	Rear_Echo_Timer_EnableTrigger, .-Rear_Echo_Timer_EnableTrigger
 276 0002 00BF     		.section	.text.Rear_Echo_Timer_DisableTrigger,"ax",%progbits
 277              		.align	2
 278              		.global	Rear_Echo_Timer_DisableTrigger
 279              		.thumb
 280              		.thumb_func
 281              		.type	Rear_Echo_Timer_DisableTrigger, %function
 282              	Rear_Echo_Timer_DisableTrigger:
 283              	.LFB13:
 640:.\Generated_Source\PSoC5/Rear_Echo_Timer.c ****     #if (!Rear_Echo_Timer_UDB_CONTROL_REG_REMOVED)   /* Remove assignment if control register is re
 641:.\Generated_Source\PSoC5/Rear_Echo_Timer.c ****         Rear_Echo_Timer_CONTROL |= Rear_Echo_Timer_CTRL_TRIG_EN;
 642:.\Generated_Source\PSoC5/Rear_Echo_Timer.c ****     #endif /* Remove code section if control register is not used */
 643:.\Generated_Source\PSoC5/Rear_Echo_Timer.c **** }
 644:.\Generated_Source\PSoC5/Rear_Echo_Timer.c **** 
 645:.\Generated_Source\PSoC5/Rear_Echo_Timer.c **** 
 646:.\Generated_Source\PSoC5/Rear_Echo_Timer.c **** /*******************************************************************************
 647:.\Generated_Source\PSoC5/Rear_Echo_Timer.c **** * Function Name: Rear_Echo_Timer_DisableTrigger
 648:.\Generated_Source\PSoC5/Rear_Echo_Timer.c **** ********************************************************************************
 649:.\Generated_Source\PSoC5/Rear_Echo_Timer.c **** *
 650:.\Generated_Source\PSoC5/Rear_Echo_Timer.c **** * Summary:
 651:.\Generated_Source\PSoC5/Rear_Echo_Timer.c **** *  Clears the control bit enabling Hardware Trigger mode
 652:.\Generated_Source\PSoC5/Rear_Echo_Timer.c **** *
 653:.\Generated_Source\PSoC5/Rear_Echo_Timer.c **** * Parameters:
 654:.\Generated_Source\PSoC5/Rear_Echo_Timer.c **** *  void
 655:.\Generated_Source\PSoC5/Rear_Echo_Timer.c **** *
 656:.\Generated_Source\PSoC5/Rear_Echo_Timer.c **** * Return:
 657:.\Generated_Source\PSoC5/Rear_Echo_Timer.c **** *  void
 658:.\Generated_Source\PSoC5/Rear_Echo_Timer.c **** *
 659:.\Generated_Source\PSoC5/Rear_Echo_Timer.c **** *******************************************************************************/
 660:.\Generated_Source\PSoC5/Rear_Echo_Timer.c **** void Rear_Echo_Timer_DisableTrigger(void) 
 661:.\Generated_Source\PSoC5/Rear_Echo_Timer.c **** {
 284              		.loc 1 661 0
 285              		.cfi_startproc
 286              		@ args = 0, pretend = 0, frame = 0
 287              		@ frame_needed = 0, uses_anonymous_args = 0
 288              		@ link register save eliminated.
 289 0000 7047     		bx	lr
 290              		.cfi_endproc
 291              	.LFE13:
 292              		.size	Rear_Echo_Timer_DisableTrigger, .-Rear_Echo_Timer_DisableTrigger
 293 0002 00BF     		.section	.text.Rear_Echo_Timer_SetInterruptCount,"ax",%progbits
 294              		.align	2
 295              		.global	Rear_Echo_Timer_SetInterruptCount
 296              		.thumb
 297              		.thumb_func
 298              		.type	Rear_Echo_Timer_SetInterruptCount, %function
 299              	Rear_Echo_Timer_SetInterruptCount:
 300              	.LFB14:
 662:.\Generated_Source\PSoC5/Rear_Echo_Timer.c ****     #if (!Rear_Echo_Timer_UDB_CONTROL_REG_REMOVED )   /* Remove assignment if control register is r
 663:.\Generated_Source\PSoC5/Rear_Echo_Timer.c ****         Rear_Echo_Timer_CONTROL &= ((uint8)(~Rear_Echo_Timer_CTRL_TRIG_EN));
 664:.\Generated_Source\PSoC5/Rear_Echo_Timer.c ****     #endif /* Remove code section if control register is not used */
 665:.\Generated_Source\PSoC5/Rear_Echo_Timer.c **** }
 666:.\Generated_Source\PSoC5/Rear_Echo_Timer.c **** #endif /* Remove API is Trigger Mode is set to None */
 667:.\Generated_Source\PSoC5/Rear_Echo_Timer.c **** 
 668:.\Generated_Source\PSoC5/Rear_Echo_Timer.c **** #if(Rear_Echo_Timer_InterruptOnCaptureCount)
 669:.\Generated_Source\PSoC5/Rear_Echo_Timer.c **** 
ARM GAS  C:\Users\tslator\AppData\Local\Temp\ccy9bisX.s 			page 18


 670:.\Generated_Source\PSoC5/Rear_Echo_Timer.c **** 
 671:.\Generated_Source\PSoC5/Rear_Echo_Timer.c **** /*******************************************************************************
 672:.\Generated_Source\PSoC5/Rear_Echo_Timer.c **** * Function Name: Rear_Echo_Timer_SetInterruptCount
 673:.\Generated_Source\PSoC5/Rear_Echo_Timer.c **** ********************************************************************************
 674:.\Generated_Source\PSoC5/Rear_Echo_Timer.c **** *
 675:.\Generated_Source\PSoC5/Rear_Echo_Timer.c **** * Summary:
 676:.\Generated_Source\PSoC5/Rear_Echo_Timer.c **** *  This function sets the capture count before an interrupt is triggered.
 677:.\Generated_Source\PSoC5/Rear_Echo_Timer.c **** *
 678:.\Generated_Source\PSoC5/Rear_Echo_Timer.c **** * Parameters:
 679:.\Generated_Source\PSoC5/Rear_Echo_Timer.c **** *  interruptCount:  A value between 0 and 3 is valid.  If the value is 0, then
 680:.\Generated_Source\PSoC5/Rear_Echo_Timer.c **** *                   an interrupt will occur each time a capture occurs.
 681:.\Generated_Source\PSoC5/Rear_Echo_Timer.c **** *                   A value of 1 to 3 will cause the interrupt
 682:.\Generated_Source\PSoC5/Rear_Echo_Timer.c **** *                   to delay by the same number of captures.
 683:.\Generated_Source\PSoC5/Rear_Echo_Timer.c **** *
 684:.\Generated_Source\PSoC5/Rear_Echo_Timer.c **** * Return:
 685:.\Generated_Source\PSoC5/Rear_Echo_Timer.c **** *  void
 686:.\Generated_Source\PSoC5/Rear_Echo_Timer.c **** *
 687:.\Generated_Source\PSoC5/Rear_Echo_Timer.c **** *******************************************************************************/
 688:.\Generated_Source\PSoC5/Rear_Echo_Timer.c **** void Rear_Echo_Timer_SetInterruptCount(uint8 interruptCount) 
 689:.\Generated_Source\PSoC5/Rear_Echo_Timer.c **** {
 301              		.loc 1 689 0
 302              		.cfi_startproc
 303              		@ args = 0, pretend = 0, frame = 0
 304              		@ frame_needed = 0, uses_anonymous_args = 0
 305              		@ link register save eliminated.
 306              	.LVL3:
 307 0000 7047     		bx	lr
 308              		.cfi_endproc
 309              	.LFE14:
 310              		.size	Rear_Echo_Timer_SetInterruptCount, .-Rear_Echo_Timer_SetInterruptCount
 311 0002 00BF     		.section	.text.Rear_Echo_Timer_ClearFIFO,"ax",%progbits
 312              		.align	2
 313              		.global	Rear_Echo_Timer_ClearFIFO
 314              		.thumb
 315              		.thumb_func
 316              		.type	Rear_Echo_Timer_ClearFIFO, %function
 317              	Rear_Echo_Timer_ClearFIFO:
 318              	.LFB15:
 690:.\Generated_Source\PSoC5/Rear_Echo_Timer.c ****     /* This must only set to two bits of the control register associated */
 691:.\Generated_Source\PSoC5/Rear_Echo_Timer.c ****     interruptCount &= Rear_Echo_Timer_CTRL_INTCNT_MASK;
 692:.\Generated_Source\PSoC5/Rear_Echo_Timer.c **** 
 693:.\Generated_Source\PSoC5/Rear_Echo_Timer.c ****     #if (!Rear_Echo_Timer_UDB_CONTROL_REG_REMOVED)
 694:.\Generated_Source\PSoC5/Rear_Echo_Timer.c ****         /* Clear the Current Setting */
 695:.\Generated_Source\PSoC5/Rear_Echo_Timer.c ****         Rear_Echo_Timer_CONTROL &= ((uint8)(~Rear_Echo_Timer_CTRL_INTCNT_MASK));
 696:.\Generated_Source\PSoC5/Rear_Echo_Timer.c ****         /* Write The New Setting */
 697:.\Generated_Source\PSoC5/Rear_Echo_Timer.c ****         Rear_Echo_Timer_CONTROL |= interruptCount;
 698:.\Generated_Source\PSoC5/Rear_Echo_Timer.c ****     #endif /* (!Rear_Echo_Timer_UDB_CONTROL_REG_REMOVED) */
 699:.\Generated_Source\PSoC5/Rear_Echo_Timer.c **** }
 700:.\Generated_Source\PSoC5/Rear_Echo_Timer.c **** #endif /* Rear_Echo_Timer_InterruptOnCaptureCount */
 701:.\Generated_Source\PSoC5/Rear_Echo_Timer.c **** 
 702:.\Generated_Source\PSoC5/Rear_Echo_Timer.c **** 
 703:.\Generated_Source\PSoC5/Rear_Echo_Timer.c **** #if (Rear_Echo_Timer_UsingHWCaptureCounter)
 704:.\Generated_Source\PSoC5/Rear_Echo_Timer.c **** 
 705:.\Generated_Source\PSoC5/Rear_Echo_Timer.c **** 
 706:.\Generated_Source\PSoC5/Rear_Echo_Timer.c **** /*******************************************************************************
 707:.\Generated_Source\PSoC5/Rear_Echo_Timer.c **** * Function Name: Rear_Echo_Timer_SetCaptureCount
 708:.\Generated_Source\PSoC5/Rear_Echo_Timer.c **** ********************************************************************************
ARM GAS  C:\Users\tslator\AppData\Local\Temp\ccy9bisX.s 			page 19


 709:.\Generated_Source\PSoC5/Rear_Echo_Timer.c **** *
 710:.\Generated_Source\PSoC5/Rear_Echo_Timer.c **** * Summary:
 711:.\Generated_Source\PSoC5/Rear_Echo_Timer.c **** *  This function sets the capture count
 712:.\Generated_Source\PSoC5/Rear_Echo_Timer.c **** *
 713:.\Generated_Source\PSoC5/Rear_Echo_Timer.c **** * Parameters:
 714:.\Generated_Source\PSoC5/Rear_Echo_Timer.c **** *  captureCount: A value between 2 and 127 inclusive is valid.  A value of 1
 715:.\Generated_Source\PSoC5/Rear_Echo_Timer.c **** *                to 127 will cause the interrupt to delay by the same number of
 716:.\Generated_Source\PSoC5/Rear_Echo_Timer.c **** *                captures.
 717:.\Generated_Source\PSoC5/Rear_Echo_Timer.c **** *
 718:.\Generated_Source\PSoC5/Rear_Echo_Timer.c **** * Return:
 719:.\Generated_Source\PSoC5/Rear_Echo_Timer.c **** *  void
 720:.\Generated_Source\PSoC5/Rear_Echo_Timer.c **** *
 721:.\Generated_Source\PSoC5/Rear_Echo_Timer.c **** *******************************************************************************/
 722:.\Generated_Source\PSoC5/Rear_Echo_Timer.c **** void Rear_Echo_Timer_SetCaptureCount(uint8 captureCount) 
 723:.\Generated_Source\PSoC5/Rear_Echo_Timer.c **** {
 724:.\Generated_Source\PSoC5/Rear_Echo_Timer.c ****     Rear_Echo_Timer_CAP_COUNT = captureCount;
 725:.\Generated_Source\PSoC5/Rear_Echo_Timer.c **** }
 726:.\Generated_Source\PSoC5/Rear_Echo_Timer.c **** 
 727:.\Generated_Source\PSoC5/Rear_Echo_Timer.c **** 
 728:.\Generated_Source\PSoC5/Rear_Echo_Timer.c **** /*******************************************************************************
 729:.\Generated_Source\PSoC5/Rear_Echo_Timer.c **** * Function Name: Rear_Echo_Timer_ReadCaptureCount
 730:.\Generated_Source\PSoC5/Rear_Echo_Timer.c **** ********************************************************************************
 731:.\Generated_Source\PSoC5/Rear_Echo_Timer.c **** *
 732:.\Generated_Source\PSoC5/Rear_Echo_Timer.c **** * Summary:
 733:.\Generated_Source\PSoC5/Rear_Echo_Timer.c **** *  This function reads the capture count setting
 734:.\Generated_Source\PSoC5/Rear_Echo_Timer.c **** *
 735:.\Generated_Source\PSoC5/Rear_Echo_Timer.c **** * Parameters:
 736:.\Generated_Source\PSoC5/Rear_Echo_Timer.c **** *  void
 737:.\Generated_Source\PSoC5/Rear_Echo_Timer.c **** *
 738:.\Generated_Source\PSoC5/Rear_Echo_Timer.c **** * Return:
 739:.\Generated_Source\PSoC5/Rear_Echo_Timer.c **** *  Returns the Capture Count Setting
 740:.\Generated_Source\PSoC5/Rear_Echo_Timer.c **** *
 741:.\Generated_Source\PSoC5/Rear_Echo_Timer.c **** *******************************************************************************/
 742:.\Generated_Source\PSoC5/Rear_Echo_Timer.c **** uint8 Rear_Echo_Timer_ReadCaptureCount(void) 
 743:.\Generated_Source\PSoC5/Rear_Echo_Timer.c **** {
 744:.\Generated_Source\PSoC5/Rear_Echo_Timer.c ****     return ((uint8)Rear_Echo_Timer_CAP_COUNT);
 745:.\Generated_Source\PSoC5/Rear_Echo_Timer.c **** }
 746:.\Generated_Source\PSoC5/Rear_Echo_Timer.c **** #endif /* Rear_Echo_Timer_UsingHWCaptureCounter */
 747:.\Generated_Source\PSoC5/Rear_Echo_Timer.c **** 
 748:.\Generated_Source\PSoC5/Rear_Echo_Timer.c **** 
 749:.\Generated_Source\PSoC5/Rear_Echo_Timer.c **** /*******************************************************************************
 750:.\Generated_Source\PSoC5/Rear_Echo_Timer.c **** * Function Name: Rear_Echo_Timer_ClearFIFO
 751:.\Generated_Source\PSoC5/Rear_Echo_Timer.c **** ********************************************************************************
 752:.\Generated_Source\PSoC5/Rear_Echo_Timer.c **** *
 753:.\Generated_Source\PSoC5/Rear_Echo_Timer.c **** * Summary:
 754:.\Generated_Source\PSoC5/Rear_Echo_Timer.c **** *  This function clears all capture data from the capture FIFO
 755:.\Generated_Source\PSoC5/Rear_Echo_Timer.c **** *
 756:.\Generated_Source\PSoC5/Rear_Echo_Timer.c **** * Parameters:
 757:.\Generated_Source\PSoC5/Rear_Echo_Timer.c **** *  void
 758:.\Generated_Source\PSoC5/Rear_Echo_Timer.c **** *
 759:.\Generated_Source\PSoC5/Rear_Echo_Timer.c **** * Return:
 760:.\Generated_Source\PSoC5/Rear_Echo_Timer.c **** *  void
 761:.\Generated_Source\PSoC5/Rear_Echo_Timer.c **** *
 762:.\Generated_Source\PSoC5/Rear_Echo_Timer.c **** *******************************************************************************/
 763:.\Generated_Source\PSoC5/Rear_Echo_Timer.c **** void Rear_Echo_Timer_ClearFIFO(void) 
 764:.\Generated_Source\PSoC5/Rear_Echo_Timer.c **** {
 319              		.loc 1 764 0
ARM GAS  C:\Users\tslator\AppData\Local\Temp\ccy9bisX.s 			page 20


 320              		.cfi_startproc
 321              		@ args = 0, pretend = 0, frame = 0
 322              		@ frame_needed = 0, uses_anonymous_args = 0
 323              		.loc 1 764 0
 324 0000 08B5     		push	{r3, lr}
 325              		.cfi_def_cfa_offset 8
 326              		.cfi_offset 3, -8
 327              		.cfi_offset 14, -4
 765:.\Generated_Source\PSoC5/Rear_Echo_Timer.c ****     while(0u != (Rear_Echo_Timer_ReadStatusRegister() & Rear_Echo_Timer_STATUS_FIFONEMP))
 328              		.loc 1 765 0
 329 0002 01E0     		b	.L31
 330              	.L32:
 766:.\Generated_Source\PSoC5/Rear_Echo_Timer.c ****     {
 767:.\Generated_Source\PSoC5/Rear_Echo_Timer.c ****         (void)Rear_Echo_Timer_ReadCapture();
 331              		.loc 1 767 0
 332 0004 FFF7FEFF 		bl	Rear_Echo_Timer_ReadCapture
 333              	.LVL4:
 334              	.L31:
 765:.\Generated_Source\PSoC5/Rear_Echo_Timer.c ****     while(0u != (Rear_Echo_Timer_ReadStatusRegister() & Rear_Echo_Timer_STATUS_FIFONEMP))
 335              		.loc 1 765 0
 336 0008 FFF7FEFF 		bl	Rear_Echo_Timer_ReadStatusRegister
 337              	.LVL5:
 338 000c 10F0080F 		tst	r0, #8
 339 0010 F8D1     		bne	.L32
 768:.\Generated_Source\PSoC5/Rear_Echo_Timer.c ****     }
 769:.\Generated_Source\PSoC5/Rear_Echo_Timer.c **** }
 340              		.loc 1 769 0
 341 0012 08BD     		pop	{r3, pc}
 342              		.cfi_endproc
 343              	.LFE15:
 344              		.size	Rear_Echo_Timer_ClearFIFO, .-Rear_Echo_Timer_ClearFIFO
 345              		.section	.text.Rear_Echo_Timer_Init,"ax",%progbits
 346              		.align	2
 347              		.global	Rear_Echo_Timer_Init
 348              		.thumb
 349              		.thumb_func
 350              		.type	Rear_Echo_Timer_Init, %function
 351              	Rear_Echo_Timer_Init:
 352              	.LFB0:
  44:.\Generated_Source\PSoC5/Rear_Echo_Timer.c ****     #if(!Rear_Echo_Timer_UsingFixedFunction)
 353              		.loc 1 44 0
 354              		.cfi_startproc
 355              		@ args = 0, pretend = 0, frame = 0
 356              		@ frame_needed = 0, uses_anonymous_args = 0
 357 0000 08B5     		push	{r3, lr}
 358              		.cfi_def_cfa_offset 8
 359              		.cfi_offset 3, -8
 360              		.cfi_offset 14, -4
 118:.\Generated_Source\PSoC5/Rear_Echo_Timer.c ****     Rear_Echo_Timer_WriteCounter(Rear_Echo_Timer_INIT_PERIOD);
 361              		.loc 1 118 0
 362 0002 40F6B730 		movw	r0, #2999
 363 0006 FFF7FEFF 		bl	Rear_Echo_Timer_WritePeriod
 364              	.LVL6:
 119:.\Generated_Source\PSoC5/Rear_Echo_Timer.c **** 
 365              		.loc 1 119 0
 366 000a 40F6B730 		movw	r0, #2999
 367 000e FFF7FEFF 		bl	Rear_Echo_Timer_WriteCounter
ARM GAS  C:\Users\tslator\AppData\Local\Temp\ccy9bisX.s 			page 21


 368              	.LVL7:
 142:.\Generated_Source\PSoC5/Rear_Echo_Timer.c **** 
 369              		.loc 1 142 0
 370 0012 FFF7FEFF 		bl	CyEnterCriticalSection
 371              	.LVL8:
 145:.\Generated_Source\PSoC5/Rear_Echo_Timer.c **** 
 372              		.loc 1 145 0
 373 0016 064A     		ldr	r2, .L36
 374 0018 1378     		ldrb	r3, [r2]	@ zero_extendqisi2
 375 001a 43F01003 		orr	r3, r3, #16
 376 001e 1370     		strb	r3, [r2]
 148:.\Generated_Source\PSoC5/Rear_Echo_Timer.c **** 
 377              		.loc 1 148 0
 378 0020 FFF7FEFF 		bl	CyExitCriticalSection
 379              	.LVL9:
 159:.\Generated_Source\PSoC5/Rear_Echo_Timer.c ****     #endif /* Configure additional features of UDB implementation */
 380              		.loc 1 159 0
 381 0024 FFF7FEFF 		bl	Rear_Echo_Timer_ClearFIFO
 382              	.LVL10:
 162:.\Generated_Source\PSoC5/Rear_Echo_Timer.c **** }
 383              		.loc 1 162 0
 384 0028 0320     		movs	r0, #3
 385 002a FFF7FEFF 		bl	Rear_Echo_Timer_SetInterruptMode
 386              	.LVL11:
 387 002e 08BD     		pop	{r3, pc}
 388              	.L37:
 389              		.align	2
 390              	.L36:
 391 0030 99650040 		.word	1073767833
 392              		.cfi_endproc
 393              	.LFE0:
 394              		.size	Rear_Echo_Timer_Init, .-Rear_Echo_Timer_Init
 395              		.section	.text.Rear_Echo_Timer_Start,"ax",%progbits
 396              		.align	2
 397              		.global	Rear_Echo_Timer_Start
 398              		.thumb
 399              		.thumb_func
 400              		.type	Rear_Echo_Timer_Start, %function
 401              	Rear_Echo_Timer_Start:
 402              	.LFB2:
 216:.\Generated_Source\PSoC5/Rear_Echo_Timer.c ****     if(Rear_Echo_Timer_initVar == 0u)
 403              		.loc 1 216 0
 404              		.cfi_startproc
 405              		@ args = 0, pretend = 0, frame = 0
 406              		@ frame_needed = 0, uses_anonymous_args = 0
 407 0000 08B5     		push	{r3, lr}
 408              		.cfi_def_cfa_offset 8
 409              		.cfi_offset 3, -8
 410              		.cfi_offset 14, -4
 217:.\Generated_Source\PSoC5/Rear_Echo_Timer.c ****     {
 411              		.loc 1 217 0
 412 0002 044B     		ldr	r3, .L41
 413 0004 1B78     		ldrb	r3, [r3]	@ zero_extendqisi2
 414 0006 23B9     		cbnz	r3, .L38
 219:.\Generated_Source\PSoC5/Rear_Echo_Timer.c **** 
 415              		.loc 1 219 0
 416 0008 FFF7FEFF 		bl	Rear_Echo_Timer_Init
ARM GAS  C:\Users\tslator\AppData\Local\Temp\ccy9bisX.s 			page 22


 417              	.LVL12:
 221:.\Generated_Source\PSoC5/Rear_Echo_Timer.c ****     }
 418              		.loc 1 221 0
 419 000c 0122     		movs	r2, #1
 420 000e 014B     		ldr	r3, .L41
 421 0010 1A70     		strb	r2, [r3]
 422              	.L38:
 423 0012 08BD     		pop	{r3, pc}
 424              	.L42:
 425              		.align	2
 426              	.L41:
 427 0014 00000000 		.word	.LANCHOR0
 428              		.cfi_endproc
 429              	.LFE2:
 430              		.size	Rear_Echo_Timer_Start, .-Rear_Echo_Timer_Start
 431              		.global	Rear_Echo_Timer_initVar
 432              		.bss
 433              		.set	.LANCHOR0,. + 0
 434              		.type	Rear_Echo_Timer_initVar, %object
 435              		.size	Rear_Echo_Timer_initVar, 1
 436              	Rear_Echo_Timer_initVar:
 437 0000 00       		.space	1
 438              		.text
 439              	.Letext0:
 440              		.file 2 ".\\Generated_Source\\PSoC5\\cytypes.h"
 441              		.file 3 ".\\Generated_Source\\PSoC5\\CyLib.h"