ARM GAS  C:\Users\Tim\AppData\Local\Temp\ccW9j88b.s 			page 1


   1              		.syntax unified
   2              		.cpu cortex-m3
   3              		.fpu softvfp
   4              		.eabi_attribute 20, 1
   5              		.eabi_attribute 21, 1
   6              		.eabi_attribute 23, 3
   7              		.eabi_attribute 24, 1
   8              		.eabi_attribute 25, 1
   9              		.eabi_attribute 26, 1
  10              		.eabi_attribute 30, 1
  11              		.eabi_attribute 34, 1
  12              		.eabi_attribute 18, 4
  13              		.thumb
  14              		.file	"Right_Phase_Counter.c"
  15              		.text
  16              	.Ltext0:
  17              		.cfi_sections	.debug_frame
  18              		.section	.text.Right_Phase_Counter_Enable,"ax",%progbits
  19              		.align	2
  20              		.global	Right_Phase_Counter_Enable
  21              		.thumb
  22              		.thumb_func
  23              		.type	Right_Phase_Counter_Enable, %function
  24              	Right_Phase_Counter_Enable:
  25              	.LFB1:
  26              		.file 1 ".\\Generated_Source\\PSoC5\\Right_Phase_Counter.c"
   1:.\Generated_Source\PSoC5/Right_Phase_Counter.c **** /*******************************************************************************
   2:.\Generated_Source\PSoC5/Right_Phase_Counter.c **** * File Name: Right_Phase_Counter.c  
   3:.\Generated_Source\PSoC5/Right_Phase_Counter.c **** * Version 3.0
   4:.\Generated_Source\PSoC5/Right_Phase_Counter.c **** *
   5:.\Generated_Source\PSoC5/Right_Phase_Counter.c **** *  Description:
   6:.\Generated_Source\PSoC5/Right_Phase_Counter.c **** *     The Counter component consists of a 8, 16, 24 or 32-bit counter with
   7:.\Generated_Source\PSoC5/Right_Phase_Counter.c **** *     a selectable period between 2 and 2^Width - 1.  
   8:.\Generated_Source\PSoC5/Right_Phase_Counter.c **** *
   9:.\Generated_Source\PSoC5/Right_Phase_Counter.c **** *   Note:
  10:.\Generated_Source\PSoC5/Right_Phase_Counter.c **** *     None
  11:.\Generated_Source\PSoC5/Right_Phase_Counter.c **** *
  12:.\Generated_Source\PSoC5/Right_Phase_Counter.c **** ********************************************************************************
  13:.\Generated_Source\PSoC5/Right_Phase_Counter.c **** * Copyright 2008-2012, Cypress Semiconductor Corporation.  All rights reserved.
  14:.\Generated_Source\PSoC5/Right_Phase_Counter.c **** * You may use this file only in accordance with the license, terms, conditions, 
  15:.\Generated_Source\PSoC5/Right_Phase_Counter.c **** * disclaimers, and limitations in the end user license agreement accompanying 
  16:.\Generated_Source\PSoC5/Right_Phase_Counter.c **** * the software package with which this file was provided.
  17:.\Generated_Source\PSoC5/Right_Phase_Counter.c **** *******************************************************************************/
  18:.\Generated_Source\PSoC5/Right_Phase_Counter.c **** 
  19:.\Generated_Source\PSoC5/Right_Phase_Counter.c **** #include "Right_Phase_Counter.h"
  20:.\Generated_Source\PSoC5/Right_Phase_Counter.c **** 
  21:.\Generated_Source\PSoC5/Right_Phase_Counter.c **** uint8 Right_Phase_Counter_initVar = 0u;
  22:.\Generated_Source\PSoC5/Right_Phase_Counter.c **** 
  23:.\Generated_Source\PSoC5/Right_Phase_Counter.c **** 
  24:.\Generated_Source\PSoC5/Right_Phase_Counter.c **** /*******************************************************************************
  25:.\Generated_Source\PSoC5/Right_Phase_Counter.c **** * Function Name: Right_Phase_Counter_Init
  26:.\Generated_Source\PSoC5/Right_Phase_Counter.c **** ********************************************************************************
  27:.\Generated_Source\PSoC5/Right_Phase_Counter.c **** * Summary:
  28:.\Generated_Source\PSoC5/Right_Phase_Counter.c **** *     Initialize to the schematic state
  29:.\Generated_Source\PSoC5/Right_Phase_Counter.c **** * 
  30:.\Generated_Source\PSoC5/Right_Phase_Counter.c **** * Parameters:  
  31:.\Generated_Source\PSoC5/Right_Phase_Counter.c **** *  void  
ARM GAS  C:\Users\Tim\AppData\Local\Temp\ccW9j88b.s 			page 2


  32:.\Generated_Source\PSoC5/Right_Phase_Counter.c **** *
  33:.\Generated_Source\PSoC5/Right_Phase_Counter.c **** * Return: 
  34:.\Generated_Source\PSoC5/Right_Phase_Counter.c **** *  void
  35:.\Generated_Source\PSoC5/Right_Phase_Counter.c **** *
  36:.\Generated_Source\PSoC5/Right_Phase_Counter.c **** *******************************************************************************/
  37:.\Generated_Source\PSoC5/Right_Phase_Counter.c **** void Right_Phase_Counter_Init(void) 
  38:.\Generated_Source\PSoC5/Right_Phase_Counter.c **** {
  39:.\Generated_Source\PSoC5/Right_Phase_Counter.c ****         #if (!Right_Phase_Counter_UsingFixedFunction && !Right_Phase_Counter_ControlRegRemoved)
  40:.\Generated_Source\PSoC5/Right_Phase_Counter.c ****             uint8 ctrl;
  41:.\Generated_Source\PSoC5/Right_Phase_Counter.c ****         #endif /* (!Right_Phase_Counter_UsingFixedFunction && !Right_Phase_Counter_ControlRegRemove
  42:.\Generated_Source\PSoC5/Right_Phase_Counter.c ****         
  43:.\Generated_Source\PSoC5/Right_Phase_Counter.c ****         #if(!Right_Phase_Counter_UsingFixedFunction) 
  44:.\Generated_Source\PSoC5/Right_Phase_Counter.c ****             /* Interrupt State Backup for Critical Region*/
  45:.\Generated_Source\PSoC5/Right_Phase_Counter.c ****             uint8 Right_Phase_Counter_interruptState;
  46:.\Generated_Source\PSoC5/Right_Phase_Counter.c ****         #endif /* (!Right_Phase_Counter_UsingFixedFunction) */
  47:.\Generated_Source\PSoC5/Right_Phase_Counter.c ****         
  48:.\Generated_Source\PSoC5/Right_Phase_Counter.c ****         #if (Right_Phase_Counter_UsingFixedFunction)
  49:.\Generated_Source\PSoC5/Right_Phase_Counter.c ****             /* Clear all bits but the enable bit (if it's already set for Timer operation */
  50:.\Generated_Source\PSoC5/Right_Phase_Counter.c ****             Right_Phase_Counter_CONTROL &= Right_Phase_Counter_CTRL_ENABLE;
  51:.\Generated_Source\PSoC5/Right_Phase_Counter.c ****             
  52:.\Generated_Source\PSoC5/Right_Phase_Counter.c ****             /* Clear the mode bits for continuous run mode */
  53:.\Generated_Source\PSoC5/Right_Phase_Counter.c ****             #if (CY_PSOC5A)
  54:.\Generated_Source\PSoC5/Right_Phase_Counter.c ****                 Right_Phase_Counter_CONTROL2 &= ((uint8)(~Right_Phase_Counter_CTRL_MODE_MASK));
  55:.\Generated_Source\PSoC5/Right_Phase_Counter.c ****             #endif /* (CY_PSOC5A) */
  56:.\Generated_Source\PSoC5/Right_Phase_Counter.c ****             #if (CY_PSOC3 || CY_PSOC5LP)
  57:.\Generated_Source\PSoC5/Right_Phase_Counter.c ****                 Right_Phase_Counter_CONTROL3 &= ((uint8)(~Right_Phase_Counter_CTRL_MODE_MASK));    
  58:.\Generated_Source\PSoC5/Right_Phase_Counter.c ****             #endif /* (CY_PSOC3 || CY_PSOC5LP) */
  59:.\Generated_Source\PSoC5/Right_Phase_Counter.c ****             /* Check if One Shot mode is enabled i.e. RunMode !=0*/
  60:.\Generated_Source\PSoC5/Right_Phase_Counter.c ****             #if (Right_Phase_Counter_RunModeUsed != 0x0u)
  61:.\Generated_Source\PSoC5/Right_Phase_Counter.c ****                 /* Set 3rd bit of Control register to enable one shot mode */
  62:.\Generated_Source\PSoC5/Right_Phase_Counter.c ****                 Right_Phase_Counter_CONTROL |= Right_Phase_Counter_ONESHOT;
  63:.\Generated_Source\PSoC5/Right_Phase_Counter.c ****             #endif /* (Right_Phase_Counter_RunModeUsed != 0x0u) */
  64:.\Generated_Source\PSoC5/Right_Phase_Counter.c ****             
  65:.\Generated_Source\PSoC5/Right_Phase_Counter.c ****             /* Set the IRQ to use the status register interrupts */
  66:.\Generated_Source\PSoC5/Right_Phase_Counter.c ****             Right_Phase_Counter_CONTROL2 |= Right_Phase_Counter_CTRL2_IRQ_SEL;
  67:.\Generated_Source\PSoC5/Right_Phase_Counter.c ****             
  68:.\Generated_Source\PSoC5/Right_Phase_Counter.c ****             /* Clear and Set SYNCTC and SYNCCMP bits of RT1 register */
  69:.\Generated_Source\PSoC5/Right_Phase_Counter.c ****             Right_Phase_Counter_RT1 &= ((uint8)(~Right_Phase_Counter_RT1_MASK));
  70:.\Generated_Source\PSoC5/Right_Phase_Counter.c ****             Right_Phase_Counter_RT1 |= Right_Phase_Counter_SYNC;     
  71:.\Generated_Source\PSoC5/Right_Phase_Counter.c ****                     
  72:.\Generated_Source\PSoC5/Right_Phase_Counter.c ****             /*Enable DSI Sync all all inputs of the Timer*/
  73:.\Generated_Source\PSoC5/Right_Phase_Counter.c ****             Right_Phase_Counter_RT1 &= ((uint8)(~Right_Phase_Counter_SYNCDSI_MASK));
  74:.\Generated_Source\PSoC5/Right_Phase_Counter.c ****             Right_Phase_Counter_RT1 |= Right_Phase_Counter_SYNCDSI_EN;
  75:.\Generated_Source\PSoC5/Right_Phase_Counter.c **** 
  76:.\Generated_Source\PSoC5/Right_Phase_Counter.c ****         #else
  77:.\Generated_Source\PSoC5/Right_Phase_Counter.c ****             #if(!Right_Phase_Counter_ControlRegRemoved)
  78:.\Generated_Source\PSoC5/Right_Phase_Counter.c ****             /* Set the default compare mode defined in the parameter */
  79:.\Generated_Source\PSoC5/Right_Phase_Counter.c ****             ctrl = Right_Phase_Counter_CONTROL & ((uint8)(~Right_Phase_Counter_CTRL_CMPMODE_MASK));
  80:.\Generated_Source\PSoC5/Right_Phase_Counter.c ****             Right_Phase_Counter_CONTROL = ctrl | Right_Phase_Counter_DEFAULT_COMPARE_MODE;
  81:.\Generated_Source\PSoC5/Right_Phase_Counter.c ****             
  82:.\Generated_Source\PSoC5/Right_Phase_Counter.c ****             /* Set the default capture mode defined in the parameter */
  83:.\Generated_Source\PSoC5/Right_Phase_Counter.c ****             ctrl = Right_Phase_Counter_CONTROL & ((uint8)(~Right_Phase_Counter_CTRL_CAPMODE_MASK));
  84:.\Generated_Source\PSoC5/Right_Phase_Counter.c ****             
  85:.\Generated_Source\PSoC5/Right_Phase_Counter.c ****             #if( 0 != Right_Phase_Counter_CAPTURE_MODE_CONF)
  86:.\Generated_Source\PSoC5/Right_Phase_Counter.c ****                 Right_Phase_Counter_CONTROL = ctrl | Right_Phase_Counter_DEFAULT_CAPTURE_MODE;
  87:.\Generated_Source\PSoC5/Right_Phase_Counter.c ****             #else
  88:.\Generated_Source\PSoC5/Right_Phase_Counter.c ****                 Right_Phase_Counter_CONTROL = ctrl;
ARM GAS  C:\Users\Tim\AppData\Local\Temp\ccW9j88b.s 			page 3


  89:.\Generated_Source\PSoC5/Right_Phase_Counter.c ****             #endif /* 0 != Right_Phase_Counter_CAPTURE_MODE */ 
  90:.\Generated_Source\PSoC5/Right_Phase_Counter.c ****             
  91:.\Generated_Source\PSoC5/Right_Phase_Counter.c ****             #endif /* (!Right_Phase_Counter_ControlRegRemoved) */
  92:.\Generated_Source\PSoC5/Right_Phase_Counter.c ****         #endif /* (Right_Phase_Counter_UsingFixedFunction) */
  93:.\Generated_Source\PSoC5/Right_Phase_Counter.c ****         
  94:.\Generated_Source\PSoC5/Right_Phase_Counter.c ****         /* Clear all data in the FIFO's */
  95:.\Generated_Source\PSoC5/Right_Phase_Counter.c ****         #if (!Right_Phase_Counter_UsingFixedFunction)
  96:.\Generated_Source\PSoC5/Right_Phase_Counter.c ****             Right_Phase_Counter_ClearFIFO();
  97:.\Generated_Source\PSoC5/Right_Phase_Counter.c ****         #endif /* (!Right_Phase_Counter_UsingFixedFunction) */
  98:.\Generated_Source\PSoC5/Right_Phase_Counter.c ****         
  99:.\Generated_Source\PSoC5/Right_Phase_Counter.c ****         /* Set Initial values from Configuration */
 100:.\Generated_Source\PSoC5/Right_Phase_Counter.c ****         Right_Phase_Counter_WritePeriod(Right_Phase_Counter_INIT_PERIOD_VALUE);
 101:.\Generated_Source\PSoC5/Right_Phase_Counter.c ****         #if (!(Right_Phase_Counter_UsingFixedFunction && (CY_PSOC5A)))
 102:.\Generated_Source\PSoC5/Right_Phase_Counter.c ****             Right_Phase_Counter_WriteCounter(Right_Phase_Counter_INIT_COUNTER_VALUE);
 103:.\Generated_Source\PSoC5/Right_Phase_Counter.c ****         #endif /* (!(Right_Phase_Counter_UsingFixedFunction && (CY_PSOC5A))) */
 104:.\Generated_Source\PSoC5/Right_Phase_Counter.c ****         Right_Phase_Counter_SetInterruptMode(Right_Phase_Counter_INIT_INTERRUPTS_MASK);
 105:.\Generated_Source\PSoC5/Right_Phase_Counter.c ****         
 106:.\Generated_Source\PSoC5/Right_Phase_Counter.c ****         #if (!Right_Phase_Counter_UsingFixedFunction)
 107:.\Generated_Source\PSoC5/Right_Phase_Counter.c ****             /* Read the status register to clear the unwanted interrupts */
 108:.\Generated_Source\PSoC5/Right_Phase_Counter.c ****             (void)Right_Phase_Counter_ReadStatusRegister();
 109:.\Generated_Source\PSoC5/Right_Phase_Counter.c ****             /* Set the compare value (only available to non-fixed function implementation */
 110:.\Generated_Source\PSoC5/Right_Phase_Counter.c ****             Right_Phase_Counter_WriteCompare(Right_Phase_Counter_INIT_COMPARE_VALUE);
 111:.\Generated_Source\PSoC5/Right_Phase_Counter.c ****             /* Use the interrupt output of the status register for IRQ output */
 112:.\Generated_Source\PSoC5/Right_Phase_Counter.c ****             
 113:.\Generated_Source\PSoC5/Right_Phase_Counter.c ****             /* CyEnterCriticalRegion and CyExitCriticalRegion are used to mark following region cri
 114:.\Generated_Source\PSoC5/Right_Phase_Counter.c ****             /* Enter Critical Region*/
 115:.\Generated_Source\PSoC5/Right_Phase_Counter.c ****             Right_Phase_Counter_interruptState = CyEnterCriticalSection();
 116:.\Generated_Source\PSoC5/Right_Phase_Counter.c ****             
 117:.\Generated_Source\PSoC5/Right_Phase_Counter.c ****             Right_Phase_Counter_STATUS_AUX_CTRL |= Right_Phase_Counter_STATUS_ACTL_INT_EN_MASK;
 118:.\Generated_Source\PSoC5/Right_Phase_Counter.c ****             
 119:.\Generated_Source\PSoC5/Right_Phase_Counter.c ****             /* Exit Critical Region*/
 120:.\Generated_Source\PSoC5/Right_Phase_Counter.c ****             CyExitCriticalSection(Right_Phase_Counter_interruptState);
 121:.\Generated_Source\PSoC5/Right_Phase_Counter.c ****             
 122:.\Generated_Source\PSoC5/Right_Phase_Counter.c ****         #endif /* (!Right_Phase_Counter_UsingFixedFunction) */
 123:.\Generated_Source\PSoC5/Right_Phase_Counter.c **** }
 124:.\Generated_Source\PSoC5/Right_Phase_Counter.c **** 
 125:.\Generated_Source\PSoC5/Right_Phase_Counter.c **** 
 126:.\Generated_Source\PSoC5/Right_Phase_Counter.c **** /*******************************************************************************
 127:.\Generated_Source\PSoC5/Right_Phase_Counter.c **** * Function Name: Right_Phase_Counter_Enable
 128:.\Generated_Source\PSoC5/Right_Phase_Counter.c **** ********************************************************************************
 129:.\Generated_Source\PSoC5/Right_Phase_Counter.c **** * Summary:
 130:.\Generated_Source\PSoC5/Right_Phase_Counter.c **** *     Enable the Counter
 131:.\Generated_Source\PSoC5/Right_Phase_Counter.c **** * 
 132:.\Generated_Source\PSoC5/Right_Phase_Counter.c **** * Parameters:  
 133:.\Generated_Source\PSoC5/Right_Phase_Counter.c **** *  void  
 134:.\Generated_Source\PSoC5/Right_Phase_Counter.c **** *
 135:.\Generated_Source\PSoC5/Right_Phase_Counter.c **** * Return: 
 136:.\Generated_Source\PSoC5/Right_Phase_Counter.c **** *  void
 137:.\Generated_Source\PSoC5/Right_Phase_Counter.c **** *
 138:.\Generated_Source\PSoC5/Right_Phase_Counter.c **** * Side Effects: 
 139:.\Generated_Source\PSoC5/Right_Phase_Counter.c **** *   If the Enable mode is set to Hardware only then this function has no effect 
 140:.\Generated_Source\PSoC5/Right_Phase_Counter.c **** *   on the operation of the counter.
 141:.\Generated_Source\PSoC5/Right_Phase_Counter.c **** *
 142:.\Generated_Source\PSoC5/Right_Phase_Counter.c **** *******************************************************************************/
 143:.\Generated_Source\PSoC5/Right_Phase_Counter.c **** void Right_Phase_Counter_Enable(void) 
 144:.\Generated_Source\PSoC5/Right_Phase_Counter.c **** {
  27              		.loc 1 144 0
ARM GAS  C:\Users\Tim\AppData\Local\Temp\ccW9j88b.s 			page 4


  28              		.cfi_startproc
  29              		@ args = 0, pretend = 0, frame = 0
  30              		@ frame_needed = 0, uses_anonymous_args = 0
  31              		@ link register save eliminated.
 145:.\Generated_Source\PSoC5/Right_Phase_Counter.c ****     /* Globally Enable the Fixed Function Block chosen */
 146:.\Generated_Source\PSoC5/Right_Phase_Counter.c ****     #if (Right_Phase_Counter_UsingFixedFunction)
 147:.\Generated_Source\PSoC5/Right_Phase_Counter.c ****         Right_Phase_Counter_GLOBAL_ENABLE |= Right_Phase_Counter_BLOCK_EN_MASK;
 148:.\Generated_Source\PSoC5/Right_Phase_Counter.c ****         Right_Phase_Counter_GLOBAL_STBY_ENABLE |= Right_Phase_Counter_BLOCK_STBY_EN_MASK;
 149:.\Generated_Source\PSoC5/Right_Phase_Counter.c ****     #endif /* (Right_Phase_Counter_UsingFixedFunction) */  
 150:.\Generated_Source\PSoC5/Right_Phase_Counter.c ****         
 151:.\Generated_Source\PSoC5/Right_Phase_Counter.c ****     /* Enable the counter from the control register  */
 152:.\Generated_Source\PSoC5/Right_Phase_Counter.c ****     /* If Fixed Function then make sure Mode is set correctly */
 153:.\Generated_Source\PSoC5/Right_Phase_Counter.c ****     /* else make sure reset is clear */
 154:.\Generated_Source\PSoC5/Right_Phase_Counter.c ****     #if(!Right_Phase_Counter_ControlRegRemoved || Right_Phase_Counter_UsingFixedFunction)
 155:.\Generated_Source\PSoC5/Right_Phase_Counter.c ****         Right_Phase_Counter_CONTROL |= Right_Phase_Counter_CTRL_ENABLE;                
  32              		.loc 1 155 0
  33 0000 024A     		ldr	r2, .L2
  34 0002 1378     		ldrb	r3, [r2]	@ zero_extendqisi2
  35 0004 43F08003 		orr	r3, r3, #128
  36 0008 1370     		strb	r3, [r2]
  37 000a 7047     		bx	lr
  38              	.L3:
  39              		.align	2
  40              	.L2:
  41 000c 73640040 		.word	1073767539
  42              		.cfi_endproc
  43              	.LFE1:
  44              		.size	Right_Phase_Counter_Enable, .-Right_Phase_Counter_Enable
  45              		.section	.text.Right_Phase_Counter_Stop,"ax",%progbits
  46              		.align	2
  47              		.global	Right_Phase_Counter_Stop
  48              		.thumb
  49              		.thumb_func
  50              		.type	Right_Phase_Counter_Stop, %function
  51              	Right_Phase_Counter_Stop:
  52              	.LFB3:
 156:.\Generated_Source\PSoC5/Right_Phase_Counter.c ****     #endif /* (!Right_Phase_Counter_ControlRegRemoved || Right_Phase_Counter_UsingFixedFunction) */
 157:.\Generated_Source\PSoC5/Right_Phase_Counter.c ****     
 158:.\Generated_Source\PSoC5/Right_Phase_Counter.c **** }
 159:.\Generated_Source\PSoC5/Right_Phase_Counter.c **** 
 160:.\Generated_Source\PSoC5/Right_Phase_Counter.c **** 
 161:.\Generated_Source\PSoC5/Right_Phase_Counter.c **** /*******************************************************************************
 162:.\Generated_Source\PSoC5/Right_Phase_Counter.c **** * Function Name: Right_Phase_Counter_Start
 163:.\Generated_Source\PSoC5/Right_Phase_Counter.c **** ********************************************************************************
 164:.\Generated_Source\PSoC5/Right_Phase_Counter.c **** * Summary:
 165:.\Generated_Source\PSoC5/Right_Phase_Counter.c **** *  Enables the counter for operation 
 166:.\Generated_Source\PSoC5/Right_Phase_Counter.c **** *
 167:.\Generated_Source\PSoC5/Right_Phase_Counter.c **** * Parameters:  
 168:.\Generated_Source\PSoC5/Right_Phase_Counter.c **** *  void  
 169:.\Generated_Source\PSoC5/Right_Phase_Counter.c **** *
 170:.\Generated_Source\PSoC5/Right_Phase_Counter.c **** * Return: 
 171:.\Generated_Source\PSoC5/Right_Phase_Counter.c **** *  void
 172:.\Generated_Source\PSoC5/Right_Phase_Counter.c **** *
 173:.\Generated_Source\PSoC5/Right_Phase_Counter.c **** * Global variables:
 174:.\Generated_Source\PSoC5/Right_Phase_Counter.c **** *  Right_Phase_Counter_initVar: Is modified when this function is called for the  
 175:.\Generated_Source\PSoC5/Right_Phase_Counter.c **** *   first time. Is used to ensure that initialization happens only once.
 176:.\Generated_Source\PSoC5/Right_Phase_Counter.c **** *
ARM GAS  C:\Users\Tim\AppData\Local\Temp\ccW9j88b.s 			page 5


 177:.\Generated_Source\PSoC5/Right_Phase_Counter.c **** *******************************************************************************/
 178:.\Generated_Source\PSoC5/Right_Phase_Counter.c **** void Right_Phase_Counter_Start(void) 
 179:.\Generated_Source\PSoC5/Right_Phase_Counter.c **** {
 180:.\Generated_Source\PSoC5/Right_Phase_Counter.c ****     if(Right_Phase_Counter_initVar == 0u)
 181:.\Generated_Source\PSoC5/Right_Phase_Counter.c ****     {
 182:.\Generated_Source\PSoC5/Right_Phase_Counter.c ****         Right_Phase_Counter_Init();
 183:.\Generated_Source\PSoC5/Right_Phase_Counter.c ****         
 184:.\Generated_Source\PSoC5/Right_Phase_Counter.c ****         Right_Phase_Counter_initVar = 1u; /* Clear this bit for Initialization */        
 185:.\Generated_Source\PSoC5/Right_Phase_Counter.c ****     }
 186:.\Generated_Source\PSoC5/Right_Phase_Counter.c ****     
 187:.\Generated_Source\PSoC5/Right_Phase_Counter.c ****     /* Enable the Counter */
 188:.\Generated_Source\PSoC5/Right_Phase_Counter.c ****     Right_Phase_Counter_Enable();        
 189:.\Generated_Source\PSoC5/Right_Phase_Counter.c **** }
 190:.\Generated_Source\PSoC5/Right_Phase_Counter.c **** 
 191:.\Generated_Source\PSoC5/Right_Phase_Counter.c **** 
 192:.\Generated_Source\PSoC5/Right_Phase_Counter.c **** /*******************************************************************************
 193:.\Generated_Source\PSoC5/Right_Phase_Counter.c **** * Function Name: Right_Phase_Counter_Stop
 194:.\Generated_Source\PSoC5/Right_Phase_Counter.c **** ********************************************************************************
 195:.\Generated_Source\PSoC5/Right_Phase_Counter.c **** * Summary:
 196:.\Generated_Source\PSoC5/Right_Phase_Counter.c **** * Halts the counter, but does not change any modes or disable interrupts.
 197:.\Generated_Source\PSoC5/Right_Phase_Counter.c **** *
 198:.\Generated_Source\PSoC5/Right_Phase_Counter.c **** * Parameters:  
 199:.\Generated_Source\PSoC5/Right_Phase_Counter.c **** *  void  
 200:.\Generated_Source\PSoC5/Right_Phase_Counter.c **** *
 201:.\Generated_Source\PSoC5/Right_Phase_Counter.c **** * Return: 
 202:.\Generated_Source\PSoC5/Right_Phase_Counter.c **** *  void
 203:.\Generated_Source\PSoC5/Right_Phase_Counter.c **** *
 204:.\Generated_Source\PSoC5/Right_Phase_Counter.c **** * Side Effects: If the Enable mode is set to Hardware only then this function
 205:.\Generated_Source\PSoC5/Right_Phase_Counter.c **** *               has no effect on the operation of the counter.
 206:.\Generated_Source\PSoC5/Right_Phase_Counter.c **** *
 207:.\Generated_Source\PSoC5/Right_Phase_Counter.c **** *******************************************************************************/
 208:.\Generated_Source\PSoC5/Right_Phase_Counter.c **** void Right_Phase_Counter_Stop(void) 
 209:.\Generated_Source\PSoC5/Right_Phase_Counter.c **** {
  53              		.loc 1 209 0
  54              		.cfi_startproc
  55              		@ args = 0, pretend = 0, frame = 0
  56              		@ frame_needed = 0, uses_anonymous_args = 0
  57              		@ link register save eliminated.
 210:.\Generated_Source\PSoC5/Right_Phase_Counter.c ****     /* Disable Counter */
 211:.\Generated_Source\PSoC5/Right_Phase_Counter.c ****     #if(!Right_Phase_Counter_ControlRegRemoved || Right_Phase_Counter_UsingFixedFunction)
 212:.\Generated_Source\PSoC5/Right_Phase_Counter.c ****         Right_Phase_Counter_CONTROL &= ((uint8)(~Right_Phase_Counter_CTRL_ENABLE));        
  58              		.loc 1 212 0
  59 0000 024A     		ldr	r2, .L5
  60 0002 1378     		ldrb	r3, [r2]	@ zero_extendqisi2
  61 0004 03F07F03 		and	r3, r3, #127
  62 0008 1370     		strb	r3, [r2]
  63 000a 7047     		bx	lr
  64              	.L6:
  65              		.align	2
  66              	.L5:
  67 000c 73640040 		.word	1073767539
  68              		.cfi_endproc
  69              	.LFE3:
  70              		.size	Right_Phase_Counter_Stop, .-Right_Phase_Counter_Stop
  71              		.section	.text.Right_Phase_Counter_SetInterruptMode,"ax",%progbits
  72              		.align	2
  73              		.global	Right_Phase_Counter_SetInterruptMode
ARM GAS  C:\Users\Tim\AppData\Local\Temp\ccW9j88b.s 			page 6


  74              		.thumb
  75              		.thumb_func
  76              		.type	Right_Phase_Counter_SetInterruptMode, %function
  77              	Right_Phase_Counter_SetInterruptMode:
  78              	.LFB4:
 213:.\Generated_Source\PSoC5/Right_Phase_Counter.c ****     #endif /* (!Right_Phase_Counter_ControlRegRemoved || Right_Phase_Counter_UsingFixedFunction) */
 214:.\Generated_Source\PSoC5/Right_Phase_Counter.c ****     
 215:.\Generated_Source\PSoC5/Right_Phase_Counter.c ****     /* Globally disable the Fixed Function Block chosen */
 216:.\Generated_Source\PSoC5/Right_Phase_Counter.c ****     #if (Right_Phase_Counter_UsingFixedFunction)
 217:.\Generated_Source\PSoC5/Right_Phase_Counter.c ****         Right_Phase_Counter_GLOBAL_ENABLE &= ((uint8)(~Right_Phase_Counter_BLOCK_EN_MASK));
 218:.\Generated_Source\PSoC5/Right_Phase_Counter.c ****         Right_Phase_Counter_GLOBAL_STBY_ENABLE &= ((uint8)(~Right_Phase_Counter_BLOCK_STBY_EN_MASK)
 219:.\Generated_Source\PSoC5/Right_Phase_Counter.c ****     #endif /* (Right_Phase_Counter_UsingFixedFunction) */
 220:.\Generated_Source\PSoC5/Right_Phase_Counter.c **** }
 221:.\Generated_Source\PSoC5/Right_Phase_Counter.c **** 
 222:.\Generated_Source\PSoC5/Right_Phase_Counter.c **** 
 223:.\Generated_Source\PSoC5/Right_Phase_Counter.c **** /*******************************************************************************
 224:.\Generated_Source\PSoC5/Right_Phase_Counter.c **** * Function Name: Right_Phase_Counter_SetInterruptMode
 225:.\Generated_Source\PSoC5/Right_Phase_Counter.c **** ********************************************************************************
 226:.\Generated_Source\PSoC5/Right_Phase_Counter.c **** * Summary:
 227:.\Generated_Source\PSoC5/Right_Phase_Counter.c **** * Configures which interrupt sources are enabled to generate the final interrupt
 228:.\Generated_Source\PSoC5/Right_Phase_Counter.c **** *
 229:.\Generated_Source\PSoC5/Right_Phase_Counter.c **** * Parameters:  
 230:.\Generated_Source\PSoC5/Right_Phase_Counter.c **** *  InterruptsMask: This parameter is an or'd collection of the status bits
 231:.\Generated_Source\PSoC5/Right_Phase_Counter.c **** *                   which will be allowed to generate the counters interrupt.   
 232:.\Generated_Source\PSoC5/Right_Phase_Counter.c **** *
 233:.\Generated_Source\PSoC5/Right_Phase_Counter.c **** * Return: 
 234:.\Generated_Source\PSoC5/Right_Phase_Counter.c **** *  void
 235:.\Generated_Source\PSoC5/Right_Phase_Counter.c **** *
 236:.\Generated_Source\PSoC5/Right_Phase_Counter.c **** *******************************************************************************/
 237:.\Generated_Source\PSoC5/Right_Phase_Counter.c **** void Right_Phase_Counter_SetInterruptMode(uint8 interruptsMask) 
 238:.\Generated_Source\PSoC5/Right_Phase_Counter.c **** {
  79              		.loc 1 238 0
  80              		.cfi_startproc
  81              		@ args = 0, pretend = 0, frame = 0
  82              		@ frame_needed = 0, uses_anonymous_args = 0
  83              		@ link register save eliminated.
  84              	.LVL0:
 239:.\Generated_Source\PSoC5/Right_Phase_Counter.c ****     Right_Phase_Counter_STATUS_MASK = interruptsMask;
  85              		.loc 1 239 0
  86 0000 014B     		ldr	r3, .L8
  87 0002 1870     		strb	r0, [r3]
  88 0004 7047     		bx	lr
  89              	.L9:
  90 0006 00BF     		.align	2
  91              	.L8:
  92 0008 85640040 		.word	1073767557
  93              		.cfi_endproc
  94              	.LFE4:
  95              		.size	Right_Phase_Counter_SetInterruptMode, .-Right_Phase_Counter_SetInterruptMode
  96              		.section	.text.Right_Phase_Counter_ReadStatusRegister,"ax",%progbits
  97              		.align	2
  98              		.global	Right_Phase_Counter_ReadStatusRegister
  99              		.thumb
 100              		.thumb_func
 101              		.type	Right_Phase_Counter_ReadStatusRegister, %function
 102              	Right_Phase_Counter_ReadStatusRegister:
 103              	.LFB5:
ARM GAS  C:\Users\Tim\AppData\Local\Temp\ccW9j88b.s 			page 7


 240:.\Generated_Source\PSoC5/Right_Phase_Counter.c **** }
 241:.\Generated_Source\PSoC5/Right_Phase_Counter.c **** 
 242:.\Generated_Source\PSoC5/Right_Phase_Counter.c **** 
 243:.\Generated_Source\PSoC5/Right_Phase_Counter.c **** /*******************************************************************************
 244:.\Generated_Source\PSoC5/Right_Phase_Counter.c **** * Function Name: Right_Phase_Counter_ReadStatusRegister
 245:.\Generated_Source\PSoC5/Right_Phase_Counter.c **** ********************************************************************************
 246:.\Generated_Source\PSoC5/Right_Phase_Counter.c **** * Summary:
 247:.\Generated_Source\PSoC5/Right_Phase_Counter.c **** *   Reads the status register and returns it's state. This function should use
 248:.\Generated_Source\PSoC5/Right_Phase_Counter.c **** *       defined types for the bit-field information as the bits in this
 249:.\Generated_Source\PSoC5/Right_Phase_Counter.c **** *       register may be permuteable.
 250:.\Generated_Source\PSoC5/Right_Phase_Counter.c **** *
 251:.\Generated_Source\PSoC5/Right_Phase_Counter.c **** * Parameters:  
 252:.\Generated_Source\PSoC5/Right_Phase_Counter.c **** *  void
 253:.\Generated_Source\PSoC5/Right_Phase_Counter.c **** *
 254:.\Generated_Source\PSoC5/Right_Phase_Counter.c **** * Return: 
 255:.\Generated_Source\PSoC5/Right_Phase_Counter.c **** *  (uint8) The contents of the status register
 256:.\Generated_Source\PSoC5/Right_Phase_Counter.c **** *
 257:.\Generated_Source\PSoC5/Right_Phase_Counter.c **** * Side Effects:
 258:.\Generated_Source\PSoC5/Right_Phase_Counter.c **** *   Status register bits may be clear on read. 
 259:.\Generated_Source\PSoC5/Right_Phase_Counter.c **** *
 260:.\Generated_Source\PSoC5/Right_Phase_Counter.c **** *******************************************************************************/
 261:.\Generated_Source\PSoC5/Right_Phase_Counter.c **** uint8   Right_Phase_Counter_ReadStatusRegister(void) 
 262:.\Generated_Source\PSoC5/Right_Phase_Counter.c **** {
 104              		.loc 1 262 0
 105              		.cfi_startproc
 106              		@ args = 0, pretend = 0, frame = 0
 107              		@ frame_needed = 0, uses_anonymous_args = 0
 108              		@ link register save eliminated.
 263:.\Generated_Source\PSoC5/Right_Phase_Counter.c ****     return Right_Phase_Counter_STATUS;
 109              		.loc 1 263 0
 110 0000 014B     		ldr	r3, .L11
 111 0002 1878     		ldrb	r0, [r3]	@ zero_extendqisi2
 264:.\Generated_Source\PSoC5/Right_Phase_Counter.c **** }
 112              		.loc 1 264 0
 113 0004 7047     		bx	lr
 114              	.L12:
 115 0006 00BF     		.align	2
 116              	.L11:
 117 0008 65640040 		.word	1073767525
 118              		.cfi_endproc
 119              	.LFE5:
 120              		.size	Right_Phase_Counter_ReadStatusRegister, .-Right_Phase_Counter_ReadStatusRegister
 121              		.section	.text.Right_Phase_Counter_ReadControlRegister,"ax",%progbits
 122              		.align	2
 123              		.global	Right_Phase_Counter_ReadControlRegister
 124              		.thumb
 125              		.thumb_func
 126              		.type	Right_Phase_Counter_ReadControlRegister, %function
 127              	Right_Phase_Counter_ReadControlRegister:
 128              	.LFB6:
 265:.\Generated_Source\PSoC5/Right_Phase_Counter.c **** 
 266:.\Generated_Source\PSoC5/Right_Phase_Counter.c **** 
 267:.\Generated_Source\PSoC5/Right_Phase_Counter.c **** #if(!Right_Phase_Counter_ControlRegRemoved)
 268:.\Generated_Source\PSoC5/Right_Phase_Counter.c **** /*******************************************************************************
 269:.\Generated_Source\PSoC5/Right_Phase_Counter.c **** * Function Name: Right_Phase_Counter_ReadControlRegister
 270:.\Generated_Source\PSoC5/Right_Phase_Counter.c **** ********************************************************************************
 271:.\Generated_Source\PSoC5/Right_Phase_Counter.c **** * Summary:
ARM GAS  C:\Users\Tim\AppData\Local\Temp\ccW9j88b.s 			page 8


 272:.\Generated_Source\PSoC5/Right_Phase_Counter.c **** *   Reads the control register and returns it's state. This function should use
 273:.\Generated_Source\PSoC5/Right_Phase_Counter.c **** *       defined types for the bit-field information as the bits in this
 274:.\Generated_Source\PSoC5/Right_Phase_Counter.c **** *       register may be permuteable.
 275:.\Generated_Source\PSoC5/Right_Phase_Counter.c **** *
 276:.\Generated_Source\PSoC5/Right_Phase_Counter.c **** * Parameters:  
 277:.\Generated_Source\PSoC5/Right_Phase_Counter.c **** *  void
 278:.\Generated_Source\PSoC5/Right_Phase_Counter.c **** *
 279:.\Generated_Source\PSoC5/Right_Phase_Counter.c **** * Return: 
 280:.\Generated_Source\PSoC5/Right_Phase_Counter.c **** *  (uint8) The contents of the control register
 281:.\Generated_Source\PSoC5/Right_Phase_Counter.c **** *
 282:.\Generated_Source\PSoC5/Right_Phase_Counter.c **** *******************************************************************************/
 283:.\Generated_Source\PSoC5/Right_Phase_Counter.c **** uint8   Right_Phase_Counter_ReadControlRegister(void) 
 284:.\Generated_Source\PSoC5/Right_Phase_Counter.c **** {
 129              		.loc 1 284 0
 130              		.cfi_startproc
 131              		@ args = 0, pretend = 0, frame = 0
 132              		@ frame_needed = 0, uses_anonymous_args = 0
 133              		@ link register save eliminated.
 285:.\Generated_Source\PSoC5/Right_Phase_Counter.c ****     return Right_Phase_Counter_CONTROL;
 134              		.loc 1 285 0
 135 0000 014B     		ldr	r3, .L14
 136 0002 1878     		ldrb	r0, [r3]	@ zero_extendqisi2
 286:.\Generated_Source\PSoC5/Right_Phase_Counter.c **** }
 137              		.loc 1 286 0
 138 0004 7047     		bx	lr
 139              	.L15:
 140 0006 00BF     		.align	2
 141              	.L14:
 142 0008 73640040 		.word	1073767539
 143              		.cfi_endproc
 144              	.LFE6:
 145              		.size	Right_Phase_Counter_ReadControlRegister, .-Right_Phase_Counter_ReadControlRegister
 146              		.section	.text.Right_Phase_Counter_WriteControlRegister,"ax",%progbits
 147              		.align	2
 148              		.global	Right_Phase_Counter_WriteControlRegister
 149              		.thumb
 150              		.thumb_func
 151              		.type	Right_Phase_Counter_WriteControlRegister, %function
 152              	Right_Phase_Counter_WriteControlRegister:
 153              	.LFB7:
 287:.\Generated_Source\PSoC5/Right_Phase_Counter.c **** 
 288:.\Generated_Source\PSoC5/Right_Phase_Counter.c **** 
 289:.\Generated_Source\PSoC5/Right_Phase_Counter.c **** /*******************************************************************************
 290:.\Generated_Source\PSoC5/Right_Phase_Counter.c **** * Function Name: Right_Phase_Counter_WriteControlRegister
 291:.\Generated_Source\PSoC5/Right_Phase_Counter.c **** ********************************************************************************
 292:.\Generated_Source\PSoC5/Right_Phase_Counter.c **** * Summary:
 293:.\Generated_Source\PSoC5/Right_Phase_Counter.c **** *   Sets the bit-field of the control register.  This function should use
 294:.\Generated_Source\PSoC5/Right_Phase_Counter.c **** *       defined types for the bit-field information as the bits in this
 295:.\Generated_Source\PSoC5/Right_Phase_Counter.c **** *       register may be permuteable.
 296:.\Generated_Source\PSoC5/Right_Phase_Counter.c **** *
 297:.\Generated_Source\PSoC5/Right_Phase_Counter.c **** * Parameters:  
 298:.\Generated_Source\PSoC5/Right_Phase_Counter.c **** *  void
 299:.\Generated_Source\PSoC5/Right_Phase_Counter.c **** *
 300:.\Generated_Source\PSoC5/Right_Phase_Counter.c **** * Return: 
 301:.\Generated_Source\PSoC5/Right_Phase_Counter.c **** *  (uint8) The contents of the control register
 302:.\Generated_Source\PSoC5/Right_Phase_Counter.c **** *
 303:.\Generated_Source\PSoC5/Right_Phase_Counter.c **** *******************************************************************************/
ARM GAS  C:\Users\Tim\AppData\Local\Temp\ccW9j88b.s 			page 9


 304:.\Generated_Source\PSoC5/Right_Phase_Counter.c **** void    Right_Phase_Counter_WriteControlRegister(uint8 control) 
 305:.\Generated_Source\PSoC5/Right_Phase_Counter.c **** {
 154              		.loc 1 305 0
 155              		.cfi_startproc
 156              		@ args = 0, pretend = 0, frame = 0
 157              		@ frame_needed = 0, uses_anonymous_args = 0
 158              		@ link register save eliminated.
 159              	.LVL1:
 306:.\Generated_Source\PSoC5/Right_Phase_Counter.c ****     Right_Phase_Counter_CONTROL = control;
 160              		.loc 1 306 0
 161 0000 014B     		ldr	r3, .L17
 162 0002 1870     		strb	r0, [r3]
 163 0004 7047     		bx	lr
 164              	.L18:
 165 0006 00BF     		.align	2
 166              	.L17:
 167 0008 73640040 		.word	1073767539
 168              		.cfi_endproc
 169              	.LFE7:
 170              		.size	Right_Phase_Counter_WriteControlRegister, .-Right_Phase_Counter_WriteControlRegister
 171              		.section	.text.Right_Phase_Counter_WriteCounter,"ax",%progbits
 172              		.align	2
 173              		.global	Right_Phase_Counter_WriteCounter
 174              		.thumb
 175              		.thumb_func
 176              		.type	Right_Phase_Counter_WriteCounter, %function
 177              	Right_Phase_Counter_WriteCounter:
 178              	.LFB8:
 307:.\Generated_Source\PSoC5/Right_Phase_Counter.c **** }
 308:.\Generated_Source\PSoC5/Right_Phase_Counter.c **** 
 309:.\Generated_Source\PSoC5/Right_Phase_Counter.c **** #endif  /* (!Right_Phase_Counter_ControlRegRemoved) */
 310:.\Generated_Source\PSoC5/Right_Phase_Counter.c **** 
 311:.\Generated_Source\PSoC5/Right_Phase_Counter.c **** 
 312:.\Generated_Source\PSoC5/Right_Phase_Counter.c **** #if (!(Right_Phase_Counter_UsingFixedFunction && (CY_PSOC5A)))
 313:.\Generated_Source\PSoC5/Right_Phase_Counter.c **** /*******************************************************************************
 314:.\Generated_Source\PSoC5/Right_Phase_Counter.c **** * Function Name: Right_Phase_Counter_WriteCounter
 315:.\Generated_Source\PSoC5/Right_Phase_Counter.c **** ********************************************************************************
 316:.\Generated_Source\PSoC5/Right_Phase_Counter.c **** * Summary:
 317:.\Generated_Source\PSoC5/Right_Phase_Counter.c **** *   This funtion is used to set the counter to a specific value
 318:.\Generated_Source\PSoC5/Right_Phase_Counter.c **** *
 319:.\Generated_Source\PSoC5/Right_Phase_Counter.c **** * Parameters:  
 320:.\Generated_Source\PSoC5/Right_Phase_Counter.c **** *  counter:  New counter value. 
 321:.\Generated_Source\PSoC5/Right_Phase_Counter.c **** *
 322:.\Generated_Source\PSoC5/Right_Phase_Counter.c **** * Return: 
 323:.\Generated_Source\PSoC5/Right_Phase_Counter.c **** *  void 
 324:.\Generated_Source\PSoC5/Right_Phase_Counter.c **** *
 325:.\Generated_Source\PSoC5/Right_Phase_Counter.c **** *******************************************************************************/
 326:.\Generated_Source\PSoC5/Right_Phase_Counter.c **** void Right_Phase_Counter_WriteCounter(uint32 counter) \
 327:.\Generated_Source\PSoC5/Right_Phase_Counter.c ****                                    
 328:.\Generated_Source\PSoC5/Right_Phase_Counter.c **** {
 179              		.loc 1 328 0
 180              		.cfi_startproc
 181              		@ args = 0, pretend = 0, frame = 0
 182              		@ frame_needed = 0, uses_anonymous_args = 0
 183              		@ link register save eliminated.
 184              	.LVL2:
 329:.\Generated_Source\PSoC5/Right_Phase_Counter.c ****     #if(Right_Phase_Counter_UsingFixedFunction)
ARM GAS  C:\Users\Tim\AppData\Local\Temp\ccW9j88b.s 			page 10


 330:.\Generated_Source\PSoC5/Right_Phase_Counter.c ****         /* assert if block is already enabled */
 331:.\Generated_Source\PSoC5/Right_Phase_Counter.c ****         CYASSERT (0u == (Right_Phase_Counter_GLOBAL_ENABLE & Right_Phase_Counter_BLOCK_EN_MASK));
 332:.\Generated_Source\PSoC5/Right_Phase_Counter.c ****         /* If block is disabled, enable it and then write the counter */
 333:.\Generated_Source\PSoC5/Right_Phase_Counter.c ****         Right_Phase_Counter_GLOBAL_ENABLE |= Right_Phase_Counter_BLOCK_EN_MASK;
 334:.\Generated_Source\PSoC5/Right_Phase_Counter.c ****         CY_SET_REG16(Right_Phase_Counter_COUNTER_LSB_PTR, (uint16)counter);
 335:.\Generated_Source\PSoC5/Right_Phase_Counter.c ****         Right_Phase_Counter_GLOBAL_ENABLE &= ((uint8)(~Right_Phase_Counter_BLOCK_EN_MASK));
 336:.\Generated_Source\PSoC5/Right_Phase_Counter.c ****     #else
 337:.\Generated_Source\PSoC5/Right_Phase_Counter.c ****         CY_SET_REG32(Right_Phase_Counter_COUNTER_LSB_PTR, counter);
 185              		.loc 1 337 0
 186 0000 014B     		ldr	r3, .L20
 187 0002 1A68     		ldr	r2, [r3]
 188 0004 1860     		str	r0, [r3]
 189 0006 7047     		bx	lr
 190              	.L21:
 191              		.align	2
 192              	.L20:
 193 0008 02640040 		.word	1073767426
 194              		.cfi_endproc
 195              	.LFE8:
 196              		.size	Right_Phase_Counter_WriteCounter, .-Right_Phase_Counter_WriteCounter
 197              		.section	.text.Right_Phase_Counter_ReadCounter,"ax",%progbits
 198              		.align	2
 199              		.global	Right_Phase_Counter_ReadCounter
 200              		.thumb
 201              		.thumb_func
 202              		.type	Right_Phase_Counter_ReadCounter, %function
 203              	Right_Phase_Counter_ReadCounter:
 204              	.LFB9:
 338:.\Generated_Source\PSoC5/Right_Phase_Counter.c ****     #endif /* (Right_Phase_Counter_UsingFixedFunction) */
 339:.\Generated_Source\PSoC5/Right_Phase_Counter.c **** }
 340:.\Generated_Source\PSoC5/Right_Phase_Counter.c **** #endif /* (!(Right_Phase_Counter_UsingFixedFunction && (CY_PSOC5A))) */
 341:.\Generated_Source\PSoC5/Right_Phase_Counter.c **** 
 342:.\Generated_Source\PSoC5/Right_Phase_Counter.c **** 
 343:.\Generated_Source\PSoC5/Right_Phase_Counter.c **** /*******************************************************************************
 344:.\Generated_Source\PSoC5/Right_Phase_Counter.c **** * Function Name: Right_Phase_Counter_ReadCounter
 345:.\Generated_Source\PSoC5/Right_Phase_Counter.c **** ********************************************************************************
 346:.\Generated_Source\PSoC5/Right_Phase_Counter.c **** * Summary:
 347:.\Generated_Source\PSoC5/Right_Phase_Counter.c **** * Returns the current value of the counter.  It doesn't matter
 348:.\Generated_Source\PSoC5/Right_Phase_Counter.c **** * if the counter is enabled or running.
 349:.\Generated_Source\PSoC5/Right_Phase_Counter.c **** *
 350:.\Generated_Source\PSoC5/Right_Phase_Counter.c **** * Parameters:  
 351:.\Generated_Source\PSoC5/Right_Phase_Counter.c **** *  void:  
 352:.\Generated_Source\PSoC5/Right_Phase_Counter.c **** *
 353:.\Generated_Source\PSoC5/Right_Phase_Counter.c **** * Return: 
 354:.\Generated_Source\PSoC5/Right_Phase_Counter.c **** *  (uint32) The present value of the counter.
 355:.\Generated_Source\PSoC5/Right_Phase_Counter.c **** *
 356:.\Generated_Source\PSoC5/Right_Phase_Counter.c **** *******************************************************************************/
 357:.\Generated_Source\PSoC5/Right_Phase_Counter.c **** uint32 Right_Phase_Counter_ReadCounter(void) 
 358:.\Generated_Source\PSoC5/Right_Phase_Counter.c **** {
 205              		.loc 1 358 0
 206              		.cfi_startproc
 207              		@ args = 0, pretend = 0, frame = 0
 208              		@ frame_needed = 0, uses_anonymous_args = 0
 209              		@ link register save eliminated.
 359:.\Generated_Source\PSoC5/Right_Phase_Counter.c ****     /* Force capture by reading Accumulator */
 360:.\Generated_Source\PSoC5/Right_Phase_Counter.c ****     /* Must first do a software capture to be able to read the counter */
 361:.\Generated_Source\PSoC5/Right_Phase_Counter.c ****     /* It is up to the user code to make sure there isn't already captured data in the FIFO */
ARM GAS  C:\Users\Tim\AppData\Local\Temp\ccW9j88b.s 			page 11


 362:.\Generated_Source\PSoC5/Right_Phase_Counter.c ****     #if(Right_Phase_Counter_UsingFixedFunction)
 363:.\Generated_Source\PSoC5/Right_Phase_Counter.c **** 		(void)CY_GET_REG16(Right_Phase_Counter_COUNTER_LSB_PTR);
 364:.\Generated_Source\PSoC5/Right_Phase_Counter.c **** 	#else
 365:.\Generated_Source\PSoC5/Right_Phase_Counter.c **** 		(void)CY_GET_REG8(Right_Phase_Counter_COUNTER_LSB_PTR_8BIT);
 210              		.loc 1 365 0
 211 0000 024B     		ldr	r3, .L23
 212 0002 1B78     		ldrb	r3, [r3]	@ zero_extendqisi2
 366:.\Generated_Source\PSoC5/Right_Phase_Counter.c **** 	#endif/* (Right_Phase_Counter_UsingFixedFunction) */
 367:.\Generated_Source\PSoC5/Right_Phase_Counter.c ****     
 368:.\Generated_Source\PSoC5/Right_Phase_Counter.c ****     /* Read the data from the FIFO (or capture register for Fixed Function)*/
 369:.\Generated_Source\PSoC5/Right_Phase_Counter.c ****     #if(Right_Phase_Counter_UsingFixedFunction)
 370:.\Generated_Source\PSoC5/Right_Phase_Counter.c ****         return ((uint32)CY_GET_REG16(Right_Phase_Counter_STATICCOUNT_LSB_PTR));
 371:.\Generated_Source\PSoC5/Right_Phase_Counter.c ****     #else
 372:.\Generated_Source\PSoC5/Right_Phase_Counter.c ****         return (CY_GET_REG32(Right_Phase_Counter_STATICCOUNT_LSB_PTR));
 213              		.loc 1 372 0
 214 0004 024B     		ldr	r3, .L23+4
 215 0006 1868     		ldr	r0, [r3]
 373:.\Generated_Source\PSoC5/Right_Phase_Counter.c ****     #endif /* (Right_Phase_Counter_UsingFixedFunction) */
 374:.\Generated_Source\PSoC5/Right_Phase_Counter.c **** }
 216              		.loc 1 374 0
 217 0008 7047     		bx	lr
 218              	.L24:
 219 000a 00BF     		.align	2
 220              	.L23:
 221 000c 02640040 		.word	1073767426
 222 0010 42640040 		.word	1073767490
 223              		.cfi_endproc
 224              	.LFE9:
 225              		.size	Right_Phase_Counter_ReadCounter, .-Right_Phase_Counter_ReadCounter
 226              		.section	.text.Right_Phase_Counter_ReadCapture,"ax",%progbits
 227              		.align	2
 228              		.global	Right_Phase_Counter_ReadCapture
 229              		.thumb
 230              		.thumb_func
 231              		.type	Right_Phase_Counter_ReadCapture, %function
 232              	Right_Phase_Counter_ReadCapture:
 233              	.LFB10:
 375:.\Generated_Source\PSoC5/Right_Phase_Counter.c **** 
 376:.\Generated_Source\PSoC5/Right_Phase_Counter.c **** 
 377:.\Generated_Source\PSoC5/Right_Phase_Counter.c **** /*******************************************************************************
 378:.\Generated_Source\PSoC5/Right_Phase_Counter.c **** * Function Name: Right_Phase_Counter_ReadCapture
 379:.\Generated_Source\PSoC5/Right_Phase_Counter.c **** ********************************************************************************
 380:.\Generated_Source\PSoC5/Right_Phase_Counter.c **** * Summary:
 381:.\Generated_Source\PSoC5/Right_Phase_Counter.c **** *   This function returns the last value captured.
 382:.\Generated_Source\PSoC5/Right_Phase_Counter.c **** *
 383:.\Generated_Source\PSoC5/Right_Phase_Counter.c **** * Parameters:  
 384:.\Generated_Source\PSoC5/Right_Phase_Counter.c **** *  void
 385:.\Generated_Source\PSoC5/Right_Phase_Counter.c **** *
 386:.\Generated_Source\PSoC5/Right_Phase_Counter.c **** * Return: 
 387:.\Generated_Source\PSoC5/Right_Phase_Counter.c **** *  (uint32) Present Capture value.
 388:.\Generated_Source\PSoC5/Right_Phase_Counter.c **** *
 389:.\Generated_Source\PSoC5/Right_Phase_Counter.c **** *******************************************************************************/
 390:.\Generated_Source\PSoC5/Right_Phase_Counter.c **** uint32 Right_Phase_Counter_ReadCapture(void) 
 391:.\Generated_Source\PSoC5/Right_Phase_Counter.c **** {
 234              		.loc 1 391 0
 235              		.cfi_startproc
 236              		@ args = 0, pretend = 0, frame = 0
ARM GAS  C:\Users\Tim\AppData\Local\Temp\ccW9j88b.s 			page 12


 237              		@ frame_needed = 0, uses_anonymous_args = 0
 238              		@ link register save eliminated.
 392:.\Generated_Source\PSoC5/Right_Phase_Counter.c ****     #if(Right_Phase_Counter_UsingFixedFunction)
 393:.\Generated_Source\PSoC5/Right_Phase_Counter.c ****         return ((uint32)CY_GET_REG16(Right_Phase_Counter_STATICCOUNT_LSB_PTR));
 394:.\Generated_Source\PSoC5/Right_Phase_Counter.c ****     #else
 395:.\Generated_Source\PSoC5/Right_Phase_Counter.c ****         return (CY_GET_REG32(Right_Phase_Counter_STATICCOUNT_LSB_PTR));
 239              		.loc 1 395 0
 240 0000 014B     		ldr	r3, .L26
 241 0002 1868     		ldr	r0, [r3]
 396:.\Generated_Source\PSoC5/Right_Phase_Counter.c ****     #endif /* (Right_Phase_Counter_UsingFixedFunction) */
 397:.\Generated_Source\PSoC5/Right_Phase_Counter.c **** }
 242              		.loc 1 397 0
 243 0004 7047     		bx	lr
 244              	.L27:
 245 0006 00BF     		.align	2
 246              	.L26:
 247 0008 42640040 		.word	1073767490
 248              		.cfi_endproc
 249              	.LFE10:
 250              		.size	Right_Phase_Counter_ReadCapture, .-Right_Phase_Counter_ReadCapture
 251              		.section	.text.Right_Phase_Counter_WritePeriod,"ax",%progbits
 252              		.align	2
 253              		.global	Right_Phase_Counter_WritePeriod
 254              		.thumb
 255              		.thumb_func
 256              		.type	Right_Phase_Counter_WritePeriod, %function
 257              	Right_Phase_Counter_WritePeriod:
 258              	.LFB11:
 398:.\Generated_Source\PSoC5/Right_Phase_Counter.c **** 
 399:.\Generated_Source\PSoC5/Right_Phase_Counter.c **** 
 400:.\Generated_Source\PSoC5/Right_Phase_Counter.c **** /*******************************************************************************
 401:.\Generated_Source\PSoC5/Right_Phase_Counter.c **** * Function Name: Right_Phase_Counter_WritePeriod
 402:.\Generated_Source\PSoC5/Right_Phase_Counter.c **** ********************************************************************************
 403:.\Generated_Source\PSoC5/Right_Phase_Counter.c **** * Summary:
 404:.\Generated_Source\PSoC5/Right_Phase_Counter.c **** * Changes the period of the counter.  The new period 
 405:.\Generated_Source\PSoC5/Right_Phase_Counter.c **** * will be loaded the next time terminal count is detected.
 406:.\Generated_Source\PSoC5/Right_Phase_Counter.c **** *
 407:.\Generated_Source\PSoC5/Right_Phase_Counter.c **** * Parameters:  
 408:.\Generated_Source\PSoC5/Right_Phase_Counter.c **** *  period: (uint32) A value of 0 will result in
 409:.\Generated_Source\PSoC5/Right_Phase_Counter.c **** *         the counter remaining at zero.  
 410:.\Generated_Source\PSoC5/Right_Phase_Counter.c **** *
 411:.\Generated_Source\PSoC5/Right_Phase_Counter.c **** * Return: 
 412:.\Generated_Source\PSoC5/Right_Phase_Counter.c **** *  void
 413:.\Generated_Source\PSoC5/Right_Phase_Counter.c **** *
 414:.\Generated_Source\PSoC5/Right_Phase_Counter.c **** *******************************************************************************/
 415:.\Generated_Source\PSoC5/Right_Phase_Counter.c **** void Right_Phase_Counter_WritePeriod(uint32 period) 
 416:.\Generated_Source\PSoC5/Right_Phase_Counter.c **** {
 259              		.loc 1 416 0
 260              		.cfi_startproc
 261              		@ args = 0, pretend = 0, frame = 0
 262              		@ frame_needed = 0, uses_anonymous_args = 0
 263              		@ link register save eliminated.
 264              	.LVL3:
 417:.\Generated_Source\PSoC5/Right_Phase_Counter.c ****     #if(Right_Phase_Counter_UsingFixedFunction)
 418:.\Generated_Source\PSoC5/Right_Phase_Counter.c ****         CY_SET_REG16(Right_Phase_Counter_PERIOD_LSB_PTR,(uint16)period);
 419:.\Generated_Source\PSoC5/Right_Phase_Counter.c ****     #else
 420:.\Generated_Source\PSoC5/Right_Phase_Counter.c ****         CY_SET_REG32(Right_Phase_Counter_PERIOD_LSB_PTR, period);
ARM GAS  C:\Users\Tim\AppData\Local\Temp\ccW9j88b.s 			page 13


 265              		.loc 1 420 0
 266 0000 014B     		ldr	r3, .L29
 267 0002 1A68     		ldr	r2, [r3]
 268 0004 1860     		str	r0, [r3]
 269 0006 7047     		bx	lr
 270              	.L30:
 271              		.align	2
 272              	.L29:
 273 0008 22640040 		.word	1073767458
 274              		.cfi_endproc
 275              	.LFE11:
 276              		.size	Right_Phase_Counter_WritePeriod, .-Right_Phase_Counter_WritePeriod
 277              		.section	.text.Right_Phase_Counter_ReadPeriod,"ax",%progbits
 278              		.align	2
 279              		.global	Right_Phase_Counter_ReadPeriod
 280              		.thumb
 281              		.thumb_func
 282              		.type	Right_Phase_Counter_ReadPeriod, %function
 283              	Right_Phase_Counter_ReadPeriod:
 284              	.LFB12:
 421:.\Generated_Source\PSoC5/Right_Phase_Counter.c ****     #endif /* (Right_Phase_Counter_UsingFixedFunction) */
 422:.\Generated_Source\PSoC5/Right_Phase_Counter.c **** }
 423:.\Generated_Source\PSoC5/Right_Phase_Counter.c **** 
 424:.\Generated_Source\PSoC5/Right_Phase_Counter.c **** 
 425:.\Generated_Source\PSoC5/Right_Phase_Counter.c **** /*******************************************************************************
 426:.\Generated_Source\PSoC5/Right_Phase_Counter.c **** * Function Name: Right_Phase_Counter_ReadPeriod
 427:.\Generated_Source\PSoC5/Right_Phase_Counter.c **** ********************************************************************************
 428:.\Generated_Source\PSoC5/Right_Phase_Counter.c **** * Summary:
 429:.\Generated_Source\PSoC5/Right_Phase_Counter.c **** * Reads the current period value without affecting counter operation.
 430:.\Generated_Source\PSoC5/Right_Phase_Counter.c **** *
 431:.\Generated_Source\PSoC5/Right_Phase_Counter.c **** * Parameters:  
 432:.\Generated_Source\PSoC5/Right_Phase_Counter.c **** *  void:  
 433:.\Generated_Source\PSoC5/Right_Phase_Counter.c **** *
 434:.\Generated_Source\PSoC5/Right_Phase_Counter.c **** * Return: 
 435:.\Generated_Source\PSoC5/Right_Phase_Counter.c **** *  (uint32) Present period value.
 436:.\Generated_Source\PSoC5/Right_Phase_Counter.c **** *
 437:.\Generated_Source\PSoC5/Right_Phase_Counter.c **** *******************************************************************************/
 438:.\Generated_Source\PSoC5/Right_Phase_Counter.c **** uint32 Right_Phase_Counter_ReadPeriod(void) 
 439:.\Generated_Source\PSoC5/Right_Phase_Counter.c **** {
 285              		.loc 1 439 0
 286              		.cfi_startproc
 287              		@ args = 0, pretend = 0, frame = 0
 288              		@ frame_needed = 0, uses_anonymous_args = 0
 289              		@ link register save eliminated.
 440:.\Generated_Source\PSoC5/Right_Phase_Counter.c ****     #if(Right_Phase_Counter_UsingFixedFunction)
 441:.\Generated_Source\PSoC5/Right_Phase_Counter.c ****         return ((uint32)CY_GET_REG16(Right_Phase_Counter_PERIOD_LSB_PTR));
 442:.\Generated_Source\PSoC5/Right_Phase_Counter.c ****     #else
 443:.\Generated_Source\PSoC5/Right_Phase_Counter.c ****         return (CY_GET_REG32(Right_Phase_Counter_PERIOD_LSB_PTR));
 290              		.loc 1 443 0
 291 0000 014B     		ldr	r3, .L32
 292 0002 1868     		ldr	r0, [r3]
 444:.\Generated_Source\PSoC5/Right_Phase_Counter.c ****     #endif /* (Right_Phase_Counter_UsingFixedFunction) */
 445:.\Generated_Source\PSoC5/Right_Phase_Counter.c **** }
 293              		.loc 1 445 0
 294 0004 7047     		bx	lr
 295              	.L33:
 296 0006 00BF     		.align	2
ARM GAS  C:\Users\Tim\AppData\Local\Temp\ccW9j88b.s 			page 14


 297              	.L32:
 298 0008 22640040 		.word	1073767458
 299              		.cfi_endproc
 300              	.LFE12:
 301              		.size	Right_Phase_Counter_ReadPeriod, .-Right_Phase_Counter_ReadPeriod
 302              		.section	.text.Right_Phase_Counter_WriteCompare,"ax",%progbits
 303              		.align	2
 304              		.global	Right_Phase_Counter_WriteCompare
 305              		.thumb
 306              		.thumb_func
 307              		.type	Right_Phase_Counter_WriteCompare, %function
 308              	Right_Phase_Counter_WriteCompare:
 309              	.LFB13:
 446:.\Generated_Source\PSoC5/Right_Phase_Counter.c **** 
 447:.\Generated_Source\PSoC5/Right_Phase_Counter.c **** 
 448:.\Generated_Source\PSoC5/Right_Phase_Counter.c **** #if (!Right_Phase_Counter_UsingFixedFunction)
 449:.\Generated_Source\PSoC5/Right_Phase_Counter.c **** /*******************************************************************************
 450:.\Generated_Source\PSoC5/Right_Phase_Counter.c **** * Function Name: Right_Phase_Counter_WriteCompare
 451:.\Generated_Source\PSoC5/Right_Phase_Counter.c **** ********************************************************************************
 452:.\Generated_Source\PSoC5/Right_Phase_Counter.c **** * Summary:
 453:.\Generated_Source\PSoC5/Right_Phase_Counter.c **** * Changes the compare value.  The compare output will 
 454:.\Generated_Source\PSoC5/Right_Phase_Counter.c **** * reflect the new value on the next UDB clock.  The compare output will be 
 455:.\Generated_Source\PSoC5/Right_Phase_Counter.c **** * driven high when the present counter value compares true based on the 
 456:.\Generated_Source\PSoC5/Right_Phase_Counter.c **** * configured compare mode setting. 
 457:.\Generated_Source\PSoC5/Right_Phase_Counter.c **** *
 458:.\Generated_Source\PSoC5/Right_Phase_Counter.c **** * Parameters:  
 459:.\Generated_Source\PSoC5/Right_Phase_Counter.c **** *  Compare:  New compare value. 
 460:.\Generated_Source\PSoC5/Right_Phase_Counter.c **** *
 461:.\Generated_Source\PSoC5/Right_Phase_Counter.c **** * Return: 
 462:.\Generated_Source\PSoC5/Right_Phase_Counter.c **** *  void
 463:.\Generated_Source\PSoC5/Right_Phase_Counter.c **** *
 464:.\Generated_Source\PSoC5/Right_Phase_Counter.c **** *******************************************************************************/
 465:.\Generated_Source\PSoC5/Right_Phase_Counter.c **** void Right_Phase_Counter_WriteCompare(uint32 compare) \
 466:.\Generated_Source\PSoC5/Right_Phase_Counter.c ****                                    
 467:.\Generated_Source\PSoC5/Right_Phase_Counter.c **** {
 310              		.loc 1 467 0
 311              		.cfi_startproc
 312              		@ args = 0, pretend = 0, frame = 0
 313              		@ frame_needed = 0, uses_anonymous_args = 0
 314              		@ link register save eliminated.
 315              	.LVL4:
 468:.\Generated_Source\PSoC5/Right_Phase_Counter.c ****     #if(Right_Phase_Counter_UsingFixedFunction)
 469:.\Generated_Source\PSoC5/Right_Phase_Counter.c ****         CY_SET_REG16(Right_Phase_Counter_COMPARE_LSB_PTR, (uint16)compare);
 470:.\Generated_Source\PSoC5/Right_Phase_Counter.c ****     #else
 471:.\Generated_Source\PSoC5/Right_Phase_Counter.c ****         CY_SET_REG32(Right_Phase_Counter_COMPARE_LSB_PTR, compare);
 316              		.loc 1 471 0
 317 0000 014B     		ldr	r3, .L35
 318 0002 1A68     		ldr	r2, [r3]
 319 0004 1860     		str	r0, [r3]
 320 0006 7047     		bx	lr
 321              	.L36:
 322              		.align	2
 323              	.L35:
 324 0008 32640040 		.word	1073767474
 325              		.cfi_endproc
 326              	.LFE13:
 327              		.size	Right_Phase_Counter_WriteCompare, .-Right_Phase_Counter_WriteCompare
ARM GAS  C:\Users\Tim\AppData\Local\Temp\ccW9j88b.s 			page 15


 328              		.section	.text.Right_Phase_Counter_ReadCompare,"ax",%progbits
 329              		.align	2
 330              		.global	Right_Phase_Counter_ReadCompare
 331              		.thumb
 332              		.thumb_func
 333              		.type	Right_Phase_Counter_ReadCompare, %function
 334              	Right_Phase_Counter_ReadCompare:
 335              	.LFB14:
 472:.\Generated_Source\PSoC5/Right_Phase_Counter.c ****     #endif /* (Right_Phase_Counter_UsingFixedFunction) */
 473:.\Generated_Source\PSoC5/Right_Phase_Counter.c **** }
 474:.\Generated_Source\PSoC5/Right_Phase_Counter.c **** 
 475:.\Generated_Source\PSoC5/Right_Phase_Counter.c **** 
 476:.\Generated_Source\PSoC5/Right_Phase_Counter.c **** /*******************************************************************************
 477:.\Generated_Source\PSoC5/Right_Phase_Counter.c **** * Function Name: Right_Phase_Counter_ReadCompare
 478:.\Generated_Source\PSoC5/Right_Phase_Counter.c **** ********************************************************************************
 479:.\Generated_Source\PSoC5/Right_Phase_Counter.c **** * Summary:
 480:.\Generated_Source\PSoC5/Right_Phase_Counter.c **** * Returns the compare value.
 481:.\Generated_Source\PSoC5/Right_Phase_Counter.c **** *
 482:.\Generated_Source\PSoC5/Right_Phase_Counter.c **** * Parameters:  
 483:.\Generated_Source\PSoC5/Right_Phase_Counter.c **** *  void:
 484:.\Generated_Source\PSoC5/Right_Phase_Counter.c **** *
 485:.\Generated_Source\PSoC5/Right_Phase_Counter.c **** * Return: 
 486:.\Generated_Source\PSoC5/Right_Phase_Counter.c **** *  (uint32) Present compare value.
 487:.\Generated_Source\PSoC5/Right_Phase_Counter.c **** *
 488:.\Generated_Source\PSoC5/Right_Phase_Counter.c **** *******************************************************************************/
 489:.\Generated_Source\PSoC5/Right_Phase_Counter.c **** uint32 Right_Phase_Counter_ReadCompare(void) 
 490:.\Generated_Source\PSoC5/Right_Phase_Counter.c **** {
 336              		.loc 1 490 0
 337              		.cfi_startproc
 338              		@ args = 0, pretend = 0, frame = 0
 339              		@ frame_needed = 0, uses_anonymous_args = 0
 340              		@ link register save eliminated.
 491:.\Generated_Source\PSoC5/Right_Phase_Counter.c ****     return (CY_GET_REG32(Right_Phase_Counter_COMPARE_LSB_PTR));
 341              		.loc 1 491 0
 342 0000 014B     		ldr	r3, .L38
 343 0002 1868     		ldr	r0, [r3]
 492:.\Generated_Source\PSoC5/Right_Phase_Counter.c **** }
 344              		.loc 1 492 0
 345 0004 7047     		bx	lr
 346              	.L39:
 347 0006 00BF     		.align	2
 348              	.L38:
 349 0008 32640040 		.word	1073767474
 350              		.cfi_endproc
 351              	.LFE14:
 352              		.size	Right_Phase_Counter_ReadCompare, .-Right_Phase_Counter_ReadCompare
 353              		.section	.text.Right_Phase_Counter_ClearFIFO,"ax",%progbits
 354              		.align	2
 355              		.global	Right_Phase_Counter_ClearFIFO
 356              		.thumb
 357              		.thumb_func
 358              		.type	Right_Phase_Counter_ClearFIFO, %function
 359              	Right_Phase_Counter_ClearFIFO:
 360              	.LFB15:
 493:.\Generated_Source\PSoC5/Right_Phase_Counter.c **** 
 494:.\Generated_Source\PSoC5/Right_Phase_Counter.c **** 
 495:.\Generated_Source\PSoC5/Right_Phase_Counter.c **** #if (Right_Phase_Counter_COMPARE_MODE_SOFTWARE)
ARM GAS  C:\Users\Tim\AppData\Local\Temp\ccW9j88b.s 			page 16


 496:.\Generated_Source\PSoC5/Right_Phase_Counter.c **** /*******************************************************************************
 497:.\Generated_Source\PSoC5/Right_Phase_Counter.c **** * Function Name: Right_Phase_Counter_SetCompareMode
 498:.\Generated_Source\PSoC5/Right_Phase_Counter.c **** ********************************************************************************
 499:.\Generated_Source\PSoC5/Right_Phase_Counter.c **** * Summary:
 500:.\Generated_Source\PSoC5/Right_Phase_Counter.c **** *  Sets the software controlled Compare Mode.
 501:.\Generated_Source\PSoC5/Right_Phase_Counter.c **** *
 502:.\Generated_Source\PSoC5/Right_Phase_Counter.c **** * Parameters:
 503:.\Generated_Source\PSoC5/Right_Phase_Counter.c **** *  compareMode:  Compare Mode Enumerated Type.
 504:.\Generated_Source\PSoC5/Right_Phase_Counter.c **** *
 505:.\Generated_Source\PSoC5/Right_Phase_Counter.c **** * Return:
 506:.\Generated_Source\PSoC5/Right_Phase_Counter.c **** *  void
 507:.\Generated_Source\PSoC5/Right_Phase_Counter.c **** *
 508:.\Generated_Source\PSoC5/Right_Phase_Counter.c **** *******************************************************************************/
 509:.\Generated_Source\PSoC5/Right_Phase_Counter.c **** void Right_Phase_Counter_SetCompareMode(uint8 compareMode) 
 510:.\Generated_Source\PSoC5/Right_Phase_Counter.c **** {
 511:.\Generated_Source\PSoC5/Right_Phase_Counter.c ****     /* Clear the compare mode bits in the control register */
 512:.\Generated_Source\PSoC5/Right_Phase_Counter.c ****     Right_Phase_Counter_CONTROL &= ((uint8)(~Right_Phase_Counter_CTRL_CMPMODE_MASK));
 513:.\Generated_Source\PSoC5/Right_Phase_Counter.c ****     
 514:.\Generated_Source\PSoC5/Right_Phase_Counter.c ****     /* Write the new setting */
 515:.\Generated_Source\PSoC5/Right_Phase_Counter.c ****     Right_Phase_Counter_CONTROL |= compareMode;
 516:.\Generated_Source\PSoC5/Right_Phase_Counter.c **** }
 517:.\Generated_Source\PSoC5/Right_Phase_Counter.c **** #endif  /* (Right_Phase_Counter_COMPARE_MODE_SOFTWARE) */
 518:.\Generated_Source\PSoC5/Right_Phase_Counter.c **** 
 519:.\Generated_Source\PSoC5/Right_Phase_Counter.c **** 
 520:.\Generated_Source\PSoC5/Right_Phase_Counter.c **** #if (Right_Phase_Counter_CAPTURE_MODE_SOFTWARE)
 521:.\Generated_Source\PSoC5/Right_Phase_Counter.c **** /*******************************************************************************
 522:.\Generated_Source\PSoC5/Right_Phase_Counter.c **** * Function Name: Right_Phase_Counter_SetCaptureMode
 523:.\Generated_Source\PSoC5/Right_Phase_Counter.c **** ********************************************************************************
 524:.\Generated_Source\PSoC5/Right_Phase_Counter.c **** * Summary:
 525:.\Generated_Source\PSoC5/Right_Phase_Counter.c **** *  Sets the software controlled Capture Mode.
 526:.\Generated_Source\PSoC5/Right_Phase_Counter.c **** *
 527:.\Generated_Source\PSoC5/Right_Phase_Counter.c **** * Parameters:
 528:.\Generated_Source\PSoC5/Right_Phase_Counter.c **** *  captureMode:  Capture Mode Enumerated Type.
 529:.\Generated_Source\PSoC5/Right_Phase_Counter.c **** *
 530:.\Generated_Source\PSoC5/Right_Phase_Counter.c **** * Return:
 531:.\Generated_Source\PSoC5/Right_Phase_Counter.c **** *  void
 532:.\Generated_Source\PSoC5/Right_Phase_Counter.c **** *
 533:.\Generated_Source\PSoC5/Right_Phase_Counter.c **** *******************************************************************************/
 534:.\Generated_Source\PSoC5/Right_Phase_Counter.c **** void Right_Phase_Counter_SetCaptureMode(uint8 captureMode) 
 535:.\Generated_Source\PSoC5/Right_Phase_Counter.c **** {
 536:.\Generated_Source\PSoC5/Right_Phase_Counter.c ****     /* Clear the capture mode bits in the control register */
 537:.\Generated_Source\PSoC5/Right_Phase_Counter.c ****     Right_Phase_Counter_CONTROL &= ((uint8)(~Right_Phase_Counter_CTRL_CAPMODE_MASK));
 538:.\Generated_Source\PSoC5/Right_Phase_Counter.c ****     
 539:.\Generated_Source\PSoC5/Right_Phase_Counter.c ****     /* Write the new setting */
 540:.\Generated_Source\PSoC5/Right_Phase_Counter.c ****     Right_Phase_Counter_CONTROL |= ((uint8)((uint8)captureMode << Right_Phase_Counter_CTRL_CAPMODE0
 541:.\Generated_Source\PSoC5/Right_Phase_Counter.c **** }
 542:.\Generated_Source\PSoC5/Right_Phase_Counter.c **** #endif  /* (Right_Phase_Counter_CAPTURE_MODE_SOFTWARE) */
 543:.\Generated_Source\PSoC5/Right_Phase_Counter.c **** 
 544:.\Generated_Source\PSoC5/Right_Phase_Counter.c **** 
 545:.\Generated_Source\PSoC5/Right_Phase_Counter.c **** /*******************************************************************************
 546:.\Generated_Source\PSoC5/Right_Phase_Counter.c **** * Function Name: Right_Phase_Counter_ClearFIFO
 547:.\Generated_Source\PSoC5/Right_Phase_Counter.c **** ********************************************************************************
 548:.\Generated_Source\PSoC5/Right_Phase_Counter.c **** * Summary:
 549:.\Generated_Source\PSoC5/Right_Phase_Counter.c **** *   This function clears all capture data from the capture FIFO
 550:.\Generated_Source\PSoC5/Right_Phase_Counter.c **** *
 551:.\Generated_Source\PSoC5/Right_Phase_Counter.c **** * Parameters:  
 552:.\Generated_Source\PSoC5/Right_Phase_Counter.c **** *  void:
ARM GAS  C:\Users\Tim\AppData\Local\Temp\ccW9j88b.s 			page 17


 553:.\Generated_Source\PSoC5/Right_Phase_Counter.c **** *
 554:.\Generated_Source\PSoC5/Right_Phase_Counter.c **** * Return: 
 555:.\Generated_Source\PSoC5/Right_Phase_Counter.c **** *  None
 556:.\Generated_Source\PSoC5/Right_Phase_Counter.c **** *
 557:.\Generated_Source\PSoC5/Right_Phase_Counter.c **** *******************************************************************************/
 558:.\Generated_Source\PSoC5/Right_Phase_Counter.c **** void Right_Phase_Counter_ClearFIFO(void) 
 559:.\Generated_Source\PSoC5/Right_Phase_Counter.c **** {
 361              		.loc 1 559 0
 362              		.cfi_startproc
 363              		@ args = 0, pretend = 0, frame = 0
 364              		@ frame_needed = 0, uses_anonymous_args = 0
 365 0000 08B5     		push	{r3, lr}
 366              		.cfi_def_cfa_offset 8
 367              		.cfi_offset 3, -8
 368              		.cfi_offset 14, -4
 560:.\Generated_Source\PSoC5/Right_Phase_Counter.c **** 
 561:.\Generated_Source\PSoC5/Right_Phase_Counter.c ****     while(0u != (Right_Phase_Counter_ReadStatusRegister() & Right_Phase_Counter_STATUS_FIFONEMP))
 369              		.loc 1 561 0
 370 0002 01E0     		b	.L41
 371              	.L42:
 562:.\Generated_Source\PSoC5/Right_Phase_Counter.c ****     {
 563:.\Generated_Source\PSoC5/Right_Phase_Counter.c ****         (void)Right_Phase_Counter_ReadCapture();
 372              		.loc 1 563 0
 373 0004 FFF7FEFF 		bl	Right_Phase_Counter_ReadCapture
 374              	.LVL5:
 375              	.L41:
 561:.\Generated_Source\PSoC5/Right_Phase_Counter.c ****     {
 376              		.loc 1 561 0
 377 0008 FFF7FEFF 		bl	Right_Phase_Counter_ReadStatusRegister
 378              	.LVL6:
 379 000c 10F0400F 		tst	r0, #64
 380 0010 F8D1     		bne	.L42
 564:.\Generated_Source\PSoC5/Right_Phase_Counter.c ****     }
 565:.\Generated_Source\PSoC5/Right_Phase_Counter.c **** 
 566:.\Generated_Source\PSoC5/Right_Phase_Counter.c **** }
 381              		.loc 1 566 0
 382 0012 08BD     		pop	{r3, pc}
 383              		.cfi_endproc
 384              	.LFE15:
 385              		.size	Right_Phase_Counter_ClearFIFO, .-Right_Phase_Counter_ClearFIFO
 386              		.section	.text.Right_Phase_Counter_Init,"ax",%progbits
 387              		.align	2
 388              		.global	Right_Phase_Counter_Init
 389              		.thumb
 390              		.thumb_func
 391              		.type	Right_Phase_Counter_Init, %function
 392              	Right_Phase_Counter_Init:
 393              	.LFB0:
  38:.\Generated_Source\PSoC5/Right_Phase_Counter.c ****         #if (!Right_Phase_Counter_UsingFixedFunction && !Right_Phase_Counter_ControlRegRemoved)
 394              		.loc 1 38 0
 395              		.cfi_startproc
 396              		@ args = 0, pretend = 0, frame = 0
 397              		@ frame_needed = 0, uses_anonymous_args = 0
 398 0000 08B5     		push	{r3, lr}
 399              		.cfi_def_cfa_offset 8
 400              		.cfi_offset 3, -8
 401              		.cfi_offset 14, -4
ARM GAS  C:\Users\Tim\AppData\Local\Temp\ccW9j88b.s 			page 18


  79:.\Generated_Source\PSoC5/Right_Phase_Counter.c ****             Right_Phase_Counter_CONTROL = ctrl | Right_Phase_Counter_DEFAULT_COMPARE_MODE;
 402              		.loc 1 79 0
 403 0002 144A     		ldr	r2, .L46
 404 0004 1378     		ldrb	r3, [r2]	@ zero_extendqisi2
 405 0006 03F0F803 		and	r3, r3, #248
 406              	.LVL7:
  80:.\Generated_Source\PSoC5/Right_Phase_Counter.c ****             
 407              		.loc 1 80 0
 408 000a 43F00103 		orr	r3, r3, #1
 409              	.LVL8:
 410 000e 1370     		strb	r3, [r2]
  83:.\Generated_Source\PSoC5/Right_Phase_Counter.c ****             
 411              		.loc 1 83 0
 412 0010 1378     		ldrb	r3, [r2]	@ zero_extendqisi2
 413 0012 03F0FC03 		and	r3, r3, #252
 414              	.LVL9:
  88:.\Generated_Source\PSoC5/Right_Phase_Counter.c ****             #endif /* 0 != Right_Phase_Counter_CAPTURE_MODE */ 
 415              		.loc 1 88 0
 416 0016 1370     		strb	r3, [r2]
  96:.\Generated_Source\PSoC5/Right_Phase_Counter.c ****         #endif /* (!Right_Phase_Counter_UsingFixedFunction) */
 417              		.loc 1 96 0
 418 0018 FFF7FEFF 		bl	Right_Phase_Counter_ClearFIFO
 419              	.LVL10:
 100:.\Generated_Source\PSoC5/Right_Phase_Counter.c ****         #if (!(Right_Phase_Counter_UsingFixedFunction && (CY_PSOC5A)))
 420              		.loc 1 100 0
 421 001c 6FF00100 		mvn	r0, #1
 422 0020 FFF7FEFF 		bl	Right_Phase_Counter_WritePeriod
 423              	.LVL11:
 102:.\Generated_Source\PSoC5/Right_Phase_Counter.c ****         #endif /* (!(Right_Phase_Counter_UsingFixedFunction && (CY_PSOC5A))) */
 424              		.loc 1 102 0
 425 0024 6FF00100 		mvn	r0, #1
 426 0028 FFF7FEFF 		bl	Right_Phase_Counter_WriteCounter
 427              	.LVL12:
 104:.\Generated_Source\PSoC5/Right_Phase_Counter.c ****         
 428              		.loc 1 104 0
 429 002c 0020     		movs	r0, #0
 430 002e FFF7FEFF 		bl	Right_Phase_Counter_SetInterruptMode
 431              	.LVL13:
 108:.\Generated_Source\PSoC5/Right_Phase_Counter.c ****             /* Set the compare value (only available to non-fixed function implementation */
 432              		.loc 1 108 0
 433 0032 FFF7FEFF 		bl	Right_Phase_Counter_ReadStatusRegister
 434              	.LVL14:
 110:.\Generated_Source\PSoC5/Right_Phase_Counter.c ****             /* Use the interrupt output of the status register for IRQ output */
 435              		.loc 1 110 0
 436 0036 4FF0FF30 		mov	r0, #-1
 437 003a FFF7FEFF 		bl	Right_Phase_Counter_WriteCompare
 438              	.LVL15:
 115:.\Generated_Source\PSoC5/Right_Phase_Counter.c ****             
 439              		.loc 1 115 0
 440 003e FFF7FEFF 		bl	CyEnterCriticalSection
 441              	.LVL16:
 117:.\Generated_Source\PSoC5/Right_Phase_Counter.c ****             
 442              		.loc 1 117 0
 443 0042 054A     		ldr	r2, .L46+4
 444 0044 1378     		ldrb	r3, [r2]	@ zero_extendqisi2
 445 0046 43F01003 		orr	r3, r3, #16
 446 004a 1370     		strb	r3, [r2]
ARM GAS  C:\Users\Tim\AppData\Local\Temp\ccW9j88b.s 			page 19


 120:.\Generated_Source\PSoC5/Right_Phase_Counter.c ****             
 447              		.loc 1 120 0
 448 004c FFF7FEFF 		bl	CyExitCriticalSection
 449              	.LVL17:
 450 0050 08BD     		pop	{r3, pc}
 451              	.L47:
 452 0052 00BF     		.align	2
 453              	.L46:
 454 0054 73640040 		.word	1073767539
 455 0058 95640040 		.word	1073767573
 456              		.cfi_endproc
 457              	.LFE0:
 458              		.size	Right_Phase_Counter_Init, .-Right_Phase_Counter_Init
 459              		.section	.text.Right_Phase_Counter_Start,"ax",%progbits
 460              		.align	2
 461              		.global	Right_Phase_Counter_Start
 462              		.thumb
 463              		.thumb_func
 464              		.type	Right_Phase_Counter_Start, %function
 465              	Right_Phase_Counter_Start:
 466              	.LFB2:
 179:.\Generated_Source\PSoC5/Right_Phase_Counter.c ****     if(Right_Phase_Counter_initVar == 0u)
 467              		.loc 1 179 0
 468              		.cfi_startproc
 469              		@ args = 0, pretend = 0, frame = 0
 470              		@ frame_needed = 0, uses_anonymous_args = 0
 471 0000 08B5     		push	{r3, lr}
 472              		.cfi_def_cfa_offset 8
 473              		.cfi_offset 3, -8
 474              		.cfi_offset 14, -4
 180:.\Generated_Source\PSoC5/Right_Phase_Counter.c ****     {
 475              		.loc 1 180 0
 476 0002 054B     		ldr	r3, .L51
 477 0004 1B78     		ldrb	r3, [r3]	@ zero_extendqisi2
 478 0006 23B9     		cbnz	r3, .L49
 182:.\Generated_Source\PSoC5/Right_Phase_Counter.c ****         
 479              		.loc 1 182 0
 480 0008 FFF7FEFF 		bl	Right_Phase_Counter_Init
 481              	.LVL18:
 184:.\Generated_Source\PSoC5/Right_Phase_Counter.c ****     }
 482              		.loc 1 184 0
 483 000c 0122     		movs	r2, #1
 484 000e 024B     		ldr	r3, .L51
 485 0010 1A70     		strb	r2, [r3]
 486              	.L49:
 188:.\Generated_Source\PSoC5/Right_Phase_Counter.c **** }
 487              		.loc 1 188 0
 488 0012 FFF7FEFF 		bl	Right_Phase_Counter_Enable
 489              	.LVL19:
 490 0016 08BD     		pop	{r3, pc}
 491              	.L52:
 492              		.align	2
 493              	.L51:
 494 0018 00000000 		.word	.LANCHOR0
 495              		.cfi_endproc
 496              	.LFE2:
 497              		.size	Right_Phase_Counter_Start, .-Right_Phase_Counter_Start
ARM GAS  C:\Users\Tim\AppData\Local\Temp\ccW9j88b.s 			page 20


 498              		.global	Right_Phase_Counter_initVar
 499              		.bss
 500              		.set	.LANCHOR0,. + 0
 501              		.type	Right_Phase_Counter_initVar, %object
 502              		.size	Right_Phase_Counter_initVar, 1
 503              	Right_Phase_Counter_initVar:
 504 0000 00       		.space	1
 505              		.text
 506              	.Letext0:
 507              		.file 2 ".\\Generated_Source\\PSoC5\\cytypes.h"
 508              		.file 3 ".\\Generated_Source\\PSoC5\\CyLib.h"