ARM GAS  C:\Users\Tim\AppData\Local\Temp\cc9yPTAP.s 			page 1


   1              		.syntax unified
   2              		.cpu cortex-m3
   3              		.fpu softvfp
   4              		.eabi_attribute 20, 1
   5              		.eabi_attribute 21, 1
   6              		.eabi_attribute 23, 3
   7              		.eabi_attribute 24, 1
   8              		.eabi_attribute 25, 1
   9              		.eabi_attribute 26, 1
  10              		.eabi_attribute 30, 1
  11              		.eabi_attribute 34, 1
  12              		.eabi_attribute 18, 4
  13              		.thumb
  14              		.file	"Right_HB25_PWM_PM.c"
  15              		.text
  16              	.Ltext0:
  17              		.cfi_sections	.debug_frame
  18              		.section	.text.Right_HB25_PWM_SaveConfig,"ax",%progbits
  19              		.align	2
  20              		.global	Right_HB25_PWM_SaveConfig
  21              		.thumb
  22              		.thumb_func
  23              		.type	Right_HB25_PWM_SaveConfig, %function
  24              	Right_HB25_PWM_SaveConfig:
  25              	.LFB0:
  26              		.file 1 ".\\Generated_Source\\PSoC5\\Right_HB25_PWM_PM.c"
   1:.\Generated_Source\PSoC5/Right_HB25_PWM_PM.c **** /*******************************************************************************
   2:.\Generated_Source\PSoC5/Right_HB25_PWM_PM.c **** * File Name: Right_HB25_PWM_PM.c
   3:.\Generated_Source\PSoC5/Right_HB25_PWM_PM.c **** * Version 3.30
   4:.\Generated_Source\PSoC5/Right_HB25_PWM_PM.c **** *
   5:.\Generated_Source\PSoC5/Right_HB25_PWM_PM.c **** * Description:
   6:.\Generated_Source\PSoC5/Right_HB25_PWM_PM.c **** *  This file provides the power management source code to API for the
   7:.\Generated_Source\PSoC5/Right_HB25_PWM_PM.c **** *  PWM.
   8:.\Generated_Source\PSoC5/Right_HB25_PWM_PM.c **** *
   9:.\Generated_Source\PSoC5/Right_HB25_PWM_PM.c **** * Note:
  10:.\Generated_Source\PSoC5/Right_HB25_PWM_PM.c **** *
  11:.\Generated_Source\PSoC5/Right_HB25_PWM_PM.c **** ********************************************************************************
  12:.\Generated_Source\PSoC5/Right_HB25_PWM_PM.c **** * Copyright 2008-2014, Cypress Semiconductor Corporation.  All rights reserved.
  13:.\Generated_Source\PSoC5/Right_HB25_PWM_PM.c **** * You may use this file only in accordance with the license, terms, conditions,
  14:.\Generated_Source\PSoC5/Right_HB25_PWM_PM.c **** * disclaimers, and limitations in the end user license agreement accompanying
  15:.\Generated_Source\PSoC5/Right_HB25_PWM_PM.c **** * the software package with which this file was provided.
  16:.\Generated_Source\PSoC5/Right_HB25_PWM_PM.c **** *******************************************************************************/
  17:.\Generated_Source\PSoC5/Right_HB25_PWM_PM.c **** 
  18:.\Generated_Source\PSoC5/Right_HB25_PWM_PM.c **** #include "Right_HB25_PWM.h"
  19:.\Generated_Source\PSoC5/Right_HB25_PWM_PM.c **** 
  20:.\Generated_Source\PSoC5/Right_HB25_PWM_PM.c **** static Right_HB25_PWM_backupStruct Right_HB25_PWM_backup;
  21:.\Generated_Source\PSoC5/Right_HB25_PWM_PM.c **** 
  22:.\Generated_Source\PSoC5/Right_HB25_PWM_PM.c **** 
  23:.\Generated_Source\PSoC5/Right_HB25_PWM_PM.c **** /*******************************************************************************
  24:.\Generated_Source\PSoC5/Right_HB25_PWM_PM.c **** * Function Name: Right_HB25_PWM_SaveConfig
  25:.\Generated_Source\PSoC5/Right_HB25_PWM_PM.c **** ********************************************************************************
  26:.\Generated_Source\PSoC5/Right_HB25_PWM_PM.c **** *
  27:.\Generated_Source\PSoC5/Right_HB25_PWM_PM.c **** * Summary:
  28:.\Generated_Source\PSoC5/Right_HB25_PWM_PM.c **** *  Saves the current user configuration of the component.
  29:.\Generated_Source\PSoC5/Right_HB25_PWM_PM.c **** *
  30:.\Generated_Source\PSoC5/Right_HB25_PWM_PM.c **** * Parameters:
  31:.\Generated_Source\PSoC5/Right_HB25_PWM_PM.c **** *  None
ARM GAS  C:\Users\Tim\AppData\Local\Temp\cc9yPTAP.s 			page 2


  32:.\Generated_Source\PSoC5/Right_HB25_PWM_PM.c **** *
  33:.\Generated_Source\PSoC5/Right_HB25_PWM_PM.c **** * Return:
  34:.\Generated_Source\PSoC5/Right_HB25_PWM_PM.c **** *  None
  35:.\Generated_Source\PSoC5/Right_HB25_PWM_PM.c **** *
  36:.\Generated_Source\PSoC5/Right_HB25_PWM_PM.c **** * Global variables:
  37:.\Generated_Source\PSoC5/Right_HB25_PWM_PM.c **** *  Right_HB25_PWM_backup:  Variables of this global structure are modified to
  38:.\Generated_Source\PSoC5/Right_HB25_PWM_PM.c **** *  store the values of non retention configuration registers when Sleep() API is
  39:.\Generated_Source\PSoC5/Right_HB25_PWM_PM.c **** *  called.
  40:.\Generated_Source\PSoC5/Right_HB25_PWM_PM.c **** *
  41:.\Generated_Source\PSoC5/Right_HB25_PWM_PM.c **** *******************************************************************************/
  42:.\Generated_Source\PSoC5/Right_HB25_PWM_PM.c **** void Right_HB25_PWM_SaveConfig(void) 
  43:.\Generated_Source\PSoC5/Right_HB25_PWM_PM.c **** {
  27              		.loc 1 43 0
  28              		.cfi_startproc
  29              		@ args = 0, pretend = 0, frame = 0
  30              		@ frame_needed = 0, uses_anonymous_args = 0
  31 0000 10B5     		push	{r4, lr}
  32              		.cfi_def_cfa_offset 8
  33              		.cfi_offset 4, -8
  34              		.cfi_offset 14, -4
  44:.\Generated_Source\PSoC5/Right_HB25_PWM_PM.c **** 
  45:.\Generated_Source\PSoC5/Right_HB25_PWM_PM.c ****     #if(!Right_HB25_PWM_UsingFixedFunction)
  46:.\Generated_Source\PSoC5/Right_HB25_PWM_PM.c ****         #if(!Right_HB25_PWM_PWMModeIsCenterAligned)
  47:.\Generated_Source\PSoC5/Right_HB25_PWM_PM.c ****             Right_HB25_PWM_backup.PWMPeriod = Right_HB25_PWM_ReadPeriod();
  35              		.loc 1 47 0
  36 0002 FFF7FEFF 		bl	Right_HB25_PWM_ReadPeriod
  37              	.LVL0:
  38 0006 034C     		ldr	r4, .L3
  39 0008 A080     		strh	r0, [r4, #4]	@ movhi
  48:.\Generated_Source\PSoC5/Right_HB25_PWM_PM.c ****         #endif /* (!Right_HB25_PWM_PWMModeIsCenterAligned) */
  49:.\Generated_Source\PSoC5/Right_HB25_PWM_PM.c ****         Right_HB25_PWM_backup.PWMUdb = Right_HB25_PWM_ReadCounter();
  40              		.loc 1 49 0
  41 000a FFF7FEFF 		bl	Right_HB25_PWM_ReadCounter
  42              	.LVL1:
  43 000e 6080     		strh	r0, [r4, #2]	@ movhi
  44 0010 10BD     		pop	{r4, pc}
  45              	.L4:
  46 0012 00BF     		.align	2
  47              	.L3:
  48 0014 00000000 		.word	.LANCHOR0
  49              		.cfi_endproc
  50              	.LFE0:
  51              		.size	Right_HB25_PWM_SaveConfig, .-Right_HB25_PWM_SaveConfig
  52              		.section	.text.Right_HB25_PWM_RestoreConfig,"ax",%progbits
  53              		.align	2
  54              		.global	Right_HB25_PWM_RestoreConfig
  55              		.thumb
  56              		.thumb_func
  57              		.type	Right_HB25_PWM_RestoreConfig, %function
  58              	Right_HB25_PWM_RestoreConfig:
  59              	.LFB1:
  50:.\Generated_Source\PSoC5/Right_HB25_PWM_PM.c ****         #if (Right_HB25_PWM_UseStatus)
  51:.\Generated_Source\PSoC5/Right_HB25_PWM_PM.c ****             Right_HB25_PWM_backup.InterruptMaskValue = Right_HB25_PWM_STATUS_MASK;
  52:.\Generated_Source\PSoC5/Right_HB25_PWM_PM.c ****         #endif /* (Right_HB25_PWM_UseStatus) */
  53:.\Generated_Source\PSoC5/Right_HB25_PWM_PM.c **** 
  54:.\Generated_Source\PSoC5/Right_HB25_PWM_PM.c ****         #if(Right_HB25_PWM_DeadBandMode == Right_HB25_PWM__B_PWM__DBM_256_CLOCKS || \
  55:.\Generated_Source\PSoC5/Right_HB25_PWM_PM.c ****             Right_HB25_PWM_DeadBandMode == Right_HB25_PWM__B_PWM__DBM_2_4_CLOCKS)
ARM GAS  C:\Users\Tim\AppData\Local\Temp\cc9yPTAP.s 			page 3


  56:.\Generated_Source\PSoC5/Right_HB25_PWM_PM.c ****             Right_HB25_PWM_backup.PWMdeadBandValue = Right_HB25_PWM_ReadDeadTime();
  57:.\Generated_Source\PSoC5/Right_HB25_PWM_PM.c ****         #endif /*  deadband count is either 2-4 clocks or 256 clocks */
  58:.\Generated_Source\PSoC5/Right_HB25_PWM_PM.c **** 
  59:.\Generated_Source\PSoC5/Right_HB25_PWM_PM.c ****         #if(Right_HB25_PWM_KillModeMinTime)
  60:.\Generated_Source\PSoC5/Right_HB25_PWM_PM.c ****              Right_HB25_PWM_backup.PWMKillCounterPeriod = Right_HB25_PWM_ReadKillTime();
  61:.\Generated_Source\PSoC5/Right_HB25_PWM_PM.c ****         #endif /* (Right_HB25_PWM_KillModeMinTime) */
  62:.\Generated_Source\PSoC5/Right_HB25_PWM_PM.c **** 
  63:.\Generated_Source\PSoC5/Right_HB25_PWM_PM.c ****         #if(Right_HB25_PWM_UseControl)
  64:.\Generated_Source\PSoC5/Right_HB25_PWM_PM.c ****             Right_HB25_PWM_backup.PWMControlRegister = Right_HB25_PWM_ReadControlRegister();
  65:.\Generated_Source\PSoC5/Right_HB25_PWM_PM.c ****         #endif /* (Right_HB25_PWM_UseControl) */
  66:.\Generated_Source\PSoC5/Right_HB25_PWM_PM.c ****     #endif  /* (!Right_HB25_PWM_UsingFixedFunction) */
  67:.\Generated_Source\PSoC5/Right_HB25_PWM_PM.c **** }
  68:.\Generated_Source\PSoC5/Right_HB25_PWM_PM.c **** 
  69:.\Generated_Source\PSoC5/Right_HB25_PWM_PM.c **** 
  70:.\Generated_Source\PSoC5/Right_HB25_PWM_PM.c **** /*******************************************************************************
  71:.\Generated_Source\PSoC5/Right_HB25_PWM_PM.c **** * Function Name: Right_HB25_PWM_RestoreConfig
  72:.\Generated_Source\PSoC5/Right_HB25_PWM_PM.c **** ********************************************************************************
  73:.\Generated_Source\PSoC5/Right_HB25_PWM_PM.c **** *
  74:.\Generated_Source\PSoC5/Right_HB25_PWM_PM.c **** * Summary:
  75:.\Generated_Source\PSoC5/Right_HB25_PWM_PM.c **** *  Restores the current user configuration of the component.
  76:.\Generated_Source\PSoC5/Right_HB25_PWM_PM.c **** *
  77:.\Generated_Source\PSoC5/Right_HB25_PWM_PM.c **** * Parameters:
  78:.\Generated_Source\PSoC5/Right_HB25_PWM_PM.c **** *  None
  79:.\Generated_Source\PSoC5/Right_HB25_PWM_PM.c **** *
  80:.\Generated_Source\PSoC5/Right_HB25_PWM_PM.c **** * Return:
  81:.\Generated_Source\PSoC5/Right_HB25_PWM_PM.c **** *  None
  82:.\Generated_Source\PSoC5/Right_HB25_PWM_PM.c **** *
  83:.\Generated_Source\PSoC5/Right_HB25_PWM_PM.c **** * Global variables:
  84:.\Generated_Source\PSoC5/Right_HB25_PWM_PM.c **** *  Right_HB25_PWM_backup:  Variables of this global structure are used to
  85:.\Generated_Source\PSoC5/Right_HB25_PWM_PM.c **** *  restore the values of non retention registers on wakeup from sleep mode.
  86:.\Generated_Source\PSoC5/Right_HB25_PWM_PM.c **** *
  87:.\Generated_Source\PSoC5/Right_HB25_PWM_PM.c **** *******************************************************************************/
  88:.\Generated_Source\PSoC5/Right_HB25_PWM_PM.c **** void Right_HB25_PWM_RestoreConfig(void) 
  89:.\Generated_Source\PSoC5/Right_HB25_PWM_PM.c **** {
  60              		.loc 1 89 0
  61              		.cfi_startproc
  62              		@ args = 0, pretend = 0, frame = 0
  63              		@ frame_needed = 0, uses_anonymous_args = 0
  64 0000 10B5     		push	{r4, lr}
  65              		.cfi_def_cfa_offset 8
  66              		.cfi_offset 4, -8
  67              		.cfi_offset 14, -4
  90:.\Generated_Source\PSoC5/Right_HB25_PWM_PM.c ****         #if(!Right_HB25_PWM_UsingFixedFunction)
  91:.\Generated_Source\PSoC5/Right_HB25_PWM_PM.c ****             #if(!Right_HB25_PWM_PWMModeIsCenterAligned)
  92:.\Generated_Source\PSoC5/Right_HB25_PWM_PM.c ****                 Right_HB25_PWM_WritePeriod(Right_HB25_PWM_backup.PWMPeriod);
  68              		.loc 1 92 0
  69 0002 044C     		ldr	r4, .L7
  70 0004 A088     		ldrh	r0, [r4, #4]
  71 0006 FFF7FEFF 		bl	Right_HB25_PWM_WritePeriod
  72              	.LVL2:
  93:.\Generated_Source\PSoC5/Right_HB25_PWM_PM.c ****             #endif /* (!Right_HB25_PWM_PWMModeIsCenterAligned) */
  94:.\Generated_Source\PSoC5/Right_HB25_PWM_PM.c **** 
  95:.\Generated_Source\PSoC5/Right_HB25_PWM_PM.c ****             Right_HB25_PWM_WriteCounter(Right_HB25_PWM_backup.PWMUdb);
  73              		.loc 1 95 0
  74 000a 6088     		ldrh	r0, [r4, #2]
  75 000c FFF7FEFF 		bl	Right_HB25_PWM_WriteCounter
  76              	.LVL3:
ARM GAS  C:\Users\Tim\AppData\Local\Temp\cc9yPTAP.s 			page 4


  77 0010 10BD     		pop	{r4, pc}
  78              	.L8:
  79 0012 00BF     		.align	2
  80              	.L7:
  81 0014 00000000 		.word	.LANCHOR0
  82              		.cfi_endproc
  83              	.LFE1:
  84              		.size	Right_HB25_PWM_RestoreConfig, .-Right_HB25_PWM_RestoreConfig
  85              		.section	.text.Right_HB25_PWM_Sleep,"ax",%progbits
  86              		.align	2
  87              		.global	Right_HB25_PWM_Sleep
  88              		.thumb
  89              		.thumb_func
  90              		.type	Right_HB25_PWM_Sleep, %function
  91              	Right_HB25_PWM_Sleep:
  92              	.LFB2:
  96:.\Generated_Source\PSoC5/Right_HB25_PWM_PM.c **** 
  97:.\Generated_Source\PSoC5/Right_HB25_PWM_PM.c ****             #if (Right_HB25_PWM_UseStatus)
  98:.\Generated_Source\PSoC5/Right_HB25_PWM_PM.c ****                 Right_HB25_PWM_STATUS_MASK = Right_HB25_PWM_backup.InterruptMaskValue;
  99:.\Generated_Source\PSoC5/Right_HB25_PWM_PM.c ****             #endif /* (Right_HB25_PWM_UseStatus) */
 100:.\Generated_Source\PSoC5/Right_HB25_PWM_PM.c **** 
 101:.\Generated_Source\PSoC5/Right_HB25_PWM_PM.c ****             #if(Right_HB25_PWM_DeadBandMode == Right_HB25_PWM__B_PWM__DBM_256_CLOCKS || \
 102:.\Generated_Source\PSoC5/Right_HB25_PWM_PM.c ****                 Right_HB25_PWM_DeadBandMode == Right_HB25_PWM__B_PWM__DBM_2_4_CLOCKS)
 103:.\Generated_Source\PSoC5/Right_HB25_PWM_PM.c ****                 Right_HB25_PWM_WriteDeadTime(Right_HB25_PWM_backup.PWMdeadBandValue);
 104:.\Generated_Source\PSoC5/Right_HB25_PWM_PM.c ****             #endif /* deadband count is either 2-4 clocks or 256 clocks */
 105:.\Generated_Source\PSoC5/Right_HB25_PWM_PM.c **** 
 106:.\Generated_Source\PSoC5/Right_HB25_PWM_PM.c ****             #if(Right_HB25_PWM_KillModeMinTime)
 107:.\Generated_Source\PSoC5/Right_HB25_PWM_PM.c ****                 Right_HB25_PWM_WriteKillTime(Right_HB25_PWM_backup.PWMKillCounterPeriod);
 108:.\Generated_Source\PSoC5/Right_HB25_PWM_PM.c ****             #endif /* (Right_HB25_PWM_KillModeMinTime) */
 109:.\Generated_Source\PSoC5/Right_HB25_PWM_PM.c **** 
 110:.\Generated_Source\PSoC5/Right_HB25_PWM_PM.c ****             #if(Right_HB25_PWM_UseControl)
 111:.\Generated_Source\PSoC5/Right_HB25_PWM_PM.c ****                 Right_HB25_PWM_WriteControlRegister(Right_HB25_PWM_backup.PWMControlRegister);
 112:.\Generated_Source\PSoC5/Right_HB25_PWM_PM.c ****             #endif /* (Right_HB25_PWM_UseControl) */
 113:.\Generated_Source\PSoC5/Right_HB25_PWM_PM.c ****         #endif  /* (!Right_HB25_PWM_UsingFixedFunction) */
 114:.\Generated_Source\PSoC5/Right_HB25_PWM_PM.c ****     }
 115:.\Generated_Source\PSoC5/Right_HB25_PWM_PM.c **** 
 116:.\Generated_Source\PSoC5/Right_HB25_PWM_PM.c **** 
 117:.\Generated_Source\PSoC5/Right_HB25_PWM_PM.c **** /*******************************************************************************
 118:.\Generated_Source\PSoC5/Right_HB25_PWM_PM.c **** * Function Name: Right_HB25_PWM_Sleep
 119:.\Generated_Source\PSoC5/Right_HB25_PWM_PM.c **** ********************************************************************************
 120:.\Generated_Source\PSoC5/Right_HB25_PWM_PM.c **** *
 121:.\Generated_Source\PSoC5/Right_HB25_PWM_PM.c **** * Summary:
 122:.\Generated_Source\PSoC5/Right_HB25_PWM_PM.c **** *  Disables block's operation and saves the user configuration. Should be called
 123:.\Generated_Source\PSoC5/Right_HB25_PWM_PM.c **** *  just prior to entering sleep.
 124:.\Generated_Source\PSoC5/Right_HB25_PWM_PM.c **** *
 125:.\Generated_Source\PSoC5/Right_HB25_PWM_PM.c **** * Parameters:
 126:.\Generated_Source\PSoC5/Right_HB25_PWM_PM.c **** *  None
 127:.\Generated_Source\PSoC5/Right_HB25_PWM_PM.c **** *
 128:.\Generated_Source\PSoC5/Right_HB25_PWM_PM.c **** * Return:
 129:.\Generated_Source\PSoC5/Right_HB25_PWM_PM.c **** *  None
 130:.\Generated_Source\PSoC5/Right_HB25_PWM_PM.c **** *
 131:.\Generated_Source\PSoC5/Right_HB25_PWM_PM.c **** * Global variables:
 132:.\Generated_Source\PSoC5/Right_HB25_PWM_PM.c **** *  Right_HB25_PWM_backup.PWMEnableState:  Is modified depending on the enable
 133:.\Generated_Source\PSoC5/Right_HB25_PWM_PM.c **** *  state of the block before entering sleep mode.
 134:.\Generated_Source\PSoC5/Right_HB25_PWM_PM.c **** *
 135:.\Generated_Source\PSoC5/Right_HB25_PWM_PM.c **** *******************************************************************************/
 136:.\Generated_Source\PSoC5/Right_HB25_PWM_PM.c **** void Right_HB25_PWM_Sleep(void) 
ARM GAS  C:\Users\Tim\AppData\Local\Temp\cc9yPTAP.s 			page 5


 137:.\Generated_Source\PSoC5/Right_HB25_PWM_PM.c **** {
  93              		.loc 1 137 0
  94              		.cfi_startproc
  95              		@ args = 0, pretend = 0, frame = 0
  96              		@ frame_needed = 0, uses_anonymous_args = 0
  97 0000 08B5     		push	{r3, lr}
  98              		.cfi_def_cfa_offset 8
  99              		.cfi_offset 3, -8
 100              		.cfi_offset 14, -4
 138:.\Generated_Source\PSoC5/Right_HB25_PWM_PM.c ****     #if(Right_HB25_PWM_UseControl)
 139:.\Generated_Source\PSoC5/Right_HB25_PWM_PM.c ****         if(Right_HB25_PWM_CTRL_ENABLE == (Right_HB25_PWM_CONTROL & Right_HB25_PWM_CTRL_ENABLE))
 140:.\Generated_Source\PSoC5/Right_HB25_PWM_PM.c ****         {
 141:.\Generated_Source\PSoC5/Right_HB25_PWM_PM.c ****             /*Component is enabled */
 142:.\Generated_Source\PSoC5/Right_HB25_PWM_PM.c ****             Right_HB25_PWM_backup.PWMEnableState = 1u;
 143:.\Generated_Source\PSoC5/Right_HB25_PWM_PM.c ****         }
 144:.\Generated_Source\PSoC5/Right_HB25_PWM_PM.c ****         else
 145:.\Generated_Source\PSoC5/Right_HB25_PWM_PM.c ****         {
 146:.\Generated_Source\PSoC5/Right_HB25_PWM_PM.c ****             /* Component is disabled */
 147:.\Generated_Source\PSoC5/Right_HB25_PWM_PM.c ****             Right_HB25_PWM_backup.PWMEnableState = 0u;
 148:.\Generated_Source\PSoC5/Right_HB25_PWM_PM.c ****         }
 149:.\Generated_Source\PSoC5/Right_HB25_PWM_PM.c ****     #endif /* (Right_HB25_PWM_UseControl) */
 150:.\Generated_Source\PSoC5/Right_HB25_PWM_PM.c **** 
 151:.\Generated_Source\PSoC5/Right_HB25_PWM_PM.c ****     /* Stop component */
 152:.\Generated_Source\PSoC5/Right_HB25_PWM_PM.c ****     Right_HB25_PWM_Stop();
 101              		.loc 1 152 0
 102 0002 FFF7FEFF 		bl	Right_HB25_PWM_Stop
 103              	.LVL4:
 153:.\Generated_Source\PSoC5/Right_HB25_PWM_PM.c **** 
 154:.\Generated_Source\PSoC5/Right_HB25_PWM_PM.c ****     /* Save registers configuration */
 155:.\Generated_Source\PSoC5/Right_HB25_PWM_PM.c ****     Right_HB25_PWM_SaveConfig();
 104              		.loc 1 155 0
 105 0006 FFF7FEFF 		bl	Right_HB25_PWM_SaveConfig
 106              	.LVL5:
 107 000a 08BD     		pop	{r3, pc}
 108              		.cfi_endproc
 109              	.LFE2:
 110              		.size	Right_HB25_PWM_Sleep, .-Right_HB25_PWM_Sleep
 111              		.section	.text.Right_HB25_PWM_Wakeup,"ax",%progbits
 112              		.align	2
 113              		.global	Right_HB25_PWM_Wakeup
 114              		.thumb
 115              		.thumb_func
 116              		.type	Right_HB25_PWM_Wakeup, %function
 117              	Right_HB25_PWM_Wakeup:
 118              	.LFB3:
 156:.\Generated_Source\PSoC5/Right_HB25_PWM_PM.c **** }
 157:.\Generated_Source\PSoC5/Right_HB25_PWM_PM.c **** 
 158:.\Generated_Source\PSoC5/Right_HB25_PWM_PM.c **** 
 159:.\Generated_Source\PSoC5/Right_HB25_PWM_PM.c **** /*******************************************************************************
 160:.\Generated_Source\PSoC5/Right_HB25_PWM_PM.c **** * Function Name: Right_HB25_PWM_Wakeup
 161:.\Generated_Source\PSoC5/Right_HB25_PWM_PM.c **** ********************************************************************************
 162:.\Generated_Source\PSoC5/Right_HB25_PWM_PM.c **** *
 163:.\Generated_Source\PSoC5/Right_HB25_PWM_PM.c **** * Summary:
 164:.\Generated_Source\PSoC5/Right_HB25_PWM_PM.c **** *  Restores and enables the user configuration. Should be called just after
 165:.\Generated_Source\PSoC5/Right_HB25_PWM_PM.c **** *  awaking from sleep.
 166:.\Generated_Source\PSoC5/Right_HB25_PWM_PM.c **** *
 167:.\Generated_Source\PSoC5/Right_HB25_PWM_PM.c **** * Parameters:
ARM GAS  C:\Users\Tim\AppData\Local\Temp\cc9yPTAP.s 			page 6


 168:.\Generated_Source\PSoC5/Right_HB25_PWM_PM.c **** *  None
 169:.\Generated_Source\PSoC5/Right_HB25_PWM_PM.c **** *
 170:.\Generated_Source\PSoC5/Right_HB25_PWM_PM.c **** * Return:
 171:.\Generated_Source\PSoC5/Right_HB25_PWM_PM.c **** *  None
 172:.\Generated_Source\PSoC5/Right_HB25_PWM_PM.c **** *
 173:.\Generated_Source\PSoC5/Right_HB25_PWM_PM.c **** * Global variables:
 174:.\Generated_Source\PSoC5/Right_HB25_PWM_PM.c **** *  Right_HB25_PWM_backup.pwmEnable:  Is used to restore the enable state of
 175:.\Generated_Source\PSoC5/Right_HB25_PWM_PM.c **** *  block on wakeup from sleep mode.
 176:.\Generated_Source\PSoC5/Right_HB25_PWM_PM.c **** *
 177:.\Generated_Source\PSoC5/Right_HB25_PWM_PM.c **** *******************************************************************************/
 178:.\Generated_Source\PSoC5/Right_HB25_PWM_PM.c **** void Right_HB25_PWM_Wakeup(void) 
 179:.\Generated_Source\PSoC5/Right_HB25_PWM_PM.c **** {
 119              		.loc 1 179 0
 120              		.cfi_startproc
 121              		@ args = 0, pretend = 0, frame = 0
 122              		@ frame_needed = 0, uses_anonymous_args = 0
 123 0000 08B5     		push	{r3, lr}
 124              		.cfi_def_cfa_offset 8
 125              		.cfi_offset 3, -8
 126              		.cfi_offset 14, -4
 180:.\Generated_Source\PSoC5/Right_HB25_PWM_PM.c ****      /* Restore registers values */
 181:.\Generated_Source\PSoC5/Right_HB25_PWM_PM.c ****     Right_HB25_PWM_RestoreConfig();
 127              		.loc 1 181 0
 128 0002 FFF7FEFF 		bl	Right_HB25_PWM_RestoreConfig
 129              	.LVL6:
 182:.\Generated_Source\PSoC5/Right_HB25_PWM_PM.c **** 
 183:.\Generated_Source\PSoC5/Right_HB25_PWM_PM.c ****     if(Right_HB25_PWM_backup.PWMEnableState != 0u)
 130              		.loc 1 183 0
 131 0006 034B     		ldr	r3, .L14
 132 0008 1B78     		ldrb	r3, [r3]	@ zero_extendqisi2
 133 000a 0BB1     		cbz	r3, .L11
 184:.\Generated_Source\PSoC5/Right_HB25_PWM_PM.c ****     {
 185:.\Generated_Source\PSoC5/Right_HB25_PWM_PM.c ****         /* Enable component's operation */
 186:.\Generated_Source\PSoC5/Right_HB25_PWM_PM.c ****         Right_HB25_PWM_Enable();
 134              		.loc 1 186 0
 135 000c FFF7FEFF 		bl	Right_HB25_PWM_Enable
 136              	.LVL7:
 137              	.L11:
 138 0010 08BD     		pop	{r3, pc}
 139              	.L15:
 140 0012 00BF     		.align	2
 141              	.L14:
 142 0014 00000000 		.word	.LANCHOR0
 143              		.cfi_endproc
 144              	.LFE3:
 145              		.size	Right_HB25_PWM_Wakeup, .-Right_HB25_PWM_Wakeup
 146              		.bss
 147              		.align	2
 148              		.set	.LANCHOR0,. + 0
 149              		.type	Right_HB25_PWM_backup, %object
 150              		.size	Right_HB25_PWM_backup, 6
 151              	Right_HB25_PWM_backup:
 152 0000 00000000 		.space	6
 152      0000
 153 0006 0000     		.text
 154              	.Letext0:
 155              		.file 2 ".\\Generated_Source\\PSoC5\\cytypes.h"
ARM GAS  C:\Users\Tim\AppData\Local\Temp\cc9yPTAP.s 			page 7


 156              		.file 3 ".\\Generated_Source\\PSoC5\\Right_HB25_PWM.h"