ARM GAS  C:\Users\Tim\AppData\Local\Temp\ccxff8Uz.s 			page 1


   1              		.syntax unified
   2              		.cpu cortex-m3
   3              		.fpu softvfp
   4              		.eabi_attribute 20, 1
   5              		.eabi_attribute 21, 1
   6              		.eabi_attribute 23, 3
   7              		.eabi_attribute 24, 1
   8              		.eabi_attribute 25, 1
   9              		.eabi_attribute 26, 1
  10              		.eabi_attribute 30, 1
  11              		.eabi_attribute 34, 1
  12              		.eabi_attribute 18, 4
  13              		.thumb
  14              		.file	"sensor.c"
  15              		.text
  16              	.Ltext0:
  17              		.cfi_sections	.debug_frame
  18              		.section	.text.ReadInfraredRear,"ax",%progbits
  19              		.align	2
  20              		.thumb
  21              		.thumb_func
  22              		.type	ReadInfraredRear, %function
  23              	ReadInfraredRear:
  24              	.LFB65:
  25              		.file 1 "..\\source\\sensor.c"
   1:..\source/sensor.c **** /* ========================================
   2:..\source/sensor.c ****  *
   3:..\source/sensor.c ****  * Copyright YOUR COMPANY, THE YEAR
   4:..\source/sensor.c ****  * All Rights Reserved
   5:..\source/sensor.c ****  * UNPUBLISHED, LICENSED SOFTWARE.
   6:..\source/sensor.c ****  *
   7:..\source/sensor.c ****  * CONFIDENTIAL AND PROPRIETARY INFORMATION
   8:..\source/sensor.c ****  * WHICH IS THE PROPERTY OF your company.
   9:..\source/sensor.c ****  *
  10:..\source/sensor.c ****  * ========================================
  11:..\source/sensor.c **** */
  12:..\source/sensor.c **** 
  13:..\source/sensor.c **** /* The sensor module support a variety of sensors including infrared and ultrasonic distance sensor
  14:..\source/sensor.c **** 
  15:..\source/sensor.c ****    The sensor module abstracts the details of how these sensors are connected to the Psoc, e.g., SP
  16:..\source/sensor.c ****    Analog I/O.
  17:..\source/sensor.c **** 
  18:..\source/sensor.c ****  */
  19:..\source/sensor.c **** 
  20:..\source/sensor.c **** 
  21:..\source/sensor.c **** /*-------------------------------------------------------------------------------------------------
  22:..\source/sensor.c ****  * Includes
  23:..\source/sensor.c ****  *-------------------------------------------------------------------------------------------------
  24:..\source/sensor.c **** #include "config.h"
  25:..\source/sensor.c **** #include "sensor.h"
  26:..\source/sensor.c **** #include "spi.h"
  27:..\source/sensor.c **** #include "i2c.h"
  28:..\source/sensor.c **** #include "time.h"
  29:..\source/sensor.c **** #include "debug.h"
  30:..\source/sensor.c **** #include "utils.h"
  31:..\source/sensor.c **** 
  32:..\source/sensor.c **** /*-------------------------------------------------------------------------------------------------
ARM GAS  C:\Users\Tim\AppData\Local\Temp\ccxff8Uz.s 			page 2


  33:..\source/sensor.c ****  * Macros
  34:..\source/sensor.c ****  *-------------------------------------------------------------------------------------------------
  35:..\source/sensor.c **** #ifdef SENSOR_UPDATE_DELTA_ENABLED
  36:..\source/sensor.c **** #define SENSOR_DEBUG_DELTA(delta) DEBUG_DELTA_TIME("sen", delta)
  37:..\source/sensor.c **** #else
  38:..\source/sensor.c **** #define SENSOR_DEBUG_DELTA(delta)
  39:..\source/sensor.c **** #endif    
  40:..\source/sensor.c **** 
  41:..\source/sensor.c **** #define SENSOR_SAMPLE_TIME_MS  SAMPLE_TIME_MS(SENSOR_SAMPLE_RATE)
  42:..\source/sensor.c **** 
  43:..\source/sensor.c **** #define NUM_SENSOR_ENTRIES (2)
  44:..\source/sensor.c **** 
  45:..\source/sensor.c **** 
  46:..\source/sensor.c **** /*-------------------------------------------------------------------------------------------------
  47:..\source/sensor.c ****  * Types
  48:..\source/sensor.c ****  *-------------------------------------------------------------------------------------------------
  49:..\source/sensor.c **** typedef void (*SENSOR_READ_FUNC_TYPE)();
  50:..\source/sensor.c **** 
  51:..\source/sensor.c **** /*-------------------------------------------------------------------------------------------------
  52:..\source/sensor.c ****  * Variables
  53:..\source/sensor.c ****  *-------------------------------------------------------------------------------------------------
  54:..\source/sensor.c **** /* Note: The main loop timing is very sensitive so it is very important that module "update" functi
  55:..\source/sensor.c ****    limit their processing time.  There are a number of sensors that need to be aread and this is th
  56:..\source/sensor.c ****    area where extension is most likely.  To minimize processing time, only one "sensor group" is
  57:..\source/sensor.c ****    read on each update call.  The sensor array is an array of functions that is looped through cont
  58:..\source/sensor.c ****    to ensure that all the sensors are read, but at the same time, each "read" minimizes the amount 
  59:..\source/sensor.c ****    spent in the update call.
  60:..\source/sensor.c ****  */
  61:..\source/sensor.c **** static SENSOR_READ_FUNC_TYPE sensor_array[NUM_SENSOR_ENTRIES];
  62:..\source/sensor.c **** 
  63:..\source/sensor.c **** 
  64:..\source/sensor.c **** /*-------------------------------------------------------------------------------------------------
  65:..\source/sensor.c ****  * Functions
  66:..\source/sensor.c ****  *-------------------------------------------------------------------------------------------------
  67:..\source/sensor.c **** 
  68:..\source/sensor.c **** static void PrintDistanceSensorData(char *label, float *data)
  69:..\source/sensor.c **** {
  70:..\source/sensor.c ****     /* Need to write to the serial port an array of floats as a string */
  71:..\source/sensor.c **** }
  72:..\source/sensor.c **** 
  73:..\source/sensor.c **** 
  74:..\source/sensor.c **** /*-------------------------------------------------------------------------------------------------
  75:..\source/sensor.c ****  * Name: ReadInfraredFront/ReadInfraredRear
  76:..\source/sensor.c ****  * Description: Reads the infrared front/rear distances from the SPI network
  77:..\source/sensor.c ****  * Parameters: None
  78:..\source/sensor.c ****  * Return: None
  79:..\source/sensor.c ****  * 
  80:..\source/sensor.c ****  *-------------------------------------------------------------------------------------------------
  81:..\source/sensor.c **** static void ReadInfraredFront()
  82:..\source/sensor.c **** {
  83:..\source/sensor.c ****     float data[NUM_FRONT_INFRARED_SENSORS];
  84:..\source/sensor.c ****     
  85:..\source/sensor.c ****     Spi_ReadNode(SPI_NODE_1, (void *) data);
  86:..\source/sensor.c ****     I2c_WriteInfraredFrontDistances(data);
  87:..\source/sensor.c **** }
  88:..\source/sensor.c **** 
  89:..\source/sensor.c **** static void ReadInfraredRear()
ARM GAS  C:\Users\Tim\AppData\Local\Temp\ccxff8Uz.s 			page 3


  90:..\source/sensor.c **** {
  26              		.loc 1 90 0
  27              		.cfi_startproc
  28              		@ args = 0, pretend = 0, frame = 32
  29              		@ frame_needed = 0, uses_anonymous_args = 0
  30 0000 00B5     		push	{lr}
  31              		.cfi_def_cfa_offset 4
  32              		.cfi_offset 14, -4
  33 0002 89B0     		sub	sp, sp, #36
  34              		.cfi_def_cfa_offset 40
  91:..\source/sensor.c ****     float data[NUM_REAR_INFRARED_SENSORS];
  92:..\source/sensor.c ****     
  93:..\source/sensor.c ****     Spi_ReadNode(SPI_NODE_2, (void *) data);
  35              		.loc 1 93 0
  36 0004 0120     		movs	r0, #1
  37 0006 6946     		mov	r1, sp
  38 0008 FFF7FEFF 		bl	Spi_ReadNode
  39              	.LVL0:
  94:..\source/sensor.c ****     I2c_WriteInfraredRearDistances(data);
  40              		.loc 1 94 0
  41 000c 6846     		mov	r0, sp
  42 000e FFF7FEFF 		bl	I2c_WriteInfraredRearDistances
  43              	.LVL1:
  95:..\source/sensor.c **** }
  44              		.loc 1 95 0
  45 0012 09B0     		add	sp, sp, #36
  46              		.cfi_def_cfa_offset 4
  47              		@ sp needed
  48 0014 5DF804FB 		ldr	pc, [sp], #4
  49              		.cfi_endproc
  50              	.LFE65:
  51              		.size	ReadInfraredRear, .-ReadInfraredRear
  52              		.section	.text.ReadUltratronicRear,"ax",%progbits
  53              		.align	2
  54              		.thumb
  55              		.thumb_func
  56              		.type	ReadUltratronicRear, %function
  57              	ReadUltratronicRear:
  58              	.LFB67:
  96:..\source/sensor.c **** 
  97:..\source/sensor.c **** /*-------------------------------------------------------------------------------------------------
  98:..\source/sensor.c ****  * Name: ReadUltrasonicFront/ReadUltratronicRear
  99:..\source/sensor.c ****  * Description: Reads the ultrasonic front/rear distances from the SPI network
 100:..\source/sensor.c ****  * Parameters: None
 101:..\source/sensor.c ****  * Return: None
 102:..\source/sensor.c ****  * 
 103:..\source/sensor.c ****  *-------------------------------------------------------------------------------------------------
 104:..\source/sensor.c **** static void ReadUltrasonicFront()
 105:..\source/sensor.c **** {
 106:..\source/sensor.c ****     float data[NUM_FRONT_ULTRASONIC_SENSORS];
 107:..\source/sensor.c ****     
 108:..\source/sensor.c ****     Spi_ReadNode(SPI_NODE_3, (void *) data);    
 109:..\source/sensor.c ****     I2c_WriteUltrasonicFrontDistances(data);
 110:..\source/sensor.c **** }
 111:..\source/sensor.c **** 
 112:..\source/sensor.c **** static void ReadUltratronicRear()
 113:..\source/sensor.c **** {
ARM GAS  C:\Users\Tim\AppData\Local\Temp\ccxff8Uz.s 			page 4


  59              		.loc 1 113 0
  60              		.cfi_startproc
  61              		@ args = 0, pretend = 0, frame = 32
  62              		@ frame_needed = 0, uses_anonymous_args = 0
  63 0000 00B5     		push	{lr}
  64              		.cfi_def_cfa_offset 4
  65              		.cfi_offset 14, -4
  66 0002 89B0     		sub	sp, sp, #36
  67              		.cfi_def_cfa_offset 40
 114:..\source/sensor.c ****     float data[NUM_REAR_ULTRASONIC_SENSORS];
 115:..\source/sensor.c ****     
 116:..\source/sensor.c ****     Spi_ReadNode(SPI_NODE_4, (void *) data);
  68              		.loc 1 116 0
  69 0004 0320     		movs	r0, #3
  70 0006 6946     		mov	r1, sp
  71 0008 FFF7FEFF 		bl	Spi_ReadNode
  72              	.LVL2:
 117:..\source/sensor.c ****     I2c_WriteUltrasonicRearDistances(data);
  73              		.loc 1 117 0
  74 000c 6846     		mov	r0, sp
  75 000e FFF7FEFF 		bl	I2c_WriteUltrasonicRearDistances
  76              	.LVL3:
 118:..\source/sensor.c **** }
  77              		.loc 1 118 0
  78 0012 09B0     		add	sp, sp, #36
  79              		.cfi_def_cfa_offset 4
  80              		@ sp needed
  81 0014 5DF804FB 		ldr	pc, [sp], #4
  82              		.cfi_endproc
  83              	.LFE67:
  84              		.size	ReadUltratronicRear, .-ReadUltratronicRear
  85              		.section	.text.ReadReadDistanceSensors,"ax",%progbits
  86              		.align	2
  87              		.thumb
  88              		.thumb_func
  89              		.type	ReadReadDistanceSensors, %function
  90              	ReadReadDistanceSensors:
  91              	.LFB69:
 119:..\source/sensor.c **** 
 120:..\source/sensor.c **** /*-------------------------------------------------------------------------------------------------
 121:..\source/sensor.c ****  * Name: ReadFrontDistanceSensors/ReadReadDistanceSensors
 122:..\source/sensor.c ****  * Description: Reads the front/rear distance sensors
 123:..\source/sensor.c ****  * Parameters: None
 124:..\source/sensor.c ****  * Return: None
 125:..\source/sensor.c ****  * 
 126:..\source/sensor.c ****  *-------------------------------------------------------------------------------------------------
 127:..\source/sensor.c **** static void ReadFrontDistanceSensors()
 128:..\source/sensor.c **** {
 129:..\source/sensor.c ****     ReadInfraredFront();
 130:..\source/sensor.c ****     ReadUltrasonicFront();
 131:..\source/sensor.c **** }
 132:..\source/sensor.c **** 
 133:..\source/sensor.c **** static void ReadReadDistanceSensors()
 134:..\source/sensor.c **** {
  92              		.loc 1 134 0
  93              		.cfi_startproc
  94              		@ args = 0, pretend = 0, frame = 0
ARM GAS  C:\Users\Tim\AppData\Local\Temp\ccxff8Uz.s 			page 5


  95              		@ frame_needed = 0, uses_anonymous_args = 0
  96 0000 08B5     		push	{r3, lr}
  97              		.cfi_def_cfa_offset 8
  98              		.cfi_offset 3, -8
  99              		.cfi_offset 14, -4
 135:..\source/sensor.c ****     ReadInfraredRear();
 100              		.loc 1 135 0
 101 0002 FFF7FEFF 		bl	ReadInfraredRear
 102              	.LVL4:
 136:..\source/sensor.c ****     ReadUltratronicRear();
 103              		.loc 1 136 0
 104 0006 FFF7FEFF 		bl	ReadUltratronicRear
 105              	.LVL5:
 106 000a 08BD     		pop	{r3, pc}
 107              		.cfi_endproc
 108              	.LFE69:
 109              		.size	ReadReadDistanceSensors, .-ReadReadDistanceSensors
 110              		.section	.text.ReadInfraredFront,"ax",%progbits
 111              		.align	2
 112              		.thumb
 113              		.thumb_func
 114              		.type	ReadInfraredFront, %function
 115              	ReadInfraredFront:
 116              	.LFB64:
  82:..\source/sensor.c ****     float data[NUM_FRONT_INFRARED_SENSORS];
 117              		.loc 1 82 0
 118              		.cfi_startproc
 119              		@ args = 0, pretend = 0, frame = 32
 120              		@ frame_needed = 0, uses_anonymous_args = 0
 121 0000 00B5     		push	{lr}
 122              		.cfi_def_cfa_offset 4
 123              		.cfi_offset 14, -4
 124 0002 89B0     		sub	sp, sp, #36
 125              		.cfi_def_cfa_offset 40
  85:..\source/sensor.c ****     I2c_WriteInfraredFrontDistances(data);
 126              		.loc 1 85 0
 127 0004 0020     		movs	r0, #0
 128 0006 6946     		mov	r1, sp
 129 0008 FFF7FEFF 		bl	Spi_ReadNode
 130              	.LVL6:
  86:..\source/sensor.c **** }
 131              		.loc 1 86 0
 132 000c 6846     		mov	r0, sp
 133 000e FFF7FEFF 		bl	I2c_WriteInfraredFrontDistances
 134              	.LVL7:
  87:..\source/sensor.c **** 
 135              		.loc 1 87 0
 136 0012 09B0     		add	sp, sp, #36
 137              		.cfi_def_cfa_offset 4
 138              		@ sp needed
 139 0014 5DF804FB 		ldr	pc, [sp], #4
 140              		.cfi_endproc
 141              	.LFE64:
 142              		.size	ReadInfraredFront, .-ReadInfraredFront
 143              		.section	.text.ReadUltrasonicFront,"ax",%progbits
 144              		.align	2
 145              		.thumb
ARM GAS  C:\Users\Tim\AppData\Local\Temp\ccxff8Uz.s 			page 6


 146              		.thumb_func
 147              		.type	ReadUltrasonicFront, %function
 148              	ReadUltrasonicFront:
 149              	.LFB66:
 105:..\source/sensor.c ****     float data[NUM_FRONT_ULTRASONIC_SENSORS];
 150              		.loc 1 105 0
 151              		.cfi_startproc
 152              		@ args = 0, pretend = 0, frame = 32
 153              		@ frame_needed = 0, uses_anonymous_args = 0
 154 0000 00B5     		push	{lr}
 155              		.cfi_def_cfa_offset 4
 156              		.cfi_offset 14, -4
 157 0002 89B0     		sub	sp, sp, #36
 158              		.cfi_def_cfa_offset 40
 108:..\source/sensor.c ****     I2c_WriteUltrasonicFrontDistances(data);
 159              		.loc 1 108 0
 160 0004 0220     		movs	r0, #2
 161 0006 6946     		mov	r1, sp
 162 0008 FFF7FEFF 		bl	Spi_ReadNode
 163              	.LVL8:
 109:..\source/sensor.c **** }
 164              		.loc 1 109 0
 165 000c 6846     		mov	r0, sp
 166 000e FFF7FEFF 		bl	I2c_WriteUltrasonicFrontDistances
 167              	.LVL9:
 110:..\source/sensor.c **** 
 168              		.loc 1 110 0
 169 0012 09B0     		add	sp, sp, #36
 170              		.cfi_def_cfa_offset 4
 171              		@ sp needed
 172 0014 5DF804FB 		ldr	pc, [sp], #4
 173              		.cfi_endproc
 174              	.LFE66:
 175              		.size	ReadUltrasonicFront, .-ReadUltrasonicFront
 176              		.section	.text.ReadFrontDistanceSensors,"ax",%progbits
 177              		.align	2
 178              		.thumb
 179              		.thumb_func
 180              		.type	ReadFrontDistanceSensors, %function
 181              	ReadFrontDistanceSensors:
 182              	.LFB68:
 128:..\source/sensor.c ****     ReadInfraredFront();
 183              		.loc 1 128 0
 184              		.cfi_startproc
 185              		@ args = 0, pretend = 0, frame = 0
 186              		@ frame_needed = 0, uses_anonymous_args = 0
 187 0000 08B5     		push	{r3, lr}
 188              		.cfi_def_cfa_offset 8
 189              		.cfi_offset 3, -8
 190              		.cfi_offset 14, -4
 129:..\source/sensor.c ****     ReadUltrasonicFront();
 191              		.loc 1 129 0
 192 0002 FFF7FEFF 		bl	ReadInfraredFront
 193              	.LVL10:
 130:..\source/sensor.c **** }
 194              		.loc 1 130 0
 195 0006 FFF7FEFF 		bl	ReadUltrasonicFront
ARM GAS  C:\Users\Tim\AppData\Local\Temp\ccxff8Uz.s 			page 7


 196              	.LVL11:
 197 000a 08BD     		pop	{r3, pc}
 198              		.cfi_endproc
 199              	.LFE68:
 200              		.size	ReadFrontDistanceSensors, .-ReadFrontDistanceSensors
 201              		.section	.text.Sensor_Init,"ax",%progbits
 202              		.align	2
 203              		.global	Sensor_Init
 204              		.thumb
 205              		.thumb_func
 206              		.type	Sensor_Init, %function
 207              	Sensor_Init:
 208              	.LFB70:
 137:..\source/sensor.c **** }
 138:..\source/sensor.c **** 
 139:..\source/sensor.c **** /*-------------------------------------------------------------------------------------------------
 140:..\source/sensor.c ****  * Name: Sensor_Init
 141:..\source/sensor.c ****  * Description: Initializes the sensor module.  The sensor module is an abstraction for various sen
 142:..\source/sensor.c ****  *              supported on the Psoc.
 143:..\source/sensor.c ****  * Parameters: None
 144:..\source/sensor.c ****  * Return: None
 145:..\source/sensor.c ****  * 
 146:..\source/sensor.c ****  *-------------------------------------------------------------------------------------------------
 147:..\source/sensor.c **** void Sensor_Init()
 148:..\source/sensor.c **** {
 209              		.loc 1 148 0
 210              		.cfi_startproc
 211              		@ args = 0, pretend = 0, frame = 0
 212              		@ frame_needed = 0, uses_anonymous_args = 0
 213 0000 08B5     		push	{r3, lr}
 214              		.cfi_def_cfa_offset 8
 215              		.cfi_offset 3, -8
 216              		.cfi_offset 14, -4
 149:..\source/sensor.c ****     Spi_Init();
 217              		.loc 1 149 0
 218 0002 FFF7FEFF 		bl	Spi_Init
 219              	.LVL12:
 150:..\source/sensor.c ****     
 151:..\source/sensor.c ****     sensor_array[0] = ReadFrontDistanceSensors;
 220              		.loc 1 151 0
 221 0006 034B     		ldr	r3, .L15
 222 0008 034A     		ldr	r2, .L15+4
 223 000a 1A60     		str	r2, [r3]
 152:..\source/sensor.c ****     sensor_array[1] = ReadReadDistanceSensors;
 224              		.loc 1 152 0
 225 000c 034A     		ldr	r2, .L15+8
 226 000e 5A60     		str	r2, [r3, #4]
 227 0010 08BD     		pop	{r3, pc}
 228              	.L16:
 229 0012 00BF     		.align	2
 230              	.L15:
 231 0014 00000000 		.word	.LANCHOR0
 232 0018 00000000 		.word	ReadFrontDistanceSensors
 233 001c 00000000 		.word	ReadReadDistanceSensors
 234              		.cfi_endproc
 235              	.LFE70:
 236              		.size	Sensor_Init, .-Sensor_Init
ARM GAS  C:\Users\Tim\AppData\Local\Temp\ccxff8Uz.s 			page 8


 237              		.section	.text.Sensor_Start,"ax",%progbits
 238              		.align	2
 239              		.global	Sensor_Start
 240              		.thumb
 241              		.thumb_func
 242              		.type	Sensor_Start, %function
 243              	Sensor_Start:
 244              	.LFB71:
 153:..\source/sensor.c **** }
 154:..\source/sensor.c **** 
 155:..\source/sensor.c **** /*-------------------------------------------------------------------------------------------------
 156:..\source/sensor.c ****  * Name: Sensor_Start
 157:..\source/sensor.c ****  * Description: Starts components within the sensor module.
 158:..\source/sensor.c ****  * Parameters: None
 159:..\source/sensor.c ****  * Return: None
 160:..\source/sensor.c ****  * 
 161:..\source/sensor.c ****  *-------------------------------------------------------------------------------------------------
 162:..\source/sensor.c **** void Sensor_Start()
 163:..\source/sensor.c **** {
 245              		.loc 1 163 0
 246              		.cfi_startproc
 247              		@ args = 0, pretend = 0, frame = 0
 248              		@ frame_needed = 0, uses_anonymous_args = 0
 249 0000 08B5     		push	{r3, lr}
 250              		.cfi_def_cfa_offset 8
 251              		.cfi_offset 3, -8
 252              		.cfi_offset 14, -4
 164:..\source/sensor.c ****     Spi_Start();
 253              		.loc 1 164 0
 254 0002 FFF7FEFF 		bl	Spi_Start
 255              	.LVL13:
 256 0006 08BD     		pop	{r3, pc}
 257              		.cfi_endproc
 258              	.LFE71:
 259              		.size	Sensor_Start, .-Sensor_Start
 260              		.global	__aeabi_ui2d
 261              		.global	__aeabi_dcmpge
 262              		.section	.text.Sensor_Update,"ax",%progbits
 263              		.align	2
 264              		.global	Sensor_Update
 265              		.thumb
 266              		.thumb_func
 267              		.type	Sensor_Update, %function
 268              	Sensor_Update:
 269              	.LFB72:
 165:..\source/sensor.c **** }
 166:..\source/sensor.c **** 
 167:..\source/sensor.c **** /*-------------------------------------------------------------------------------------------------
 168:..\source/sensor.c ****  * Name: Sensor_Update
 169:..\source/sensor.c ****  * Description: Called peridically from the main loop to update the sensor values.
 170:..\source/sensor.c ****  * Parameters: None
 171:..\source/sensor.c ****  * Return: None
 172:..\source/sensor.c ****  * 
 173:..\source/sensor.c ****  *-------------------------------------------------------------------------------------------------
 174:..\source/sensor.c **** void Sensor_Update()
 175:..\source/sensor.c **** {
 270              		.loc 1 175 0
ARM GAS  C:\Users\Tim\AppData\Local\Temp\ccxff8Uz.s 			page 9


 271              		.cfi_startproc
 272              		@ args = 0, pretend = 0, frame = 104
 273              		@ frame_needed = 0, uses_anonymous_args = 0
 274 0000 10B5     		push	{r4, lr}
 275              		.cfi_def_cfa_offset 8
 276              		.cfi_offset 4, -8
 277              		.cfi_offset 14, -4
 278 0002 9AB0     		sub	sp, sp, #104
 279              		.cfi_def_cfa_offset 112
 176:..\source/sensor.c ****     static uint32 last_update_time = 0;
 177:..\source/sensor.c ****     static uint8 sensor_index = 0;
 178:..\source/sensor.c ****     uint32 delta_time;
 179:..\source/sensor.c ****     
 180:..\source/sensor.c ****     delta_time = millis() - last_update_time;
 280              		.loc 1 180 0
 281 0004 FFF7FEFF 		bl	millis
 282              	.LVL14:
 283 0008 0446     		mov	r4, r0
 284              	.LVL15:
 181:..\source/sensor.c ****     SENSOR_DEBUG_DELTA(delta_time);
 285              		.loc 1 181 0
 286 000a 114B     		ldr	r3, .L26
 287 000c 1B88     		ldrh	r3, [r3]
 288 000e 03F08003 		and	r3, r3, #128
 289 0012 9BB2     		uxth	r3, r3
 290 0014 43B1     		cbz	r3, .L20
 291              	.LBB2:
 292              		.loc 1 181 0 is_stmt 0 discriminator 1
 293 0016 01A8     		add	r0, sp, #4
 294              	.LVL16:
 295 0018 0E49     		ldr	r1, .L26+4
 296 001a 0F4A     		ldr	r2, .L26+8
 297 001c 2346     		mov	r3, r4
 298 001e FFF7FEFF 		bl	sprintf
 299              	.LVL17:
 300 0022 01A8     		add	r0, sp, #4
 301 0024 FFF7FEFF 		bl	Ser_PutString
 302              	.LVL18:
 303              	.L20:
 304              	.LBE2:
 182:..\source/sensor.c ****     if (delta_time >= SENSOR_SAMPLE_TIME_MS)
 305              		.loc 1 182 0 is_stmt 1
 306 0028 2046     		mov	r0, r4
 307 002a FFF7FEFF 		bl	__aeabi_ui2d
 308              	.LVL19:
 309 002e 0022     		movs	r2, #0
 310 0030 0A4B     		ldr	r3, .L26+12
 311 0032 FFF7FEFF 		bl	__aeabi_dcmpge
 312              	.LVL20:
 313 0036 48B1     		cbz	r0, .L19
 183:..\source/sensor.c ****     {
 184:..\source/sensor.c ****         sensor_array[sensor_index]();        
 314              		.loc 1 184 0
 315 0038 094C     		ldr	r4, .L26+16
 316              	.LVL21:
 317 003a 237A     		ldrb	r3, [r4, #8]	@ zero_extendqisi2
 318 003c 54F82330 		ldr	r3, [r4, r3, lsl #2]
ARM GAS  C:\Users\Tim\AppData\Local\Temp\ccxff8Uz.s 			page 10


 319 0040 9847     		blx	r3
 320              	.LVL22:
 185:..\source/sensor.c ****         sensor_index = (sensor_index + 1) % NUM_SENSOR_ENTRIES;
 321              		.loc 1 185 0
 322 0042 237A     		ldrb	r3, [r4, #8]	@ zero_extendqisi2
 323 0044 0133     		adds	r3, r3, #1
 324 0046 03F00103 		and	r3, r3, #1
 325 004a 2372     		strb	r3, [r4, #8]
 326              	.L19:
 186:..\source/sensor.c ****     }
 187:..\source/sensor.c **** }
 327              		.loc 1 187 0
 328 004c 1AB0     		add	sp, sp, #104
 329              		.cfi_def_cfa_offset 8
 330              		@ sp needed
 331 004e 10BD     		pop	{r4, pc}
 332              	.L27:
 333              		.align	2
 334              	.L26:
 335 0050 00000000 		.word	debug_control_enabled
 336 0054 00000000 		.word	.LC0
 337 0058 0C000000 		.word	.LC1
 338 005c 00004940 		.word	1078525952
 339 0060 00000000 		.word	.LANCHOR0
 340              		.cfi_endproc
 341              	.LFE72:
 342              		.size	Sensor_Update, .-Sensor_Update
 343              		.comm	debug_control_enabled,2,2
 344              		.comm	formatted_string,256,4
 345              		.section	.rodata.str1.4,"aMS",%progbits,1
 346              		.align	2
 347              	.LC0:
 348 0000 25733A20 		.ascii	"%s: %ld \015\012\000"
 348      256C6420 
 348      0D0A00
 349 000b 00       		.space	1
 350              	.LC1:
 351 000c 73656E00 		.ascii	"sen\000"
 352              		.bss
 353              		.align	2
 354              		.set	.LANCHOR0,. + 0
 355              		.type	sensor_array, %object
 356              		.size	sensor_array, 8
 357              	sensor_array:
 358 0000 00000000 		.space	8
 358      00000000 
 359              		.type	sensor_index.7497, %object
 360              		.size	sensor_index.7497, 1
 361              	sensor_index.7497:
 362 0008 00       		.space	1
 363 0009 000000   		.text
 364              	.Letext0:
 365              		.file 2 "c:\\program files (x86)\\cypress\\psoc creator\\3.3\\psoc creator\\import\\gnu\\arm\\4.9.
 366              		.file 3 "c:\\program files (x86)\\cypress\\psoc creator\\3.3\\psoc creator\\import\\gnu\\arm\\4.9.
 367              		.file 4 "Generated_Source\\PSoC5/cytypes.h"
 368              		.file 5 "..\\source\\spi.h"
 369              		.file 6 "Generated_Source\\PSoC5/core_cm3.h"
ARM GAS  C:\Users\Tim\AppData\Local\Temp\ccxff8Uz.s 			page 11


 370              		.file 7 "..\\source\\debug.h"
 371              		.file 8 "..\\source\\i2c.h"
 372              		.file 9 "..\\source\\serial.h"
 373              		.file 10 "..\\source\\time.h"
 374              		.file 11 "c:\\program files (x86)\\cypress\\psoc creator\\3.3\\psoc creator\\import\\gnu\\arm\\4.9