ARM GAS  C:\Users\Tim\AppData\Local\Temp\ccpmWllp.s 			page 1


   1              		.syntax unified
   2              		.cpu cortex-m3
   3              		.fpu softvfp
   4              		.eabi_attribute 20, 1
   5              		.eabi_attribute 21, 1
   6              		.eabi_attribute 23, 3
   7              		.eabi_attribute 24, 1
   8              		.eabi_attribute 25, 1
   9              		.eabi_attribute 26, 1
  10              		.eabi_attribute 30, 1
  11              		.eabi_attribute 34, 1
  12              		.eabi_attribute 18, 4
  13              		.thumb
  14              		.file	"serial.c"
  15              		.text
  16              	.Ltext0:
  17              		.cfi_sections	.debug_frame
  18              		.section	.text.Ser_Init,"ax",%progbits
  19              		.align	2
  20              		.global	Ser_Init
  21              		.thumb
  22              		.thumb_func
  23              		.type	Ser_Init, %function
  24              	Ser_Init:
  25              	.LFB63:
  26              		.file 1 "..\\source\\serial.c"
   1:..\source/serial.c **** /* ========================================
   2:..\source/serial.c ****  *
   3:..\source/serial.c ****  * Copyright YOUR COMPANY, THE YEAR
   4:..\source/serial.c ****  * All Rights Reserved
   5:..\source/serial.c ****  * UNPUBLISHED, LICENSED SOFTWARE.
   6:..\source/serial.c ****  *
   7:..\source/serial.c ****  * CONFIDENTIAL AND PROPRIETARY INFORMATION
   8:..\source/serial.c ****  * WHICH IS THE PROPERTY OF your company.
   9:..\source/serial.c ****  *
  10:..\source/serial.c ****  * ========================================
  11:..\source/serial.c **** */
  12:..\source/serial.c **** 
  13:..\source/serial.c **** #include "serial.h"
  14:..\source/serial.c **** #include "utils.h"
  15:..\source/serial.c **** 
  16:..\source/serial.c **** #ifdef COMMS_DEBUG_ENABLED    
  17:..\source/serial.c **** #define USBFS_DEVICE    (0u)
  18:..\source/serial.c **** 
  19:..\source/serial.c **** /* The buffer size is equal to the maximum packet size of the IN and OUT bulk
  20:..\source/serial.c **** * endpoints.
  21:..\source/serial.c **** */
  22:..\source/serial.c **** #define USBUART_BUFFER_SIZE (64u)
  23:..\source/serial.c **** #define LINE_STR_LENGTH     (20u)
  24:..\source/serial.c **** #endif
  25:..\source/serial.c **** 
  26:..\source/serial.c **** void Ser_Init()
  27:..\source/serial.c **** {
  27              		.loc 1 27 0
  28              		.cfi_startproc
  29              		@ args = 0, pretend = 0, frame = 0
  30              		@ frame_needed = 0, uses_anonymous_args = 0
ARM GAS  C:\Users\Tim\AppData\Local\Temp\ccpmWllp.s 			page 2


  31              		@ link register save eliminated.
  32 0000 7047     		bx	lr
  33              		.cfi_endproc
  34              	.LFE63:
  35              		.size	Ser_Init, .-Ser_Init
  36 0002 00BF     		.section	.text.Ser_Start,"ax",%progbits
  37              		.align	2
  38              		.global	Ser_Start
  39              		.thumb
  40              		.thumb_func
  41              		.type	Ser_Start, %function
  42              	Ser_Start:
  43              	.LFB64:
  28:..\source/serial.c **** }
  29:..\source/serial.c **** 
  30:..\source/serial.c **** void Ser_Start()
  31:..\source/serial.c **** {
  44              		.loc 1 31 0
  45              		.cfi_startproc
  46              		@ args = 0, pretend = 0, frame = 0
  47              		@ frame_needed = 0, uses_anonymous_args = 0
  48              		@ link register save eliminated.
  49 0000 7047     		bx	lr
  50              		.cfi_endproc
  51              	.LFE64:
  52              		.size	Ser_Start, .-Ser_Start
  53 0002 00BF     		.section	.text.Ser_Write,"ax",%progbits
  54              		.align	2
  55              		.global	Ser_Write
  56              		.thumb
  57              		.thumb_func
  58              		.type	Ser_Write, %function
  59              	Ser_Write:
  60              	.LFB65:
  32:..\source/serial.c **** #ifdef COMMS_DEBUG_ENABLED    
  33:..\source/serial.c ****     /* Start USBFS operation with 5-V operation. */
  34:..\source/serial.c ****     USBUART_Start(USBFS_DEVICE, USBUART_5V_OPERATION);
  35:..\source/serial.c **** 
  36:..\source/serial.c ****     /* Host can send double SET_INTERFACE request. */
  37:..\source/serial.c ****     if (0u != USBUART_IsConfigurationChanged())
  38:..\source/serial.c ****     {
  39:..\source/serial.c ****         /* Initialize IN endpoints when device is configured. */
  40:..\source/serial.c ****         if (0u != USBUART_GetConfiguration())
  41:..\source/serial.c ****         {
  42:..\source/serial.c ****             /* Enumeration is done, enable OUT endpoint to receive data 
  43:..\source/serial.c ****              * from host. */
  44:..\source/serial.c ****             USBUART_CDC_Init();
  45:..\source/serial.c ****         }
  46:..\source/serial.c ****     }
  47:..\source/serial.c **** 
  48:..\source/serial.c ****     /* Service USB CDC when device is configured. */
  49:..\source/serial.c ****     if (0u != USBUART_GetConfiguration())
  50:..\source/serial.c ****     {
  51:..\source/serial.c ****         USBUART_PutString("USB UART is configured!\r\n");
  52:..\source/serial.c ****     }
  53:..\source/serial.c **** #endif
  54:..\source/serial.c **** }
ARM GAS  C:\Users\Tim\AppData\Local\Temp\ccpmWllp.s 			page 3


  55:..\source/serial.c **** 
  56:..\source/serial.c **** uint8 Ser_Write(uint8 *data, size_t num)
  57:..\source/serial.c **** {
  61              		.loc 1 57 0
  62              		.cfi_startproc
  63              		@ args = 0, pretend = 0, frame = 0
  64              		@ frame_needed = 0, uses_anonymous_args = 0
  65              		@ link register save eliminated.
  66              	.LVL0:
  58:..\source/serial.c **** #ifdef COMMS_DEBUG_ENABLED    
  59:..\source/serial.c ****     if (0 != USBUART_CDCIsReady())
  60:..\source/serial.c ****     {
  61:..\source/serial.c ****         USBUART_PutData(data, num);
  62:..\source/serial.c ****         return 0;    
  63:..\source/serial.c ****     }
  64:..\source/serial.c ****     
  65:..\source/serial.c ****     return 1;
  66:..\source/serial.c **** #else
  67:..\source/serial.c ****     data = data;
  68:..\source/serial.c ****     num = num;
  69:..\source/serial.c ****     return 0;
  70:..\source/serial.c **** #endif    
  71:..\source/serial.c **** }
  67              		.loc 1 71 0
  68 0000 0020     		movs	r0, #0
  69              	.LVL1:
  70 0002 7047     		bx	lr
  71              		.cfi_endproc
  72              	.LFE65:
  73              		.size	Ser_Write, .-Ser_Write
  74              		.section	.text.Ser_Read,"ax",%progbits
  75              		.align	2
  76              		.global	Ser_Read
  77              		.thumb
  78              		.thumb_func
  79              		.type	Ser_Read, %function
  80              	Ser_Read:
  81              	.LFB66:
  72:..\source/serial.c **** 
  73:..\source/serial.c **** uint8 Ser_Read(uint8 *data, size_t *num)
  74:..\source/serial.c **** {
  82              		.loc 1 74 0
  83              		.cfi_startproc
  84              		@ args = 0, pretend = 0, frame = 0
  85              		@ frame_needed = 0, uses_anonymous_args = 0
  86              		@ link register save eliminated.
  87              	.LVL2:
  75:..\source/serial.c **** #ifdef COMMS_DEBUG_ENABLED    
  76:..\source/serial.c ****     uint16 count;
  77:..\source/serial.c ****     
  78:..\source/serial.c ****     if (0u != USBUART_DataIsReady())
  79:..\source/serial.c ****     {
  80:..\source/serial.c ****         /* Read received data and re-enable OUT endpoint. */
  81:..\source/serial.c ****         count = USBUART_GetAll(buffer);
  82:..\source/serial.c ****                 
  83:..\source/serial.c ****         *num = min(*num, count);
  84:..\source/serial.c ****         memcpy(data, buffer, *num);
ARM GAS  C:\Users\Tim\AppData\Local\Temp\ccpmWllp.s 			page 4


  85:..\source/serial.c ****         return 0;
  86:..\source/serial.c ****     }
  87:..\source/serial.c ****     
  88:..\source/serial.c ****     return 1;
  89:..\source/serial.c **** #else
  90:..\source/serial.c ****     data = data;
  91:..\source/serial.c ****     num = num;
  92:..\source/serial.c ****     return 0;
  93:..\source/serial.c **** #endif    
  94:..\source/serial.c **** }
  88              		.loc 1 94 0
  89 0000 0020     		movs	r0, #0
  90              	.LVL3:
  91 0002 7047     		bx	lr
  92              		.cfi_endproc
  93              	.LFE66:
  94              		.size	Ser_Read, .-Ser_Read
  95              		.section	.text.Ser_PutString,"ax",%progbits
  96              		.align	2
  97              		.global	Ser_PutString
  98              		.thumb
  99              		.thumb_func
 100              		.type	Ser_PutString, %function
 101              	Ser_PutString:
 102              	.LFB67:
  95:..\source/serial.c **** 
  96:..\source/serial.c **** void Ser_PutString(char *str)
  97:..\source/serial.c **** {
 103              		.loc 1 97 0
 104              		.cfi_startproc
 105              		@ args = 0, pretend = 0, frame = 0
 106              		@ frame_needed = 0, uses_anonymous_args = 0
 107              		@ link register save eliminated.
 108              	.LVL4:
 109 0000 7047     		bx	lr
 110              		.cfi_endproc
 111              	.LFE67:
 112              		.size	Ser_PutString, .-Ser_PutString
 113 0002 00BF     		.text
 114              	.Letext0:
 115              		.file 2 "c:\\program files (x86)\\cypress\\psoc creator\\3.3\\psoc creator\\import\\gnu\\arm\\4.9.
 116              		.file 3 "c:\\program files (x86)\\cypress\\psoc creator\\3.3\\psoc creator\\import\\gnu\\arm\\4.9.
 117              		.file 4 "Generated_Source\\PSoC5/cytypes.h"
 118              		.file 5 "c:\\program files (x86)\\cypress\\psoc creator\\3.3\\psoc creator\\import\\gnu\\arm\\4.9.
 119              		.file 6 "Generated_Source\\PSoC5/core_cm3.h"