ARM GAS  C:\Users\Tim\AppData\Local\Temp\cc4ZTqsW.s 			page 1


   1              		.syntax unified
   2              		.cpu cortex-m3
   3              		.fpu softvfp
   4              		.eabi_attribute 20, 1
   5              		.eabi_attribute 21, 1
   6              		.eabi_attribute 23, 3
   7              		.eabi_attribute 24, 1
   8              		.eabi_attribute 25, 1
   9              		.eabi_attribute 26, 1
  10              		.eabi_attribute 30, 1
  11              		.eabi_attribute 34, 1
  12              		.eabi_attribute 18, 4
  13              		.thumb
  14              		.file	"spi.c"
  15              		.text
  16              	.Ltext0:
  17              		.cfi_sections	.debug_frame
  18              		.section	.text.SendRequest,"ax",%progbits
  19              		.align	2
  20              		.thumb
  21              		.thumb_func
  22              		.type	SendRequest, %function
  23              	SendRequest:
  24              	.LFB63:
  25              		.file 1 "..\\source\\spi.c"
   1:..\source/spi.c **** #include "spi.h"
   2:..\source/spi.c **** #include "time.h"
   3:..\source/spi.c **** #include "i2c.h"
   4:..\source/spi.c **** 
   5:..\source/spi.c **** #define NUM_SPI_DEVICES (4)
   6:..\source/spi.c **** 
   7:..\source/spi.c **** static uint32 last_time;
   8:..\source/spi.c **** 
   9:..\source/spi.c **** static void SendRequest(uint8 device)
  10:..\source/spi.c **** {
  26              		.loc 1 10 0
  27              		.cfi_startproc
  28              		@ args = 0, pretend = 0, frame = 0
  29              		@ frame_needed = 0, uses_anonymous_args = 0
  30              	.LVL0:
  31 0000 10B5     		push	{r4, lr}
  32              		.cfi_def_cfa_offset 8
  33              		.cfi_offset 4, -8
  34              		.cfi_offset 14, -4
  35 0002 0446     		mov	r4, r0
  11:..\source/spi.c ****     /* Send a request command to the device */
  12:..\source/spi.c ****     
  13:..\source/spi.c ****     if (SPIM_GetTxBufferSize() == 0)
  36              		.loc 1 13 0
  37 0004 FFF7FEFF 		bl	SPIM_GetTxBufferSize
  38              	.LVL1:
  39 0008 58B9     		cbnz	r0, .L1
  14:..\source/spi.c ****     {        
  15:..\source/spi.c ****         Slave_Select_Write(device);
  40              		.loc 1 15 0
  41 000a 2046     		mov	r0, r4
  42 000c FFF7FEFF 		bl	Slave_Select_Write
ARM GAS  C:\Users\Tim\AppData\Local\Temp\cc4ZTqsW.s 			page 2


  43              	.LVL2:
  16:..\source/spi.c ****         SPIM_WriteTxData(CMD_REQUEST);
  44              		.loc 1 16 0
  45 0010 0120     		movs	r0, #1
  46 0012 FFF7FEFF 		bl	SPIM_WriteTxData
  47              	.LVL3:
  48              	.L3:
  17:..\source/spi.c **** 
  18:..\source/spi.c ****         /* Wait for the end of the transfer monitoring the SPI_DONE status */
  19:..\source/spi.c ****         while (SPIM_GetTxBufferSize() > 0)
  49              		.loc 1 19 0 discriminator 1
  50 0016 FFF7FEFF 		bl	SPIM_GetTxBufferSize
  51              	.LVL4:
  52 001a 0028     		cmp	r0, #0
  53 001c FBD1     		bne	.L3
  20:..\source/spi.c ****         {
  21:..\source/spi.c ****         }
  22:..\source/spi.c ****         
  23:..\source/spi.c ****         /* Clear dummy bytes from RX buffer */
  24:..\source/spi.c ****         SPIM_ClearRxBuffer();
  54              		.loc 1 24 0
  55 001e FFF7FEFF 		bl	SPIM_ClearRxBuffer
  56              	.LVL5:
  57              	.L1:
  58 0022 10BD     		pop	{r4, pc}
  59              		.cfi_endproc
  60              	.LFE63:
  61              		.size	SendRequest, .-SendRequest
  62              		.section	.text.ProcessResponse,"ax",%progbits
  63              		.align	2
  64              		.thumb
  65              		.thumb_func
  66              		.type	ProcessResponse, %function
  67              	ProcessResponse:
  68              	.LFB64:
  25:..\source/spi.c ****     }    
  26:..\source/spi.c **** }
  27:..\source/spi.c **** 
  28:..\source/spi.c **** static uint8 NullData[MAX_MSG_SIZE] = {0, 0, 0, 0, 0, 0, 0, 0, 0, 0, 0};
  29:..\source/spi.c **** 
  30:..\source/spi.c **** static void ProcessResponse(uint8 device, uint8* response)
  31:..\source/spi.c **** /* Note: Each device will support either IR or US sensors.  Somehow there needs to be a way to map 
  32:..\source/spi.c ****    position on the robot.  The GT Control of Robots course discussed an abstraction called 'skirt'.
  33:..\source/spi.c ****    abstraction, there really is no need to know about IR vs US vs any other sensor outside of the P
  34:..\source/spi.c ****    sense to report distances based only on orientation, e.g. 0, <dist>; 45, <dist>, etc.  With this
  35:..\source/spi.c ****    interface would need two bytes: 1 byte - orientation (in degees), 1 byte - dist (in cm)
  36:..\source/spi.c **** 
  37:..\source/spi.c ****    With this approach, it is possible to get duplication of orientation, e.g., IR and US sensor at 
  38:..\source/spi.c **** 
  39:..\source/spi.c ****    The question is whether this abstraction should be at the Psoc level or at the Raspberry Pi leve
  40:..\source/spi.c ****    to think of the Psoc as h/w.  From that perspective, the I2C interface gives register perspectiv
  41:..\source/spi.c ****    hardware in the robot (via the Psoc).
  42:..\source/spi.c **** 
  43:..\source/spi.c ****    From this perspective, the I2C interface will be an array of IR distances and an array of US dis
  44:..\source/spi.c ****    mapped and their ultimate meaning occur at the Raspberry Pi level.  So, there should be no front
  45:..\source/spi.c ****    just 0 through N-1.  However, it will be helpful to think about the convention for how the senso
  46:..\source/spi.c ****    top-to-bottom-left-to-right-front-to-back, bottom-to-top-left-to-right-front-to-back, etc.
ARM GAS  C:\Users\Tim\AppData\Local\Temp\cc4ZTqsW.s 			page 3


  47:..\source/spi.c ****  */
  48:..\source/spi.c **** {
  69              		.loc 1 48 0
  70              		.cfi_startproc
  71              		@ args = 0, pretend = 0, frame = 0
  72              		@ frame_needed = 0, uses_anonymous_args = 0
  73              	.LVL6:
  74 0000 38B5     		push	{r3, r4, r5, lr}
  75              		.cfi_def_cfa_offset 16
  76              		.cfi_offset 3, -16
  77              		.cfi_offset 4, -12
  78              		.cfi_offset 5, -8
  79              		.cfi_offset 14, -4
  49:..\source/spi.c ****     uint8 som = response[0];
  80              		.loc 1 49 0
  81 0002 0B78     		ldrb	r3, [r1]	@ zero_extendqisi2
  82              	.LVL7:
  50:..\source/spi.c ****     uint8 eom = response[11];
  83              		.loc 1 50 0
  84 0004 CC7A     		ldrb	r4, [r1, #11]	@ zero_extendqisi2
  85              	.LVL8:
  51:..\source/spi.c ****     uint8 type = response[1];
  86              		.loc 1 51 0
  87 0006 4D78     		ldrb	r5, [r1, #1]	@ zero_extendqisi2
  88              	.LVL9:
  52:..\source/spi.c ****     uint8 offset;
  53:..\source/spi.c **** 
  54:..\source/spi.c ****     offset = device == 0 || device == 2 ? 0 : 8;
  89              		.loc 1 54 0
  90 0008 18B1     		cbz	r0, .L10
  91              		.loc 1 54 0 is_stmt 0 discriminator 2
  92 000a 0228     		cmp	r0, #2
  93 000c 03D1     		bne	.L11
  94              		.loc 1 54 0
  95 000e 0020     		movs	r0, #0
  96              	.LVL10:
  97 0010 02E0     		b	.L6
  98              	.LVL11:
  99              	.L10:
 100 0012 0020     		movs	r0, #0
 101              	.LVL12:
 102 0014 00E0     		b	.L6
 103              	.LVL13:
 104              	.L11:
 105 0016 0820     		movs	r0, #8
 106              	.LVL14:
 107              	.L6:
  55:..\source/spi.c ****     
  56:..\source/spi.c ****     if (som == SOM && eom == EOM)
 108              		.loc 1 56 0 is_stmt 1 discriminator 6
 109 0018 012B     		cmp	r3, #1
 110 001a 0CD1     		bne	.L5
 111              		.loc 1 56 0 is_stmt 0 discriminator 1
 112 001c FE2C     		cmp	r4, #254
 113 001e 0AD1     		bne	.L5
  57:..\source/spi.c ****     {
  58:..\source/spi.c ****         switch (type)
ARM GAS  C:\Users\Tim\AppData\Local\Temp\cc4ZTqsW.s 			page 4


 114              		.loc 1 58 0 is_stmt 1
 115 0020 012D     		cmp	r5, #1
 116 0022 05D0     		beq	.L8
 117 0024 022D     		cmp	r5, #2
 118 0026 06D1     		bne	.L5
  59:..\source/spi.c ****         {
  60:..\source/spi.c ****             case IR_TYPE:
  61:..\source/spi.c ****                 /* Deliver IR data */
  62:..\source/spi.c ****                 I2c_WriteInfraredDistances(offset, response, NUM_SENSORS);                
 119              		.loc 1 62 0
 120 0028 0822     		movs	r2, #8
 121 002a FFF7FEFF 		bl	I2c_WriteInfraredDistances
 122              	.LVL15:
  63:..\source/spi.c ****                 break;
 123              		.loc 1 63 0
 124 002e 38BD     		pop	{r3, r4, r5, pc}
 125              	.LVL16:
 126              	.L8:
  64:..\source/spi.c ****         
  65:..\source/spi.c ****             case US_TYPE:
  66:..\source/spi.c ****                 /* Deliver US data */
  67:..\source/spi.c ****                 I2c_WriteUltrasonicDistances(offset, response, NUM_SENSORS); 
 127              		.loc 1 67 0
 128 0030 0822     		movs	r2, #8
 129 0032 FFF7FEFF 		bl	I2c_WriteUltrasonicDistances
 130              	.LVL17:
 131              	.L5:
 132 0036 38BD     		pop	{r3, r4, r5, pc}
 133              		.cfi_endproc
 134              	.LFE64:
 135              		.size	ProcessResponse, .-ProcessResponse
 136              		.section	.text.RecvResponse,"ax",%progbits
 137              		.align	2
 138              		.thumb
 139              		.thumb_func
 140              		.type	RecvResponse, %function
 141              	RecvResponse:
 142              	.LFB65:
  68:..\source/spi.c ****                 break;
  69:..\source/spi.c ****             
  70:..\source/spi.c ****             default:
  71:..\source/spi.c ****                 /* Something went wrong so do nothing */
  72:..\source/spi.c ****                 break;
  73:..\source/spi.c ****         }
  74:..\source/spi.c ****     }
  75:..\source/spi.c **** }
  76:..\source/spi.c **** 
  77:..\source/spi.c **** static void RecvResponse(uint8 device)
  78:..\source/spi.c **** {    
 143              		.loc 1 78 0
 144              		.cfi_startproc
 145              		@ args = 0, pretend = 0, frame = 16
 146              		@ frame_needed = 0, uses_anonymous_args = 0
 147              	.LVL18:
 148 0000 30B5     		push	{r4, r5, lr}
 149              		.cfi_def_cfa_offset 12
 150              		.cfi_offset 4, -12
ARM GAS  C:\Users\Tim\AppData\Local\Temp\cc4ZTqsW.s 			page 5


 151              		.cfi_offset 5, -8
 152              		.cfi_offset 14, -4
 153 0002 85B0     		sub	sp, sp, #20
 154              		.cfi_def_cfa_offset 32
 155 0004 0546     		mov	r5, r0
  79:..\source/spi.c ****     /* Receive the response from the device */
  80:..\source/spi.c **** 
  81:..\source/spi.c ****     uint8 response[MAX_MSG_SIZE];
  82:..\source/spi.c ****     uint8 ii;
  83:..\source/spi.c ****     
  84:..\source/spi.c ****     if (SPIM_GetTxBufferSize() == 0)
 156              		.loc 1 84 0
 157 0006 FFF7FEFF 		bl	SPIM_GetTxBufferSize
 158              	.LVL19:
 159 000a E0B9     		cbnz	r0, .L13
  85:..\source/spi.c ****     {
  86:..\source/spi.c ****         Slave_Select_Write(device);
 160              		.loc 1 86 0
 161 000c 2846     		mov	r0, r5
 162 000e FFF7FEFF 		bl	Slave_Select_Write
 163              	.LVL20:
  87:..\source/spi.c ****         
  88:..\source/spi.c ****         /* Start transfer */
  89:..\source/spi.c ****         SPIM_PutArray(NullData, sizeof(NullData));
 164              		.loc 1 89 0
 165 0012 0E48     		ldr	r0, .L19
 166 0014 0B21     		movs	r1, #11
 167 0016 FFF7FEFF 		bl	SPIM_PutArray
 168              	.LVL21:
 169              	.L15:
  90:..\source/spi.c **** 
  91:..\source/spi.c ****         /* Wait for the end of the transfer. Monitor the SPI_DONE status */
  92:..\source/spi.c ****         while (SPIM_GetTxBufferSize() > 0)
 170              		.loc 1 92 0 discriminator 1
 171 001a FFF7FEFF 		bl	SPIM_GetTxBufferSize
 172              	.LVL22:
 173 001e 0028     		cmp	r0, #0
 174 0020 FBD1     		bne	.L15
  93:..\source/spi.c ****         {
  94:..\source/spi.c ****         }
  95:..\source/spi.c **** 
  96:..\source/spi.c ****         /* Clear dummy bytes from TX buffer */
  97:..\source/spi.c ****         SPIM_ClearTxBuffer();
 175              		.loc 1 97 0
 176 0022 FFF7FEFF 		bl	SPIM_ClearTxBuffer
 177              	.LVL23:
  98:..\source/spi.c ****         
  99:..\source/spi.c ****         for (ii = 0; ii < MAX_MSG_SIZE; ++ii)
 178              		.loc 1 99 0
 179 0026 0024     		movs	r4, #0
 180 0028 07E0     		b	.L16
 181              	.LVL24:
 182              	.L17:
 100:..\source/spi.c ****         {
 101:..\source/spi.c ****             response[ii] = SPIM_ReadRxData();
 183              		.loc 1 101 0 discriminator 3
 184 002a FFF7FEFF 		bl	SPIM_ReadRxData
ARM GAS  C:\Users\Tim\AppData\Local\Temp\cc4ZTqsW.s 			page 6


 185              	.LVL25:
 186 002e 04AB     		add	r3, sp, #16
 187 0030 2344     		add	r3, r3, r4
 188 0032 03F80C0C 		strb	r0, [r3, #-12]
  99:..\source/spi.c ****         {
 189              		.loc 1 99 0 discriminator 3
 190 0036 0134     		adds	r4, r4, #1
 191              	.LVL26:
 192 0038 E4B2     		uxtb	r4, r4
 193              	.LVL27:
 194              	.L16:
  99:..\source/spi.c ****         {
 195              		.loc 1 99 0 is_stmt 0 discriminator 1
 196 003a 0A2C     		cmp	r4, #10
 197 003c F5D9     		bls	.L17
 102:..\source/spi.c ****         }
 103:..\source/spi.c ****         
 104:..\source/spi.c ****         ProcessResponse(device, response);
 198              		.loc 1 104 0 is_stmt 1
 199 003e 2846     		mov	r0, r5
 200 0040 01A9     		add	r1, sp, #4
 201 0042 FFF7FEFF 		bl	ProcessResponse
 202              	.LVL28:
 203              	.L13:
 105:..\source/spi.c ****     }
 106:..\source/spi.c **** }
 204              		.loc 1 106 0
 205 0046 05B0     		add	sp, sp, #20
 206              		.cfi_def_cfa_offset 12
 207              		@ sp needed
 208 0048 30BD     		pop	{r4, r5, pc}
 209              	.L20:
 210 004a 00BF     		.align	2
 211              	.L19:
 212 004c 00000000 		.word	.LANCHOR0
 213              		.cfi_endproc
 214              	.LFE65:
 215              		.size	RecvResponse, .-RecvResponse
 216              		.section	.text.Spi_Init,"ax",%progbits
 217              		.align	2
 218              		.global	Spi_Init
 219              		.thumb
 220              		.thumb_func
 221              		.type	Spi_Init, %function
 222              	Spi_Init:
 223              	.LFB66:
 107:..\source/spi.c **** 
 108:..\source/spi.c **** void Spi_Init()
 109:..\source/spi.c **** {
 224              		.loc 1 109 0
 225              		.cfi_startproc
 226              		@ args = 0, pretend = 0, frame = 0
 227              		@ frame_needed = 0, uses_anonymous_args = 0
 228              		@ link register save eliminated.
 229 0000 7047     		bx	lr
 230              		.cfi_endproc
 231              	.LFE66:
ARM GAS  C:\Users\Tim\AppData\Local\Temp\cc4ZTqsW.s 			page 7


 232              		.size	Spi_Init, .-Spi_Init
 233 0002 00BF     		.section	.text.Spi_Start,"ax",%progbits
 234              		.align	2
 235              		.global	Spi_Start
 236              		.thumb
 237              		.thumb_func
 238              		.type	Spi_Start, %function
 239              	Spi_Start:
 240              	.LFB67:
 110:..\source/spi.c **** }
 111:..\source/spi.c **** 
 112:..\source/spi.c **** void Spi_Start()
 113:..\source/spi.c **** {
 241              		.loc 1 113 0
 242              		.cfi_startproc
 243              		@ args = 0, pretend = 0, frame = 0
 244              		@ frame_needed = 0, uses_anonymous_args = 0
 245              		.loc 1 113 0
 246 0000 08B5     		push	{r3, lr}
 247              		.cfi_def_cfa_offset 8
 248              		.cfi_offset 3, -8
 249              		.cfi_offset 14, -4
 114:..\source/spi.c ****     SPIM_Start();
 250              		.loc 1 114 0
 251 0002 FFF7FEFF 		bl	SPIM_Start
 252              	.LVL29:
 115:..\source/spi.c ****     last_time = millis();
 253              		.loc 1 115 0
 254 0006 FFF7FEFF 		bl	millis
 255              	.LVL30:
 256 000a 014B     		ldr	r3, .L24
 257 000c D860     		str	r0, [r3, #12]
 258 000e 08BD     		pop	{r3, pc}
 259              	.L25:
 260              		.align	2
 261              	.L24:
 262 0010 00000000 		.word	.LANCHOR0
 263              		.cfi_endproc
 264              	.LFE67:
 265              		.size	Spi_Start, .-Spi_Start
 266              		.section	.text.Spi_Update,"ax",%progbits
 267              		.align	2
 268              		.global	Spi_Update
 269              		.thumb
 270              		.thumb_func
 271              		.type	Spi_Update, %function
 272              	Spi_Update:
 273              	.LFB68:
 116:..\source/spi.c **** }
 117:..\source/spi.c **** 
 118:..\source/spi.c **** void Spi_Update()
 119:..\source/spi.c **** {
 274              		.loc 1 119 0
 275              		.cfi_startproc
 276              		@ args = 0, pretend = 0, frame = 0
 277              		@ frame_needed = 0, uses_anonymous_args = 0
 278 0000 10B5     		push	{r4, lr}
ARM GAS  C:\Users\Tim\AppData\Local\Temp\cc4ZTqsW.s 			page 8


 279              		.cfi_def_cfa_offset 8
 280              		.cfi_offset 4, -8
 281              		.cfi_offset 14, -4
 120:..\source/spi.c ****     uint32 delta_time;
 121:..\source/spi.c ****     uint8 ii;
 122:..\source/spi.c ****     
 123:..\source/spi.c ****     delta_time = last_time - millis();
 282              		.loc 1 123 0
 283 0002 0A4B     		ldr	r3, .L32
 284 0004 DC68     		ldr	r4, [r3, #12]
 285 0006 FFF7FEFF 		bl	millis
 286              	.LVL31:
 287 000a 201A     		subs	r0, r4, r0
 288              	.LVL32:
 124:..\source/spi.c ****     if (delta_time > 50)
 289              		.loc 1 124 0
 290 000c 3228     		cmp	r0, #50
 291 000e 09D8     		bhi	.L30
 292 0010 10BD     		pop	{r4, pc}
 293              	.LVL33:
 294              	.L29:
 125:..\source/spi.c ****     {
 126:..\source/spi.c ****         for (ii = 0; ii < NUM_SPI_DEVICES; ++ii)
 127:..\source/spi.c ****         {
 128:..\source/spi.c ****             SendRequest(ii);
 295              		.loc 1 128 0 discriminator 3
 296 0012 2046     		mov	r0, r4
 297 0014 FFF7FEFF 		bl	SendRequest
 298              	.LVL34:
 129:..\source/spi.c ****             RecvResponse(ii);
 299              		.loc 1 129 0 discriminator 3
 300 0018 2046     		mov	r0, r4
 301 001a FFF7FEFF 		bl	RecvResponse
 302              	.LVL35:
 126:..\source/spi.c ****         {
 303              		.loc 1 126 0 discriminator 3
 304 001e 0134     		adds	r4, r4, #1
 305              	.LVL36:
 306 0020 E4B2     		uxtb	r4, r4
 307              	.LVL37:
 308 0022 00E0     		b	.L27
 309              	.LVL38:
 310              	.L30:
 311 0024 0024     		movs	r4, #0
 312              	.LVL39:
 313              	.L27:
 126:..\source/spi.c ****         {
 314              		.loc 1 126 0 is_stmt 0 discriminator 1
 315 0026 032C     		cmp	r4, #3
 316 0028 F3D9     		bls	.L29
 317 002a 10BD     		pop	{r4, pc}
 318              	.LVL40:
 319              	.L33:
 320              		.align	2
 321              	.L32:
 322 002c 00000000 		.word	.LANCHOR0
 323              		.cfi_endproc
ARM GAS  C:\Users\Tim\AppData\Local\Temp\cc4ZTqsW.s 			page 9


 324              	.LFE68:
 325              		.size	Spi_Update, .-Spi_Update
 326              		.bss
 327              		.align	2
 328              		.set	.LANCHOR0,. + 0
 329              		.type	NullData, %object
 330              		.size	NullData, 11
 331              	NullData:
 332 0000 00000000 		.space	11
 332      00000000 
 332      000000
 333 000b 00       		.space	1
 334              		.type	last_time, %object
 335              		.size	last_time, 4
 336              	last_time:
 337 000c 00000000 		.space	4
 338              		.text
 339              	.Letext0:
 340              		.file 2 "c:\\program files (x86)\\cypress\\psoc creator\\3.3\\psoc creator\\import\\gnu\\arm\\4.9.
 341              		.file 3 "c:\\program files (x86)\\cypress\\psoc creator\\3.3\\psoc creator\\import\\gnu\\arm\\4.9.
 342              		.file 4 "Generated_Source\\PSoC5/cytypes.h"
 343              		.file 5 "Generated_Source\\PSoC5/Slave_Select.h"
 344              		.file 6 "Generated_Source\\PSoC5/SPIM.h"
 345              		.file 7 "..\\source\\i2c.h"
 346              		.file 8 "Generated_Source\\PSoC5/core_cm3.h"
 347              		.file 9 "..\\source\\time.h"