ARM GAS  C:\Users\Tim\AppData\Local\Temp\ccWXdWBc.s 			page 1


   1              		.syntax unified
   2              		.cpu cortex-m3
   3              		.fpu softvfp
   4              		.eabi_attribute 20, 1
   5              		.eabi_attribute 21, 1
   6              		.eabi_attribute 23, 3
   7              		.eabi_attribute 24, 1
   8              		.eabi_attribute 25, 1
   9              		.eabi_attribute 26, 1
  10              		.eabi_attribute 30, 1
  11              		.eabi_attribute 34, 1
  12              		.eabi_attribute 18, 4
  13              		.thumb
  14              		.file	"time.c"
  15              		.text
  16              	.Ltext0:
  17              		.cfi_sections	.debug_frame
  18              		.section	.text.SysTickIsrHandler,"ax",%progbits
  19              		.align	2
  20              		.thumb
  21              		.thumb_func
  22              		.type	SysTickIsrHandler, %function
  23              	SysTickIsrHandler:
  24              	.LFB63:
  25              		.file 1 "..\\source\\time.c"
   1:..\source/time.c **** /* ========================================
   2:..\source/time.c ****  *
   3:..\source/time.c ****  * Copyright YOUR COMPANY, THE YEAR
   4:..\source/time.c ****  * All Rights Reserved
   5:..\source/time.c ****  * UNPUBLISHED, LICENSED SOFTWARE.
   6:..\source/time.c ****  *
   7:..\source/time.c ****  * CONFIDENTIAL AND PROPRIETARY INFORMATION
   8:..\source/time.c ****  * WHICH IS THE PROPERTY OF your company.
   9:..\source/time.c ****  *
  10:..\source/time.c ****  * ========================================
  11:..\source/time.c **** */
  12:..\source/time.c **** 
  13:..\source/time.c **** #include "time.h"
  14:..\source/time.c **** 
  15:..\source/time.c **** static uint32 ms_counter;
  16:..\source/time.c **** 
  17:..\source/time.c **** /* Interrupt prototype */
  18:..\source/time.c **** static CY_ISR_PROTO(SysTickIsrHandler);
  19:..\source/time.c ****  
  20:..\source/time.c **** static CY_ISR(SysTickIsrHandler)
  21:..\source/time.c **** {
  26              		.loc 1 21 0
  27              		.cfi_startproc
  28              		@ args = 0, pretend = 0, frame = 0
  29              		@ frame_needed = 0, uses_anonymous_args = 0
  30              		@ link register save eliminated.
  22:..\source/time.c ****     ms_counter++;
  31              		.loc 1 22 0
  32 0000 024A     		ldr	r2, .L2
  33 0002 1368     		ldr	r3, [r2]
  34 0004 0133     		adds	r3, r3, #1
  35 0006 1360     		str	r3, [r2]
ARM GAS  C:\Users\Tim\AppData\Local\Temp\ccWXdWBc.s 			page 2


  36 0008 7047     		bx	lr
  37              	.L3:
  38 000a 00BF     		.align	2
  39              	.L2:
  40 000c 00000000 		.word	.LANCHOR0
  41              		.cfi_endproc
  42              	.LFE63:
  43              		.size	SysTickIsrHandler, .-SysTickIsrHandler
  44              		.section	.text.Time_Init,"ax",%progbits
  45              		.align	2
  46              		.global	Time_Init
  47              		.thumb
  48              		.thumb_func
  49              		.type	Time_Init, %function
  50              	Time_Init:
  51              	.LFB64:
  23:..\source/time.c **** }
  24:..\source/time.c **** 
  25:..\source/time.c **** 
  26:..\source/time.c **** void Time_Init()
  27:..\source/time.c **** {
  52              		.loc 1 27 0
  53              		.cfi_startproc
  54              		@ args = 0, pretend = 0, frame = 0
  55              		@ frame_needed = 0, uses_anonymous_args = 0
  56              		@ link register save eliminated.
  28:..\source/time.c ****     ms_counter = 0;
  57              		.loc 1 28 0
  58 0000 0022     		movs	r2, #0
  59 0002 014B     		ldr	r3, .L5
  60 0004 1A60     		str	r2, [r3]
  61 0006 7047     		bx	lr
  62              	.L6:
  63              		.align	2
  64              	.L5:
  65 0008 00000000 		.word	.LANCHOR0
  66              		.cfi_endproc
  67              	.LFE64:
  68              		.size	Time_Init, .-Time_Init
  69              		.section	.text.Time_Start,"ax",%progbits
  70              		.align	2
  71              		.global	Time_Start
  72              		.thumb
  73              		.thumb_func
  74              		.type	Time_Start, %function
  75              	Time_Start:
  76              	.LFB65:
  29:..\source/time.c **** }
  30:..\source/time.c **** 
  31:..\source/time.c **** void Time_Start()
  32:..\source/time.c **** {
  77              		.loc 1 32 0
  78              		.cfi_startproc
  79              		@ args = 0, pretend = 0, frame = 0
  80              		@ frame_needed = 0, uses_anonymous_args = 0
  81 0000 10B5     		push	{r4, lr}
  82              		.cfi_def_cfa_offset 8
ARM GAS  C:\Users\Tim\AppData\Local\Temp\ccWXdWBc.s 			page 3


  83              		.cfi_offset 4, -8
  84              		.cfi_offset 14, -4
  33:..\source/time.c ****     uint32 ii;
  34:..\source/time.c ****     
  35:..\source/time.c ****     /* Starts SysTick component */
  36:..\source/time.c ****     CySysTickStart();
  85              		.loc 1 36 0
  86 0002 FFF7FEFF 		bl	CySysTickStart
  87              	.LVL0:
  37:..\source/time.c ****     
  38:..\source/time.c ****     CySysTickClear();
  88              		.loc 1 38 0
  89 0006 FFF7FEFF 		bl	CySysTickClear
  90              	.LVL1:
  39:..\source/time.c ****  
  40:..\source/time.c ****     /* Find unused callback slot. */
  41:..\source/time.c ****     for (ii = 0u; ii < CY_SYS_SYST_NUM_OF_CALLBACKS; ++ii)
  91              		.loc 1 41 0
  92 000a 0024     		movs	r4, #0
  93 000c 09E0     		b	.L8
  94              	.LVL2:
  95              	.L11:
  42:..\source/time.c ****     {
  43:..\source/time.c ****         if (CySysTickGetCallback(ii) == NULL)
  96              		.loc 1 43 0
  97 000e 2046     		mov	r0, r4
  98 0010 FFF7FEFF 		bl	CySysTickGetCallback
  99              	.LVL3:
 100 0014 20B9     		cbnz	r0, .L9
  44:..\source/time.c ****         {
  45:..\source/time.c ****             /* Set callback */
  46:..\source/time.c ****             CySysTickSetCallback(ii, SysTickIsrHandler);
 101              		.loc 1 46 0
 102 0016 2046     		mov	r0, r4
 103 0018 0349     		ldr	r1, .L13
 104 001a FFF7FEFF 		bl	CySysTickSetCallback
 105              	.LVL4:
  47:..\source/time.c ****             break;
 106              		.loc 1 47 0
 107 001e 10BD     		pop	{r4, pc}
 108              	.LVL5:
 109              	.L9:
  41:..\source/time.c ****     {
 110              		.loc 1 41 0 discriminator 2
 111 0020 0134     		adds	r4, r4, #1
 112              	.LVL6:
 113              	.L8:
  41:..\source/time.c ****     {
 114              		.loc 1 41 0 is_stmt 0 discriminator 1
 115 0022 042C     		cmp	r4, #4
 116 0024 F3D9     		bls	.L11
 117 0026 10BD     		pop	{r4, pc}
 118              	.LVL7:
 119              	.L14:
 120              		.align	2
 121              	.L13:
 122 0028 00000000 		.word	SysTickIsrHandler
ARM GAS  C:\Users\Tim\AppData\Local\Temp\ccWXdWBc.s 			page 4


 123              		.cfi_endproc
 124              	.LFE65:
 125              		.size	Time_Start, .-Time_Start
 126              		.section	.text.millis,"ax",%progbits
 127              		.align	2
 128              		.global	millis
 129              		.thumb
 130              		.thumb_func
 131              		.type	millis, %function
 132              	millis:
 133              	.LFB66:
  48:..\source/time.c ****         }
  49:..\source/time.c ****     }
  50:..\source/time.c **** }
  51:..\source/time.c **** 
  52:..\source/time.c **** uint32 millis()
  53:..\source/time.c **** {
 134              		.loc 1 53 0 is_stmt 1
 135              		.cfi_startproc
 136              		@ args = 0, pretend = 0, frame = 0
 137              		@ frame_needed = 0, uses_anonymous_args = 0
 138              		@ link register save eliminated.
  54:..\source/time.c ****     return ms_counter;
  55:..\source/time.c **** }
 139              		.loc 1 55 0
 140 0000 014B     		ldr	r3, .L16
 141 0002 1868     		ldr	r0, [r3]
 142 0004 7047     		bx	lr
 143              	.L17:
 144 0006 00BF     		.align	2
 145              	.L16:
 146 0008 00000000 		.word	.LANCHOR0
 147              		.cfi_endproc
 148              	.LFE66:
 149              		.size	millis, .-millis
 150              		.bss
 151              		.align	2
 152              		.set	.LANCHOR0,. + 0
 153              		.type	ms_counter, %object
 154              		.size	ms_counter, 4
 155              	ms_counter:
 156 0000 00000000 		.space	4
 157              		.text
 158              	.Letext0:
 159              		.file 2 "c:\\program files (x86)\\cypress\\psoc creator\\3.3\\psoc creator\\import\\gnu\\arm\\4.9.
 160              		.file 3 "c:\\program files (x86)\\cypress\\psoc creator\\3.3\\psoc creator\\import\\gnu\\arm\\4.9.
 161              		.file 4 "Generated_Source\\PSoC5/cytypes.h"
 162              		.file 5 "Generated_Source\\PSoC5/CyLib.h"
 163              		.file 6 "Generated_Source\\PSoC5/core_cm3.h"