ARM GAS  C:\Users\Tim\AppData\Local\Temp\ccjT4BE5.s 			page 1


   1              		.syntax unified
   2              		.cpu cortex-m3
   3              		.fpu softvfp
   4              		.eabi_attribute 20, 1
   5              		.eabi_attribute 21, 1
   6              		.eabi_attribute 23, 3
   7              		.eabi_attribute 24, 1
   8              		.eabi_attribute 25, 1
   9              		.eabi_attribute 26, 1
  10              		.eabi_attribute 30, 1
  11              		.eabi_attribute 34, 1
  12              		.eabi_attribute 18, 4
  13              		.thumb
  14              		.file	"ultrasonic.c"
  15              		.text
  16              	.Ltext0:
  17              		.cfi_sections	.debug_frame
  18              		.section	.text.Front_Trigger_Next,"ax",%progbits
  19              		.align	2
  20              		.thumb
  21              		.thumb_func
  22              		.type	Front_Trigger_Next, %function
  23              	Front_Trigger_Next:
  24              	.LFB63:
  25              		.file 1 "..\\source\\ultrasonic.c"
   1:..\source/ultrasonic.c **** /* ========================================
   2:..\source/ultrasonic.c ****  *
   3:..\source/ultrasonic.c ****  * Copyright YOUR COMPANY, THE YEAR
   4:..\source/ultrasonic.c ****  * All Rights Reserved
   5:..\source/ultrasonic.c ****  * UNPUBLISHED, LICENSED SOFTWARE.
   6:..\source/ultrasonic.c ****  *
   7:..\source/ultrasonic.c ****  * CONFIDENTIAL AND PROPRIETARY INFORMATION
   8:..\source/ultrasonic.c ****  * WHICH IS THE PROPERTY OF your company.
   9:..\source/ultrasonic.c ****  *
  10:..\source/ultrasonic.c ****  * ========================================
  11:..\source/ultrasonic.c **** */
  12:..\source/ultrasonic.c **** 
  13:..\source/ultrasonic.c **** #include "config.h"
  14:..\source/ultrasonic.c **** #include "ultrasonic.h"
  15:..\source/ultrasonic.c **** #include "i2c.h"
  16:..\source/ultrasonic.c **** #include "utils.h"
  17:..\source/ultrasonic.c **** #include "time.h"
  18:..\source/ultrasonic.c **** #include "debug.h"
  19:..\source/ultrasonic.c **** 
  20:..\source/ultrasonic.c **** #define MIN_PULSE_US (114)
  21:..\source/ultrasonic.c **** #define MAX_PULSE_US (23200)
  22:..\source/ultrasonic.c **** 
  23:..\source/ultrasonic.c **** #define TRIGGER_PULSE_WIDTH (10)
  24:..\source/ultrasonic.c **** #define US_PER_CENTIMETER (58)
  25:..\source/ultrasonic.c **** 
  26:..\source/ultrasonic.c **** #define TIMER_CLEAR_BIT (0x02)
  27:..\source/ultrasonic.c **** #define TRIGGER_BIT     (0x01)
  28:..\source/ultrasonic.c **** 
  29:..\source/ultrasonic.c **** #define MAX_TIMER_COUNT (3000)
  30:..\source/ultrasonic.c **** 
  31:..\source/ultrasonic.c **** 
  32:..\source/ultrasonic.c **** static void Front_Trigger_Next()
ARM GAS  C:\Users\Tim\AppData\Local\Temp\ccjT4BE5.s 			page 2


  33:..\source/ultrasonic.c **** {
  26              		.loc 1 33 0
  27              		.cfi_startproc
  28              		@ args = 0, pretend = 0, frame = 0
  29              		@ frame_needed = 0, uses_anonymous_args = 0
  30 0000 10B5     		push	{r4, lr}
  31              		.cfi_def_cfa_offset 8
  32              		.cfi_offset 4, -8
  33              		.cfi_offset 14, -4
  34:..\source/ultrasonic.c ****     static uint8 front_trigger_index = 0;
  35:..\source/ultrasonic.c ****     
  36:..\source/ultrasonic.c ****     Front_Trigger_Select_Reg_Write(front_trigger_index);
  34              		.loc 1 36 0
  35 0002 0B4C     		ldr	r4, .L4
  36 0004 2078     		ldrb	r0, [r4]	@ zero_extendqisi2
  37 0006 FFF7FEFF 		bl	Front_Trigger_Select_Reg_Write
  38              	.LVL0:
  37:..\source/ultrasonic.c ****     front_trigger_index = (front_trigger_index + 1) % NUM_FRONT_ULTRASONIC_SENSORS;
  39              		.loc 1 37 0
  40 000a 2378     		ldrb	r3, [r4]	@ zero_extendqisi2
  41 000c 0133     		adds	r3, r3, #1
  42 000e 03F00703 		and	r3, r3, #7
  43 0012 2370     		strb	r3, [r4]
  38:..\source/ultrasonic.c ****     
  39:..\source/ultrasonic.c ****     Front_Trigger_Reg_Write(0);
  44              		.loc 1 39 0
  45 0014 0020     		movs	r0, #0
  46 0016 FFF7FEFF 		bl	Front_Trigger_Reg_Write
  47              	.LVL1:
  40:..\source/ultrasonic.c ****     Front_Trigger_Reg_Write(TIMER_CLEAR_BIT | TRIGGER_BIT);
  48              		.loc 1 40 0
  49 001a 0320     		movs	r0, #3
  50 001c FFF7FEFF 		bl	Front_Trigger_Reg_Write
  51              	.LVL2:
  41:..\source/ultrasonic.c ****     CyDelay(TRIGGER_PULSE_WIDTH);
  52              		.loc 1 41 0
  53 0020 0A20     		movs	r0, #10
  54 0022 FFF7FEFF 		bl	CyDelay
  55              	.LVL3:
  42:..\source/ultrasonic.c ****     Front_Trigger_Reg_Write(0);
  56              		.loc 1 42 0
  57 0026 0020     		movs	r0, #0
  58 0028 FFF7FEFF 		bl	Front_Trigger_Reg_Write
  59              	.LVL4:
  60 002c 10BD     		pop	{r4, pc}
  61              	.L5:
  62 002e 00BF     		.align	2
  63              	.L4:
  64 0030 00000000 		.word	.LANCHOR0
  65              		.cfi_endproc
  66              	.LFE63:
  67              		.size	Front_Trigger_Next, .-Front_Trigger_Next
  68              		.section	.text.Front_Echo_Interrupt,"ax",%progbits
  69              		.align	2
  70              		.thumb
  71              		.thumb_func
  72              		.type	Front_Echo_Interrupt, %function
ARM GAS  C:\Users\Tim\AppData\Local\Temp\ccjT4BE5.s 			page 3


  73              	Front_Echo_Interrupt:
  74              	.LFB65:
  43:..\source/ultrasonic.c **** }
  44:..\source/ultrasonic.c **** 
  45:..\source/ultrasonic.c **** static void Rear_Trigger_Next()
  46:..\source/ultrasonic.c **** {
  47:..\source/ultrasonic.c ****     static uint8 rear_trigger_index = 0;
  48:..\source/ultrasonic.c ****     
  49:..\source/ultrasonic.c ****     Rear_Trigger_Select_Reg_Write(rear_trigger_index);
  50:..\source/ultrasonic.c ****     rear_trigger_index = (rear_trigger_index + 1) % NUM_REAR_ULTRASONIC_SENSORS;
  51:..\source/ultrasonic.c ****     
  52:..\source/ultrasonic.c ****     Rear_Trigger_Reg_Write(0);
  53:..\source/ultrasonic.c ****     Rear_Trigger_Reg_Write(TIMER_CLEAR_BIT | TRIGGER_BIT);
  54:..\source/ultrasonic.c ****     CyDelay(TRIGGER_PULSE_WIDTH);
  55:..\source/ultrasonic.c ****     Rear_Trigger_Reg_Write(0);
  56:..\source/ultrasonic.c **** }
  57:..\source/ultrasonic.c **** 
  58:..\source/ultrasonic.c **** static CY_ISR( Front_Echo_Interrupt )
  59:..\source/ultrasonic.c **** {
  75              		.loc 1 59 0
  76              		.cfi_startproc
  77              		@ args = 0, pretend = 0, frame = 0
  78              		@ frame_needed = 0, uses_anonymous_args = 0
  79 0000 10B5     		push	{r4, lr}
  80              		.cfi_def_cfa_offset 8
  81              		.cfi_offset 4, -8
  82              		.cfi_offset 14, -4
  60:..\source/ultrasonic.c ****     Front_Echo_Intr_ClearPending();
  83              		.loc 1 60 0
  84 0002 FFF7FEFF 		bl	Front_Echo_Intr_ClearPending
  85              	.LVL5:
  61:..\source/ultrasonic.c ****     
  62:..\source/ultrasonic.c ****     uint16 count = MAX_TIMER_COUNT - Front_Echo_Timer_ReadCounter();
  86              		.loc 1 62 0
  87 0006 FFF7FEFF 		bl	Front_Echo_Timer_ReadCounter
  88              	.LVL6:
  89 000a 80B2     		uxth	r0, r0
  90 000c C0F53B63 		rsb	r3, r0, #2992
  91 0010 0833     		adds	r3, r3, #8
  92 0012 9CB2     		uxth	r4, r3
  93              	.LVL7:
  63:..\source/ultrasonic.c ****     count = constrain(count, MIN_PULSE_US, MAX_PULSE_US);
  94              		.loc 1 63 0
  95 0014 C0F53140 		rsb	r0, r0, #45312
  96 0018 1830     		adds	r0, r0, #24
  97 001a 80B2     		uxth	r0, r0
  98 001c 4AF25F53 		movw	r3, #42335
  99 0020 9842     		cmp	r0, r3
 100 0022 04D9     		bls	.L8
 101              		.loc 1 63 0 is_stmt 0 discriminator 1
 102 0024 2346     		mov	r3, r4
 103 0026 722C     		cmp	r4, #114
 104 0028 38BF     		it	cc
 105 002a 7223     		movcc	r3, #114
 106 002c 01E0     		b	.L7
 107              	.L8:
 108              		.loc 1 63 0
ARM GAS  C:\Users\Tim\AppData\Local\Temp\ccjT4BE5.s 			page 4


 109 002e 45F6A023 		movw	r3, #23200
 110              	.L7:
 111              	.LVL8:
  64:..\source/ultrasonic.c ****     uint8 distance = (uint8) (count / US_PER_CENTIMETER);
 112              		.loc 1 64 0 is_stmt 1 discriminator 4
 113 0032 064C     		ldr	r4, .L10
 114 0034 A4FB0334 		umull	r3, r4, r4, r3
 115              	.LVL9:
 116 0038 C4F34714 		ubfx	r4, r4, #5, #8
 117              	.LVL10:
  65:..\source/ultrasonic.c ****     I2c_WriteFrontUltrasonicDistance(Front_Trigger_Select_Reg_Read(), distance);
 118              		.loc 1 65 0 discriminator 4
 119 003c FFF7FEFF 		bl	Front_Trigger_Select_Reg_Read
 120              	.LVL11:
 121 0040 2146     		mov	r1, r4
 122 0042 FFF7FEFF 		bl	I2c_WriteFrontUltrasonicDistance
 123              	.LVL12:
  66:..\source/ultrasonic.c ****     Front_Trigger_Next();
 124              		.loc 1 66 0 discriminator 4
 125 0046 FFF7FEFF 		bl	Front_Trigger_Next
 126              	.LVL13:
 127 004a 10BD     		pop	{r4, pc}
 128              	.LVL14:
 129              	.L11:
 130              		.align	2
 131              	.L10:
 132 004c 09CB3D8D 		.word	-1925330167
 133              		.cfi_endproc
 134              	.LFE65:
 135              		.size	Front_Echo_Interrupt, .-Front_Echo_Interrupt
 136              		.section	.text.Rear_Trigger_Next,"ax",%progbits
 137              		.align	2
 138              		.thumb
 139              		.thumb_func
 140              		.type	Rear_Trigger_Next, %function
 141              	Rear_Trigger_Next:
 142              	.LFB64:
  46:..\source/ultrasonic.c ****     static uint8 rear_trigger_index = 0;
 143              		.loc 1 46 0
 144              		.cfi_startproc
 145              		@ args = 0, pretend = 0, frame = 0
 146              		@ frame_needed = 0, uses_anonymous_args = 0
 147 0000 10B5     		push	{r4, lr}
 148              		.cfi_def_cfa_offset 8
 149              		.cfi_offset 4, -8
 150              		.cfi_offset 14, -4
  49:..\source/ultrasonic.c ****     rear_trigger_index = (rear_trigger_index + 1) % NUM_REAR_ULTRASONIC_SENSORS;
 151              		.loc 1 49 0
 152 0002 0B4C     		ldr	r4, .L15
 153 0004 6078     		ldrb	r0, [r4, #1]	@ zero_extendqisi2
 154 0006 FFF7FEFF 		bl	Rear_Trigger_Select_Reg_Write
 155              	.LVL15:
  50:..\source/ultrasonic.c ****     
 156              		.loc 1 50 0
 157 000a 6378     		ldrb	r3, [r4, #1]	@ zero_extendqisi2
 158 000c 0133     		adds	r3, r3, #1
 159 000e 03F00703 		and	r3, r3, #7
ARM GAS  C:\Users\Tim\AppData\Local\Temp\ccjT4BE5.s 			page 5


 160 0012 6370     		strb	r3, [r4, #1]
  52:..\source/ultrasonic.c ****     Rear_Trigger_Reg_Write(TIMER_CLEAR_BIT | TRIGGER_BIT);
 161              		.loc 1 52 0
 162 0014 0020     		movs	r0, #0
 163 0016 FFF7FEFF 		bl	Rear_Trigger_Reg_Write
 164              	.LVL16:
  53:..\source/ultrasonic.c ****     CyDelay(TRIGGER_PULSE_WIDTH);
 165              		.loc 1 53 0
 166 001a 0320     		movs	r0, #3
 167 001c FFF7FEFF 		bl	Rear_Trigger_Reg_Write
 168              	.LVL17:
  54:..\source/ultrasonic.c ****     Rear_Trigger_Reg_Write(0);
 169              		.loc 1 54 0
 170 0020 0A20     		movs	r0, #10
 171 0022 FFF7FEFF 		bl	CyDelay
 172              	.LVL18:
  55:..\source/ultrasonic.c **** }
 173              		.loc 1 55 0
 174 0026 0020     		movs	r0, #0
 175 0028 FFF7FEFF 		bl	Rear_Trigger_Reg_Write
 176              	.LVL19:
 177 002c 10BD     		pop	{r4, pc}
 178              	.L16:
 179 002e 00BF     		.align	2
 180              	.L15:
 181 0030 00000000 		.word	.LANCHOR0
 182              		.cfi_endproc
 183              	.LFE64:
 184              		.size	Rear_Trigger_Next, .-Rear_Trigger_Next
 185              		.section	.text.Rear_Echo_Interrupt,"ax",%progbits
 186              		.align	2
 187              		.thumb
 188              		.thumb_func
 189              		.type	Rear_Echo_Interrupt, %function
 190              	Rear_Echo_Interrupt:
 191              	.LFB66:
  67:..\source/ultrasonic.c **** }
  68:..\source/ultrasonic.c **** 
  69:..\source/ultrasonic.c **** static CY_ISR( Rear_Echo_Interrupt )
  70:..\source/ultrasonic.c **** {
 192              		.loc 1 70 0
 193              		.cfi_startproc
 194              		@ args = 0, pretend = 0, frame = 0
 195              		@ frame_needed = 0, uses_anonymous_args = 0
 196 0000 10B5     		push	{r4, lr}
 197              		.cfi_def_cfa_offset 8
 198              		.cfi_offset 4, -8
 199              		.cfi_offset 14, -4
  71:..\source/ultrasonic.c ****     Rear_Echo_Intr_ClearPending();
 200              		.loc 1 71 0
 201 0002 FFF7FEFF 		bl	Rear_Echo_Intr_ClearPending
 202              	.LVL20:
  72:..\source/ultrasonic.c ****     
  73:..\source/ultrasonic.c ****     uint16 count = MAX_TIMER_COUNT - Rear_Echo_Timer_ReadCounter();
 203              		.loc 1 73 0
 204 0006 FFF7FEFF 		bl	Rear_Echo_Timer_ReadCounter
 205              	.LVL21:
ARM GAS  C:\Users\Tim\AppData\Local\Temp\ccjT4BE5.s 			page 6


 206 000a 80B2     		uxth	r0, r0
 207 000c C0F53B63 		rsb	r3, r0, #2992
 208 0010 0833     		adds	r3, r3, #8
 209 0012 9CB2     		uxth	r4, r3
 210              	.LVL22:
  74:..\source/ultrasonic.c ****     count = constrain(count, MIN_PULSE_US, MAX_PULSE_US);
 211              		.loc 1 74 0
 212 0014 C0F53140 		rsb	r0, r0, #45312
 213 0018 1830     		adds	r0, r0, #24
 214 001a 80B2     		uxth	r0, r0
 215 001c 4AF25F53 		movw	r3, #42335
 216 0020 9842     		cmp	r0, r3
 217 0022 04D9     		bls	.L19
 218              		.loc 1 74 0 is_stmt 0 discriminator 1
 219 0024 2346     		mov	r3, r4
 220 0026 722C     		cmp	r4, #114
 221 0028 38BF     		it	cc
 222 002a 7223     		movcc	r3, #114
 223 002c 01E0     		b	.L18
 224              	.L19:
 225              		.loc 1 74 0
 226 002e 45F6A023 		movw	r3, #23200
 227              	.L18:
 228              	.LVL23:
  75:..\source/ultrasonic.c ****     uint8 distance = (uint8) (count / US_PER_CENTIMETER);
 229              		.loc 1 75 0 is_stmt 1 discriminator 4
 230 0032 064C     		ldr	r4, .L21
 231 0034 A4FB0334 		umull	r3, r4, r4, r3
 232              	.LVL24:
 233 0038 C4F34714 		ubfx	r4, r4, #5, #8
 234              	.LVL25:
  76:..\source/ultrasonic.c ****     I2c_WriteRearUltrasonicDistance(Rear_Trigger_Select_Reg_Read(), distance);
 235              		.loc 1 76 0 discriminator 4
 236 003c FFF7FEFF 		bl	Rear_Trigger_Select_Reg_Read
 237              	.LVL26:
 238 0040 2146     		mov	r1, r4
 239 0042 FFF7FEFF 		bl	I2c_WriteRearUltrasonicDistance
 240              	.LVL27:
  77:..\source/ultrasonic.c ****     Rear_Trigger_Next();
 241              		.loc 1 77 0 discriminator 4
 242 0046 FFF7FEFF 		bl	Rear_Trigger_Next
 243              	.LVL28:
 244 004a 10BD     		pop	{r4, pc}
 245              	.LVL29:
 246              	.L22:
 247              		.align	2
 248              	.L21:
 249 004c 09CB3D8D 		.word	-1925330167
 250              		.cfi_endproc
 251              	.LFE66:
 252              		.size	Rear_Echo_Interrupt, .-Rear_Echo_Interrupt
 253              		.section	.text.Ultrasonic_Init,"ax",%progbits
 254              		.align	2
 255              		.global	Ultrasonic_Init
 256              		.thumb
 257              		.thumb_func
 258              		.type	Ultrasonic_Init, %function
ARM GAS  C:\Users\Tim\AppData\Local\Temp\ccjT4BE5.s 			page 7


 259              	Ultrasonic_Init:
 260              	.LFB67:
  78:..\source/ultrasonic.c **** }
  79:..\source/ultrasonic.c **** 
  80:..\source/ultrasonic.c **** void Ultrasonic_Init()
  81:..\source/ultrasonic.c **** {
 261              		.loc 1 81 0
 262              		.cfi_startproc
 263              		@ args = 0, pretend = 0, frame = 0
 264              		@ frame_needed = 0, uses_anonymous_args = 0
 265              		@ link register save eliminated.
 266 0000 7047     		bx	lr
 267              		.cfi_endproc
 268              	.LFE67:
 269              		.size	Ultrasonic_Init, .-Ultrasonic_Init
 270 0002 00BF     		.section	.text.Ultrasonic_Start,"ax",%progbits
 271              		.align	2
 272              		.global	Ultrasonic_Start
 273              		.thumb
 274              		.thumb_func
 275              		.type	Ultrasonic_Start, %function
 276              	Ultrasonic_Start:
 277              	.LFB68:
  82:..\source/ultrasonic.c **** }
  83:..\source/ultrasonic.c **** 
  84:..\source/ultrasonic.c **** void Ultrasonic_Start()
  85:..\source/ultrasonic.c **** {
 278              		.loc 1 85 0
 279              		.cfi_startproc
 280              		@ args = 0, pretend = 0, frame = 0
 281              		@ frame_needed = 0, uses_anonymous_args = 0
 282              		.loc 1 85 0
 283 0000 08B5     		push	{r3, lr}
 284              		.cfi_def_cfa_offset 8
 285              		.cfi_offset 3, -8
 286              		.cfi_offset 14, -4
  86:..\source/ultrasonic.c ****     Front_Echo_Intr_StartEx(Front_Echo_Interrupt);
 287              		.loc 1 86 0
 288 0002 0748     		ldr	r0, .L26
 289 0004 FFF7FEFF 		bl	Front_Echo_Intr_StartEx
 290              	.LVL30:
  87:..\source/ultrasonic.c ****     Rear_Echo_Intr_StartEx(Rear_Echo_Interrupt);
 291              		.loc 1 87 0
 292 0008 0648     		ldr	r0, .L26+4
 293 000a FFF7FEFF 		bl	Rear_Echo_Intr_StartEx
 294              	.LVL31:
  88:..\source/ultrasonic.c ****     
  89:..\source/ultrasonic.c ****     Front_Echo_Timer_Start();
 295              		.loc 1 89 0
 296 000e FFF7FEFF 		bl	Front_Echo_Timer_Start
 297              	.LVL32:
  90:..\source/ultrasonic.c ****     Rear_Echo_Timer_Start();
 298              		.loc 1 90 0
 299 0012 FFF7FEFF 		bl	Rear_Echo_Timer_Start
 300              	.LVL33:
  91:..\source/ultrasonic.c ****     
  92:..\source/ultrasonic.c ****     Front_Trigger_Next();
ARM GAS  C:\Users\Tim\AppData\Local\Temp\ccjT4BE5.s 			page 8


 301              		.loc 1 92 0
 302 0016 FFF7FEFF 		bl	Front_Trigger_Next
 303              	.LVL34:
  93:..\source/ultrasonic.c ****     Rear_Trigger_Next();
 304              		.loc 1 93 0
 305 001a FFF7FEFF 		bl	Rear_Trigger_Next
 306              	.LVL35:
 307 001e 08BD     		pop	{r3, pc}
 308              	.L27:
 309              		.align	2
 310              	.L26:
 311 0020 00000000 		.word	Front_Echo_Interrupt
 312 0024 00000000 		.word	Rear_Echo_Interrupt
 313              		.cfi_endproc
 314              	.LFE68:
 315              		.size	Ultrasonic_Start, .-Ultrasonic_Start
 316              		.section	.text.Ultrasonic_Update,"ax",%progbits
 317              		.align	2
 318              		.global	Ultrasonic_Update
 319              		.thumb
 320              		.thumb_func
 321              		.type	Ultrasonic_Update, %function
 322              	Ultrasonic_Update:
 323              	.LFB69:
  94:..\source/ultrasonic.c **** }
  95:..\source/ultrasonic.c **** 
  96:..\source/ultrasonic.c **** void Ultrasonic_Update()
  97:..\source/ultrasonic.c **** {
 324              		.loc 1 97 0
 325              		.cfi_startproc
 326              		@ args = 0, pretend = 0, frame = 0
 327              		@ frame_needed = 0, uses_anonymous_args = 0
 328              		@ link register save eliminated.
 329 0000 7047     		bx	lr
 330              		.cfi_endproc
 331              	.LFE69:
 332              		.size	Ultrasonic_Update, .-Ultrasonic_Update
 333 0002 00BF     		.section	.text.Ultrasonic_Test,"ax",%progbits
 334              		.align	2
 335              		.global	Ultrasonic_Test
 336              		.thumb
 337              		.thumb_func
 338              		.type	Ultrasonic_Test, %function
 339              	Ultrasonic_Test:
 340              	.LFB70:
  98:..\source/ultrasonic.c **** }
  99:..\source/ultrasonic.c **** 
 100:..\source/ultrasonic.c **** void Ultrasonic_Test()
 101:..\source/ultrasonic.c **** {
 341              		.loc 1 101 0
 342              		.cfi_startproc
 343              		@ args = 0, pretend = 0, frame = 0
 344              		@ frame_needed = 0, uses_anonymous_args = 0
 345              		@ link register save eliminated.
 346 0000 7047     		bx	lr
 347              		.cfi_endproc
 348              	.LFE70:
ARM GAS  C:\Users\Tim\AppData\Local\Temp\ccjT4BE5.s 			page 9


 349              		.size	Ultrasonic_Test, .-Ultrasonic_Test
 350              		.comm	formatted_string,256,4
 351              		.comm	debug_control_enabled,2,2
 352 0002 00BF     		.bss
 353              		.set	.LANCHOR0,. + 0
 354              		.type	front_trigger_index.7353, %object
 355              		.size	front_trigger_index.7353, 1
 356              	front_trigger_index.7353:
 357 0000 00       		.space	1
 358              		.type	rear_trigger_index.7360, %object
 359              		.size	rear_trigger_index.7360, 1
 360              	rear_trigger_index.7360:
 361 0001 00       		.space	1
 362              		.text
 363              	.Letext0:
 364              		.file 2 "c:\\program files (x86)\\cypress\\psoc creator\\3.3\\psoc creator\\import\\gnu\\arm\\4.9.
 365              		.file 3 "c:\\program files (x86)\\cypress\\psoc creator\\3.3\\psoc creator\\import\\gnu\\arm\\4.9.
 366              		.file 4 "Generated_Source\\PSoC5/cytypes.h"
 367              		.file 5 "Generated_Source\\PSoC5/core_cm3.h"
 368              		.file 6 "..\\source\\debug.h"
 369              		.file 7 "Generated_Source\\PSoC5/CyLib.h"