ARM GAS  C:\Users\Tim\AppData\Local\Temp\ccA4EuzY.s 			page 1


   1              		.syntax unified
   2              		.cpu cortex-m3
   3              		.fpu softvfp
   4              		.eabi_attribute 20, 1
   5              		.eabi_attribute 21, 1
   6              		.eabi_attribute 23, 3
   7              		.eabi_attribute 24, 1
   8              		.eabi_attribute 25, 1
   9              		.eabi_attribute 26, 1
  10              		.eabi_attribute 30, 1
  11              		.eabi_attribute 34, 1
  12              		.eabi_attribute 18, 4
  13              		.thumb
  14              		.file	"USBUART.c"
  15              		.text
  16              	.Ltext0:
  17              		.cfi_sections	.debug_frame
  18              		.section	.text.USBUART_Init,"ax",%progbits
  19              		.align	2
  20              		.global	USBUART_Init
  21              		.thumb
  22              		.thumb_func
  23              		.type	USBUART_Init, %function
  24              	USBUART_Init:
  25              	.LFB1:
  26              		.file 1 ".\\Generated_Source\\PSoC5\\USBUART.c"
   1:.\Generated_Source\PSoC5/USBUART.c **** /***************************************************************************//**
   2:.\Generated_Source\PSoC5/USBUART.c **** * \file USBUART.c
   3:.\Generated_Source\PSoC5/USBUART.c **** * \version 3.0
   4:.\Generated_Source\PSoC5/USBUART.c **** *
   5:.\Generated_Source\PSoC5/USBUART.c **** * \brief
   6:.\Generated_Source\PSoC5/USBUART.c **** *  This file contains the global USBFS API functions.
   7:.\Generated_Source\PSoC5/USBUART.c **** *
   8:.\Generated_Source\PSoC5/USBUART.c **** * Note:
   9:.\Generated_Source\PSoC5/USBUART.c **** *  Many of the functions use an endpoint number. SRAM arrays are sized with 9
  10:.\Generated_Source\PSoC5/USBUART.c **** *  elements, so they are indexed directly by epNumber.  The SIE and ARB
  11:.\Generated_Source\PSoC5/USBUART.c **** *  registers are indexed by variations of epNumber - 1.
  12:.\Generated_Source\PSoC5/USBUART.c **** *
  13:.\Generated_Source\PSoC5/USBUART.c **** ********************************************************************************
  14:.\Generated_Source\PSoC5/USBUART.c **** * \copyright
  15:.\Generated_Source\PSoC5/USBUART.c **** * Copyright 2008-2015, Cypress Semiconductor Corporation.  All rights reserved.
  16:.\Generated_Source\PSoC5/USBUART.c **** * You may use this file only in accordance with the license, terms, conditions,
  17:.\Generated_Source\PSoC5/USBUART.c **** * disclaimers, and limitations in the end user license agreement accompanying
  18:.\Generated_Source\PSoC5/USBUART.c **** * the software package with which this file was provided.
  19:.\Generated_Source\PSoC5/USBUART.c **** *******************************************************************************/
  20:.\Generated_Source\PSoC5/USBUART.c **** 
  21:.\Generated_Source\PSoC5/USBUART.c **** #include "USBUART_pvt.h"
  22:.\Generated_Source\PSoC5/USBUART.c **** #include "USBUART_cydmac.h"
  23:.\Generated_Source\PSoC5/USBUART.c **** #include "USBUART_hid.h"
  24:.\Generated_Source\PSoC5/USBUART.c **** 
  25:.\Generated_Source\PSoC5/USBUART.c **** 
  26:.\Generated_Source\PSoC5/USBUART.c **** /***************************************
  27:.\Generated_Source\PSoC5/USBUART.c **** * Global data allocation
  28:.\Generated_Source\PSoC5/USBUART.c **** ***************************************/
  29:.\Generated_Source\PSoC5/USBUART.c **** 
  30:.\Generated_Source\PSoC5/USBUART.c **** /** Indicates whether the USBFS has been initialized. The variable is
  31:.\Generated_Source\PSoC5/USBUART.c **** * initialized to 0 after device reset and set to 1 the first time USBFS_Start()
ARM GAS  C:\Users\Tim\AppData\Local\Temp\ccA4EuzY.s 			page 2


  32:.\Generated_Source\PSoC5/USBUART.c **** * is called. This allows the Component to restart without reinitialization after
  33:.\Generated_Source\PSoC5/USBUART.c **** * the first call to the USBFS_Start() routine.
  34:.\Generated_Source\PSoC5/USBUART.c **** * If re-initialization of the Component is required, the variable should be set
  35:.\Generated_Source\PSoC5/USBUART.c **** * to 0 before the USBFS_Start() routine is called. Alternatively, the USBFS can
  36:.\Generated_Source\PSoC5/USBUART.c **** * be reinitialized by calling both USBFS_Init() and USBFS_InitComponent()
  37:.\Generated_Source\PSoC5/USBUART.c **** * functions.
  38:.\Generated_Source\PSoC5/USBUART.c **** */
  39:.\Generated_Source\PSoC5/USBUART.c **** uint8 USBUART_initVar = 0u;
  40:.\Generated_Source\PSoC5/USBUART.c **** 
  41:.\Generated_Source\PSoC5/USBUART.c **** #if (USBUART_EP_MANAGEMENT_DMA)
  42:.\Generated_Source\PSoC5/USBUART.c ****     #if (CY_PSOC4)
  43:.\Generated_Source\PSoC5/USBUART.c ****         static void USBUART_InitEpDma(void);
  44:.\Generated_Source\PSoC5/USBUART.c **** 
  45:.\Generated_Source\PSoC5/USBUART.c ****         /* DMA chanels assigend for endpoints. */
  46:.\Generated_Source\PSoC5/USBUART.c ****         const uint8 USBUART_DmaChan[USBUART_MAX_EP] =
  47:.\Generated_Source\PSoC5/USBUART.c ****         {
  48:.\Generated_Source\PSoC5/USBUART.c ****             0u,
  49:.\Generated_Source\PSoC5/USBUART.c ****             0u,
  50:.\Generated_Source\PSoC5/USBUART.c ****             0u,
  51:.\Generated_Source\PSoC5/USBUART.c ****             0u,
  52:.\Generated_Source\PSoC5/USBUART.c ****             0u,
  53:.\Generated_Source\PSoC5/USBUART.c ****             0u,
  54:.\Generated_Source\PSoC5/USBUART.c ****             0u,
  55:.\Generated_Source\PSoC5/USBUART.c ****             0u,
  56:.\Generated_Source\PSoC5/USBUART.c ****             0u,
  57:.\Generated_Source\PSoC5/USBUART.c ****         };        
  58:.\Generated_Source\PSoC5/USBUART.c ****     #else
  59:.\Generated_Source\PSoC5/USBUART.c ****         /* DMA chanels assigend for endpoints. */
  60:.\Generated_Source\PSoC5/USBUART.c ****         uint8 USBUART_DmaChan[USBUART_MAX_EP];
  61:.\Generated_Source\PSoC5/USBUART.c ****         
  62:.\Generated_Source\PSoC5/USBUART.c ****         /* DMA TDs require for PSoC 3/5LP operation. */
  63:.\Generated_Source\PSoC5/USBUART.c ****         uint8 USBUART_DmaTd[USBUART_MAX_EP];
  64:.\Generated_Source\PSoC5/USBUART.c ****     #endif /* (CY_PSOC4) */
  65:.\Generated_Source\PSoC5/USBUART.c **** #endif /* (USBUART_EP_MANAGEMENT_DMA) */
  66:.\Generated_Source\PSoC5/USBUART.c **** 
  67:.\Generated_Source\PSoC5/USBUART.c **** #if (USBUART_EP_MANAGEMENT_DMA_AUTO)
  68:.\Generated_Source\PSoC5/USBUART.c **** #if (CY_PSOC4)
  69:.\Generated_Source\PSoC5/USBUART.c ****     /* Number of DMA bursts. */
  70:.\Generated_Source\PSoC5/USBUART.c ****     uint8  USBUART_DmaEpBurstCnt   [USBUART_MAX_EP];
  71:.\Generated_Source\PSoC5/USBUART.c ****     
  72:.\Generated_Source\PSoC5/USBUART.c ****     /* Number of bytes to transfer in last DMA burst. */
  73:.\Generated_Source\PSoC5/USBUART.c ****     uint8  USBUART_DmaEpLastBurstEl[USBUART_MAX_EP];
  74:.\Generated_Source\PSoC5/USBUART.c **** 
  75:.\Generated_Source\PSoC5/USBUART.c ****     /* Storage for arrays above. */
  76:.\Generated_Source\PSoC5/USBUART.c ****     uint8  USBUART_DmaEpBurstCntBackup  [USBUART_MAX_EP];
  77:.\Generated_Source\PSoC5/USBUART.c ****     uint32 USBUART_DmaEpBufferAddrBackup[USBUART_MAX_EP];
  78:.\Generated_Source\PSoC5/USBUART.c ****      
  79:.\Generated_Source\PSoC5/USBUART.c ****     /* DMA trigger mux output for usb.dma_req[0-7]. */
  80:.\Generated_Source\PSoC5/USBUART.c ****     const uint8 USBUART_DmaReqOut[USBUART_MAX_EP] =
  81:.\Generated_Source\PSoC5/USBUART.c ****     {
  82:.\Generated_Source\PSoC5/USBUART.c ****         0u,
  83:.\Generated_Source\PSoC5/USBUART.c ****         USBUART_ep1_dma__TR_OUTPUT,
  84:.\Generated_Source\PSoC5/USBUART.c ****         USBUART_ep2_dma__TR_OUTPUT,
  85:.\Generated_Source\PSoC5/USBUART.c ****         USBUART_ep3_dma__TR_OUTPUT,
  86:.\Generated_Source\PSoC5/USBUART.c ****         0u,
  87:.\Generated_Source\PSoC5/USBUART.c ****         0u,
  88:.\Generated_Source\PSoC5/USBUART.c ****         0u,
ARM GAS  C:\Users\Tim\AppData\Local\Temp\ccA4EuzY.s 			page 3


  89:.\Generated_Source\PSoC5/USBUART.c ****         0u,
  90:.\Generated_Source\PSoC5/USBUART.c ****         0u,
  91:.\Generated_Source\PSoC5/USBUART.c ****     };
  92:.\Generated_Source\PSoC5/USBUART.c **** 
  93:.\Generated_Source\PSoC5/USBUART.c ****     /* DMA trigger mux output for usb.dma_burstend[0-7]. */
  94:.\Generated_Source\PSoC5/USBUART.c ****     const uint8 USBUART_DmaBurstEndOut[USBUART_MAX_EP] =
  95:.\Generated_Source\PSoC5/USBUART.c ****     {
  96:.\Generated_Source\PSoC5/USBUART.c ****         0u,
  97:.\Generated_Source\PSoC5/USBUART.c ****         USBUART_BURSTEND_0_TR_OUTPUT,
  98:.\Generated_Source\PSoC5/USBUART.c ****         USBUART_BURSTEND_1_TR_OUTPUT,
  99:.\Generated_Source\PSoC5/USBUART.c ****         USBUART_BURSTEND_2_TR_OUTPUT,
 100:.\Generated_Source\PSoC5/USBUART.c ****         USBUART_BURSTEND_3_TR_OUTPUT,
 101:.\Generated_Source\PSoC5/USBUART.c ****         USBUART_BURSTEND_4_TR_OUTPUT,
 102:.\Generated_Source\PSoC5/USBUART.c ****         USBUART_BURSTEND_5_TR_OUTPUT,
 103:.\Generated_Source\PSoC5/USBUART.c ****         USBUART_BURSTEND_6_TR_OUTPUT,
 104:.\Generated_Source\PSoC5/USBUART.c ****         USBUART_BURSTEND_7_TR_OUTPUT
 105:.\Generated_Source\PSoC5/USBUART.c ****     };
 106:.\Generated_Source\PSoC5/USBUART.c ****     
 107:.\Generated_Source\PSoC5/USBUART.c **** #else
 108:.\Generated_Source\PSoC5/USBUART.c ****     #if (USBUART_EP_DMA_AUTO_OPT == 0u)
 109:.\Generated_Source\PSoC5/USBUART.c ****         static uint8 clearInDataRdyStatus = USBUART_ARB_EPX_CFG_DEFAULT;
 110:.\Generated_Source\PSoC5/USBUART.c ****         uint8 USBUART_DmaNextTd[USBUART_MAX_EP];
 111:.\Generated_Source\PSoC5/USBUART.c ****         const uint8 USBUART_epX_TD_TERMOUT_EN[USBUART_MAX_EP] =
 112:.\Generated_Source\PSoC5/USBUART.c ****         {
 113:.\Generated_Source\PSoC5/USBUART.c ****             0u,
 114:.\Generated_Source\PSoC5/USBUART.c ****             0u,
 115:.\Generated_Source\PSoC5/USBUART.c ****             0u,
 116:.\Generated_Source\PSoC5/USBUART.c ****             0u,
 117:.\Generated_Source\PSoC5/USBUART.c ****             0u,
 118:.\Generated_Source\PSoC5/USBUART.c ****             0u,
 119:.\Generated_Source\PSoC5/USBUART.c ****             0u,
 120:.\Generated_Source\PSoC5/USBUART.c ****             0u,
 121:.\Generated_Source\PSoC5/USBUART.c ****             0u,
 122:.\Generated_Source\PSoC5/USBUART.c ****         };
 123:.\Generated_Source\PSoC5/USBUART.c **** 
 124:.\Generated_Source\PSoC5/USBUART.c ****         volatile uint16 USBUART_inLength[USBUART_MAX_EP];
 125:.\Generated_Source\PSoC5/USBUART.c ****         const uint8 *USBUART_inDataPointer[USBUART_MAX_EP];
 126:.\Generated_Source\PSoC5/USBUART.c ****         volatile uint8 USBUART_inBufFull[USBUART_MAX_EP];
 127:.\Generated_Source\PSoC5/USBUART.c ****     #endif /* (USBUART_EP_DMA_AUTO_OPT == 0u) */
 128:.\Generated_Source\PSoC5/USBUART.c **** #endif /* (CY_PSOC4) */
 129:.\Generated_Source\PSoC5/USBUART.c **** #endif /* (USBUART_EP_MANAGEMENT_DMA_AUTO) */
 130:.\Generated_Source\PSoC5/USBUART.c **** 
 131:.\Generated_Source\PSoC5/USBUART.c **** 
 132:.\Generated_Source\PSoC5/USBUART.c **** /*******************************************************************************
 133:.\Generated_Source\PSoC5/USBUART.c **** * Function Name: USBUART_Start
 134:.\Generated_Source\PSoC5/USBUART.c **** ****************************************************************************//**
 135:.\Generated_Source\PSoC5/USBUART.c **** *
 136:.\Generated_Source\PSoC5/USBUART.c **** *   This function performs all required initialization for the USBFS component.
 137:.\Generated_Source\PSoC5/USBUART.c **** *   After this function call, the USB device initiates communication with the
 138:.\Generated_Source\PSoC5/USBUART.c **** *   host by pull-up D+ line. This is the preferred method to begin component
 139:.\Generated_Source\PSoC5/USBUART.c **** *   operation.
 140:.\Generated_Source\PSoC5/USBUART.c **** *
 141:.\Generated_Source\PSoC5/USBUART.c **** *   Note that global interrupts have to be enabled because interrupts are
 142:.\Generated_Source\PSoC5/USBUART.c **** *   required for USBFS component operation.
 143:.\Generated_Source\PSoC5/USBUART.c **** *
 144:.\Generated_Source\PSoC5/USBUART.c **** *   PSoC 4200L devices: when USBFS component configured to DMA with Automatic
 145:.\Generated_Source\PSoC5/USBUART.c **** *   Buffer Management, the DMA interrupt priority is changed to the highest
ARM GAS  C:\Users\Tim\AppData\Local\Temp\ccA4EuzY.s 			page 4


 146:.\Generated_Source\PSoC5/USBUART.c **** *   (priority 0) inside this function.
 147:.\Generated_Source\PSoC5/USBUART.c **** *
 148:.\Generated_Source\PSoC5/USBUART.c **** *   PSoC 3/PSoC 5LP devices: when USBFS component configured to DMA with
 149:.\Generated_Source\PSoC5/USBUART.c **** *   Automatic Buffer Management, the Arbiter interrupt priority is changed to
 150:.\Generated_Source\PSoC5/USBUART.c **** *   the highest (priority 0) inside this function.
 151:.\Generated_Source\PSoC5/USBUART.c **** *
 152:.\Generated_Source\PSoC5/USBUART.c **** *  \param device
 153:.\Generated_Source\PSoC5/USBUART.c **** *          Contains the device number of the desired device descriptor.
 154:.\Generated_Source\PSoC5/USBUART.c **** *          The device number can be found in the Device Descriptor Tab of
 155:.\Generated_Source\PSoC5/USBUART.c **** *          "Configure" dialog, under the settings of desired Device Descriptor,
 156:.\Generated_Source\PSoC5/USBUART.c **** *          in the "Device Number" field.
 157:.\Generated_Source\PSoC5/USBUART.c **** *  \param mode:
 158:.\Generated_Source\PSoC5/USBUART.c **** *   The operating voltage. This determines whether the voltage regulator
 159:.\Generated_Source\PSoC5/USBUART.c **** *   is enabled for 5V operation or if pass through mode is used for 3.3V
 160:.\Generated_Source\PSoC5/USBUART.c **** *   operation. Symbolic names and their associated values are given in the
 161:.\Generated_Source\PSoC5/USBUART.c **** *   following list.
 162:.\Generated_Source\PSoC5/USBUART.c **** *
 163:.\Generated_Source\PSoC5/USBUART.c **** *       *USBUART_3V_OPERATION* - Disable voltage regulator and pass-
 164:.\Generated_Source\PSoC5/USBUART.c **** *                                      through Vcc for pull-up
 165:.\Generated_Source\PSoC5/USBUART.c **** *
 166:.\Generated_Source\PSoC5/USBUART.c **** *       *USBUART_5V_OPERATION* - Enable voltage regulator and use
 167:.\Generated_Source\PSoC5/USBUART.c **** *                                      regulator for pull-up
 168:.\Generated_Source\PSoC5/USBUART.c **** *
 169:.\Generated_Source\PSoC5/USBUART.c **** *       *USBUART_DWR_POWER_OPERATION* - Enable or disable the voltage
 170:.\Generated_Source\PSoC5/USBUART.c **** *                                      regulator depending on the power supply
 171:.\Generated_Source\PSoC5/USBUART.c **** *                                      voltage configuration in the DWR tab.
 172:.\Generated_Source\PSoC5/USBUART.c **** *                                      For PSoC 3/5LP devices, the VDDD supply
 173:.\Generated_Source\PSoC5/USBUART.c **** *                                      voltage is considered and for PSoC 4A-L,
 174:.\Generated_Source\PSoC5/USBUART.c **** *                                      the VBUS supply voltage is considered.*
 175:.\Generated_Source\PSoC5/USBUART.c **** * \globalvars
 176:.\Generated_Source\PSoC5/USBUART.c **** *  \ref USBUART_initVar
 177:.\Generated_Source\PSoC5/USBUART.c **** *
 178:.\Generated_Source\PSoC5/USBUART.c **** * \sideeffect
 179:.\Generated_Source\PSoC5/USBUART.c **** *   This function will reset all communication states to default.
 180:.\Generated_Source\PSoC5/USBUART.c **** *
 181:.\Generated_Source\PSoC5/USBUART.c **** * \reentrant
 182:.\Generated_Source\PSoC5/USBUART.c **** *  No.
 183:.\Generated_Source\PSoC5/USBUART.c **** *
 184:.\Generated_Source\PSoC5/USBUART.c **** *******************************************************************************/
 185:.\Generated_Source\PSoC5/USBUART.c **** void USBUART_Start(uint8 device, uint8 mode) 
 186:.\Generated_Source\PSoC5/USBUART.c **** {
 187:.\Generated_Source\PSoC5/USBUART.c ****     if (0u == USBUART_initVar)
 188:.\Generated_Source\PSoC5/USBUART.c ****     {
 189:.\Generated_Source\PSoC5/USBUART.c ****         USBUART_Init();
 190:.\Generated_Source\PSoC5/USBUART.c ****         USBUART_initVar = 1u;
 191:.\Generated_Source\PSoC5/USBUART.c ****     }
 192:.\Generated_Source\PSoC5/USBUART.c **** 
 193:.\Generated_Source\PSoC5/USBUART.c ****     USBUART_InitComponent(device, mode);
 194:.\Generated_Source\PSoC5/USBUART.c **** }
 195:.\Generated_Source\PSoC5/USBUART.c **** 
 196:.\Generated_Source\PSoC5/USBUART.c **** 
 197:.\Generated_Source\PSoC5/USBUART.c **** /*******************************************************************************
 198:.\Generated_Source\PSoC5/USBUART.c **** * Function Name: USBUART_Init
 199:.\Generated_Source\PSoC5/USBUART.c **** ****************************************************************************//**
 200:.\Generated_Source\PSoC5/USBUART.c **** *
 201:.\Generated_Source\PSoC5/USBUART.c **** * This function initializes or restores the component according to the
 202:.\Generated_Source\PSoC5/USBUART.c **** * customizer Configure dialog settings. It is not necessary to call
ARM GAS  C:\Users\Tim\AppData\Local\Temp\ccA4EuzY.s 			page 5


 203:.\Generated_Source\PSoC5/USBUART.c **** * USBUART_Init() because the USBUART_Start() routine calls
 204:.\Generated_Source\PSoC5/USBUART.c **** * this function and is the preferred method to begin component operation.
 205:.\Generated_Source\PSoC5/USBUART.c **** *
 206:.\Generated_Source\PSoC5/USBUART.c **** * \reentrant
 207:.\Generated_Source\PSoC5/USBUART.c **** *  No.
 208:.\Generated_Source\PSoC5/USBUART.c **** *
 209:.\Generated_Source\PSoC5/USBUART.c **** *******************************************************************************/
 210:.\Generated_Source\PSoC5/USBUART.c **** void USBUART_Init(void) 
 211:.\Generated_Source\PSoC5/USBUART.c **** {
  27              		.loc 1 211 0
  28              		.cfi_startproc
  29              		@ args = 0, pretend = 0, frame = 0
  30              		@ frame_needed = 0, uses_anonymous_args = 0
  31 0000 F8B5     		push	{r3, r4, r5, r6, r7, lr}
  32              		.cfi_def_cfa_offset 24
  33              		.cfi_offset 3, -24
  34              		.cfi_offset 4, -20
  35              		.cfi_offset 5, -16
  36              		.cfi_offset 6, -12
  37              		.cfi_offset 7, -8
  38              		.cfi_offset 14, -4
 212:.\Generated_Source\PSoC5/USBUART.c **** #if (CY_PSOC4)
 213:.\Generated_Source\PSoC5/USBUART.c ****     /* Enable clock to USB IP. */
 214:.\Generated_Source\PSoC5/USBUART.c ****     USBUART_USB_CLK_EN_REG = USBUART_USB_CLK_CSR_CLK_EN;
 215:.\Generated_Source\PSoC5/USBUART.c **** 
 216:.\Generated_Source\PSoC5/USBUART.c ****     /* The internal regulator (CR1.REG_ENABLE) is enabled in
 217:.\Generated_Source\PSoC5/USBUART.c ****     * USBUART_InitComponent() if it is required.
 218:.\Generated_Source\PSoC5/USBUART.c ****     */
 219:.\Generated_Source\PSoC5/USBUART.c **** 
 220:.\Generated_Source\PSoC5/USBUART.c ****     /* Enable USBIO control on drive mode of D+ and D- pins. */
 221:.\Generated_Source\PSoC5/USBUART.c ****     USBUART_USBIO_CR1_REG &= ~ (uint32) USBUART_USBIO_CR1_IOMODE;
 222:.\Generated_Source\PSoC5/USBUART.c **** 
 223:.\Generated_Source\PSoC5/USBUART.c ****     /* Set number of LF CLK to detect UBS bus reset. */
 224:.\Generated_Source\PSoC5/USBUART.c ****     USBUART_BUS_RST_CNT_REG = USBUART_DEFUALT_BUS_RST_CNT;
 225:.\Generated_Source\PSoC5/USBUART.c **** 
 226:.\Generated_Source\PSoC5/USBUART.c ****     /* Select VBUS detection source and clear PHY isolate. The application level
 227:.\Generated_Source\PSoC5/USBUART.c ****     * must ensure that VBUS is valid. There is no need to wait 2us before VBUS is valid.
 228:.\Generated_Source\PSoC5/USBUART.c ****     */
 229:.\Generated_Source\PSoC5/USBUART.c ****     USBUART_POWER_CTRL_REG = USBUART_DEFAULT_POWER_CTRL_VBUS;
 230:.\Generated_Source\PSoC5/USBUART.c **** 
 231:.\Generated_Source\PSoC5/USBUART.c ****     /* Enable PHY detector and single-ended and differential receivers. */
 232:.\Generated_Source\PSoC5/USBUART.c ****     USBUART_POWER_CTRL_REG |= USBUART_DEFAULT_POWER_CTRL_PHY;
 233:.\Generated_Source\PSoC5/USBUART.c **** 
 234:.\Generated_Source\PSoC5/USBUART.c ****     /* Suspend clear sequence. */
 235:.\Generated_Source\PSoC5/USBUART.c ****     USBUART_POWER_CTRL_REG &= (uint32) ~USBUART_POWER_CTRL_SUSPEND;
 236:.\Generated_Source\PSoC5/USBUART.c ****     CyDelayUs(USBUART_WAIT_SUSPEND_DEL_DISABLE);
 237:.\Generated_Source\PSoC5/USBUART.c ****     USBUART_POWER_CTRL_REG &= (uint32) ~USBUART_POWER_CTRL_SUSPEND_DEL;
 238:.\Generated_Source\PSoC5/USBUART.c **** 
 239:.\Generated_Source\PSoC5/USBUART.c ****     /* Sets IMO lock options and clear all other bits. */
 240:.\Generated_Source\PSoC5/USBUART.c ****     USBUART_CR1_REG = USBUART_DEFUALT_CR1;
 241:.\Generated_Source\PSoC5/USBUART.c **** 
 242:.\Generated_Source\PSoC5/USBUART.c ****     /* Configure level (hi, lo, med) for each interrupt source. */
 243:.\Generated_Source\PSoC5/USBUART.c ****     USBUART_INTR_LVL_SEL_REG = USBUART_DEFAULT_INTR_LVL_SEL;
 244:.\Generated_Source\PSoC5/USBUART.c **** 
 245:.\Generated_Source\PSoC5/USBUART.c ****     /* Configure interrupt sources from: SOF, Bus Reset and EP0. */
 246:.\Generated_Source\PSoC5/USBUART.c ****     USBUART_INTR_SIE_MASK_REG = USBUART_DEFAULT_INTR_SIE_MASK;
 247:.\Generated_Source\PSoC5/USBUART.c **** 
ARM GAS  C:\Users\Tim\AppData\Local\Temp\ccA4EuzY.s 			page 6


 248:.\Generated_Source\PSoC5/USBUART.c **** #else
 249:.\Generated_Source\PSoC5/USBUART.c ****     uint8 enableInterrupts = CyEnterCriticalSection();
  39              		.loc 1 249 0
  40 0002 FFF7FEFF 		bl	CyEnterCriticalSection
  41              	.LVL0:
  42 0006 0546     		mov	r5, r0
  43              	.LVL1:
 250:.\Generated_Source\PSoC5/USBUART.c **** 
 251:.\Generated_Source\PSoC5/USBUART.c **** #if (USBUART_EP_MANAGEMENT_DMA)
 252:.\Generated_Source\PSoC5/USBUART.c ****     uint16 i;
 253:.\Generated_Source\PSoC5/USBUART.c **** #endif /* (USBUART_EP_MANAGEMENT_DMA) */
 254:.\Generated_Source\PSoC5/USBUART.c **** 
 255:.\Generated_Source\PSoC5/USBUART.c ****     /* Enable USB block. */
 256:.\Generated_Source\PSoC5/USBUART.c ****     USBUART_PM_ACT_CFG_REG |= USBUART_PM_ACT_EN_FSUSB;
  44              		.loc 1 256 0
  45 0008 404A     		ldr	r2, .L3
  46 000a 1378     		ldrb	r3, [r2]	@ zero_extendqisi2
  47 000c 43F00103 		orr	r3, r3, #1
  48 0010 1370     		strb	r3, [r2]
 257:.\Generated_Source\PSoC5/USBUART.c ****     /* Enable USB block for Standby Power Mode. */
 258:.\Generated_Source\PSoC5/USBUART.c ****     USBUART_PM_STBY_CFG_REG |= USBUART_PM_STBY_EN_FSUSB;
  49              		.loc 1 258 0
  50 0012 1032     		adds	r2, r2, #16
  51 0014 1378     		ldrb	r3, [r2]	@ zero_extendqisi2
  52 0016 43F00103 		orr	r3, r3, #1
  53 001a 1370     		strb	r3, [r2]
 259:.\Generated_Source\PSoC5/USBUART.c **** 
 260:.\Generated_Source\PSoC5/USBUART.c ****     /* Enable core clock. */
 261:.\Generated_Source\PSoC5/USBUART.c ****     USBUART_USB_CLK_EN_REG = USBUART_USB_CLK_ENABLE;
  54              		.loc 1 261 0
  55 001c 0127     		movs	r7, #1
  56 001e 3C4B     		ldr	r3, .L3+4
  57 0020 1F70     		strb	r7, [r3]
 262:.\Generated_Source\PSoC5/USBUART.c **** 
 263:.\Generated_Source\PSoC5/USBUART.c ****     USBUART_CR1_REG = USBUART_CR1_ENABLE_LOCK;
  58              		.loc 1 263 0
  59 0022 0226     		movs	r6, #2
  60 0024 943B     		subs	r3, r3, #148
  61 0026 1E70     		strb	r6, [r3]
 264:.\Generated_Source\PSoC5/USBUART.c **** 
 265:.\Generated_Source\PSoC5/USBUART.c ****     /* ENABLING USBIO PADS IN USB MODE FROM I/O MODE. */
 266:.\Generated_Source\PSoC5/USBUART.c ****     /* Ensure USB transmit enable is low (USB_USBIO_CR0.ten). - Manual Transmission - Disabled. */
 267:.\Generated_Source\PSoC5/USBUART.c ****     USBUART_USBIO_CR0_REG &= (uint8) ~USBUART_USBIO_CR0_TEN;
  62              		.loc 1 267 0
  63 0028 02F5E252 		add	r2, r2, #7232
  64 002c 1B32     		adds	r2, r2, #27
  65 002e 1378     		ldrb	r3, [r2]	@ zero_extendqisi2
  66 0030 03F07F03 		and	r3, r3, #127
  67 0034 1370     		strb	r3, [r2]
 268:.\Generated_Source\PSoC5/USBUART.c ****     CyDelayUs(USBUART_WAIT_REG_STABILITY_50NS);  /* ~50ns delay. */
  68              		.loc 1 268 0
  69 0036 0020     		movs	r0, #0
  70 0038 FFF7FEFF 		bl	CyDelayUs
  71              	.LVL2:
 269:.\Generated_Source\PSoC5/USBUART.c ****     /* Disable USBIO by asserting PM.USB_CR0.fsusbio_pd_n(Inverted.
 270:.\Generated_Source\PSoC5/USBUART.c ****     *  high. These bits will be set low by the power manager out-of-reset.
 271:.\Generated_Source\PSoC5/USBUART.c ****     *  Also confirm USBIO pull-up is disabled.
ARM GAS  C:\Users\Tim\AppData\Local\Temp\ccA4EuzY.s 			page 7


 272:.\Generated_Source\PSoC5/USBUART.c ****     */
 273:.\Generated_Source\PSoC5/USBUART.c ****     USBUART_PM_USB_CR0_REG &= (uint8) ~(USBUART_PM_USB_CR0_PD_N |
  72              		.loc 1 273 0
  73 003c 354C     		ldr	r4, .L3+8
  74 003e 2378     		ldrb	r3, [r4]	@ zero_extendqisi2
  75 0040 03F0F903 		and	r3, r3, #249
  76 0044 2370     		strb	r3, [r4]
 274:.\Generated_Source\PSoC5/USBUART.c ****                                                  USBUART_PM_USB_CR0_PD_PULLUP_N);
 275:.\Generated_Source\PSoC5/USBUART.c **** 
 276:.\Generated_Source\PSoC5/USBUART.c ****     /* Select IOMODE to USB mode. */
 277:.\Generated_Source\PSoC5/USBUART.c ****     USBUART_USBIO_CR1_REG &= (uint8) ~USBUART_USBIO_CR1_IOMODE;
  77              		.loc 1 277 0
  78 0046 344A     		ldr	r2, .L3+12
  79 0048 1378     		ldrb	r3, [r2]	@ zero_extendqisi2
  80 004a 03F0DF03 		and	r3, r3, #223
  81 004e 1370     		strb	r3, [r2]
 278:.\Generated_Source\PSoC5/USBUART.c **** 
 279:.\Generated_Source\PSoC5/USBUART.c ****     /* Enable USBIO reference by setting PM.USB_CR0.fsusbio_ref_en. */
 280:.\Generated_Source\PSoC5/USBUART.c ****     USBUART_PM_USB_CR0_REG |= USBUART_PM_USB_CR0_REF_EN;
  82              		.loc 1 280 0
  83 0050 2378     		ldrb	r3, [r4]	@ zero_extendqisi2
  84 0052 3B43     		orrs	r3, r3, r7
  85 0054 2370     		strb	r3, [r4]
 281:.\Generated_Source\PSoC5/USBUART.c ****     /* Reference is available for 1us after regulator is enabled. */
 282:.\Generated_Source\PSoC5/USBUART.c ****     CyDelayUs(USBUART_WAIT_REG_STABILITY_1US);
  86              		.loc 1 282 0
  87 0056 3846     		mov	r0, r7
  88 0058 FFF7FEFF 		bl	CyDelayUs
  89              	.LVL3:
 283:.\Generated_Source\PSoC5/USBUART.c ****     /* OR 40us after power is restored. */
 284:.\Generated_Source\PSoC5/USBUART.c ****     CyDelayUs(USBUART_WAIT_VREF_RESTORE);
  90              		.loc 1 284 0
  91 005c 2820     		movs	r0, #40
  92 005e FFF7FEFF 		bl	CyDelayUs
  93              	.LVL4:
 285:.\Generated_Source\PSoC5/USBUART.c ****     /* Ensure single-ended disable bits are low (PRT15.INP_DIS[7:6])(input receiver enabled). */
 286:.\Generated_Source\PSoC5/USBUART.c ****     USBUART_DM_INP_DIS_REG &= (uint8) ~USBUART_DM_MASK;
  94              		.loc 1 286 0
  95 0062 2E4B     		ldr	r3, .L3+16
  96 0064 1A78     		ldrb	r2, [r3]	@ zero_extendqisi2
  97 0066 02F07F02 		and	r2, r2, #127
  98 006a 1A70     		strb	r2, [r3]
 287:.\Generated_Source\PSoC5/USBUART.c ****     USBUART_DP_INP_DIS_REG &= (uint8) ~USBUART_DP_MASK;
  99              		.loc 1 287 0
 100 006c 1A78     		ldrb	r2, [r3]	@ zero_extendqisi2
 101 006e 02F0BF02 		and	r2, r2, #191
 102 0072 1A70     		strb	r2, [r3]
 288:.\Generated_Source\PSoC5/USBUART.c **** 
 289:.\Generated_Source\PSoC5/USBUART.c ****     /* Enable USBIO. */
 290:.\Generated_Source\PSoC5/USBUART.c ****     USBUART_PM_USB_CR0_REG |= USBUART_PM_USB_CR0_PD_N;
 103              		.loc 1 290 0
 104 0074 2378     		ldrb	r3, [r4]	@ zero_extendqisi2
 105 0076 3343     		orrs	r3, r3, r6
 106 0078 2370     		strb	r3, [r4]
 291:.\Generated_Source\PSoC5/USBUART.c ****     CyDelayUs(USBUART_WAIT_PD_PULLUP_N_ENABLE);
 107              		.loc 1 291 0
 108 007a 3046     		mov	r0, r6
ARM GAS  C:\Users\Tim\AppData\Local\Temp\ccA4EuzY.s 			page 8


 109 007c FFF7FEFF 		bl	CyDelayUs
 110              	.LVL5:
 292:.\Generated_Source\PSoC5/USBUART.c ****     /* Set USBIO pull-up enable. */
 293:.\Generated_Source\PSoC5/USBUART.c ****     USBUART_PM_USB_CR0_REG |= USBUART_PM_USB_CR0_PD_PULLUP_N;
 111              		.loc 1 293 0
 112 0080 2378     		ldrb	r3, [r4]	@ zero_extendqisi2
 113 0082 43F00403 		orr	r3, r3, #4
 114 0086 2370     		strb	r3, [r4]
 294:.\Generated_Source\PSoC5/USBUART.c **** 
 295:.\Generated_Source\PSoC5/USBUART.c ****     /* Reset Arbiter Write Address register for endpoint 1. */
 296:.\Generated_Source\PSoC5/USBUART.c ****     CY_SET_REG8(USBUART_ARB_RW1_WA_PTR,     0u);
 115              		.loc 1 296 0
 116 0088 0023     		movs	r3, #0
 117 008a 254A     		ldr	r2, .L3+20
 118 008c 1370     		strb	r3, [r2]
 297:.\Generated_Source\PSoC5/USBUART.c ****     CY_SET_REG8(USBUART_ARB_RW1_WA_MSB_PTR, 0u);
 119              		.loc 1 297 0
 120 008e 0132     		adds	r2, r2, #1
 121 0090 1370     		strb	r3, [r2]
 298:.\Generated_Source\PSoC5/USBUART.c **** 
 299:.\Generated_Source\PSoC5/USBUART.c **** #if (USBUART_EP_MANAGEMENT_DMA)
 300:.\Generated_Source\PSoC5/USBUART.c ****     /* Initialize transfer descriptor. This will be used to detect DMA state - initialized or not. 
 301:.\Generated_Source\PSoC5/USBUART.c ****     for (i = 0u; i < USBUART_MAX_EP; ++i)
 302:.\Generated_Source\PSoC5/USBUART.c ****     {
 303:.\Generated_Source\PSoC5/USBUART.c ****         USBUART_DmaTd[i] = DMA_INVALID_TD;
 304:.\Generated_Source\PSoC5/USBUART.c **** 
 305:.\Generated_Source\PSoC5/USBUART.c ****     #if (USBUART_EP_MANAGEMENT_DMA_AUTO && (USBUART_EP_DMA_AUTO_OPT == 0u))
 306:.\Generated_Source\PSoC5/USBUART.c ****         USBUART_DmaNextTd[i] = DMA_INVALID_TD;
 307:.\Generated_Source\PSoC5/USBUART.c ****     #endif /* (USBUART_EP_MANAGEMENT_DMA_AUTO && (USBUART_EP_DMA_AUTO_OPT == 0u)) */
 308:.\Generated_Source\PSoC5/USBUART.c ****     }
 309:.\Generated_Source\PSoC5/USBUART.c **** #endif /* (USBUART_EP_MANAGEMENT_DMA) */
 310:.\Generated_Source\PSoC5/USBUART.c **** 
 311:.\Generated_Source\PSoC5/USBUART.c ****     CyExitCriticalSection(enableInterrupts);
 122              		.loc 1 311 0
 123 0092 2846     		mov	r0, r5
 124 0094 FFF7FEFF 		bl	CyExitCriticalSection
 125              	.LVL6:
 312:.\Generated_Source\PSoC5/USBUART.c **** #endif /* (CY_PSOC4) */
 313:.\Generated_Source\PSoC5/USBUART.c **** 
 314:.\Generated_Source\PSoC5/USBUART.c ****     /* Configure interrupts from USB block. */
 315:.\Generated_Source\PSoC5/USBUART.c **** #if (CY_PSOC4)
 316:.\Generated_Source\PSoC5/USBUART.c ****     /* Configure hi_int: set handler and priority. */
 317:.\Generated_Source\PSoC5/USBUART.c ****     CyIntSetPriority     (USBUART_INTR_HI_VECT_NUM,  USBUART_INTR_HI_PRIORITY);
 318:.\Generated_Source\PSoC5/USBUART.c ****     (void) CyIntSetVector(USBUART_INTR_HI_VECT_NUM, &USBUART_INTR_HI_ISR);
 319:.\Generated_Source\PSoC5/USBUART.c **** 
 320:.\Generated_Source\PSoC5/USBUART.c ****     /* Configure lo_int: set handler and priority. */
 321:.\Generated_Source\PSoC5/USBUART.c ****     CyIntSetPriority     (USBUART_INTR_LO_VECT_NUM,  USBUART_INTR_LO_PRIORITY);
 322:.\Generated_Source\PSoC5/USBUART.c ****     (void) CyIntSetVector(USBUART_INTR_LO_VECT_NUM, &USBUART_INTR_LO_ISR);
 323:.\Generated_Source\PSoC5/USBUART.c **** 
 324:.\Generated_Source\PSoC5/USBUART.c ****     /* Configure med_int: set handler and priority (routed through DSI). */
 325:.\Generated_Source\PSoC5/USBUART.c ****     CyIntSetPriority     (USBUART_INTR_MED_VECT_NUM,  USBUART_INTR_MED_PRIORITY);
 326:.\Generated_Source\PSoC5/USBUART.c ****     (void) CyIntSetVector(USBUART_INTR_MED_VECT_NUM, &USBUART_INTR_MED_ISR);
 327:.\Generated_Source\PSoC5/USBUART.c **** 
 328:.\Generated_Source\PSoC5/USBUART.c **** #else
 329:.\Generated_Source\PSoC5/USBUART.c ****     /* Set bus reset interrupt. */
 330:.\Generated_Source\PSoC5/USBUART.c ****     CyIntSetPriority(USBUART_BUS_RESET_VECT_NUM, USBUART_BUS_RESET_PRIOR);
 126              		.loc 1 330 0
ARM GAS  C:\Users\Tim\AppData\Local\Temp\ccA4EuzY.s 			page 9


 127 0098 1720     		movs	r0, #23
 128 009a 0721     		movs	r1, #7
 129 009c FFF7FEFF 		bl	CyIntSetPriority
 130              	.LVL7:
 331:.\Generated_Source\PSoC5/USBUART.c ****     (void) CyIntSetVector(USBUART_BUS_RESET_VECT_NUM,   &USBUART_BUS_RESET_ISR);
 131              		.loc 1 331 0
 132 00a0 1720     		movs	r0, #23
 133 00a2 2049     		ldr	r1, .L3+24
 134 00a4 FFF7FEFF 		bl	CyIntSetVector
 135              	.LVL8:
 332:.\Generated_Source\PSoC5/USBUART.c **** 
 333:.\Generated_Source\PSoC5/USBUART.c ****     /* Set Control Endpoint Interrupt. */
 334:.\Generated_Source\PSoC5/USBUART.c ****     CyIntSetPriority(USBUART_EP_0_VECT_NUM, USBUART_EP_0_PRIOR);
 136              		.loc 1 334 0
 137 00a8 1820     		movs	r0, #24
 138 00aa 0721     		movs	r1, #7
 139 00ac FFF7FEFF 		bl	CyIntSetPriority
 140              	.LVL9:
 335:.\Generated_Source\PSoC5/USBUART.c ****     (void) CyIntSetVector(USBUART_EP_0_VECT_NUM,   &USBUART_EP_0_ISR);
 141              		.loc 1 335 0
 142 00b0 1820     		movs	r0, #24
 143 00b2 1D49     		ldr	r1, .L3+28
 144 00b4 FFF7FEFF 		bl	CyIntSetVector
 145              	.LVL10:
 336:.\Generated_Source\PSoC5/USBUART.c **** 
 337:.\Generated_Source\PSoC5/USBUART.c ****     /* Set SOF interrupt. */
 338:.\Generated_Source\PSoC5/USBUART.c ****     #if (USBUART_SOF_ISR_ACTIVE)
 339:.\Generated_Source\PSoC5/USBUART.c ****         CyIntSetPriority     (USBUART_SOF_VECT_NUM,  USBUART_SOF_PRIOR);
 146              		.loc 1 339 0
 147 00b8 1520     		movs	r0, #21
 148 00ba 0721     		movs	r1, #7
 149 00bc FFF7FEFF 		bl	CyIntSetPriority
 150              	.LVL11:
 340:.\Generated_Source\PSoC5/USBUART.c ****         (void) CyIntSetVector(USBUART_SOF_VECT_NUM, &USBUART_SOF_ISR);
 151              		.loc 1 340 0
 152 00c0 1520     		movs	r0, #21
 153 00c2 1A49     		ldr	r1, .L3+32
 154 00c4 FFF7FEFF 		bl	CyIntSetVector
 155              	.LVL12:
 341:.\Generated_Source\PSoC5/USBUART.c ****     #endif /* (USBUART_SOF_ISR_ACTIVE) */
 342:.\Generated_Source\PSoC5/USBUART.c **** 
 343:.\Generated_Source\PSoC5/USBUART.c ****     /* Set Data Endpoint 1 Interrupt. */
 344:.\Generated_Source\PSoC5/USBUART.c ****     #if (USBUART_EP1_ISR_ACTIVE)
 345:.\Generated_Source\PSoC5/USBUART.c ****         CyIntSetPriority     (USBUART_EP_1_VECT_NUM,  USBUART_EP_1_PRIOR);
 156              		.loc 1 345 0
 157 00c8 0A20     		movs	r0, #10
 158 00ca 0721     		movs	r1, #7
 159 00cc FFF7FEFF 		bl	CyIntSetPriority
 160              	.LVL13:
 346:.\Generated_Source\PSoC5/USBUART.c ****         (void) CyIntSetVector(USBUART_EP_1_VECT_NUM,  &USBUART_EP_1_ISR);
 161              		.loc 1 346 0
 162 00d0 0A20     		movs	r0, #10
 163 00d2 1749     		ldr	r1, .L3+36
 164 00d4 FFF7FEFF 		bl	CyIntSetVector
 165              	.LVL14:
 347:.\Generated_Source\PSoC5/USBUART.c ****     #endif /* (USBUART_EP1_ISR_ACTIVE) */
 348:.\Generated_Source\PSoC5/USBUART.c **** 
ARM GAS  C:\Users\Tim\AppData\Local\Temp\ccA4EuzY.s 			page 10


 349:.\Generated_Source\PSoC5/USBUART.c ****     /* Set Data Endpoint 2 Interrupt. */
 350:.\Generated_Source\PSoC5/USBUART.c ****     #if (USBUART_EP2_ISR_ACTIVE)
 351:.\Generated_Source\PSoC5/USBUART.c ****         CyIntSetPriority     (USBUART_EP_2_VECT_NUM,  USBUART_EP_2_PRIOR);
 166              		.loc 1 351 0
 167 00d8 0B20     		movs	r0, #11
 168 00da 0721     		movs	r1, #7
 169 00dc FFF7FEFF 		bl	CyIntSetPriority
 170              	.LVL15:
 352:.\Generated_Source\PSoC5/USBUART.c ****         (void) CyIntSetVector(USBUART_EP_2_VECT_NUM, &USBUART_EP_2_ISR);
 171              		.loc 1 352 0
 172 00e0 0B20     		movs	r0, #11
 173 00e2 1449     		ldr	r1, .L3+40
 174 00e4 FFF7FEFF 		bl	CyIntSetVector
 175              	.LVL16:
 353:.\Generated_Source\PSoC5/USBUART.c ****     #endif /* (USBUART_EP2_ISR_ACTIVE) */
 354:.\Generated_Source\PSoC5/USBUART.c **** 
 355:.\Generated_Source\PSoC5/USBUART.c ****     /* Set Data Endpoint 3 Interrupt. */
 356:.\Generated_Source\PSoC5/USBUART.c ****     #if (USBUART_EP3_ISR_ACTIVE)
 357:.\Generated_Source\PSoC5/USBUART.c ****         CyIntSetPriority     (USBUART_EP_3_VECT_NUM,  USBUART_EP_3_PRIOR);
 176              		.loc 1 357 0
 177 00e8 0D20     		movs	r0, #13
 178 00ea 0721     		movs	r1, #7
 179 00ec FFF7FEFF 		bl	CyIntSetPriority
 180              	.LVL17:
 358:.\Generated_Source\PSoC5/USBUART.c ****         (void) CyIntSetVector(USBUART_EP_3_VECT_NUM, &USBUART_EP_3_ISR);
 181              		.loc 1 358 0
 182 00f0 0D20     		movs	r0, #13
 183 00f2 1149     		ldr	r1, .L3+44
 184 00f4 FFF7FEFF 		bl	CyIntSetVector
 185              	.LVL18:
 359:.\Generated_Source\PSoC5/USBUART.c ****     #endif /* (USBUART_EP3_ISR_ACTIVE) */
 360:.\Generated_Source\PSoC5/USBUART.c **** 
 361:.\Generated_Source\PSoC5/USBUART.c ****     /* Set Data Endpoint 4 Interrupt. */
 362:.\Generated_Source\PSoC5/USBUART.c ****     #if (USBUART_EP4_ISR_ACTIVE)
 363:.\Generated_Source\PSoC5/USBUART.c ****         CyIntSetPriority     (USBUART_EP_4_VECT_NUM,  USBUART_EP_4_PRIOR);
 364:.\Generated_Source\PSoC5/USBUART.c ****         (void) CyIntSetVector(USBUART_EP_4_VECT_NUM, &USBUART_EP_4_ISR);
 365:.\Generated_Source\PSoC5/USBUART.c ****     #endif /* (USBUART_EP4_ISR_ACTIVE) */
 366:.\Generated_Source\PSoC5/USBUART.c **** 
 367:.\Generated_Source\PSoC5/USBUART.c ****     /* Set Data Endpoint 5 Interrupt. */
 368:.\Generated_Source\PSoC5/USBUART.c ****     #if (USBUART_EP5_ISR_ACTIVE)
 369:.\Generated_Source\PSoC5/USBUART.c ****         CyIntSetPriority     (USBUART_EP_5_VECT_NUM,  USBUART_EP_5_PRIOR);
 370:.\Generated_Source\PSoC5/USBUART.c ****         (void) CyIntSetVector(USBUART_EP_5_VECT_NUM, &USBUART_EP_5_ISR);
 371:.\Generated_Source\PSoC5/USBUART.c ****     #endif /* (USBUART_EP5_ISR_ACTIVE) */
 372:.\Generated_Source\PSoC5/USBUART.c **** 
 373:.\Generated_Source\PSoC5/USBUART.c ****     /* Set Data Endpoint 6 Interrupt. */
 374:.\Generated_Source\PSoC5/USBUART.c ****     #if (USBUART_EP6_ISR_ACTIVE)
 375:.\Generated_Source\PSoC5/USBUART.c ****         CyIntSetPriority     (USBUART_EP_6_VECT_NUM,  USBUART_EP_6_PRIOR);
 376:.\Generated_Source\PSoC5/USBUART.c ****         (void) CyIntSetVector(USBUART_EP_6_VECT_NUM, &USBUART_EP_6_ISR);
 377:.\Generated_Source\PSoC5/USBUART.c ****     #endif /* (USBUART_EP6_ISR_ACTIVE) */
 378:.\Generated_Source\PSoC5/USBUART.c **** 
 379:.\Generated_Source\PSoC5/USBUART.c ****      /* Set Data Endpoint 7 Interrupt. */
 380:.\Generated_Source\PSoC5/USBUART.c ****     #if (USBUART_EP7_ISR_ACTIVE)
 381:.\Generated_Source\PSoC5/USBUART.c ****         CyIntSetPriority     (USBUART_EP_7_VECT_NUM,  USBUART_EP_7_PRIOR);
 382:.\Generated_Source\PSoC5/USBUART.c ****         (void) CyIntSetVector(USBUART_EP_7_VECT_NUM, &USBUART_EP_7_ISR);
 383:.\Generated_Source\PSoC5/USBUART.c ****     #endif /* (USBUART_EP7_ISR_ACTIVE) */
 384:.\Generated_Source\PSoC5/USBUART.c **** 
 385:.\Generated_Source\PSoC5/USBUART.c ****     /* Set Data Endpoint 8 Interrupt. */
ARM GAS  C:\Users\Tim\AppData\Local\Temp\ccA4EuzY.s 			page 11


 386:.\Generated_Source\PSoC5/USBUART.c ****     #if (USBUART_EP8_ISR_ACTIVE)
 387:.\Generated_Source\PSoC5/USBUART.c ****         CyIntSetPriority     (USBUART_EP_8_VECT_NUM,  USBUART_EP_8_PRIOR);
 388:.\Generated_Source\PSoC5/USBUART.c ****         (void) CyIntSetVector(USBUART_EP_8_VECT_NUM, &USBUART_EP_8_ISR);
 389:.\Generated_Source\PSoC5/USBUART.c ****     #endif /* (USBUART_EP8_ISR_ACTIVE) */
 390:.\Generated_Source\PSoC5/USBUART.c **** 
 391:.\Generated_Source\PSoC5/USBUART.c ****     /* Set ARB Interrupt. */
 392:.\Generated_Source\PSoC5/USBUART.c ****     #if (USBUART_EP_MANAGEMENT_DMA && USBUART_ARB_ISR_ACTIVE)
 393:.\Generated_Source\PSoC5/USBUART.c ****         CyIntSetPriority     (USBUART_ARB_VECT_NUM,  USBUART_ARB_PRIOR);
 394:.\Generated_Source\PSoC5/USBUART.c ****         (void) CyIntSetVector(USBUART_ARB_VECT_NUM, &USBUART_ARB_ISR);
 395:.\Generated_Source\PSoC5/USBUART.c ****     #endif /* (USBUART_EP_MANAGEMENT_DMA && USBUART_ARB_ISR_ACTIVE) */
 396:.\Generated_Source\PSoC5/USBUART.c **** #endif /* (CY_PSOC4) */
 397:.\Generated_Source\PSoC5/USBUART.c **** 
 398:.\Generated_Source\PSoC5/USBUART.c ****     /* Common: Configure GPIO interrupt for wakeup. */
 399:.\Generated_Source\PSoC5/USBUART.c **** #if (USBUART_DP_ISR_ACTIVE)
 400:.\Generated_Source\PSoC5/USBUART.c ****     CyIntSetPriority     (USBUART_DP_INTC_VECT_NUM,  USBUART_DP_INTC_PRIORITY);
 186              		.loc 1 400 0
 187 00f8 0C20     		movs	r0, #12
 188 00fa 0721     		movs	r1, #7
 189 00fc FFF7FEFF 		bl	CyIntSetPriority
 190              	.LVL19:
 401:.\Generated_Source\PSoC5/USBUART.c ****     (void) CyIntSetVector(USBUART_DP_INTC_VECT_NUM, &USBUART_DP_ISR);
 191              		.loc 1 401 0
 192 0100 0C20     		movs	r0, #12
 193 0102 0E49     		ldr	r1, .L3+48
 194 0104 FFF7FEFF 		bl	CyIntSetVector
 195              	.LVL20:
 196 0108 F8BD     		pop	{r3, r4, r5, r6, r7, pc}
 197              	.LVL21:
 198              	.L4:
 199 010a 00BF     		.align	2
 200              	.L3:
 201 010c A5430040 		.word	1073759141
 202 0110 9D600040 		.word	1073766557
 203 0114 94430040 		.word	1073759124
 204 0118 12600040 		.word	1073766418
 205 011c F8510040 		.word	1073762808
 206 0120 84600040 		.word	1073766532
 207 0124 00000000 		.word	USBUART_BUS_RESET_ISR
 208 0128 00000000 		.word	USBUART_EP_0_ISR
 209 012c 00000000 		.word	USBUART_SOF_ISR
 210 0130 00000000 		.word	USBUART_EP_1_ISR
 211 0134 00000000 		.word	USBUART_EP_2_ISR
 212 0138 00000000 		.word	USBUART_EP_3_ISR
 213 013c 00000000 		.word	USBUART_DP_ISR
 214              		.cfi_endproc
 215              	.LFE1:
 216              		.size	USBUART_Init, .-USBUART_Init
 217              		.section	.text.USBUART_InitComponent,"ax",%progbits
 218              		.align	2
 219              		.global	USBUART_InitComponent
 220              		.thumb
 221              		.thumb_func
 222              		.type	USBUART_InitComponent, %function
 223              	USBUART_InitComponent:
 224              	.LFB2:
 402:.\Generated_Source\PSoC5/USBUART.c **** #endif /* (USBUART_DP_ISR_ACTIVE) */
 403:.\Generated_Source\PSoC5/USBUART.c **** 
ARM GAS  C:\Users\Tim\AppData\Local\Temp\ccA4EuzY.s 			page 12


 404:.\Generated_Source\PSoC5/USBUART.c **** #if (USBUART_EP_MANAGEMENT_DMA && CY_PSOC4)
 405:.\Generated_Source\PSoC5/USBUART.c ****     /* Initialize DMA channels. */
 406:.\Generated_Source\PSoC5/USBUART.c ****     USBUART_InitEpDma();
 407:.\Generated_Source\PSoC5/USBUART.c **** #endif /* (USBUART_EP_MANAGEMENT_DMA && CY_PSOC4) */
 408:.\Generated_Source\PSoC5/USBUART.c **** }
 409:.\Generated_Source\PSoC5/USBUART.c **** 
 410:.\Generated_Source\PSoC5/USBUART.c **** 
 411:.\Generated_Source\PSoC5/USBUART.c **** /*******************************************************************************
 412:.\Generated_Source\PSoC5/USBUART.c **** * Function Name: USBUART_InitComponent
 413:.\Generated_Source\PSoC5/USBUART.c **** ****************************************************************************//**
 414:.\Generated_Source\PSoC5/USBUART.c **** *
 415:.\Generated_Source\PSoC5/USBUART.c **** *   This function initializes the component’s global variables and initiates
 416:.\Generated_Source\PSoC5/USBUART.c **** *   communication with the host by pull-up D+ line.
 417:.\Generated_Source\PSoC5/USBUART.c **** *
 418:.\Generated_Source\PSoC5/USBUART.c **** * \param device:
 419:.\Generated_Source\PSoC5/USBUART.c **** *   Contains the device number of the desired device descriptor. The device
 420:.\Generated_Source\PSoC5/USBUART.c **** *   number can be found in the Device Descriptor Tab of "Configure" dialog,
 421:.\Generated_Source\PSoC5/USBUART.c **** *   under the settings of desired Device Descriptor, in the *Device Number*
 422:.\Generated_Source\PSoC5/USBUART.c **** *   field.
 423:.\Generated_Source\PSoC5/USBUART.c **** *  \param mode:
 424:.\Generated_Source\PSoC5/USBUART.c **** *   The operating voltage. This determines whether the voltage regulator
 425:.\Generated_Source\PSoC5/USBUART.c **** *   is enabled for 5V operation or if pass through mode is used for 3.3V
 426:.\Generated_Source\PSoC5/USBUART.c **** *   operation. Symbolic names and their associated values are given in the
 427:.\Generated_Source\PSoC5/USBUART.c **** *   following list.
 428:.\Generated_Source\PSoC5/USBUART.c **** *
 429:.\Generated_Source\PSoC5/USBUART.c **** *       *USBUART_3V_OPERATION* - Disable voltage regulator and pass-
 430:.\Generated_Source\PSoC5/USBUART.c **** *                                      through Vcc for pull-up
 431:.\Generated_Source\PSoC5/USBUART.c **** *
 432:.\Generated_Source\PSoC5/USBUART.c **** *       *USBUART_5V_OPERATION* - Enable voltage regulator and use
 433:.\Generated_Source\PSoC5/USBUART.c **** *                                      regulator for pull-up
 434:.\Generated_Source\PSoC5/USBUART.c **** *
 435:.\Generated_Source\PSoC5/USBUART.c **** *       *USBUART_DWR_POWER_OPERATION* - Enable or disable the voltage
 436:.\Generated_Source\PSoC5/USBUART.c **** *                                      regulator depending on the power supply
 437:.\Generated_Source\PSoC5/USBUART.c **** *                                      voltage configuration in the DWR tab.
 438:.\Generated_Source\PSoC5/USBUART.c **** *                                      For PSoC 3/5LP devices, the VDDD supply
 439:.\Generated_Source\PSoC5/USBUART.c **** *                                      voltage is considered and for PSoC 4A-L,
 440:.\Generated_Source\PSoC5/USBUART.c **** *                                      the VBUS supply voltage is considered.
 441:.\Generated_Source\PSoC5/USBUART.c **** *
 442:.\Generated_Source\PSoC5/USBUART.c **** * \globalvars
 443:.\Generated_Source\PSoC5/USBUART.c **** *   \ref USBUART_device
 444:.\Generated_Source\PSoC5/USBUART.c **** *   \ref USBUART_transferState
 445:.\Generated_Source\PSoC5/USBUART.c **** *   \ref USBUART_configuration
 446:.\Generated_Source\PSoC5/USBUART.c **** *   \ref USBUART_deviceStatus
 447:.\Generated_Source\PSoC5/USBUART.c **** *
 448:.\Generated_Source\PSoC5/USBUART.c **** *   \ref USBUART_deviceAddress - Contains the current device address. This
 449:.\Generated_Source\PSoC5/USBUART.c **** *       variable is initialized to zero in this API. The Host starts to communicate
 450:.\Generated_Source\PSoC5/USBUART.c **** *      to the device with address 0 and then sets it to a whatever value using a
 451:.\Generated_Source\PSoC5/USBUART.c **** *      SET_ADDRESS request.
 452:.\Generated_Source\PSoC5/USBUART.c **** *
 453:.\Generated_Source\PSoC5/USBUART.c **** *   \ref USBUART_lastPacketSize - Initialized to 0;
 454:.\Generated_Source\PSoC5/USBUART.c **** *
 455:.\Generated_Source\PSoC5/USBUART.c **** * \reentrant
 456:.\Generated_Source\PSoC5/USBUART.c **** *  No.
 457:.\Generated_Source\PSoC5/USBUART.c **** *
 458:.\Generated_Source\PSoC5/USBUART.c **** *******************************************************************************/
 459:.\Generated_Source\PSoC5/USBUART.c **** void USBUART_InitComponent(uint8 device, uint8 mode) 
 460:.\Generated_Source\PSoC5/USBUART.c **** {
ARM GAS  C:\Users\Tim\AppData\Local\Temp\ccA4EuzY.s 			page 13


 225              		.loc 1 460 0
 226              		.cfi_startproc
 227              		@ args = 0, pretend = 0, frame = 0
 228              		@ frame_needed = 0, uses_anonymous_args = 0
 229              	.LVL22:
 230 0000 10B5     		push	{r4, lr}
 231              		.cfi_def_cfa_offset 8
 232              		.cfi_offset 4, -8
 233              		.cfi_offset 14, -4
 234              	.LVL23:
 461:.\Generated_Source\PSoC5/USBUART.c ****     /* Initialize _hidProtocol variable to comply with
 462:.\Generated_Source\PSoC5/USBUART.c ****     *  HID 7.2.6 Set_Protocol Request:
 463:.\Generated_Source\PSoC5/USBUART.c ****     *  "When initialized, all devices default to report protocol."
 464:.\Generated_Source\PSoC5/USBUART.c ****     */
 465:.\Generated_Source\PSoC5/USBUART.c **** #if defined(USBUART_ENABLE_HID_CLASS)
 466:.\Generated_Source\PSoC5/USBUART.c ****     uint8 i;
 467:.\Generated_Source\PSoC5/USBUART.c **** 
 468:.\Generated_Source\PSoC5/USBUART.c ****     for (i = 0u; i < USBUART_MAX_INTERFACES_NUMBER; i++)
 235              		.loc 1 468 0
 236 0002 0023     		movs	r3, #0
 237 0004 04E0     		b	.L6
 238              	.LVL24:
 239              	.L7:
 469:.\Generated_Source\PSoC5/USBUART.c ****     {
 470:.\Generated_Source\PSoC5/USBUART.c ****         USBUART_hidProtocol[i] = USBUART_PROTOCOL_REPORT;
 240              		.loc 1 470 0 discriminator 3
 241 0006 0124     		movs	r4, #1
 242 0008 254A     		ldr	r2, .L14
 243 000a D454     		strb	r4, [r2, r3]
 468:.\Generated_Source\PSoC5/USBUART.c ****     {
 244              		.loc 1 468 0 discriminator 3
 245 000c 2344     		add	r3, r3, r4
 246              	.LVL25:
 247 000e DBB2     		uxtb	r3, r3
 248              	.LVL26:
 249              	.L6:
 468:.\Generated_Source\PSoC5/USBUART.c ****     {
 250              		.loc 1 468 0 is_stmt 0 discriminator 1
 251 0010 012B     		cmp	r3, #1
 252 0012 F8D9     		bls	.L7
 471:.\Generated_Source\PSoC5/USBUART.c ****     }
 472:.\Generated_Source\PSoC5/USBUART.c **** #endif /* USBUART_ENABLE_HID_CLASS */
 473:.\Generated_Source\PSoC5/USBUART.c **** 
 474:.\Generated_Source\PSoC5/USBUART.c ****     /* Store device number to access descriptor. */
 475:.\Generated_Source\PSoC5/USBUART.c ****     USBUART_device = device;
 253              		.loc 1 475 0 is_stmt 1
 254 0014 234B     		ldr	r3, .L14+4
 255              	.LVL27:
 256 0016 1870     		strb	r0, [r3]
 476:.\Generated_Source\PSoC5/USBUART.c **** 
 477:.\Generated_Source\PSoC5/USBUART.c ****     /* Reset component internal variables. */
 478:.\Generated_Source\PSoC5/USBUART.c ****     USBUART_transferState   = USBUART_TRANS_STATE_IDLE;
 257              		.loc 1 478 0
 258 0018 0023     		movs	r3, #0
 259 001a 234A     		ldr	r2, .L14+8
 260 001c 1370     		strb	r3, [r2]
 479:.\Generated_Source\PSoC5/USBUART.c ****     USBUART_configurationChanged = 0u;
ARM GAS  C:\Users\Tim\AppData\Local\Temp\ccA4EuzY.s 			page 14


 261              		.loc 1 479 0
 262 001e 234A     		ldr	r2, .L14+12
 263 0020 1370     		strb	r3, [r2]
 480:.\Generated_Source\PSoC5/USBUART.c ****     USBUART_configuration   = 0u;
 264              		.loc 1 480 0
 265 0022 234A     		ldr	r2, .L14+16
 266 0024 1370     		strb	r3, [r2]
 481:.\Generated_Source\PSoC5/USBUART.c ****     USBUART_interfaceNumber = 0u;
 267              		.loc 1 481 0
 268 0026 234A     		ldr	r2, .L14+20
 269 0028 1370     		strb	r3, [r2]
 482:.\Generated_Source\PSoC5/USBUART.c ****     USBUART_deviceAddress   = 0u;
 270              		.loc 1 482 0
 271 002a 234A     		ldr	r2, .L14+24
 272 002c 1370     		strb	r3, [r2]
 483:.\Generated_Source\PSoC5/USBUART.c ****     USBUART_deviceStatus    = 0u;
 273              		.loc 1 483 0
 274 002e 234A     		ldr	r2, .L14+28
 275 0030 1370     		strb	r3, [r2]
 484:.\Generated_Source\PSoC5/USBUART.c ****     USBUART_lastPacketSize  = 0u;
 276              		.loc 1 484 0
 277 0032 234A     		ldr	r2, .L14+32
 278 0034 1370     		strb	r3, [r2]
 485:.\Generated_Source\PSoC5/USBUART.c **** 
 486:.\Generated_Source\PSoC5/USBUART.c ****     /* Enable component interrupts. */
 487:.\Generated_Source\PSoC5/USBUART.c **** #if (CY_PSOC4)
 488:.\Generated_Source\PSoC5/USBUART.c ****     CyIntEnable(USBUART_INTR_HI_VECT_NUM);
 489:.\Generated_Source\PSoC5/USBUART.c ****     CyIntEnable(USBUART_INTR_MED_VECT_NUM);
 490:.\Generated_Source\PSoC5/USBUART.c ****     CyIntEnable(USBUART_INTR_LO_VECT_NUM);
 491:.\Generated_Source\PSoC5/USBUART.c **** #else
 492:.\Generated_Source\PSoC5/USBUART.c ****     CyIntEnable(USBUART_BUS_RESET_VECT_NUM);
 279              		.loc 1 492 0
 280 0036 234B     		ldr	r3, .L14+36
 281 0038 4FF40002 		mov	r2, #8388608
 282 003c 1A60     		str	r2, [r3]
 493:.\Generated_Source\PSoC5/USBUART.c ****     CyIntEnable(USBUART_EP_0_VECT_NUM);
 283              		.loc 1 493 0
 284 003e 4FF08072 		mov	r2, #16777216
 285 0042 1A60     		str	r2, [r3]
 494:.\Generated_Source\PSoC5/USBUART.c **** 
 495:.\Generated_Source\PSoC5/USBUART.c ****     #if (USBUART_SOF_ISR_ACTIVE)
 496:.\Generated_Source\PSoC5/USBUART.c ****         CyIntEnable(USBUART_SOF_VECT_NUM);
 286              		.loc 1 496 0
 287 0044 4FF40012 		mov	r2, #2097152
 288 0048 1A60     		str	r2, [r3]
 497:.\Generated_Source\PSoC5/USBUART.c ****     #endif /* (USBUART_SOF_ISR_ACTIVE) */
 498:.\Generated_Source\PSoC5/USBUART.c **** 
 499:.\Generated_Source\PSoC5/USBUART.c ****     #if (USBUART_EP1_ISR_ACTIVE)
 500:.\Generated_Source\PSoC5/USBUART.c ****         CyIntEnable(USBUART_EP_1_VECT_NUM);
 289              		.loc 1 500 0
 290 004a 4FF48062 		mov	r2, #1024
 291 004e 1A60     		str	r2, [r3]
 501:.\Generated_Source\PSoC5/USBUART.c ****     #endif /* (USBUART_EP1_ISR_ACTIVE) */
 502:.\Generated_Source\PSoC5/USBUART.c **** 
 503:.\Generated_Source\PSoC5/USBUART.c ****     #if (USBUART_EP2_ISR_ACTIVE)
 504:.\Generated_Source\PSoC5/USBUART.c ****         CyIntEnable(USBUART_EP_2_VECT_NUM);
 292              		.loc 1 504 0
ARM GAS  C:\Users\Tim\AppData\Local\Temp\ccA4EuzY.s 			page 15


 293 0050 4FF40062 		mov	r2, #2048
 294 0054 1A60     		str	r2, [r3]
 505:.\Generated_Source\PSoC5/USBUART.c ****     #endif /* (USBUART_EP5_ISR_ACTIVE) */
 506:.\Generated_Source\PSoC5/USBUART.c **** 
 507:.\Generated_Source\PSoC5/USBUART.c ****     #if (USBUART_EP3_ISR_ACTIVE)
 508:.\Generated_Source\PSoC5/USBUART.c ****         CyIntEnable(USBUART_EP_3_VECT_NUM);
 295              		.loc 1 508 0
 296 0056 4FF40052 		mov	r2, #8192
 297 005a 1A60     		str	r2, [r3]
 509:.\Generated_Source\PSoC5/USBUART.c ****     #endif /* (USBUART_EP5_ISR_ACTIVE) */
 510:.\Generated_Source\PSoC5/USBUART.c **** 
 511:.\Generated_Source\PSoC5/USBUART.c ****     #if (USBUART_EP4_ISR_ACTIVE)
 512:.\Generated_Source\PSoC5/USBUART.c ****         CyIntEnable(USBUART_EP_4_VECT_NUM);
 513:.\Generated_Source\PSoC5/USBUART.c ****     #endif /* (USBUART_EP5_ISR_ACTIVE) */
 514:.\Generated_Source\PSoC5/USBUART.c **** 
 515:.\Generated_Source\PSoC5/USBUART.c ****     #if (USBUART_EP5_ISR_ACTIVE)
 516:.\Generated_Source\PSoC5/USBUART.c ****         CyIntEnable(USBUART_EP_5_VECT_NUM);
 517:.\Generated_Source\PSoC5/USBUART.c ****     #endif /* (USBUART_EP5_ISR_ACTIVE) */
 518:.\Generated_Source\PSoC5/USBUART.c **** 
 519:.\Generated_Source\PSoC5/USBUART.c ****     #if (USBUART_EP6_ISR_ACTIVE)
 520:.\Generated_Source\PSoC5/USBUART.c ****         CyIntEnable(USBUART_EP_6_VECT_NUM);
 521:.\Generated_Source\PSoC5/USBUART.c ****     #endif /* USBUART_EP6_ISR_REMOVE */
 522:.\Generated_Source\PSoC5/USBUART.c **** 
 523:.\Generated_Source\PSoC5/USBUART.c ****     #if (USBUART_EP7_ISR_ACTIVE)
 524:.\Generated_Source\PSoC5/USBUART.c ****         CyIntEnable(USBUART_EP_7_VECT_NUM);
 525:.\Generated_Source\PSoC5/USBUART.c ****     #endif /* (USBUART_EP7_ISR_ACTIVE) */
 526:.\Generated_Source\PSoC5/USBUART.c **** 
 527:.\Generated_Source\PSoC5/USBUART.c ****     #if (USBUART_EP8_ISR_ACTIVE)
 528:.\Generated_Source\PSoC5/USBUART.c ****         CyIntEnable(USBUART_EP_8_VECT_NUM);
 529:.\Generated_Source\PSoC5/USBUART.c ****     #endif /* (USBUART_EP8_ISR_ACTIVE) */
 530:.\Generated_Source\PSoC5/USBUART.c **** #endif /* (CY_PSOC4) */
 531:.\Generated_Source\PSoC5/USBUART.c **** 
 532:.\Generated_Source\PSoC5/USBUART.c **** #if (USBUART_EP_MANAGEMENT_DMA && USBUART_ARB_ISR_ACTIVE)
 533:.\Generated_Source\PSoC5/USBUART.c ****     /* Enable ARB EP interrupt sources. */
 534:.\Generated_Source\PSoC5/USBUART.c ****     USBUART_ARB_INT_EN_REG = USBUART_DEFAULT_ARB_INT_EN;
 535:.\Generated_Source\PSoC5/USBUART.c **** 
 536:.\Generated_Source\PSoC5/USBUART.c ****     #if (CY_PSOC3 || CY_PSOC5)
 537:.\Generated_Source\PSoC5/USBUART.c ****         CyIntEnable(USBUART_ARB_VECT_NUM);
 538:.\Generated_Source\PSoC5/USBUART.c ****     #endif /* (CY_PSOC3 || CY_PSOC5) */
 539:.\Generated_Source\PSoC5/USBUART.c **** #endif   /* (USBUART_EP_MANAGEMENT_DMA && USBUART_ARB_ISR_ACTIVE) */
 540:.\Generated_Source\PSoC5/USBUART.c **** 
 541:.\Generated_Source\PSoC5/USBUART.c **** /* Arbiter configuration for DMA transfers. */
 542:.\Generated_Source\PSoC5/USBUART.c **** #if (USBUART_EP_MANAGEMENT_DMA)
 543:.\Generated_Source\PSoC5/USBUART.c ****     /* Configure Arbiter for Manual or Auto DMA operation and clear configuration completion. */
 544:.\Generated_Source\PSoC5/USBUART.c ****     USBUART_ARB_CFG_REG = USBUART_DEFAULT_ARB_CFG;
 545:.\Generated_Source\PSoC5/USBUART.c **** 
 546:.\Generated_Source\PSoC5/USBUART.c ****     #if (CY_PSOC4)
 547:.\Generated_Source\PSoC5/USBUART.c ****         /* Enable DMA operation. */
 548:.\Generated_Source\PSoC5/USBUART.c ****         CyDmaEnable();
 549:.\Generated_Source\PSoC5/USBUART.c **** 
 550:.\Generated_Source\PSoC5/USBUART.c ****         #if (USBUART_EP_MANAGEMENT_DMA_AUTO)
 551:.\Generated_Source\PSoC5/USBUART.c ****             /* Change DMA priority to be highest. */
 552:.\Generated_Source\PSoC5/USBUART.c ****              CyIntSetPriority(CYDMA_INTR_NUMBER, USBUART_DMA_AUTO_INTR_PRIO);
 553:.\Generated_Source\PSoC5/USBUART.c ****         #endif /* (USBUART_EP_MANAGEMENT_DMA_AUTO) */
 554:.\Generated_Source\PSoC5/USBUART.c ****     #endif /* (CY_PSOC4) */
 555:.\Generated_Source\PSoC5/USBUART.c **** 
 556:.\Generated_Source\PSoC5/USBUART.c ****     #if (USBUART_EP_MANAGEMENT_DMA_AUTO)
ARM GAS  C:\Users\Tim\AppData\Local\Temp\ccA4EuzY.s 			page 16


 557:.\Generated_Source\PSoC5/USBUART.c ****         #if (CY_PSOC4)
 558:.\Generated_Source\PSoC5/USBUART.c ****             /* Enable DMA interrupt to handle DMA management. */
 559:.\Generated_Source\PSoC5/USBUART.c ****             CyIntEnable(CYDMA_INTR_NUMBER);
 560:.\Generated_Source\PSoC5/USBUART.c ****         #else
 561:.\Generated_Source\PSoC5/USBUART.c ****             #if (USBUART_EP_DMA_AUTO_OPT == 0u)
 562:.\Generated_Source\PSoC5/USBUART.c ****                 /* Initialize interrupts which handle verification of successful DMA transaction. *
 563:.\Generated_Source\PSoC5/USBUART.c ****                 USBUART_EP_DMA_Done_isr_StartEx(&USBUART_EP_DMA_DONE_ISR);
 564:.\Generated_Source\PSoC5/USBUART.c ****                 USBUART_EP17_DMA_Done_SR_InterruptEnable();
 565:.\Generated_Source\PSoC5/USBUART.c ****                 USBUART_EP8_DMA_Done_SR_InterruptEnable();
 566:.\Generated_Source\PSoC5/USBUART.c ****             #endif /* (USBUART_EP_DMA_AUTO_OPT == 0u) */
 567:.\Generated_Source\PSoC5/USBUART.c ****         #endif /* (CY_PSOC4) */
 568:.\Generated_Source\PSoC5/USBUART.c ****     #endif /* (USBUART_EP_MANAGEMENT_DMA_AUTO) */
 569:.\Generated_Source\PSoC5/USBUART.c **** #endif /* (USBUART_EP_MANAGEMENT_DMA) */
 570:.\Generated_Source\PSoC5/USBUART.c **** 
 571:.\Generated_Source\PSoC5/USBUART.c ****     /* Enable USB regulator depends on operation voltage. IMO Locking is enabled in Init(). */
 572:.\Generated_Source\PSoC5/USBUART.c ****     switch(mode)
 298              		.loc 1 572 0
 299 005c 11B1     		cbz	r1, .L9
 300 005e 0129     		cmp	r1, #1
 301 0060 06D0     		beq	.L10
 302 0062 0BE0     		b	.L12
 303              	.L9:
 573:.\Generated_Source\PSoC5/USBUART.c ****     {
 574:.\Generated_Source\PSoC5/USBUART.c ****     case USBUART_3V_OPERATION:
 575:.\Generated_Source\PSoC5/USBUART.c ****         /* Disable regulator for 3V operation. */
 576:.\Generated_Source\PSoC5/USBUART.c ****         USBUART_CR1_REG &= (uint8) ~USBUART_CR1_REG_ENABLE;
 304              		.loc 1 576 0
 305 0064 184A     		ldr	r2, .L14+40
 306 0066 1378     		ldrb	r3, [r2]	@ zero_extendqisi2
 307 0068 03F0FE03 		and	r3, r3, #254
 308 006c 1370     		strb	r3, [r2]
 577:.\Generated_Source\PSoC5/USBUART.c ****         break;
 309              		.loc 1 577 0
 310 006e 0AE0     		b	.L11
 311              	.L10:
 578:.\Generated_Source\PSoC5/USBUART.c **** 
 579:.\Generated_Source\PSoC5/USBUART.c ****     case USBUART_5V_OPERATION:
 580:.\Generated_Source\PSoC5/USBUART.c ****         /* Enable regulator for 5V operation. */
 581:.\Generated_Source\PSoC5/USBUART.c ****         USBUART_CR1_REG |= (uint8)  USBUART_CR1_REG_ENABLE;
 312              		.loc 1 581 0
 313 0070 154A     		ldr	r2, .L14+40
 314 0072 1378     		ldrb	r3, [r2]	@ zero_extendqisi2
 315 0074 43F00103 		orr	r3, r3, #1
 316 0078 1370     		strb	r3, [r2]
 582:.\Generated_Source\PSoC5/USBUART.c ****         break;
 317              		.loc 1 582 0
 318 007a 04E0     		b	.L11
 319              	.L12:
 583:.\Generated_Source\PSoC5/USBUART.c **** 
 584:.\Generated_Source\PSoC5/USBUART.c ****     default: /* Check DWR settings of USB power supply. */
 585:.\Generated_Source\PSoC5/USBUART.c ****     #if (USBUART_VDDD_MV < USBUART_3500MV)
 586:.\Generated_Source\PSoC5/USBUART.c ****         /* Disable regulator for 3V operation. */
 587:.\Generated_Source\PSoC5/USBUART.c ****         USBUART_CR1_REG &= (uint8) ~USBUART_CR1_REG_ENABLE;
 588:.\Generated_Source\PSoC5/USBUART.c ****     #else
 589:.\Generated_Source\PSoC5/USBUART.c ****         /* Enable regulator for 5V operation. */
 590:.\Generated_Source\PSoC5/USBUART.c ****         USBUART_CR1_REG |= (uint8)  USBUART_CR1_REG_ENABLE;
 320              		.loc 1 590 0
ARM GAS  C:\Users\Tim\AppData\Local\Temp\ccA4EuzY.s 			page 17


 321 007c 124A     		ldr	r2, .L14+40
 322 007e 1378     		ldrb	r3, [r2]	@ zero_extendqisi2
 323 0080 43F00103 		orr	r3, r3, #1
 324 0084 1370     		strb	r3, [r2]
 325              	.L11:
 591:.\Generated_Source\PSoC5/USBUART.c ****     #endif /* (USBUART_VDDD_MV < USBUART_3500MV) */
 592:.\Generated_Source\PSoC5/USBUART.c ****         break;
 593:.\Generated_Source\PSoC5/USBUART.c ****     }
 594:.\Generated_Source\PSoC5/USBUART.c **** 
 595:.\Generated_Source\PSoC5/USBUART.c **** #if (CY_PSOC4)
 596:.\Generated_Source\PSoC5/USBUART.c ****     /* Clear bus activity. */
 597:.\Generated_Source\PSoC5/USBUART.c ****     USBUART_CR1_REG &= (uint32) ~USBUART_CR1_BUS_ACTIVITY;
 598:.\Generated_Source\PSoC5/USBUART.c **** 
 599:.\Generated_Source\PSoC5/USBUART.c ****     /* Clear EP0 count register. */
 600:.\Generated_Source\PSoC5/USBUART.c ****     USBUART_EP0_CNT_REG = USBUART_CLEAR_REG;
 601:.\Generated_Source\PSoC5/USBUART.c **** 
 602:.\Generated_Source\PSoC5/USBUART.c ****     /* Set EP0.CR: ACK Setup, NAK IN/OUT. */
 603:.\Generated_Source\PSoC5/USBUART.c ****     USBUART_EP0_CR_REG = USBUART_MODE_NAK_IN_OUT;
 604:.\Generated_Source\PSoC5/USBUART.c **** 
 605:.\Generated_Source\PSoC5/USBUART.c ****     #if (USBUART_LPM_ACTIVE)
 606:.\Generated_Source\PSoC5/USBUART.c ****         if (NULL != USBUART_GetBOSPtr())
 607:.\Generated_Source\PSoC5/USBUART.c ****         {
 608:.\Generated_Source\PSoC5/USBUART.c ****             /* Enable LPM and acknowledge LPM packets for active device.
 609:.\Generated_Source\PSoC5/USBUART.c ****             * Reset NYET_EN and SUB_RESP bits in the LPM_CTRL register.
 610:.\Generated_Source\PSoC5/USBUART.c ****             */
 611:.\Generated_Source\PSoC5/USBUART.c ****             USBUART_LPM_CTRL_REG = (USBUART_LPM_CTRL_LPM_EN | \
 612:.\Generated_Source\PSoC5/USBUART.c ****                                              USBUART_LPM_CTRL_LPM_ACK_RESP);
 613:.\Generated_Source\PSoC5/USBUART.c ****         }
 614:.\Generated_Source\PSoC5/USBUART.c ****         else
 615:.\Generated_Source\PSoC5/USBUART.c ****         {
 616:.\Generated_Source\PSoC5/USBUART.c ****             /* Disable LPM for active device. */
 617:.\Generated_Source\PSoC5/USBUART.c ****             USBUART_LPM_CTRL_REG &= (uint32) ~USBUART_LPM_CTRL_LPM_EN;
 618:.\Generated_Source\PSoC5/USBUART.c ****         }
 619:.\Generated_Source\PSoC5/USBUART.c ****     #endif /* (USBUART_LPM_ACTIVE) */
 620:.\Generated_Source\PSoC5/USBUART.c **** 
 621:.\Generated_Source\PSoC5/USBUART.c ****     /* Enable device to responds to USB traffic with address 0. */
 622:.\Generated_Source\PSoC5/USBUART.c ****     USBUART_CR0_REG = USBUART_DEFUALT_CR0;
 623:.\Generated_Source\PSoC5/USBUART.c **** 
 624:.\Generated_Source\PSoC5/USBUART.c **** #else
 625:.\Generated_Source\PSoC5/USBUART.c ****     /* Set EP0.CR: ACK Setup, STALL IN/OUT. */
 626:.\Generated_Source\PSoC5/USBUART.c ****     USBUART_EP0_CR_REG = USBUART_MODE_STALL_IN_OUT;
 326              		.loc 1 626 0
 327 0086 0322     		movs	r2, #3
 328 0088 104B     		ldr	r3, .L14+44
 329 008a 1A70     		strb	r2, [r3]
 627:.\Generated_Source\PSoC5/USBUART.c **** 
 628:.\Generated_Source\PSoC5/USBUART.c ****     /* Enable device to respond to USB traffic with address 0. */
 629:.\Generated_Source\PSoC5/USBUART.c ****     USBUART_CR0_REG = USBUART_DEFUALT_CR0;
 330              		.loc 1 629 0
 331 008c 8022     		movs	r2, #128
 332 008e 203B     		subs	r3, r3, #32
 333 0090 1A70     		strb	r2, [r3]
 630:.\Generated_Source\PSoC5/USBUART.c ****     CyDelayCycles(USBUART_WAIT_CR0_REG_STABILITY);
 334              		.loc 1 630 0
 335 0092 0120     		movs	r0, #1
 336              	.LVL28:
 337 0094 FFF7FEFF 		bl	CyDelayCycles
ARM GAS  C:\Users\Tim\AppData\Local\Temp\ccA4EuzY.s 			page 18


 338              	.LVL29:
 631:.\Generated_Source\PSoC5/USBUART.c **** #endif /* (CY_PSOC4) */
 632:.\Generated_Source\PSoC5/USBUART.c **** 
 633:.\Generated_Source\PSoC5/USBUART.c ****     /* Enable D+ pull-up and keep USB control on IO. */
 634:.\Generated_Source\PSoC5/USBUART.c ****     USBUART_USBIO_CR1_REG = USBUART_USBIO_CR1_USBPUEN;
 339              		.loc 1 634 0
 340 0098 0422     		movs	r2, #4
 341 009a 0D4B     		ldr	r3, .L14+48
 342 009c 1A70     		strb	r2, [r3]
 343 009e 10BD     		pop	{r4, pc}
 344              	.L15:
 345              		.align	2
 346              	.L14:
 347 00a0 00000000 		.word	USBUART_hidProtocol
 348 00a4 00000000 		.word	USBUART_device
 349 00a8 00000000 		.word	USBUART_transferState
 350 00ac 00000000 		.word	USBUART_configurationChanged
 351 00b0 00000000 		.word	USBUART_configuration
 352 00b4 00000000 		.word	USBUART_interfaceNumber
 353 00b8 00000000 		.word	USBUART_deviceAddress
 354 00bc 00000000 		.word	USBUART_deviceStatus
 355 00c0 00000000 		.word	USBUART_lastPacketSize
 356 00c4 00E100E0 		.word	-536813312
 357 00c8 09600040 		.word	1073766409
 358 00cc 28600040 		.word	1073766440
 359 00d0 12600040 		.word	1073766418
 360              		.cfi_endproc
 361              	.LFE2:
 362              		.size	USBUART_InitComponent, .-USBUART_InitComponent
 363              		.section	.text.USBUART_Start,"ax",%progbits
 364              		.align	2
 365              		.global	USBUART_Start
 366              		.thumb
 367              		.thumb_func
 368              		.type	USBUART_Start, %function
 369              	USBUART_Start:
 370              	.LFB0:
 186:.\Generated_Source\PSoC5/USBUART.c ****     if (0u == USBUART_initVar)
 371              		.loc 1 186 0
 372              		.cfi_startproc
 373              		@ args = 0, pretend = 0, frame = 0
 374              		@ frame_needed = 0, uses_anonymous_args = 0
 375              	.LVL30:
 376 0000 38B5     		push	{r3, r4, r5, lr}
 377              		.cfi_def_cfa_offset 16
 378              		.cfi_offset 3, -16
 379              		.cfi_offset 4, -12
 380              		.cfi_offset 5, -8
 381              		.cfi_offset 14, -4
 382 0002 0546     		mov	r5, r0
 383 0004 0C46     		mov	r4, r1
 187:.\Generated_Source\PSoC5/USBUART.c ****     {
 384              		.loc 1 187 0
 385 0006 064B     		ldr	r3, .L19
 386 0008 1B78     		ldrb	r3, [r3]	@ zero_extendqisi2
 387 000a 23B9     		cbnz	r3, .L17
 189:.\Generated_Source\PSoC5/USBUART.c ****         USBUART_initVar = 1u;
ARM GAS  C:\Users\Tim\AppData\Local\Temp\ccA4EuzY.s 			page 19


 388              		.loc 1 189 0
 389 000c FFF7FEFF 		bl	USBUART_Init
 390              	.LVL31:
 190:.\Generated_Source\PSoC5/USBUART.c ****     }
 391              		.loc 1 190 0
 392 0010 0122     		movs	r2, #1
 393 0012 034B     		ldr	r3, .L19
 394 0014 1A70     		strb	r2, [r3]
 395              	.L17:
 193:.\Generated_Source\PSoC5/USBUART.c **** }
 396              		.loc 1 193 0
 397 0016 2846     		mov	r0, r5
 398 0018 2146     		mov	r1, r4
 399 001a FFF7FEFF 		bl	USBUART_InitComponent
 400              	.LVL32:
 401 001e 38BD     		pop	{r3, r4, r5, pc}
 402              	.L20:
 403              		.align	2
 404              	.L19:
 405 0020 00000000 		.word	.LANCHOR0
 406              		.cfi_endproc
 407              	.LFE0:
 408              		.size	USBUART_Start, .-USBUART_Start
 409              		.section	.text.USBUART_ReInitComponent,"ax",%progbits
 410              		.align	2
 411              		.global	USBUART_ReInitComponent
 412              		.thumb
 413              		.thumb_func
 414              		.type	USBUART_ReInitComponent, %function
 415              	USBUART_ReInitComponent:
 416              	.LFB3:
 635:.\Generated_Source\PSoC5/USBUART.c **** }
 636:.\Generated_Source\PSoC5/USBUART.c **** 
 637:.\Generated_Source\PSoC5/USBUART.c **** 
 638:.\Generated_Source\PSoC5/USBUART.c **** /*******************************************************************************
 639:.\Generated_Source\PSoC5/USBUART.c **** * Function Name: USBUART_ReInitComponent
 640:.\Generated_Source\PSoC5/USBUART.c **** ****************************************************************************//**
 641:.\Generated_Source\PSoC5/USBUART.c **** *
 642:.\Generated_Source\PSoC5/USBUART.c **** *  This function reinitialize the component configuration and is
 643:.\Generated_Source\PSoC5/USBUART.c **** *  intend to be called from the Reset interrupt.
 644:.\Generated_Source\PSoC5/USBUART.c **** *
 645:.\Generated_Source\PSoC5/USBUART.c **** * \globalvars
 646:.\Generated_Source\PSoC5/USBUART.c **** *   USBUART_device - Contains the device number of the desired Device
 647:.\Generated_Source\PSoC5/USBUART.c **** *        Descriptor. The device number can be found in the Device Descriptor tab
 648:.\Generated_Source\PSoC5/USBUART.c **** *       of the Configure dialog, under the settings of the desired Device Descriptor,
 649:.\Generated_Source\PSoC5/USBUART.c **** *       in the Device Number field.
 650:.\Generated_Source\PSoC5/USBUART.c **** *   USBUART_transferState - This variable is used by the communication
 651:.\Generated_Source\PSoC5/USBUART.c **** *       functions to handle the current transfer state. Initialized to
 652:.\Generated_Source\PSoC5/USBUART.c **** *       TRANS_STATE_IDLE in this API.
 653:.\Generated_Source\PSoC5/USBUART.c **** *   USBUART_configuration - Contains the current configuration number
 654:.\Generated_Source\PSoC5/USBUART.c **** *       set by the Host using a SET_CONFIGURATION request.
 655:.\Generated_Source\PSoC5/USBUART.c **** *       Initialized to zero in this API.
 656:.\Generated_Source\PSoC5/USBUART.c **** *   USBUART_deviceAddress - Contains the current device address. This
 657:.\Generated_Source\PSoC5/USBUART.c **** *       variable is initialized to zero in this API. The Host starts to communicate
 658:.\Generated_Source\PSoC5/USBUART.c **** *      to the device with address 0 and then sets it to a whatever value using
 659:.\Generated_Source\PSoC5/USBUART.c **** *      a SET_ADDRESS request.
 660:.\Generated_Source\PSoC5/USBUART.c **** *   USBUART_deviceStatus - Initialized to 0.
ARM GAS  C:\Users\Tim\AppData\Local\Temp\ccA4EuzY.s 			page 20


 661:.\Generated_Source\PSoC5/USBUART.c **** *       This is a two-bit variable which contains the power status in the first bit
 662:.\Generated_Source\PSoC5/USBUART.c **** *       (DEVICE_STATUS_BUS_POWERED or DEVICE_STATUS_SELF_POWERED) and the remote
 663:.\Generated_Source\PSoC5/USBUART.c **** *       wakeup status (DEVICE_STATUS_REMOTE_WAKEUP) in the second bit.
 664:.\Generated_Source\PSoC5/USBUART.c **** *   USBUART_lastPacketSize - Initialized to 0;
 665:.\Generated_Source\PSoC5/USBUART.c **** *
 666:.\Generated_Source\PSoC5/USBUART.c **** * \reentrant
 667:.\Generated_Source\PSoC5/USBUART.c **** *  No.
 668:.\Generated_Source\PSoC5/USBUART.c **** *
 669:.\Generated_Source\PSoC5/USBUART.c **** *******************************************************************************/
 670:.\Generated_Source\PSoC5/USBUART.c **** void USBUART_ReInitComponent(void) 
 671:.\Generated_Source\PSoC5/USBUART.c **** {
 417              		.loc 1 671 0
 418              		.cfi_startproc
 419              		@ args = 0, pretend = 0, frame = 0
 420              		@ frame_needed = 0, uses_anonymous_args = 0
 421              		@ link register save eliminated.
 422              	.LVL33:
 672:.\Generated_Source\PSoC5/USBUART.c ****     /* Initialize _hidProtocol variable to comply with HID 7.2.6 Set_Protocol
 673:.\Generated_Source\PSoC5/USBUART.c ****     *  Request: "When initialized, all devices default to report protocol."
 674:.\Generated_Source\PSoC5/USBUART.c ****     */
 675:.\Generated_Source\PSoC5/USBUART.c **** #if defined(USBUART_ENABLE_HID_CLASS)
 676:.\Generated_Source\PSoC5/USBUART.c ****     uint8 i;
 677:.\Generated_Source\PSoC5/USBUART.c **** 
 678:.\Generated_Source\PSoC5/USBUART.c ****     for (i = 0u; i < USBUART_MAX_INTERFACES_NUMBER; i++)
 423              		.loc 1 678 0
 424 0000 0023     		movs	r3, #0
 425 0002 04E0     		b	.L22
 426              	.LVL34:
 427              	.L23:
 679:.\Generated_Source\PSoC5/USBUART.c ****     {
 680:.\Generated_Source\PSoC5/USBUART.c ****         USBUART_hidProtocol[i] = USBUART_PROTOCOL_REPORT;
 428              		.loc 1 680 0 discriminator 3
 429 0004 0121     		movs	r1, #1
 430 0006 0E4A     		ldr	r2, .L24
 431 0008 D154     		strb	r1, [r2, r3]
 678:.\Generated_Source\PSoC5/USBUART.c ****     {
 432              		.loc 1 678 0 discriminator 3
 433 000a 0B44     		add	r3, r3, r1
 434              	.LVL35:
 435 000c DBB2     		uxtb	r3, r3
 436              	.LVL36:
 437              	.L22:
 678:.\Generated_Source\PSoC5/USBUART.c ****     {
 438              		.loc 1 678 0 is_stmt 0 discriminator 1
 439 000e 012B     		cmp	r3, #1
 440 0010 F8D9     		bls	.L23
 681:.\Generated_Source\PSoC5/USBUART.c ****     }
 682:.\Generated_Source\PSoC5/USBUART.c **** #endif /* USBUART_ENABLE_HID_CLASS */
 683:.\Generated_Source\PSoC5/USBUART.c **** 
 684:.\Generated_Source\PSoC5/USBUART.c ****     /* Reset component internal variables. */
 685:.\Generated_Source\PSoC5/USBUART.c ****     USBUART_transferState   = USBUART_TRANS_STATE_IDLE;
 441              		.loc 1 685 0 is_stmt 1
 442 0012 0023     		movs	r3, #0
 443              	.LVL37:
 444 0014 0B4A     		ldr	r2, .L24+4
 445 0016 1370     		strb	r3, [r2]
 686:.\Generated_Source\PSoC5/USBUART.c ****     USBUART_configurationChanged = 0u;
ARM GAS  C:\Users\Tim\AppData\Local\Temp\ccA4EuzY.s 			page 21


 446              		.loc 1 686 0
 447 0018 0B4A     		ldr	r2, .L24+8
 448 001a 1370     		strb	r3, [r2]
 687:.\Generated_Source\PSoC5/USBUART.c ****     USBUART_configuration   = 0u;
 449              		.loc 1 687 0
 450 001c 0B4A     		ldr	r2, .L24+12
 451 001e 1370     		strb	r3, [r2]
 688:.\Generated_Source\PSoC5/USBUART.c ****     USBUART_interfaceNumber = 0u;
 452              		.loc 1 688 0
 453 0020 0B4A     		ldr	r2, .L24+16
 454 0022 1370     		strb	r3, [r2]
 689:.\Generated_Source\PSoC5/USBUART.c ****     USBUART_deviceAddress   = 0u;
 455              		.loc 1 689 0
 456 0024 0B4A     		ldr	r2, .L24+20
 457 0026 1370     		strb	r3, [r2]
 690:.\Generated_Source\PSoC5/USBUART.c ****     USBUART_deviceStatus    = 0u;
 458              		.loc 1 690 0
 459 0028 0B4A     		ldr	r2, .L24+24
 460 002a 1370     		strb	r3, [r2]
 691:.\Generated_Source\PSoC5/USBUART.c ****     USBUART_lastPacketSize  = 0u;
 461              		.loc 1 691 0
 462 002c 0B4A     		ldr	r2, .L24+28
 463 002e 1370     		strb	r3, [r2]
 692:.\Generated_Source\PSoC5/USBUART.c **** 
 693:.\Generated_Source\PSoC5/USBUART.c **** #if (CY_PSOC4)
 694:.\Generated_Source\PSoC5/USBUART.c ****     /* Set EP0.CR: ACK Setup, NAK IN/OUT. */
 695:.\Generated_Source\PSoC5/USBUART.c ****     USBUART_EP0_CR_REG = USBUART_MODE_NAK_IN_OUT;
 696:.\Generated_Source\PSoC5/USBUART.c **** #else
 697:.\Generated_Source\PSoC5/USBUART.c ****     /* Set EP0.CR: ACK Setup, STALL IN/OUT. */
 698:.\Generated_Source\PSoC5/USBUART.c ****     USBUART_EP0_CR_REG = USBUART_MODE_STALL_IN_OUT;
 464              		.loc 1 698 0
 465 0030 0322     		movs	r2, #3
 466 0032 0B4B     		ldr	r3, .L24+32
 467 0034 1A70     		strb	r2, [r3]
 699:.\Generated_Source\PSoC5/USBUART.c **** #endif /* (CY_PSOC4) */
 700:.\Generated_Source\PSoC5/USBUART.c **** 
 701:.\Generated_Source\PSoC5/USBUART.c ****     /* Enable device to respond to USB traffic with address 0. */
 702:.\Generated_Source\PSoC5/USBUART.c ****     USBUART_CR0_REG = USBUART_DEFUALT_CR0;
 468              		.loc 1 702 0
 469 0036 8022     		movs	r2, #128
 470 0038 203B     		subs	r3, r3, #32
 471 003a 1A70     		strb	r2, [r3]
 472 003c 7047     		bx	lr
 473              	.L25:
 474 003e 00BF     		.align	2
 475              	.L24:
 476 0040 00000000 		.word	USBUART_hidProtocol
 477 0044 00000000 		.word	USBUART_transferState
 478 0048 00000000 		.word	USBUART_configurationChanged
 479 004c 00000000 		.word	USBUART_configuration
 480 0050 00000000 		.word	USBUART_interfaceNumber
 481 0054 00000000 		.word	USBUART_deviceAddress
 482 0058 00000000 		.word	USBUART_deviceStatus
 483 005c 00000000 		.word	USBUART_lastPacketSize
 484 0060 28600040 		.word	1073766440
 485              		.cfi_endproc
 486              	.LFE3:
ARM GAS  C:\Users\Tim\AppData\Local\Temp\ccA4EuzY.s 			page 22


 487              		.size	USBUART_ReInitComponent, .-USBUART_ReInitComponent
 488              		.section	.text.USBUART_Stop,"ax",%progbits
 489              		.align	2
 490              		.global	USBUART_Stop
 491              		.thumb
 492              		.thumb_func
 493              		.type	USBUART_Stop, %function
 494              	USBUART_Stop:
 495              	.LFB4:
 703:.\Generated_Source\PSoC5/USBUART.c **** }
 704:.\Generated_Source\PSoC5/USBUART.c **** 
 705:.\Generated_Source\PSoC5/USBUART.c **** 
 706:.\Generated_Source\PSoC5/USBUART.c **** /*******************************************************************************
 707:.\Generated_Source\PSoC5/USBUART.c **** * Function Name: USBUART_Stop
 708:.\Generated_Source\PSoC5/USBUART.c **** ****************************************************************************//**
 709:.\Generated_Source\PSoC5/USBUART.c **** *
 710:.\Generated_Source\PSoC5/USBUART.c **** *  This function shuts down the USB function including to release
 711:.\Generated_Source\PSoC5/USBUART.c **** *  the D+ pull-up and disabling the SIE.
 712:.\Generated_Source\PSoC5/USBUART.c **** *
 713:.\Generated_Source\PSoC5/USBUART.c **** * \globalvars
 714:.\Generated_Source\PSoC5/USBUART.c **** *   \ref USBUART_configuration
 715:.\Generated_Source\PSoC5/USBUART.c **** *
 716:.\Generated_Source\PSoC5/USBUART.c **** *   USBUART_deviceAddress - Contains the current device address. This
 717:.\Generated_Source\PSoC5/USBUART.c **** *       variable is initialized to zero in this API. The Host starts to communicate
 718:.\Generated_Source\PSoC5/USBUART.c **** *      to the device with address 0 and then sets it to a whatever value using
 719:.\Generated_Source\PSoC5/USBUART.c **** *      a SET_ADDRESS request.
 720:.\Generated_Source\PSoC5/USBUART.c **** *
 721:.\Generated_Source\PSoC5/USBUART.c **** *   \ref USBUART_deviceStatus
 722:.\Generated_Source\PSoC5/USBUART.c **** *
 723:.\Generated_Source\PSoC5/USBUART.c **** *   \ref USBUART_configurationChanged
 724:.\Generated_Source\PSoC5/USBUART.c **** *
 725:.\Generated_Source\PSoC5/USBUART.c **** *   USBUART_intiVar -  This variable is set to zero
 726:.\Generated_Source\PSoC5/USBUART.c **** *
 727:.\Generated_Source\PSoC5/USBUART.c **** *******************************************************************************/
 728:.\Generated_Source\PSoC5/USBUART.c **** void USBUART_Stop(void) 
 729:.\Generated_Source\PSoC5/USBUART.c **** {
 496              		.loc 1 729 0
 497              		.cfi_startproc
 498              		@ args = 0, pretend = 0, frame = 0
 499              		@ frame_needed = 0, uses_anonymous_args = 0
 500 0000 08B5     		push	{r3, lr}
 501              		.cfi_def_cfa_offset 8
 502              		.cfi_offset 3, -8
 503              		.cfi_offset 14, -4
 730:.\Generated_Source\PSoC5/USBUART.c ****     uint8 enableInterrupts;
 731:.\Generated_Source\PSoC5/USBUART.c **** 
 732:.\Generated_Source\PSoC5/USBUART.c **** #if (USBUART_EP_MANAGEMENT_DMA)
 733:.\Generated_Source\PSoC5/USBUART.c ****     /* Stop all DMA channels. */
 734:.\Generated_Source\PSoC5/USBUART.c ****     USBUART_Stop_DMA(USBUART_MAX_EP);
 735:.\Generated_Source\PSoC5/USBUART.c **** #endif /* (USBUART_EP_MANAGEMENT_DMA) */
 736:.\Generated_Source\PSoC5/USBUART.c **** 
 737:.\Generated_Source\PSoC5/USBUART.c ****     enableInterrupts = CyEnterCriticalSection();
 504              		.loc 1 737 0
 505 0002 FFF7FEFF 		bl	CyEnterCriticalSection
 506              	.LVL38:
 738:.\Generated_Source\PSoC5/USBUART.c **** 
 739:.\Generated_Source\PSoC5/USBUART.c ****     /* Disable USB IP to respond to USB traffic. */
ARM GAS  C:\Users\Tim\AppData\Local\Temp\ccA4EuzY.s 			page 23


 740:.\Generated_Source\PSoC5/USBUART.c ****     USBUART_CR0_REG &= (uint8) ~USBUART_CR0_ENABLE;
 507              		.loc 1 740 0
 508 0006 1C4A     		ldr	r2, .L28
 509 0008 1378     		ldrb	r3, [r2]	@ zero_extendqisi2
 510 000a 03F07F03 		and	r3, r3, #127
 511 000e 1370     		strb	r3, [r2]
 741:.\Generated_Source\PSoC5/USBUART.c **** 
 742:.\Generated_Source\PSoC5/USBUART.c ****     /* Disable D+ pull-up. */
 743:.\Generated_Source\PSoC5/USBUART.c ****     USBUART_USBIO_CR1_REG &= (uint8) ~ USBUART_USBIO_CR1_USBPUEN;
 512              		.loc 1 743 0
 513 0010 0A32     		adds	r2, r2, #10
 514 0012 1378     		ldrb	r3, [r2]	@ zero_extendqisi2
 515 0014 03F0FB03 		and	r3, r3, #251
 516 0018 1370     		strb	r3, [r2]
 744:.\Generated_Source\PSoC5/USBUART.c **** 
 745:.\Generated_Source\PSoC5/USBUART.c **** #if (CY_PSOC4)
 746:.\Generated_Source\PSoC5/USBUART.c ****     /* Disable USBFS block. */
 747:.\Generated_Source\PSoC5/USBUART.c ****     USBUART_POWER_CTRL_REG &= (uint32) ~USBUART_POWER_CTRL_ENABLE;
 748:.\Generated_Source\PSoC5/USBUART.c **** #else
 749:.\Generated_Source\PSoC5/USBUART.c ****     /* Clear power active and standby mode templates. */
 750:.\Generated_Source\PSoC5/USBUART.c ****     USBUART_PM_ACT_CFG_REG  &= (uint8) ~USBUART_PM_ACT_EN_FSUSB;
 517              		.loc 1 750 0
 518 001a A2F5E352 		sub	r2, r2, #7264
 519 001e 0D3A     		subs	r2, r2, #13
 520 0020 1378     		ldrb	r3, [r2]	@ zero_extendqisi2
 521 0022 03F0FE03 		and	r3, r3, #254
 522 0026 1370     		strb	r3, [r2]
 751:.\Generated_Source\PSoC5/USBUART.c ****     USBUART_PM_STBY_CFG_REG &= (uint8) ~USBUART_PM_STBY_EN_FSUSB;
 523              		.loc 1 751 0
 524 0028 1032     		adds	r2, r2, #16
 525 002a 1378     		ldrb	r3, [r2]	@ zero_extendqisi2
 526 002c 03F0FE03 		and	r3, r3, #254
 527 0030 1370     		strb	r3, [r2]
 752:.\Generated_Source\PSoC5/USBUART.c **** #endif /* (CY_PSOC4) */
 753:.\Generated_Source\PSoC5/USBUART.c **** 
 754:.\Generated_Source\PSoC5/USBUART.c ****     CyExitCriticalSection(enableInterrupts);
 528              		.loc 1 754 0
 529 0032 FFF7FEFF 		bl	CyExitCriticalSection
 530              	.LVL39:
 755:.\Generated_Source\PSoC5/USBUART.c **** 
 756:.\Generated_Source\PSoC5/USBUART.c ****     /* Disable component interrupts. */
 757:.\Generated_Source\PSoC5/USBUART.c **** #if (CY_PSOC4)
 758:.\Generated_Source\PSoC5/USBUART.c ****     CyIntDisable(USBUART_INTR_HI_VECT_NUM);
 759:.\Generated_Source\PSoC5/USBUART.c ****     CyIntDisable(USBUART_INTR_LO_VECT_NUM);
 760:.\Generated_Source\PSoC5/USBUART.c ****     CyIntDisable(USBUART_INTR_MED_VECT_NUM);
 761:.\Generated_Source\PSoC5/USBUART.c **** #else
 762:.\Generated_Source\PSoC5/USBUART.c **** 
 763:.\Generated_Source\PSoC5/USBUART.c ****     CyIntDisable(USBUART_BUS_RESET_VECT_NUM);
 531              		.loc 1 763 0
 532 0036 114B     		ldr	r3, .L28+4
 533 0038 4FF40002 		mov	r2, #8388608
 534 003c 1A60     		str	r2, [r3]
 764:.\Generated_Source\PSoC5/USBUART.c ****     CyIntDisable(USBUART_EP_0_VECT_NUM);
 535              		.loc 1 764 0
 536 003e 4FF08072 		mov	r2, #16777216
 537 0042 1A60     		str	r2, [r3]
 765:.\Generated_Source\PSoC5/USBUART.c **** 
ARM GAS  C:\Users\Tim\AppData\Local\Temp\ccA4EuzY.s 			page 24


 766:.\Generated_Source\PSoC5/USBUART.c ****     #if (USBUART_SOF_ISR_ACTIVE)
 767:.\Generated_Source\PSoC5/USBUART.c ****         CyIntDisable(USBUART_SOF_VECT_NUM);
 538              		.loc 1 767 0
 539 0044 4FF40012 		mov	r2, #2097152
 540 0048 1A60     		str	r2, [r3]
 768:.\Generated_Source\PSoC5/USBUART.c ****     #endif /* (USBUART_SOF_ISR_ACTIVE) */
 769:.\Generated_Source\PSoC5/USBUART.c **** 
 770:.\Generated_Source\PSoC5/USBUART.c ****     #if (USBUART_EP1_ISR_ACTIVE)
 771:.\Generated_Source\PSoC5/USBUART.c ****         CyIntDisable(USBUART_EP_1_VECT_NUM);
 541              		.loc 1 771 0
 542 004a 4FF48062 		mov	r2, #1024
 543 004e 1A60     		str	r2, [r3]
 772:.\Generated_Source\PSoC5/USBUART.c ****     #endif /* (USBUART_EP1_ISR_ACTIVE) */
 773:.\Generated_Source\PSoC5/USBUART.c **** 
 774:.\Generated_Source\PSoC5/USBUART.c ****     #if (USBUART_EP2_ISR_ACTIVE)
 775:.\Generated_Source\PSoC5/USBUART.c ****         CyIntDisable(USBUART_EP_2_VECT_NUM);
 544              		.loc 1 775 0
 545 0050 4FF40062 		mov	r2, #2048
 546 0054 1A60     		str	r2, [r3]
 776:.\Generated_Source\PSoC5/USBUART.c ****     #endif /* (USBUART_EP2_ISR_ACTIVE) */
 777:.\Generated_Source\PSoC5/USBUART.c **** 
 778:.\Generated_Source\PSoC5/USBUART.c ****     #if (USBUART_EP3_ISR_ACTIVE)
 779:.\Generated_Source\PSoC5/USBUART.c ****         CyIntDisable(USBUART_EP_3_VECT_NUM);
 547              		.loc 1 779 0
 548 0056 4FF40052 		mov	r2, #8192
 549 005a 1A60     		str	r2, [r3]
 780:.\Generated_Source\PSoC5/USBUART.c ****     #endif /* (USBUART_EP3_ISR_ACTIVE) */
 781:.\Generated_Source\PSoC5/USBUART.c **** 
 782:.\Generated_Source\PSoC5/USBUART.c ****     #if (USBUART_EP4_ISR_ACTIVE)
 783:.\Generated_Source\PSoC5/USBUART.c ****         CyIntDisable(USBUART_EP_4_VECT_NUM);
 784:.\Generated_Source\PSoC5/USBUART.c ****     #endif /* (USBUART_EP4_ISR_ACTIVE) */
 785:.\Generated_Source\PSoC5/USBUART.c **** 
 786:.\Generated_Source\PSoC5/USBUART.c ****     #if (USBUART_EP5_ISR_ACTIVE)
 787:.\Generated_Source\PSoC5/USBUART.c ****         CyIntDisable(USBUART_EP_5_VECT_NUM);
 788:.\Generated_Source\PSoC5/USBUART.c ****     #endif /* (USBUART_EP5_ISR_ACTIVE) */
 789:.\Generated_Source\PSoC5/USBUART.c **** 
 790:.\Generated_Source\PSoC5/USBUART.c ****     #if (USBUART_EP6_ISR_ACTIVE)
 791:.\Generated_Source\PSoC5/USBUART.c ****         CyIntDisable(USBUART_EP_6_VECT_NUM);
 792:.\Generated_Source\PSoC5/USBUART.c ****     #endif /* USBUART_EP6_ISR_REMOVE */
 793:.\Generated_Source\PSoC5/USBUART.c **** 
 794:.\Generated_Source\PSoC5/USBUART.c ****     #if (USBUART_EP7_ISR_ACTIVE)
 795:.\Generated_Source\PSoC5/USBUART.c ****         CyIntDisable(USBUART_EP_7_VECT_NUM);
 796:.\Generated_Source\PSoC5/USBUART.c ****     #endif /* (USBUART_EP7_ISR_ACTIVE) */
 797:.\Generated_Source\PSoC5/USBUART.c **** 
 798:.\Generated_Source\PSoC5/USBUART.c ****     #if (USBUART_EP8_ISR_ACTIVE)
 799:.\Generated_Source\PSoC5/USBUART.c ****         CyIntDisable(USBUART_EP_8_VECT_NUM);
 800:.\Generated_Source\PSoC5/USBUART.c ****     #endif /* (USBUART_EP8_ISR_ACTIVE) */
 801:.\Generated_Source\PSoC5/USBUART.c **** #endif /* (CY_PSOC4) */
 802:.\Generated_Source\PSoC5/USBUART.c **** 
 803:.\Generated_Source\PSoC5/USBUART.c ****     /* Reset component internal variables. */
 804:.\Generated_Source\PSoC5/USBUART.c ****     USBUART_configurationChanged = 0u;
 550              		.loc 1 804 0
 551 005c 0023     		movs	r3, #0
 552 005e 084A     		ldr	r2, .L28+8
 553 0060 1370     		strb	r3, [r2]
 805:.\Generated_Source\PSoC5/USBUART.c ****     USBUART_configuration   = 0u;
 554              		.loc 1 805 0
ARM GAS  C:\Users\Tim\AppData\Local\Temp\ccA4EuzY.s 			page 25


 555 0062 084A     		ldr	r2, .L28+12
 556 0064 1370     		strb	r3, [r2]
 806:.\Generated_Source\PSoC5/USBUART.c ****     USBUART_interfaceNumber = 0u;
 557              		.loc 1 806 0
 558 0066 084A     		ldr	r2, .L28+16
 559 0068 1370     		strb	r3, [r2]
 807:.\Generated_Source\PSoC5/USBUART.c ****     USBUART_deviceAddress   = 0u;
 560              		.loc 1 807 0
 561 006a 084A     		ldr	r2, .L28+20
 562 006c 1370     		strb	r3, [r2]
 808:.\Generated_Source\PSoC5/USBUART.c ****     USBUART_deviceStatus    = 0u;
 563              		.loc 1 808 0
 564 006e 084A     		ldr	r2, .L28+24
 565 0070 1370     		strb	r3, [r2]
 809:.\Generated_Source\PSoC5/USBUART.c **** 
 810:.\Generated_Source\PSoC5/USBUART.c ****     /* It is mandatory for correct device startup. */
 811:.\Generated_Source\PSoC5/USBUART.c ****     USBUART_initVar = 0u;
 566              		.loc 1 811 0
 567 0072 084A     		ldr	r2, .L28+28
 568 0074 1370     		strb	r3, [r2]
 569 0076 08BD     		pop	{r3, pc}
 570              	.L29:
 571              		.align	2
 572              	.L28:
 573 0078 08600040 		.word	1073766408
 574 007c 80E100E0 		.word	-536813184
 575 0080 00000000 		.word	USBUART_configurationChanged
 576 0084 00000000 		.word	USBUART_configuration
 577 0088 00000000 		.word	USBUART_interfaceNumber
 578 008c 00000000 		.word	USBUART_deviceAddress
 579 0090 00000000 		.word	USBUART_deviceStatus
 580 0094 00000000 		.word	.LANCHOR0
 581              		.cfi_endproc
 582              	.LFE4:
 583              		.size	USBUART_Stop, .-USBUART_Stop
 584              		.section	.text.USBUART_CheckActivity,"ax",%progbits
 585              		.align	2
 586              		.global	USBUART_CheckActivity
 587              		.thumb
 588              		.thumb_func
 589              		.type	USBUART_CheckActivity, %function
 590              	USBUART_CheckActivity:
 591              	.LFB5:
 812:.\Generated_Source\PSoC5/USBUART.c **** }
 813:.\Generated_Source\PSoC5/USBUART.c **** 
 814:.\Generated_Source\PSoC5/USBUART.c **** 
 815:.\Generated_Source\PSoC5/USBUART.c **** /*******************************************************************************
 816:.\Generated_Source\PSoC5/USBUART.c **** * Function Name: USBUART_CheckActivity
 817:.\Generated_Source\PSoC5/USBUART.c **** ****************************************************************************//**
 818:.\Generated_Source\PSoC5/USBUART.c **** *
 819:.\Generated_Source\PSoC5/USBUART.c **** *  This function returns the activity status of the bus. It clears the hardware
 820:.\Generated_Source\PSoC5/USBUART.c **** *  status to provide updated status on the next call of this function. It
 821:.\Generated_Source\PSoC5/USBUART.c **** *  provides a way to determine whether any USB bus activity occurred. The
 822:.\Generated_Source\PSoC5/USBUART.c **** *  application should use this function to determine if the USB suspend
 823:.\Generated_Source\PSoC5/USBUART.c **** *  conditions are met.
 824:.\Generated_Source\PSoC5/USBUART.c **** *
 825:.\Generated_Source\PSoC5/USBUART.c **** *
ARM GAS  C:\Users\Tim\AppData\Local\Temp\ccA4EuzY.s 			page 26


 826:.\Generated_Source\PSoC5/USBUART.c **** * \return
 827:.\Generated_Source\PSoC5/USBUART.c **** *  cystatus: Status of the bus since the last call of the function.
 828:.\Generated_Source\PSoC5/USBUART.c **** *  Return Value |   Description
 829:.\Generated_Source\PSoC5/USBUART.c **** *  -------------|---------------------------------------------------------------
 830:.\Generated_Source\PSoC5/USBUART.c **** *  1            |Bus activity was detected since the last call to this function
 831:.\Generated_Source\PSoC5/USBUART.c **** *  0            |Bus activity was not detected since the last call to this function
 832:.\Generated_Source\PSoC5/USBUART.c **** *
 833:.\Generated_Source\PSoC5/USBUART.c **** *
 834:.\Generated_Source\PSoC5/USBUART.c **** *******************************************************************************/
 835:.\Generated_Source\PSoC5/USBUART.c **** uint8 USBUART_CheckActivity(void) 
 836:.\Generated_Source\PSoC5/USBUART.c **** {
 592              		.loc 1 836 0
 593              		.cfi_startproc
 594              		@ args = 0, pretend = 0, frame = 0
 595              		@ frame_needed = 0, uses_anonymous_args = 0
 596              		@ link register save eliminated.
 837:.\Generated_Source\PSoC5/USBUART.c ****     uint8 cr1Reg = USBUART_CR1_REG;
 597              		.loc 1 837 0
 598 0000 064A     		ldr	r2, .L32
 599 0002 1378     		ldrb	r3, [r2]	@ zero_extendqisi2
 600 0004 DBB2     		uxtb	r3, r3
 601              	.LVL40:
 838:.\Generated_Source\PSoC5/USBUART.c **** 
 839:.\Generated_Source\PSoC5/USBUART.c ****     /* Clear bus activity. */
 840:.\Generated_Source\PSoC5/USBUART.c ****     USBUART_CR1_REG = (cr1Reg & (uint8) ~USBUART_CR1_BUS_ACTIVITY);
 602              		.loc 1 840 0
 603 0006 03F0FB01 		and	r1, r3, #251
 604 000a 1170     		strb	r1, [r2]
 841:.\Generated_Source\PSoC5/USBUART.c **** 
 842:.\Generated_Source\PSoC5/USBUART.c ****     /* Get bus activity. */
 843:.\Generated_Source\PSoC5/USBUART.c ****     return ((0u != (cr1Reg & USBUART_CR1_BUS_ACTIVITY)) ? (1u) : (0u));
 605              		.loc 1 843 0
 606 000c 03F00403 		and	r3, r3, #4
 607              	.LVL41:
 608 0010 03F0FF00 		and	r0, r3, #255
 609 0014 03B1     		cbz	r3, .L31
 610 0016 0120     		movs	r0, #1
 611              	.L31:
 844:.\Generated_Source\PSoC5/USBUART.c **** }
 612              		.loc 1 844 0 discriminator 4
 613 0018 7047     		bx	lr
 614              	.L33:
 615 001a 00BF     		.align	2
 616              	.L32:
 617 001c 09600040 		.word	1073766409
 618              		.cfi_endproc
 619              	.LFE5:
 620              		.size	USBUART_CheckActivity, .-USBUART_CheckActivity
 621              		.section	.text.USBUART_GetConfiguration,"ax",%progbits
 622              		.align	2
 623              		.global	USBUART_GetConfiguration
 624              		.thumb
 625              		.thumb_func
 626              		.type	USBUART_GetConfiguration, %function
 627              	USBUART_GetConfiguration:
 628              	.LFB6:
 845:.\Generated_Source\PSoC5/USBUART.c **** 
ARM GAS  C:\Users\Tim\AppData\Local\Temp\ccA4EuzY.s 			page 27


 846:.\Generated_Source\PSoC5/USBUART.c **** 
 847:.\Generated_Source\PSoC5/USBUART.c **** /*******************************************************************************
 848:.\Generated_Source\PSoC5/USBUART.c **** * Function Name: USBUART_GetConfiguration
 849:.\Generated_Source\PSoC5/USBUART.c **** ****************************************************************************//**
 850:.\Generated_Source\PSoC5/USBUART.c **** *
 851:.\Generated_Source\PSoC5/USBUART.c **** *  This function gets the current configuration of the USB device.
 852:.\Generated_Source\PSoC5/USBUART.c **** *
 853:.\Generated_Source\PSoC5/USBUART.c **** * \return
 854:.\Generated_Source\PSoC5/USBUART.c **** *  Returns the currently assigned configuration. Returns 0 if the device
 855:.\Generated_Source\PSoC5/USBUART.c **** *  is not configured
 856:.\Generated_Source\PSoC5/USBUART.c **** *
 857:.\Generated_Source\PSoC5/USBUART.c **** *******************************************************************************/
 858:.\Generated_Source\PSoC5/USBUART.c **** uint8 USBUART_GetConfiguration(void) 
 859:.\Generated_Source\PSoC5/USBUART.c **** {
 629              		.loc 1 859 0
 630              		.cfi_startproc
 631              		@ args = 0, pretend = 0, frame = 0
 632              		@ frame_needed = 0, uses_anonymous_args = 0
 633              		@ link register save eliminated.
 860:.\Generated_Source\PSoC5/USBUART.c ****     return (USBUART_configuration);
 634              		.loc 1 860 0
 635 0000 014B     		ldr	r3, .L35
 636 0002 1878     		ldrb	r0, [r3]	@ zero_extendqisi2
 861:.\Generated_Source\PSoC5/USBUART.c **** }
 637              		.loc 1 861 0
 638 0004 7047     		bx	lr
 639              	.L36:
 640 0006 00BF     		.align	2
 641              	.L35:
 642 0008 00000000 		.word	USBUART_configuration
 643              		.cfi_endproc
 644              	.LFE6:
 645              		.size	USBUART_GetConfiguration, .-USBUART_GetConfiguration
 646              		.section	.text.USBUART_IsConfigurationChanged,"ax",%progbits
 647              		.align	2
 648              		.global	USBUART_IsConfigurationChanged
 649              		.thumb
 650              		.thumb_func
 651              		.type	USBUART_IsConfigurationChanged, %function
 652              	USBUART_IsConfigurationChanged:
 653              	.LFB7:
 862:.\Generated_Source\PSoC5/USBUART.c **** 
 863:.\Generated_Source\PSoC5/USBUART.c **** 
 864:.\Generated_Source\PSoC5/USBUART.c **** /*******************************************************************************
 865:.\Generated_Source\PSoC5/USBUART.c **** * Function Name: USBUART_IsConfigurationChanged
 866:.\Generated_Source\PSoC5/USBUART.c **** ****************************************************************************//**
 867:.\Generated_Source\PSoC5/USBUART.c **** *
 868:.\Generated_Source\PSoC5/USBUART.c **** *  This function returns the clear-on-read configuration state.  It is useful
 869:.\Generated_Source\PSoC5/USBUART.c **** *  when the host sends double SET_CONFIGURATION request with the same 
 870:.\Generated_Source\PSoC5/USBUART.c **** *  configuration number or changes alternate settings of the interface. 
 871:.\Generated_Source\PSoC5/USBUART.c **** *  After configuration has been changed the OUT endpoints must be enabled and IN 
 872:.\Generated_Source\PSoC5/USBUART.c **** *  endpoint must be loaded with data to start communication with the host.
 873:.\Generated_Source\PSoC5/USBUART.c **** *
 874:.\Generated_Source\PSoC5/USBUART.c **** * \return
 875:.\Generated_Source\PSoC5/USBUART.c **** *  None-zero value when new configuration has been changed, otherwise zero is
 876:.\Generated_Source\PSoC5/USBUART.c **** *  returned.
 877:.\Generated_Source\PSoC5/USBUART.c **** *
ARM GAS  C:\Users\Tim\AppData\Local\Temp\ccA4EuzY.s 			page 28


 878:.\Generated_Source\PSoC5/USBUART.c **** * \globalvars
 879:.\Generated_Source\PSoC5/USBUART.c **** *
 880:.\Generated_Source\PSoC5/USBUART.c **** *  \ref USBUART_configurationChanged - This variable is set to 1 after
 881:.\Generated_Source\PSoC5/USBUART.c **** *   a SET_CONFIGURATION request and cleared in this function.
 882:.\Generated_Source\PSoC5/USBUART.c **** *
 883:.\Generated_Source\PSoC5/USBUART.c **** *******************************************************************************/
 884:.\Generated_Source\PSoC5/USBUART.c **** uint8 USBUART_IsConfigurationChanged(void) 
 885:.\Generated_Source\PSoC5/USBUART.c **** {
 654              		.loc 1 885 0
 655              		.cfi_startproc
 656              		@ args = 0, pretend = 0, frame = 0
 657              		@ frame_needed = 0, uses_anonymous_args = 0
 658              		@ link register save eliminated.
 659              	.LVL42:
 886:.\Generated_Source\PSoC5/USBUART.c ****     uint8 res = 0u;
 887:.\Generated_Source\PSoC5/USBUART.c **** 
 888:.\Generated_Source\PSoC5/USBUART.c ****     if (USBUART_configurationChanged != 0u)
 660              		.loc 1 888 0
 661 0000 064B     		ldr	r3, .L40
 662 0002 1B78     		ldrb	r3, [r3]	@ zero_extendqisi2
 663 0004 13F0FF0F 		tst	r3, #255
 664 0008 05D0     		beq	.L39
 889:.\Generated_Source\PSoC5/USBUART.c ****     {
 890:.\Generated_Source\PSoC5/USBUART.c ****         res = USBUART_configurationChanged;
 665              		.loc 1 890 0
 666 000a 044B     		ldr	r3, .L40
 667 000c 1878     		ldrb	r0, [r3]	@ zero_extendqisi2
 668 000e C0B2     		uxtb	r0, r0
 669              	.LVL43:
 891:.\Generated_Source\PSoC5/USBUART.c ****         USBUART_configurationChanged = 0u;
 670              		.loc 1 891 0
 671 0010 0022     		movs	r2, #0
 672 0012 1A70     		strb	r2, [r3]
 673 0014 7047     		bx	lr
 674              	.LVL44:
 675              	.L39:
 886:.\Generated_Source\PSoC5/USBUART.c ****     uint8 res = 0u;
 676              		.loc 1 886 0
 677 0016 0020     		movs	r0, #0
 678              	.LVL45:
 892:.\Generated_Source\PSoC5/USBUART.c ****     }
 893:.\Generated_Source\PSoC5/USBUART.c **** 
 894:.\Generated_Source\PSoC5/USBUART.c ****     return (res);
 895:.\Generated_Source\PSoC5/USBUART.c **** }
 679              		.loc 1 895 0
 680 0018 7047     		bx	lr
 681              	.L41:
 682 001a 00BF     		.align	2
 683              	.L40:
 684 001c 00000000 		.word	USBUART_configurationChanged
 685              		.cfi_endproc
 686              	.LFE7:
 687              		.size	USBUART_IsConfigurationChanged, .-USBUART_IsConfigurationChanged
 688              		.section	.text.USBUART_GetInterfaceSetting,"ax",%progbits
 689              		.align	2
 690              		.global	USBUART_GetInterfaceSetting
 691              		.thumb
ARM GAS  C:\Users\Tim\AppData\Local\Temp\ccA4EuzY.s 			page 29


 692              		.thumb_func
 693              		.type	USBUART_GetInterfaceSetting, %function
 694              	USBUART_GetInterfaceSetting:
 695              	.LFB8:
 896:.\Generated_Source\PSoC5/USBUART.c **** 
 897:.\Generated_Source\PSoC5/USBUART.c **** 
 898:.\Generated_Source\PSoC5/USBUART.c **** /*******************************************************************************
 899:.\Generated_Source\PSoC5/USBUART.c **** * Function Name: USBUART_GetInterfaceSetting
 900:.\Generated_Source\PSoC5/USBUART.c **** ****************************************************************************//**
 901:.\Generated_Source\PSoC5/USBUART.c **** *
 902:.\Generated_Source\PSoC5/USBUART.c **** *  This function gets the current alternate setting for the specified interface.
 903:.\Generated_Source\PSoC5/USBUART.c **** *  It is useful to identify which alternate settings are active in the specified 
 904:.\Generated_Source\PSoC5/USBUART.c **** *  interface.
 905:.\Generated_Source\PSoC5/USBUART.c **** *
 906:.\Generated_Source\PSoC5/USBUART.c **** *  \param
 907:.\Generated_Source\PSoC5/USBUART.c **** *  interfaceNumber interface number
 908:.\Generated_Source\PSoC5/USBUART.c **** *
 909:.\Generated_Source\PSoC5/USBUART.c **** * \return
 910:.\Generated_Source\PSoC5/USBUART.c **** *  Returns the current alternate setting for the specified interface.
 911:.\Generated_Source\PSoC5/USBUART.c **** *
 912:.\Generated_Source\PSoC5/USBUART.c **** *******************************************************************************/
 913:.\Generated_Source\PSoC5/USBUART.c **** uint8  USBUART_GetInterfaceSetting(uint8 interfaceNumber)
 914:.\Generated_Source\PSoC5/USBUART.c ****                                                     
 915:.\Generated_Source\PSoC5/USBUART.c **** {
 696              		.loc 1 915 0
 697              		.cfi_startproc
 698              		@ args = 0, pretend = 0, frame = 0
 699              		@ frame_needed = 0, uses_anonymous_args = 0
 700              		@ link register save eliminated.
 701              	.LVL46:
 916:.\Generated_Source\PSoC5/USBUART.c ****     return (USBUART_interfaceSetting[interfaceNumber]);
 702              		.loc 1 916 0
 703 0000 014B     		ldr	r3, .L43
 704 0002 185C     		ldrb	r0, [r3, r0]	@ zero_extendqisi2
 705              	.LVL47:
 917:.\Generated_Source\PSoC5/USBUART.c **** }
 706              		.loc 1 917 0
 707 0004 7047     		bx	lr
 708              	.L44:
 709 0006 00BF     		.align	2
 710              	.L43:
 711 0008 00000000 		.word	USBUART_interfaceSetting
 712              		.cfi_endproc
 713              	.LFE8:
 714              		.size	USBUART_GetInterfaceSetting, .-USBUART_GetInterfaceSetting
 715              		.section	.text.USBUART_GetEPState,"ax",%progbits
 716              		.align	2
 717              		.global	USBUART_GetEPState
 718              		.thumb
 719              		.thumb_func
 720              		.type	USBUART_GetEPState, %function
 721              	USBUART_GetEPState:
 722              	.LFB9:
 918:.\Generated_Source\PSoC5/USBUART.c **** 
 919:.\Generated_Source\PSoC5/USBUART.c **** 
 920:.\Generated_Source\PSoC5/USBUART.c **** /*******************************************************************************
 921:.\Generated_Source\PSoC5/USBUART.c **** * Function Name: USBUART_GetEPState
ARM GAS  C:\Users\Tim\AppData\Local\Temp\ccA4EuzY.s 			page 30


 922:.\Generated_Source\PSoC5/USBUART.c **** ****************************************************************************//**
 923:.\Generated_Source\PSoC5/USBUART.c **** *
 924:.\Generated_Source\PSoC5/USBUART.c **** *  This function returns the state of the requested endpoint.
 925:.\Generated_Source\PSoC5/USBUART.c **** *
 926:.\Generated_Source\PSoC5/USBUART.c **** * \param epNumber Data endpoint number
 927:.\Generated_Source\PSoC5/USBUART.c **** *
 928:.\Generated_Source\PSoC5/USBUART.c **** * \return
 929:.\Generated_Source\PSoC5/USBUART.c **** *  Returns the current state of the specified USBFS endpoint. Symbolic names and
 930:.\Generated_Source\PSoC5/USBUART.c **** *  their associated values are given in the following table. Use these constants
 931:.\Generated_Source\PSoC5/USBUART.c **** *  whenever you write code to change the state of the endpoints, such as ISR
 932:.\Generated_Source\PSoC5/USBUART.c **** *  code, to handle data sent or received.
 933:.\Generated_Source\PSoC5/USBUART.c **** *
 934:.\Generated_Source\PSoC5/USBUART.c **** *  Return Value           | Description
 935:.\Generated_Source\PSoC5/USBUART.c **** *  -----------------------|-----------------------------------------------------
 936:.\Generated_Source\PSoC5/USBUART.c **** *  USBFS_NO_EVENT_PENDING |The endpoint is awaiting SIE action
 937:.\Generated_Source\PSoC5/USBUART.c **** *  USBFS_EVENT_PENDING    |The endpoint is awaiting CPU action
 938:.\Generated_Source\PSoC5/USBUART.c **** *  USBFS_NO_EVENT_ALLOWED |The endpoint is locked from access
 939:.\Generated_Source\PSoC5/USBUART.c **** *  USBFS_IN_BUFFER_FULL   |The IN endpoint is loaded and the mode is set to ACK IN
 940:.\Generated_Source\PSoC5/USBUART.c **** *  USBFS_IN_BUFFER_EMPTY  |An IN transaction occurred and more data can be loaded
 941:.\Generated_Source\PSoC5/USBUART.c **** *  USBFS_OUT_BUFFER_EMPTY |The OUT endpoint is set to ACK OUT and is waiting for data
 942:.\Generated_Source\PSoC5/USBUART.c **** *  USBFS_OUT_BUFFER_FULL  |An OUT transaction has occurred and data can be read
 943:.\Generated_Source\PSoC5/USBUART.c **** *
 944:.\Generated_Source\PSoC5/USBUART.c **** *******************************************************************************/
 945:.\Generated_Source\PSoC5/USBUART.c **** uint8 USBUART_GetEPState(uint8 epNumber) 
 946:.\Generated_Source\PSoC5/USBUART.c **** {
 723              		.loc 1 946 0
 724              		.cfi_startproc
 725              		@ args = 0, pretend = 0, frame = 0
 726              		@ frame_needed = 0, uses_anonymous_args = 0
 727              		@ link register save eliminated.
 728              	.LVL48:
 947:.\Generated_Source\PSoC5/USBUART.c ****     return (USBUART_EP[epNumber].apiEpState);
 729              		.loc 1 947 0
 730 0000 00EB4000 		add	r0, r0, r0, lsl #1
 731              	.LVL49:
 732 0004 8000     		lsls	r0, r0, #2
 733 0006 024B     		ldr	r3, .L46
 734 0008 1844     		add	r0, r0, r3
 735 000a 4078     		ldrb	r0, [r0, #1]	@ zero_extendqisi2
 948:.\Generated_Source\PSoC5/USBUART.c **** }
 736              		.loc 1 948 0
 737 000c 7047     		bx	lr
 738              	.L47:
 739 000e 00BF     		.align	2
 740              	.L46:
 741 0010 00000000 		.word	USBUART_EP
 742              		.cfi_endproc
 743              	.LFE9:
 744              		.size	USBUART_GetEPState, .-USBUART_GetEPState
 745              		.section	.text.USBUART_GetEPCount,"ax",%progbits
 746              		.align	2
 747              		.global	USBUART_GetEPCount
 748              		.thumb
 749              		.thumb_func
 750              		.type	USBUART_GetEPCount, %function
 751              	USBUART_GetEPCount:
 752              	.LFB10:
ARM GAS  C:\Users\Tim\AppData\Local\Temp\ccA4EuzY.s 			page 31


 949:.\Generated_Source\PSoC5/USBUART.c **** 
 950:.\Generated_Source\PSoC5/USBUART.c **** 
 951:.\Generated_Source\PSoC5/USBUART.c **** /*******************************************************************************
 952:.\Generated_Source\PSoC5/USBUART.c **** * Function Name: USBUART_GetEPCount
 953:.\Generated_Source\PSoC5/USBUART.c **** ****************************************************************************//**
 954:.\Generated_Source\PSoC5/USBUART.c **** *
 955:.\Generated_Source\PSoC5/USBUART.c **** *  This function supports Data Endpoints only(EP1-EP8).
 956:.\Generated_Source\PSoC5/USBUART.c **** *  Returns the transfer count for the requested endpoint.  The value from
 957:.\Generated_Source\PSoC5/USBUART.c **** *  the count registers includes 2 counts for the two byte checksum of the
 958:.\Generated_Source\PSoC5/USBUART.c **** *  packet.  This function subtracts the two counts.
 959:.\Generated_Source\PSoC5/USBUART.c **** *
 960:.\Generated_Source\PSoC5/USBUART.c **** *  \param epNumber Data Endpoint Number.
 961:.\Generated_Source\PSoC5/USBUART.c **** *                   Valid values are between 1 and 8.
 962:.\Generated_Source\PSoC5/USBUART.c **** *
 963:.\Generated_Source\PSoC5/USBUART.c **** * \return
 964:.\Generated_Source\PSoC5/USBUART.c **** *  Returns the current byte count from the specified endpoint or 0 for an
 965:.\Generated_Source\PSoC5/USBUART.c **** *  invalid endpoint.
 966:.\Generated_Source\PSoC5/USBUART.c **** *
 967:.\Generated_Source\PSoC5/USBUART.c **** *******************************************************************************/
 968:.\Generated_Source\PSoC5/USBUART.c **** uint16 USBUART_GetEPCount(uint8 epNumber) 
 969:.\Generated_Source\PSoC5/USBUART.c **** {
 753              		.loc 1 969 0
 754              		.cfi_startproc
 755              		@ args = 0, pretend = 0, frame = 0
 756              		@ frame_needed = 0, uses_anonymous_args = 0
 757              		@ link register save eliminated.
 758              	.LVL50:
 970:.\Generated_Source\PSoC5/USBUART.c ****     uint16 cntr = 0u;
 971:.\Generated_Source\PSoC5/USBUART.c **** 
 972:.\Generated_Source\PSoC5/USBUART.c ****     if ((epNumber > USBUART_EP0) && (epNumber < USBUART_MAX_EP))
 759              		.loc 1 972 0
 760 0000 431E     		subs	r3, r0, #1
 761 0002 DBB2     		uxtb	r3, r3
 762 0004 072B     		cmp	r3, #7
 763 0006 0BD8     		bhi	.L50
 973:.\Generated_Source\PSoC5/USBUART.c ****     {
 974:.\Generated_Source\PSoC5/USBUART.c ****         /* Get 11-bits EP counter where epCnt0 - 3 bits MSB and epCnt1 - 8 bits LSB. */
 975:.\Generated_Source\PSoC5/USBUART.c ****         cntr  = ((uint16) USBUART_SIE_EP_BASE.sieEp[epNumber].epCnt0) & USBUART_EPX_CNT0_MASK;
 764              		.loc 1 975 0
 765 0008 064B     		ldr	r3, .L51
 766 000a 0001     		lsls	r0, r0, #4
 767              	.LVL51:
 768 000c 1A18     		adds	r2, r3, r0
 769 000e 185C     		ldrb	r0, [r3, r0]	@ zero_extendqisi2
 770 0010 00F00F00 		and	r0, r0, #15
 771              	.LVL52:
 976:.\Generated_Source\PSoC5/USBUART.c ****         cntr  = ((uint16) (cntr << 8u)) | ((uint16) USBUART_SIE_EP_BASE.sieEp[epNumber].epCnt1);
 772              		.loc 1 976 0
 773 0014 5378     		ldrb	r3, [r2, #1]	@ zero_extendqisi2
 774 0016 43EA0020 		orr	r0, r3, r0, lsl #8
 775              	.LVL53:
 977:.\Generated_Source\PSoC5/USBUART.c ****         cntr -= USBUART_EPX_CNTX_CRC_COUNT;
 776              		.loc 1 977 0
 777 001a 0238     		subs	r0, r0, #2
 778              	.LVL54:
 779 001c 80B2     		uxth	r0, r0
 780              	.LVL55:
ARM GAS  C:\Users\Tim\AppData\Local\Temp\ccA4EuzY.s 			page 32


 781 001e 7047     		bx	lr
 782              	.LVL56:
 783              	.L50:
 970:.\Generated_Source\PSoC5/USBUART.c **** 
 784              		.loc 1 970 0
 785 0020 0020     		movs	r0, #0
 786              	.LVL57:
 978:.\Generated_Source\PSoC5/USBUART.c ****     }
 979:.\Generated_Source\PSoC5/USBUART.c **** 
 980:.\Generated_Source\PSoC5/USBUART.c ****     return (cntr);
 981:.\Generated_Source\PSoC5/USBUART.c **** }
 787              		.loc 1 981 0
 788 0022 7047     		bx	lr
 789              	.L52:
 790              		.align	2
 791              	.L51:
 792 0024 FC5F0040 		.word	1073766396
 793              		.cfi_endproc
 794              	.LFE10:
 795              		.size	USBUART_GetEPCount, .-USBUART_GetEPCount
 796              		.section	.text.USBUART_LoadInEP,"ax",%progbits
 797              		.align	2
 798              		.global	USBUART_LoadInEP
 799              		.thumb
 800              		.thumb_func
 801              		.type	USBUART_LoadInEP, %function
 802              	USBUART_LoadInEP:
 803              	.LFB11:
 982:.\Generated_Source\PSoC5/USBUART.c **** 
 983:.\Generated_Source\PSoC5/USBUART.c **** 
 984:.\Generated_Source\PSoC5/USBUART.c **** #if (USBUART_EP_MANAGEMENT_DMA)
 985:.\Generated_Source\PSoC5/USBUART.c **** #if (CY_PSOC4)
 986:.\Generated_Source\PSoC5/USBUART.c ****     /*******************************************************************************
 987:.\Generated_Source\PSoC5/USBUART.c ****     * Function Name: USBUART_InitEpDma
 988:.\Generated_Source\PSoC5/USBUART.c ****     ****************************************************************************//**
 989:.\Generated_Source\PSoC5/USBUART.c ****     *
 990:.\Generated_Source\PSoC5/USBUART.c ****     *  This function configures priority for all DMA channels utilized by the
 991:.\Generated_Source\PSoC5/USBUART.c ****     *  component. Also sets callbacks for DMA auto mode.
 992:.\Generated_Source\PSoC5/USBUART.c ****     *
 993:.\Generated_Source\PSoC5/USBUART.c ****     *******************************************************************************/
 994:.\Generated_Source\PSoC5/USBUART.c ****     static void USBUART_InitEpDma(void)
 995:.\Generated_Source\PSoC5/USBUART.c ****     {
 996:.\Generated_Source\PSoC5/USBUART.c ****     #if (USBUART_DMA1_ACTIVE)
 997:.\Generated_Source\PSoC5/USBUART.c ****         CYDMA_CH_CTL_BASE.ctl[USBUART_ep1_dma_CHANNEL] = USBUART_ep1_dma_CHANNEL_CFG;
 998:.\Generated_Source\PSoC5/USBUART.c ****     #endif /* (USBUART_DMA1_ACTIVE) */
 999:.\Generated_Source\PSoC5/USBUART.c **** 
1000:.\Generated_Source\PSoC5/USBUART.c ****     #if (USBUART_DMA2_ACTIVE)
1001:.\Generated_Source\PSoC5/USBUART.c ****         CYDMA_CH_CTL_BASE.ctl[USBUART_ep2_dma_CHANNEL] = USBUART_ep2_dma_CHANNEL_CFG;
1002:.\Generated_Source\PSoC5/USBUART.c ****     #endif /* (USBUART_DMA2_ACTIVE) */
1003:.\Generated_Source\PSoC5/USBUART.c **** 
1004:.\Generated_Source\PSoC5/USBUART.c ****     #if (USBUART_DMA3_ACTIVE)
1005:.\Generated_Source\PSoC5/USBUART.c ****         CYDMA_CH_CTL_BASE.ctl[USBUART_ep3_dma_CHANNEL] = USBUART_ep3_dma_CHANNEL_CFG;
1006:.\Generated_Source\PSoC5/USBUART.c ****     #endif /* (USBUART_DMA3_ACTIVE) */
1007:.\Generated_Source\PSoC5/USBUART.c **** 
1008:.\Generated_Source\PSoC5/USBUART.c ****     #if (USBUART_DMA4_ACTIVE)
1009:.\Generated_Source\PSoC5/USBUART.c ****         CYDMA_CH_CTL_BASE.ctl[USBUART_ep4_dma_CHANNEL] = USBUART_ep4_dma_CHANNEL_CFG;
1010:.\Generated_Source\PSoC5/USBUART.c ****     #endif /* (USBUART_DMA4_ACTIVE) */
ARM GAS  C:\Users\Tim\AppData\Local\Temp\ccA4EuzY.s 			page 33


1011:.\Generated_Source\PSoC5/USBUART.c **** 
1012:.\Generated_Source\PSoC5/USBUART.c ****     #if (USBUART_DMA5_ACTIVE)
1013:.\Generated_Source\PSoC5/USBUART.c ****         CYDMA_CH_CTL_BASE.ctl[USBUART_ep5_dma_CHANNEL] = USBUART_ep5_dma_CHANNEL_CFG;
1014:.\Generated_Source\PSoC5/USBUART.c ****     #endif /* (USBUART_DMA5_ACTIVE) */
1015:.\Generated_Source\PSoC5/USBUART.c **** 
1016:.\Generated_Source\PSoC5/USBUART.c ****     #if (USBUART_DMA6_ACTIVE)
1017:.\Generated_Source\PSoC5/USBUART.c ****         CYDMA_CH_CTL_BASE.ctl[USBUART_ep6_dma_CHANNEL] = USBUART_ep6_dma_CHANNEL_CFG;
1018:.\Generated_Source\PSoC5/USBUART.c ****     #endif /* (USBUART_DMA6_ACTIVE) */
1019:.\Generated_Source\PSoC5/USBUART.c **** 
1020:.\Generated_Source\PSoC5/USBUART.c ****     #if (USBUART_DMA7_ACTIVE)
1021:.\Generated_Source\PSoC5/USBUART.c ****         CYDMA_CH_CTL_BASE.ctl[USBUART_ep7_dma_CHANNEL] = USBUART_ep7_dma_CHANNEL_CFG;
1022:.\Generated_Source\PSoC5/USBUART.c ****     #endif /* (USBUART_DMA7_ACTIVE) */
1023:.\Generated_Source\PSoC5/USBUART.c **** 
1024:.\Generated_Source\PSoC5/USBUART.c ****     #if (USBUART_DMA8_ACTIVE)
1025:.\Generated_Source\PSoC5/USBUART.c ****         CYDMA_CH_CTL_BASE.ctl[USBUART_ep8_dma_CHANNEL] = USBUART_ep8_dma_CHANNEL_CFG;
1026:.\Generated_Source\PSoC5/USBUART.c ****     #endif /* (USBUART_DMA8_ACTIVE) */
1027:.\Generated_Source\PSoC5/USBUART.c **** 
1028:.\Generated_Source\PSoC5/USBUART.c ****     #if (USBUART_EP_MANAGEMENT_DMA_AUTO)
1029:.\Generated_Source\PSoC5/USBUART.c ****         /* Initialize DMA channel callbacks. */
1030:.\Generated_Source\PSoC5/USBUART.c ****         #if (USBUART_DMA1_ACTIVE)
1031:.\Generated_Source\PSoC5/USBUART.c ****             (void) USBUART_ep1_dma_SetInterruptCallback(&USBUART_EP1_DMA_DONE_ISR);
1032:.\Generated_Source\PSoC5/USBUART.c ****         #endif /* (USBUART_DMA1_ACTIVE) */
1033:.\Generated_Source\PSoC5/USBUART.c **** 
1034:.\Generated_Source\PSoC5/USBUART.c ****         #if (USBUART_DMA2_ACTIVE)
1035:.\Generated_Source\PSoC5/USBUART.c ****             (void) USBUART_ep2_dma_SetInterruptCallback(&USBUART_EP2_DMA_DONE_ISR);
1036:.\Generated_Source\PSoC5/USBUART.c ****         #endif /* (USBUART_DMA2_ACTIVE) */
1037:.\Generated_Source\PSoC5/USBUART.c **** 
1038:.\Generated_Source\PSoC5/USBUART.c ****         #if (USBUART_DMA3_ACTIVE)
1039:.\Generated_Source\PSoC5/USBUART.c ****             (void) USBUART_ep3_dma_SetInterruptCallback(&USBUART_EP3_DMA_DONE_ISR);
1040:.\Generated_Source\PSoC5/USBUART.c ****         #endif /* (USBUART_DMA3_ACTIVE) */
1041:.\Generated_Source\PSoC5/USBUART.c **** 
1042:.\Generated_Source\PSoC5/USBUART.c ****         #if (USBUART_DMA4_ACTIVE)
1043:.\Generated_Source\PSoC5/USBUART.c ****             (void) USBUART_ep4_dma_SetInterruptCallback(&USBUART_EP4_DMA_DONE_ISR);
1044:.\Generated_Source\PSoC5/USBUART.c ****         #endif /* (USBUART_DMA4_ACTIVE) */
1045:.\Generated_Source\PSoC5/USBUART.c **** 
1046:.\Generated_Source\PSoC5/USBUART.c ****         #if (USBUART_DMA5_ACTIVE)
1047:.\Generated_Source\PSoC5/USBUART.c ****             (void) USBUART_ep5_dma_SetInterruptCallback(&USBUART_EP5_DMA_DONE_ISR);
1048:.\Generated_Source\PSoC5/USBUART.c ****         #endif /* (USBUART_DMA5_ACTIVE) */
1049:.\Generated_Source\PSoC5/USBUART.c **** 
1050:.\Generated_Source\PSoC5/USBUART.c ****         #if (USBUART_DMA6_ACTIVE)
1051:.\Generated_Source\PSoC5/USBUART.c ****             (void) USBUART_ep6_dma_SetInterruptCallback(&USBUART_EP6_DMA_DONE_ISR);
1052:.\Generated_Source\PSoC5/USBUART.c ****         #endif /* (USBUART_DMA6_ACTIVE) */
1053:.\Generated_Source\PSoC5/USBUART.c **** 
1054:.\Generated_Source\PSoC5/USBUART.c ****         #if (USBUART_DMA7_ACTIVE)
1055:.\Generated_Source\PSoC5/USBUART.c ****             (void) USBUART_ep7_dma_SetInterruptCallback(&USBUART_EP7_DMA_DONE_ISR);
1056:.\Generated_Source\PSoC5/USBUART.c ****         #endif /* (USBUART_DMA7_ACTIVE) */
1057:.\Generated_Source\PSoC5/USBUART.c **** 
1058:.\Generated_Source\PSoC5/USBUART.c ****         #if (USBUART_DMA8_ACTIVE)
1059:.\Generated_Source\PSoC5/USBUART.c ****             (void) USBUART_ep8_dma_SetInterruptCallback(&USBUART_EP8_DMA_DONE_ISR);
1060:.\Generated_Source\PSoC5/USBUART.c ****         #endif /* (USBUART_DMA8_ACTIVE) */
1061:.\Generated_Source\PSoC5/USBUART.c ****     #endif /* (USBUART_EP_MANAGEMENT_DMA_AUTO) */
1062:.\Generated_Source\PSoC5/USBUART.c ****     }
1063:.\Generated_Source\PSoC5/USBUART.c **** #else
1064:.\Generated_Source\PSoC5/USBUART.c **** 
1065:.\Generated_Source\PSoC5/USBUART.c **** 
1066:.\Generated_Source\PSoC5/USBUART.c ****     /***************************************************************************
1067:.\Generated_Source\PSoC5/USBUART.c ****     * Function Name: USBUART_InitEP_DMA
ARM GAS  C:\Users\Tim\AppData\Local\Temp\ccA4EuzY.s 			page 34


1068:.\Generated_Source\PSoC5/USBUART.c ****     ************************************************************************//**
1069:.\Generated_Source\PSoC5/USBUART.c ****     *
1070:.\Generated_Source\PSoC5/USBUART.c ****     *  This function allocates and initializes a DMA channel to be used by the
1071:.\Generated_Source\PSoC5/USBUART.c ****     *  USBUART_LoadInEP() or USBUART_ReadOutEP() APIs for data
1072:.\Generated_Source\PSoC5/USBUART.c ****     *  transfer. It is available when the Endpoint Memory Management parameter
1073:.\Generated_Source\PSoC5/USBUART.c ****     *  is set to DMA.
1074:.\Generated_Source\PSoC5/USBUART.c ****     *
1075:.\Generated_Source\PSoC5/USBUART.c ****     *  This function is automatically called from the USBFS_LoadInEP() and USBFS_ReadOutEP() APIs.
1076:.\Generated_Source\PSoC5/USBUART.c ****     *
1077:.\Generated_Source\PSoC5/USBUART.c ****     *  \param epNumber Contains the data endpoint number.
1078:.\Generated_Source\PSoC5/USBUART.c ****     *            Valid values are between 1 and 8.
1079:.\Generated_Source\PSoC5/USBUART.c ****     *  \param *pData Pointer to a data array that is related to the EP transfers.
1080:.\Generated_Source\PSoC5/USBUART.c ****     *
1081:.\Generated_Source\PSoC5/USBUART.c ****     * \reentrant No.
1082:.\Generated_Source\PSoC5/USBUART.c ****     *
1083:.\Generated_Source\PSoC5/USBUART.c ****     ***************************************************************************/
1084:.\Generated_Source\PSoC5/USBUART.c ****     void USBUART_InitEP_DMA(uint8 epNumber, const uint8 *pData)
1085:.\Generated_Source\PSoC5/USBUART.c ****                                                                     
1086:.\Generated_Source\PSoC5/USBUART.c ****     {
1087:.\Generated_Source\PSoC5/USBUART.c ****         uint16 src;
1088:.\Generated_Source\PSoC5/USBUART.c ****         uint16 dst;
1089:.\Generated_Source\PSoC5/USBUART.c **** 
1090:.\Generated_Source\PSoC5/USBUART.c ****     #if (CY_PSOC3)
1091:.\Generated_Source\PSoC5/USBUART.c ****         src = HI16(CYDEV_SRAM_BASE);
1092:.\Generated_Source\PSoC5/USBUART.c ****         dst = HI16(CYDEV_PERIPH_BASE);
1093:.\Generated_Source\PSoC5/USBUART.c ****         pData = pData;
1094:.\Generated_Source\PSoC5/USBUART.c ****     #else
1095:.\Generated_Source\PSoC5/USBUART.c ****         if ((USBUART_EP[epNumber].addr & USBUART_DIR_IN) != 0u)
1096:.\Generated_Source\PSoC5/USBUART.c ****         {
1097:.\Generated_Source\PSoC5/USBUART.c ****             /* IN endpoint: source is memory buffer. */
1098:.\Generated_Source\PSoC5/USBUART.c ****             src = HI16(pData);
1099:.\Generated_Source\PSoC5/USBUART.c ****             dst = HI16(CYDEV_PERIPH_BASE);
1100:.\Generated_Source\PSoC5/USBUART.c ****         }
1101:.\Generated_Source\PSoC5/USBUART.c ****         else
1102:.\Generated_Source\PSoC5/USBUART.c ****         {
1103:.\Generated_Source\PSoC5/USBUART.c ****             /* OUT endpoint: source is USB IP memory buffer. */
1104:.\Generated_Source\PSoC5/USBUART.c ****             src = HI16(CYDEV_PERIPH_BASE);
1105:.\Generated_Source\PSoC5/USBUART.c ****             dst = HI16(pData);
1106:.\Generated_Source\PSoC5/USBUART.c ****         }
1107:.\Generated_Source\PSoC5/USBUART.c ****     #endif  /* (CY_PSOC3) */
1108:.\Generated_Source\PSoC5/USBUART.c **** 
1109:.\Generated_Source\PSoC5/USBUART.c ****         switch(epNumber)
1110:.\Generated_Source\PSoC5/USBUART.c ****         {
1111:.\Generated_Source\PSoC5/USBUART.c ****     #if (USBUART_DMA1_ACTIVE)
1112:.\Generated_Source\PSoC5/USBUART.c ****         case USBUART_EP1:
1113:.\Generated_Source\PSoC5/USBUART.c ****             USBUART_DmaChan[epNumber] = USBUART_ep1_DmaInitialize(USBUART_DMA_BYTES_PER_BURST,
1114:.\Generated_Source\PSoC5/USBUART.c ****                                                                                     USBUART_DMA_REQ
1115:.\Generated_Source\PSoC5/USBUART.c ****             break;
1116:.\Generated_Source\PSoC5/USBUART.c ****     #endif /* (USBUART_DMA1_ACTIVE) */
1117:.\Generated_Source\PSoC5/USBUART.c **** 
1118:.\Generated_Source\PSoC5/USBUART.c ****     #if (USBUART_DMA2_ACTIVE)
1119:.\Generated_Source\PSoC5/USBUART.c ****         case USBUART_EP2:
1120:.\Generated_Source\PSoC5/USBUART.c ****             USBUART_DmaChan[epNumber] = USBUART_ep2_DmaInitialize(USBUART_DMA_BYTES_PER_BURST,
1121:.\Generated_Source\PSoC5/USBUART.c ****                                                                                     USBUART_DMA_REQ
1122:.\Generated_Source\PSoC5/USBUART.c ****             break;
1123:.\Generated_Source\PSoC5/USBUART.c ****     #endif /* (USBUART_DMA2_ACTIVE) */
1124:.\Generated_Source\PSoC5/USBUART.c **** 
ARM GAS  C:\Users\Tim\AppData\Local\Temp\ccA4EuzY.s 			page 35


1125:.\Generated_Source\PSoC5/USBUART.c ****     #if (USBUART_DMA3_ACTIVE)
1126:.\Generated_Source\PSoC5/USBUART.c ****             case USBUART_EP3:
1127:.\Generated_Source\PSoC5/USBUART.c ****                 USBUART_DmaChan[epNumber] = USBUART_ep3_DmaInitialize(USBUART_DMA_BYTES_PER_BURST,
1128:.\Generated_Source\PSoC5/USBUART.c ****                                                                                         USBUART_DMA
1129:.\Generated_Source\PSoC5/USBUART.c ****             break;
1130:.\Generated_Source\PSoC5/USBUART.c ****     #endif /* (USBUART_DMA3_ACTIVE) */
1131:.\Generated_Source\PSoC5/USBUART.c **** 
1132:.\Generated_Source\PSoC5/USBUART.c ****     #if (USBUART_DMA4_ACTIVE)
1133:.\Generated_Source\PSoC5/USBUART.c ****             case USBUART_EP4:
1134:.\Generated_Source\PSoC5/USBUART.c ****                 USBUART_DmaChan[epNumber] = USBUART_ep4_DmaInitialize(USBUART_DMA_BYTES_PER_BURST,
1135:.\Generated_Source\PSoC5/USBUART.c ****                                                                                         USBUART_DMA
1136:.\Generated_Source\PSoC5/USBUART.c ****             break;
1137:.\Generated_Source\PSoC5/USBUART.c ****     #endif /* (USBUART_DMA4_ACTIVE) */
1138:.\Generated_Source\PSoC5/USBUART.c **** 
1139:.\Generated_Source\PSoC5/USBUART.c ****     #if (USBUART_DMA5_ACTIVE)
1140:.\Generated_Source\PSoC5/USBUART.c ****             case USBUART_EP5:
1141:.\Generated_Source\PSoC5/USBUART.c ****                 USBUART_DmaChan[epNumber] = USBUART_ep5_DmaInitialize(USBUART_DMA_BYTES_PER_BURST,
1142:.\Generated_Source\PSoC5/USBUART.c ****                                                                                         USBUART_DMA
1143:.\Generated_Source\PSoC5/USBUART.c ****             break;
1144:.\Generated_Source\PSoC5/USBUART.c ****     #endif /* (USBUART_DMA5_ACTIVE) */
1145:.\Generated_Source\PSoC5/USBUART.c **** 
1146:.\Generated_Source\PSoC5/USBUART.c ****     #if (USBUART_DMA6_ACTIVE)
1147:.\Generated_Source\PSoC5/USBUART.c ****         case USBUART_EP6:
1148:.\Generated_Source\PSoC5/USBUART.c ****             USBUART_DmaChan[epNumber] = USBUART_ep6_DmaInitialize(USBUART_DMA_BYTES_PER_BURST,
1149:.\Generated_Source\PSoC5/USBUART.c ****                                                                                     USBUART_DMA_REQ
1150:.\Generated_Source\PSoC5/USBUART.c ****             break;
1151:.\Generated_Source\PSoC5/USBUART.c ****     #endif /* (USBUART_DMA6_ACTIVE) */
1152:.\Generated_Source\PSoC5/USBUART.c **** 
1153:.\Generated_Source\PSoC5/USBUART.c ****     #if (USBUART_DMA7_ACTIVE)
1154:.\Generated_Source\PSoC5/USBUART.c ****         case USBUART_EP7:
1155:.\Generated_Source\PSoC5/USBUART.c ****                 USBUART_DmaChan[epNumber] = USBUART_ep7_DmaInitialize(USBUART_DMA_BYTES_PER_BURST,
1156:.\Generated_Source\PSoC5/USBUART.c ****                                                                                         USBUART_DMA
1157:.\Generated_Source\PSoC5/USBUART.c ****             break;
1158:.\Generated_Source\PSoC5/USBUART.c ****     #endif /* (USBUART_DMA7_ACTIVE) */
1159:.\Generated_Source\PSoC5/USBUART.c **** 
1160:.\Generated_Source\PSoC5/USBUART.c ****     #if (USBUART_DMA8_ACTIVE)
1161:.\Generated_Source\PSoC5/USBUART.c ****         case USBUART_EP8:
1162:.\Generated_Source\PSoC5/USBUART.c ****                 USBUART_DmaChan[epNumber] = USBUART_ep8_DmaInitialize(USBUART_DMA_BYTES_PER_BURST,
1163:.\Generated_Source\PSoC5/USBUART.c ****                                                                                         USBUART_DMA
1164:.\Generated_Source\PSoC5/USBUART.c ****             break;
1165:.\Generated_Source\PSoC5/USBUART.c ****     #endif /* (USBUART_DMA8_ACTIVE) */
1166:.\Generated_Source\PSoC5/USBUART.c **** 
1167:.\Generated_Source\PSoC5/USBUART.c ****         default:
1168:.\Generated_Source\PSoC5/USBUART.c ****             /* Do nothing for endpoints other than 1-8. */
1169:.\Generated_Source\PSoC5/USBUART.c ****             break;
1170:.\Generated_Source\PSoC5/USBUART.c ****         }
1171:.\Generated_Source\PSoC5/USBUART.c **** 
1172:.\Generated_Source\PSoC5/USBUART.c ****         if ((epNumber > USBUART_EP0) && (epNumber < USBUART_MAX_EP))
1173:.\Generated_Source\PSoC5/USBUART.c ****         {
1174:.\Generated_Source\PSoC5/USBUART.c ****             USBUART_DmaTd[epNumber] = CyDmaTdAllocate();
1175:.\Generated_Source\PSoC5/USBUART.c **** 
1176:.\Generated_Source\PSoC5/USBUART.c ****         #if (USBUART_EP_MANAGEMENT_DMA_AUTO && (USBUART_EP_DMA_AUTO_OPT == 0u))
1177:.\Generated_Source\PSoC5/USBUART.c ****             USBUART_DmaNextTd[epNumber] = CyDmaTdAllocate();
1178:.\Generated_Source\PSoC5/USBUART.c ****         #endif /* (USBUART_EP_MANAGEMENT_DMA_AUTO && (USBUART_EP_DMA_AUTO_OPT == 0u)) */
1179:.\Generated_Source\PSoC5/USBUART.c ****         }
1180:.\Generated_Source\PSoC5/USBUART.c ****     }
1181:.\Generated_Source\PSoC5/USBUART.c **** #endif /* (CY_PSOC4) */
ARM GAS  C:\Users\Tim\AppData\Local\Temp\ccA4EuzY.s 			page 36


1182:.\Generated_Source\PSoC5/USBUART.c **** 
1183:.\Generated_Source\PSoC5/USBUART.c ****     /***************************************************************************
1184:.\Generated_Source\PSoC5/USBUART.c ****     * Function Name: USBUART_Stop_DMA
1185:.\Generated_Source\PSoC5/USBUART.c ****     ************************************************************************//**
1186:.\Generated_Source\PSoC5/USBUART.c ****     *  
1187:.\Generated_Source\PSoC5/USBUART.c ****     *  This function stops DMA channel associated with endpoint. It is available 
1188:.\Generated_Source\PSoC5/USBUART.c ****     *  when the Endpoint Buffer Management parameter is set to DMA. Call this 
1189:.\Generated_Source\PSoC5/USBUART.c ****     *  function when endpoint direction is changed from IN to OUT or vice versa 
1190:.\Generated_Source\PSoC5/USBUART.c ****     *  to trigger DMA re-configuration when USBUART_LoadInEP() or 
1191:.\Generated_Source\PSoC5/USBUART.c ****     *  USBUART_ReadOutEP() functions are called the first time. 
1192:.\Generated_Source\PSoC5/USBUART.c ****     *  
1193:.\Generated_Source\PSoC5/USBUART.c ****     *  \param epNumber: The data endpoint number for which associated DMA 
1194:.\Generated_Source\PSoC5/USBUART.c ****     *  channel is stopped. The range of valid values is between 1 and 8. To stop 
1195:.\Generated_Source\PSoC5/USBUART.c ****     *  all DMAs associated with endpoints call this function with 
1196:.\Generated_Source\PSoC5/USBUART.c ****     *  USBUART_MAX_EP argument.
1197:.\Generated_Source\PSoC5/USBUART.c ****     *
1198:.\Generated_Source\PSoC5/USBUART.c ****     * \reentrant
1199:.\Generated_Source\PSoC5/USBUART.c ****     *  No.
1200:.\Generated_Source\PSoC5/USBUART.c ****     *
1201:.\Generated_Source\PSoC5/USBUART.c ****     ***************************************************************************/
1202:.\Generated_Source\PSoC5/USBUART.c ****     void USBUART_Stop_DMA(uint8 epNumber) 
1203:.\Generated_Source\PSoC5/USBUART.c ****     {
1204:.\Generated_Source\PSoC5/USBUART.c ****         uint8 i;
1205:.\Generated_Source\PSoC5/USBUART.c **** 
1206:.\Generated_Source\PSoC5/USBUART.c ****         i = (epNumber < USBUART_MAX_EP) ? epNumber : USBUART_EP1;
1207:.\Generated_Source\PSoC5/USBUART.c **** 
1208:.\Generated_Source\PSoC5/USBUART.c ****         do
1209:.\Generated_Source\PSoC5/USBUART.c ****         {
1210:.\Generated_Source\PSoC5/USBUART.c ****         #if (CY_PSOC4)
1211:.\Generated_Source\PSoC5/USBUART.c ****             if (0u != USBUART_DmaChan[i])
1212:.\Generated_Source\PSoC5/USBUART.c ****             {
1213:.\Generated_Source\PSoC5/USBUART.c ****                 USBUART_CyDmaChDisable(USBUART_DmaChan[i]);
1214:.\Generated_Source\PSoC5/USBUART.c ****             }
1215:.\Generated_Source\PSoC5/USBUART.c ****         #else
1216:.\Generated_Source\PSoC5/USBUART.c ****             if(USBUART_DmaTd[i] != DMA_INVALID_TD)
1217:.\Generated_Source\PSoC5/USBUART.c ****             {
1218:.\Generated_Source\PSoC5/USBUART.c ****                 (void) CyDmaChDisable(USBUART_DmaChan[i]);
1219:.\Generated_Source\PSoC5/USBUART.c ****                 CyDmaTdFree(USBUART_DmaTd[i]);
1220:.\Generated_Source\PSoC5/USBUART.c ****                 USBUART_DmaTd[i] = DMA_INVALID_TD;
1221:.\Generated_Source\PSoC5/USBUART.c ****             }
1222:.\Generated_Source\PSoC5/USBUART.c **** 
1223:.\Generated_Source\PSoC5/USBUART.c ****             #if (USBUART_EP_MANAGEMENT_DMA_AUTO && (USBUART_EP_DMA_AUTO_OPT == 0u))
1224:.\Generated_Source\PSoC5/USBUART.c ****                 if(USBUART_DmaNextTd[i] != DMA_INVALID_TD)
1225:.\Generated_Source\PSoC5/USBUART.c ****                 {
1226:.\Generated_Source\PSoC5/USBUART.c ****                     CyDmaTdFree(USBUART_DmaNextTd[i]);
1227:.\Generated_Source\PSoC5/USBUART.c ****                     USBUART_DmaNextTd[i] = DMA_INVALID_TD;
1228:.\Generated_Source\PSoC5/USBUART.c ****                 }
1229:.\Generated_Source\PSoC5/USBUART.c ****             #endif /* (USBUART_EP_MANAGEMENT_DMA_AUTO && (USBUART_EP_DMA_AUTO_OPT == 0u)) */
1230:.\Generated_Source\PSoC5/USBUART.c **** 
1231:.\Generated_Source\PSoC5/USBUART.c ****         #endif /* (CY_PSOC4) */
1232:.\Generated_Source\PSoC5/USBUART.c ****             i++;
1233:.\Generated_Source\PSoC5/USBUART.c ****         }
1234:.\Generated_Source\PSoC5/USBUART.c ****         while ((i < USBUART_MAX_EP) && (epNumber == USBUART_MAX_EP));
1235:.\Generated_Source\PSoC5/USBUART.c ****     }
1236:.\Generated_Source\PSoC5/USBUART.c **** #endif /* (USBUART_EP_MANAGEMENT_DMA) */
1237:.\Generated_Source\PSoC5/USBUART.c **** 
1238:.\Generated_Source\PSoC5/USBUART.c **** 
ARM GAS  C:\Users\Tim\AppData\Local\Temp\ccA4EuzY.s 			page 37


1239:.\Generated_Source\PSoC5/USBUART.c **** #if (CY_PSOC3 || CY_PSOC5)
1240:.\Generated_Source\PSoC5/USBUART.c **** #if (USBUART_EP_MANAGEMENT_DMA_AUTO && (USBUART_EP_DMA_AUTO_OPT == 0u))
1241:.\Generated_Source\PSoC5/USBUART.c ****     /***************************************************************************
1242:.\Generated_Source\PSoC5/USBUART.c ****     * Function Name: USBUART_LoadNextInEP
1243:.\Generated_Source\PSoC5/USBUART.c ****     ************************************************************************//**
1244:.\Generated_Source\PSoC5/USBUART.c ****     *
1245:.\Generated_Source\PSoC5/USBUART.c ****     * Summary:
1246:.\Generated_Source\PSoC5/USBUART.c ****     *  This internal function is used for IN endpoint DMA reconfiguration in
1247:.\Generated_Source\PSoC5/USBUART.c ****     *  Auto DMA mode.
1248:.\Generated_Source\PSoC5/USBUART.c ****     *
1249:.\Generated_Source\PSoC5/USBUART.c ****     * Parameters:
1250:.\Generated_Source\PSoC5/USBUART.c ****     *  epNumber: Contains the data endpoint number.
1251:.\Generated_Source\PSoC5/USBUART.c ****     *  mode:   0 - Configure DMA to send the the rest of data.
1252:.\Generated_Source\PSoC5/USBUART.c ****     *          1 - Configure DMA to repeat 2 last bytes of the first burst.
1253:.\Generated_Source\PSoC5/USBUART.c ****     *
1254:.\Generated_Source\PSoC5/USBUART.c ****     ***************************************************************************/
1255:.\Generated_Source\PSoC5/USBUART.c ****     void USBUART_LoadNextInEP(uint8 epNumber, uint8 mode) 
1256:.\Generated_Source\PSoC5/USBUART.c ****     {
1257:.\Generated_Source\PSoC5/USBUART.c ****         reg16 *convert;
1258:.\Generated_Source\PSoC5/USBUART.c **** 
1259:.\Generated_Source\PSoC5/USBUART.c ****         if (mode == 0u)
1260:.\Generated_Source\PSoC5/USBUART.c ****         {
1261:.\Generated_Source\PSoC5/USBUART.c ****             /* Configure DMA to send rest of data. */
1262:.\Generated_Source\PSoC5/USBUART.c ****             /* CyDmaTdSetConfiguration API is optimized to change transfer length only and configur
1263:.\Generated_Source\PSoC5/USBUART.c ****             convert = (reg16 *) &CY_DMA_TDMEM_STRUCT_PTR[USBUART_DmaTd[epNumber]].TD0[0u];
1264:.\Generated_Source\PSoC5/USBUART.c ****             /* Set transfer length. */
1265:.\Generated_Source\PSoC5/USBUART.c ****             CY_SET_REG16(convert, USBUART_inLength[epNumber] - USBUART_DMA_BYTES_PER_BURST);
1266:.\Generated_Source\PSoC5/USBUART.c ****             /* CyDmaTdSetAddress API is optimized to change source address only. */
1267:.\Generated_Source\PSoC5/USBUART.c ****             convert = (reg16 *) &CY_DMA_TDMEM_STRUCT_PTR[USBUART_DmaTd[epNumber]].TD1[0u];
1268:.\Generated_Source\PSoC5/USBUART.c ****             CY_SET_REG16(convert, LO16((uint32)USBUART_inDataPointer[epNumber] +
1269:.\Generated_Source\PSoC5/USBUART.c ****                                             USBUART_DMA_BYTES_PER_BURST));
1270:.\Generated_Source\PSoC5/USBUART.c ****             USBUART_inBufFull[epNumber] = 1u;
1271:.\Generated_Source\PSoC5/USBUART.c ****         }
1272:.\Generated_Source\PSoC5/USBUART.c ****         else
1273:.\Generated_Source\PSoC5/USBUART.c ****         {
1274:.\Generated_Source\PSoC5/USBUART.c ****             /* Configure DMA to repeat 2 last bytes of the first burst. */
1275:.\Generated_Source\PSoC5/USBUART.c ****             /* CyDmaTdSetConfiguration API is optimized to change transfer length only and configur
1276:.\Generated_Source\PSoC5/USBUART.c ****             convert = (reg16 *) &CY_DMA_TDMEM_STRUCT_PTR[USBUART_DmaTd[epNumber]].TD0[0u];
1277:.\Generated_Source\PSoC5/USBUART.c ****             /* Set transfer length. */
1278:.\Generated_Source\PSoC5/USBUART.c ****             CY_SET_REG16(convert, USBUART_DMA_BYTES_REPEAT);
1279:.\Generated_Source\PSoC5/USBUART.c ****             /* CyDmaTdSetAddress API is optimized to change source address only. */
1280:.\Generated_Source\PSoC5/USBUART.c ****             convert = (reg16 *) &CY_DMA_TDMEM_STRUCT_PTR[USBUART_DmaTd[epNumber]].TD1[0u];
1281:.\Generated_Source\PSoC5/USBUART.c ****             CY_SET_REG16(convert,  LO16((uint32)USBUART_inDataPointer[epNumber] +
1282:.\Generated_Source\PSoC5/USBUART.c ****                                    (USBUART_DMA_BYTES_PER_BURST - USBUART_DMA_BYTES_REPEAT)));
1283:.\Generated_Source\PSoC5/USBUART.c ****         }
1284:.\Generated_Source\PSoC5/USBUART.c **** 
1285:.\Generated_Source\PSoC5/USBUART.c ****         /* CyDmaChSetInitialTd API is optimized to initialize TD. */
1286:.\Generated_Source\PSoC5/USBUART.c ****         CY_DMA_CH_STRUCT_PTR[USBUART_DmaChan[epNumber]].basic_status[1u] = USBUART_DmaTd[epNumber];
1287:.\Generated_Source\PSoC5/USBUART.c ****     }
1288:.\Generated_Source\PSoC5/USBUART.c **** #endif /* (USBUART_EP_MANAGEMENT_DMA_AUTO && (USBUART_EP_DMA_AUTO_OPT == 0u)) */
1289:.\Generated_Source\PSoC5/USBUART.c **** #endif /* (CY_PSOC3 || CY_PSOC5) */
1290:.\Generated_Source\PSoC5/USBUART.c **** 
1291:.\Generated_Source\PSoC5/USBUART.c **** 
1292:.\Generated_Source\PSoC5/USBUART.c **** /*******************************************************************************
1293:.\Generated_Source\PSoC5/USBUART.c **** * Function Name: USBUART_LoadInEP
1294:.\Generated_Source\PSoC5/USBUART.c **** ****************************************************************************//**
1295:.\Generated_Source\PSoC5/USBUART.c **** *
ARM GAS  C:\Users\Tim\AppData\Local\Temp\ccA4EuzY.s 			page 38


1296:.\Generated_Source\PSoC5/USBUART.c **** *  This function performs different functionality depending on the Component’s
1297:.\Generated_Source\PSoC5/USBUART.c **** *  configured Endpoint Buffer Management. This parameter is defined in
1298:.\Generated_Source\PSoC5/USBUART.c **** *  the Descriptor Root in Component Configure window.
1299:.\Generated_Source\PSoC5/USBUART.c **** *
1300:.\Generated_Source\PSoC5/USBUART.c **** *  *Manual (Static/Dynamic Allocation):*
1301:.\Generated_Source\PSoC5/USBUART.c **** *  This function loads and enables the specified USB data endpoint for an IN
1302:.\Generated_Source\PSoC5/USBUART.c **** *  data transfer.
1303:.\Generated_Source\PSoC5/USBUART.c **** *
1304:.\Generated_Source\PSoC5/USBUART.c **** *  *DMA with Manual Buffer Management:*
1305:.\Generated_Source\PSoC5/USBUART.c **** *  Configures DMA for a data transfer from system RAM to endpoint buffer.
1306:.\Generated_Source\PSoC5/USBUART.c **** *  Generates request for a transfer.
1307:.\Generated_Source\PSoC5/USBUART.c **** *
1308:.\Generated_Source\PSoC5/USBUART.c **** *  *DMA with Automatic Buffer Management:*
1309:.\Generated_Source\PSoC5/USBUART.c **** *  Configures DMA. This is required only once, so it is done only when parameter
1310:.\Generated_Source\PSoC5/USBUART.c **** *  pData is not NULL. When the pData pointer is NULL, the function skips this
1311:.\Generated_Source\PSoC5/USBUART.c **** *  task. Sets Data ready status: This generates the first DMA transfer and
1312:.\Generated_Source\PSoC5/USBUART.c **** *  prepares data in endpoint buffer.
1313:.\Generated_Source\PSoC5/USBUART.c **** *
1314:.\Generated_Source\PSoC5/USBUART.c **** *  \param epNumber Contains the data endpoint number.
1315:.\Generated_Source\PSoC5/USBUART.c **** *            Valid values are between 1 and 8.
1316:.\Generated_Source\PSoC5/USBUART.c **** *  \param *pData A pointer to a data array from which the data for the endpoint space
1317:.\Generated_Source\PSoC5/USBUART.c **** *          is loaded.
1318:.\Generated_Source\PSoC5/USBUART.c **** *  \param length The number of bytes to transfer from the array and then send as
1319:.\Generated_Source\PSoC5/USBUART.c **** *          a result of an IN request. Valid values are between 0 and 512
1320:.\Generated_Source\PSoC5/USBUART.c **** *          (1023 for DMA with Automatic Buffer Management mode). The value 512
1321:.\Generated_Source\PSoC5/USBUART.c **** *          is applicable if only one endpoint is used.
1322:.\Generated_Source\PSoC5/USBUART.c **** *
1323:.\Generated_Source\PSoC5/USBUART.c **** *
1324:.\Generated_Source\PSoC5/USBUART.c **** * \reentrant
1325:.\Generated_Source\PSoC5/USBUART.c **** *  No.
1326:.\Generated_Source\PSoC5/USBUART.c **** *
1327:.\Generated_Source\PSoC5/USBUART.c **** *******************************************************************************/
1328:.\Generated_Source\PSoC5/USBUART.c **** void USBUART_LoadInEP(uint8 epNumber, const uint8 pData[], uint16 length)
1329:.\Generated_Source\PSoC5/USBUART.c ****                                                                         
1330:.\Generated_Source\PSoC5/USBUART.c **** {
 804              		.loc 1 1330 0
 805              		.cfi_startproc
 806              		@ args = 0, pretend = 0, frame = 0
 807              		@ frame_needed = 0, uses_anonymous_args = 0
 808              		@ link register save eliminated.
 809              	.LVL58:
1331:.\Generated_Source\PSoC5/USBUART.c ****     if ((epNumber > USBUART_EP0) && (epNumber < USBUART_MAX_EP))
 810              		.loc 1 1331 0
 811 0000 431E     		subs	r3, r0, #1
 812 0002 DBB2     		uxtb	r3, r3
 813 0004 072B     		cmp	r3, #7
 814 0006 3BD8     		bhi	.L62
1330:.\Generated_Source\PSoC5/USBUART.c ****     if ((epNumber > USBUART_EP0) && (epNumber < USBUART_MAX_EP))
 815              		.loc 1 1330 0
 816 0008 F0B4     		push	{r4, r5, r6, r7}
 817              		.cfi_def_cfa_offset 16
 818              		.cfi_offset 4, -16
 819              		.cfi_offset 5, -12
 820              		.cfi_offset 6, -8
 821              		.cfi_offset 7, -4
1332:.\Generated_Source\PSoC5/USBUART.c ****     {
1333:.\Generated_Source\PSoC5/USBUART.c ****     #if (!USBUART_EP_MANAGEMENT_DMA_AUTO)
ARM GAS  C:\Users\Tim\AppData\Local\Temp\ccA4EuzY.s 			page 39


1334:.\Generated_Source\PSoC5/USBUART.c ****         /* Limit length to available buffer USB IP buffer size.*/
1335:.\Generated_Source\PSoC5/USBUART.c ****         if (length > (USBUART_EPX_DATA_BUF_MAX - USBUART_EP[epNumber].buffOffset))
 822              		.loc 1 1335 0
 823 000a 0746     		mov	r7, r0
 824 000c 00EB4003 		add	r3, r0, r0, lsl #1
 825 0010 9B00     		lsls	r3, r3, #2
 826 0012 1C4C     		ldr	r4, .L63
 827 0014 2344     		add	r3, r3, r4
 828 0016 DB88     		ldrh	r3, [r3, #6]
 829 0018 9BB2     		uxth	r3, r3
 830 001a C3F50073 		rsb	r3, r3, #512
 831 001e 9A42     		cmp	r2, r3
 832 0020 07D9     		bls	.L55
1336:.\Generated_Source\PSoC5/USBUART.c ****         {
1337:.\Generated_Source\PSoC5/USBUART.c ****             length = USBUART_EPX_DATA_BUF_MAX - USBUART_EP[epNumber].buffOffset;
 833              		.loc 1 1337 0
 834 0022 00EB4003 		add	r3, r0, r0, lsl #1
 835 0026 9B00     		lsls	r3, r3, #2
 836 0028 2344     		add	r3, r3, r4
 837 002a DA88     		ldrh	r2, [r3, #6]
 838              	.LVL59:
 839 002c C2F50072 		rsb	r2, r2, #512
 840 0030 92B2     		uxth	r2, r2
 841              	.LVL60:
 842              	.L55:
1338:.\Generated_Source\PSoC5/USBUART.c ****         }
1339:.\Generated_Source\PSoC5/USBUART.c ****     #endif /* (!USBUART_EP_MANAGEMENT_DMA_AUTO) */
1340:.\Generated_Source\PSoC5/USBUART.c **** 
1341:.\Generated_Source\PSoC5/USBUART.c ****         /* Set count and data toggle. */
1342:.\Generated_Source\PSoC5/USBUART.c ****         USBUART_SIE_EP_BASE.sieEp[epNumber].epCnt0 = (uint8) HI8(length) | USBUART_EP[epNumber].epT
 843              		.loc 1 1342 0
 844 0032 00EB4003 		add	r3, r0, r0, lsl #1
 845 0036 9B00     		lsls	r3, r3, #2
 846 0038 124C     		ldr	r4, .L63
 847 003a 2344     		add	r3, r3, r4
 848 003c DB78     		ldrb	r3, [r3, #3]	@ zero_extendqisi2
 849 003e 43EA1223 		orr	r3, r3, r2, lsr #8
 850 0042 114D     		ldr	r5, .L63+4
 851 0044 0401     		lsls	r4, r0, #4
 852 0046 2E19     		adds	r6, r5, r4
 853 0048 2B55     		strb	r3, [r5, r4]
1343:.\Generated_Source\PSoC5/USBUART.c ****         USBUART_SIE_EP_BASE.sieEp[epNumber].epCnt1 = (uint8) LO8(length);
 854              		.loc 1 1343 0
 855 004a D3B2     		uxtb	r3, r2
 856 004c 7370     		strb	r3, [r6, #1]
1344:.\Generated_Source\PSoC5/USBUART.c **** 
1345:.\Generated_Source\PSoC5/USBUART.c ****     #if (USBUART_EP_MANAGEMENT_MANUAL)
1346:.\Generated_Source\PSoC5/USBUART.c ****         if (NULL != pData)
 857              		.loc 1 1346 0
 858 004e 39B9     		cbnz	r1, .L59
 859              	.LBB2:
 860 0050 09E0     		b	.L57
 861              	.LVL61:
 862              	.L58:
1347:.\Generated_Source\PSoC5/USBUART.c ****         {
1348:.\Generated_Source\PSoC5/USBUART.c **** 			/* Copy data using arbiter data register. */
1349:.\Generated_Source\PSoC5/USBUART.c ****             uint16 i;
ARM GAS  C:\Users\Tim\AppData\Local\Temp\ccA4EuzY.s 			page 40


1350:.\Generated_Source\PSoC5/USBUART.c ****             for (i = 0u; i < length; ++i)
1351:.\Generated_Source\PSoC5/USBUART.c ****             {
1352:.\Generated_Source\PSoC5/USBUART.c ****                 USBUART_ARB_EP_BASE.arbEp[epNumber].rwDr = pData[i];
 863              		.loc 1 1352 0 discriminator 3
 864 0052 CE5C     		ldrb	r6, [r1, r3]	@ zero_extendqisi2
 865 0054 3D01     		lsls	r5, r7, #4
 866 0056 0D4C     		ldr	r4, .L63+8
 867 0058 6655     		strb	r6, [r4, r5]
1350:.\Generated_Source\PSoC5/USBUART.c ****             {
 868              		.loc 1 1350 0 discriminator 3
 869 005a 0133     		adds	r3, r3, #1
 870              	.LVL62:
 871 005c 9BB2     		uxth	r3, r3
 872              	.LVL63:
 873 005e 00E0     		b	.L56
 874              	.LVL64:
 875              	.L59:
 876              	.LBE2:
 877 0060 0023     		movs	r3, #0
 878              	.L56:
 879              	.LVL65:
 880              	.LBB3:
1350:.\Generated_Source\PSoC5/USBUART.c ****             {
 881              		.loc 1 1350 0 is_stmt 0 discriminator 1
 882 0062 9342     		cmp	r3, r2
 883 0064 F5D3     		bcc	.L58
 884              	.LVL66:
 885              	.L57:
 886              	.LBE3:
1353:.\Generated_Source\PSoC5/USBUART.c ****             }
1354:.\Generated_Source\PSoC5/USBUART.c ****         }
1355:.\Generated_Source\PSoC5/USBUART.c **** 
1356:.\Generated_Source\PSoC5/USBUART.c ****         /* IN endpoint buffer is full - read to be read. */
1357:.\Generated_Source\PSoC5/USBUART.c ****         USBUART_EP[epNumber].apiEpState = USBUART_NO_EVENT_PENDING;
 887              		.loc 1 1357 0 is_stmt 1
 888 0066 4300     		lsls	r3, r0, #1
 889 0068 0344     		add	r3, r3, r0
 890 006a 9B00     		lsls	r3, r3, #2
 891 006c 054A     		ldr	r2, .L63
 892              	.LVL67:
 893 006e 1344     		add	r3, r3, r2
 894 0070 0022     		movs	r2, #0
 895 0072 5A70     		strb	r2, [r3, #1]
1358:.\Generated_Source\PSoC5/USBUART.c **** 
1359:.\Generated_Source\PSoC5/USBUART.c ****         /* Arm IN endpoint. */
1360:.\Generated_Source\PSoC5/USBUART.c ****         USBUART_SIE_EP_BASE.sieEp[epNumber].epCr0 = USBUART_EP[epNumber].epMode;
 896              		.loc 1 1360 0
 897 0074 5A79     		ldrb	r2, [r3, #5]	@ zero_extendqisi2
 898 0076 D2B2     		uxtb	r2, r2
 899 0078 0001     		lsls	r0, r0, #4
 900              	.LVL68:
 901 007a 054B     		ldr	r3, .L63+12
 902 007c 1A54     		strb	r2, [r3, r0]
1361:.\Generated_Source\PSoC5/USBUART.c **** 
1362:.\Generated_Source\PSoC5/USBUART.c ****     #else
1363:.\Generated_Source\PSoC5/USBUART.c **** 
1364:.\Generated_Source\PSoC5/USBUART.c ****         #if (CY_PSOC3 || CY_PSOC5LP)
ARM GAS  C:\Users\Tim\AppData\Local\Temp\ccA4EuzY.s 			page 41


1365:.\Generated_Source\PSoC5/USBUART.c ****             /* Initialize DMA if it was not initialized. */
1366:.\Generated_Source\PSoC5/USBUART.c ****             if (DMA_INVALID_TD == USBUART_DmaTd[epNumber])
1367:.\Generated_Source\PSoC5/USBUART.c ****             {
1368:.\Generated_Source\PSoC5/USBUART.c ****                 USBUART_InitEP_DMA(epNumber, pData);
1369:.\Generated_Source\PSoC5/USBUART.c ****             }
1370:.\Generated_Source\PSoC5/USBUART.c ****         #endif /* (CY_PSOC3 || CY_PSOC5LP) */
1371:.\Generated_Source\PSoC5/USBUART.c **** 
1372:.\Generated_Source\PSoC5/USBUART.c ****         #if (USBUART_EP_MANAGEMENT_DMA_MANUAL)
1373:.\Generated_Source\PSoC5/USBUART.c ****             /* IN endpoint buffer will be fully loaded by DMA shortly. */
1374:.\Generated_Source\PSoC5/USBUART.c ****             USBUART_EP[epNumber].apiEpState = USBUART_NO_EVENT_PENDING;
1375:.\Generated_Source\PSoC5/USBUART.c **** 
1376:.\Generated_Source\PSoC5/USBUART.c ****             if ((pData != NULL) && (length > 0u))
1377:.\Generated_Source\PSoC5/USBUART.c ****             {
1378:.\Generated_Source\PSoC5/USBUART.c ****             #if (CY_PSOC4)
1379:.\Generated_Source\PSoC5/USBUART.c ****                 uint32 channelNum = (uint32) USBUART_DmaChan[epNumber];
1380:.\Generated_Source\PSoC5/USBUART.c **** 
1381:.\Generated_Source\PSoC5/USBUART.c ****                 /* Disable DMA channel: start configuration. */
1382:.\Generated_Source\PSoC5/USBUART.c ****                 USBUART_CyDmaChDisable(channelNum);
1383:.\Generated_Source\PSoC5/USBUART.c **** 
1384:.\Generated_Source\PSoC5/USBUART.c ****                 /* Configure source and destination. */
1385:.\Generated_Source\PSoC5/USBUART.c ****                 USBUART_CyDmaSetSrcAddress(channelNum, USBUART_DMA_DESCR0, (void*) pData);
1386:.\Generated_Source\PSoC5/USBUART.c ****                 USBUART_CyDmaSetDstAddress(channelNum, USBUART_DMA_DESCR0, (void*) &USBUART_ARB_EP_
1387:.\Generated_Source\PSoC5/USBUART.c **** 
1388:.\Generated_Source\PSoC5/USBUART.c ****                 /* Configure DMA descriptor. */
1389:.\Generated_Source\PSoC5/USBUART.c ****                 --length;
1390:.\Generated_Source\PSoC5/USBUART.c ****                 USBUART_CyDmaSetConfiguration(channelNum, USBUART_DMA_DESCR0, USBUART_DMA_COMMON_CF
1391:.\Generated_Source\PSoC5/USBUART.c ****                                                         CYDMA_BYTE | CYDMA_ELEMENT_WORD | CYDMA_INC
1392:.\Generated_Source\PSoC5/USBUART.c **** 
1393:.\Generated_Source\PSoC5/USBUART.c ****                 /* Validate descriptor to execute on following DMA request. */
1394:.\Generated_Source\PSoC5/USBUART.c ****                 USBUART_CyDmaValidateDescriptor(channelNum, USBUART_DMA_DESCR0);
1395:.\Generated_Source\PSoC5/USBUART.c **** 
1396:.\Generated_Source\PSoC5/USBUART.c ****                 /* Enable DMA channel: configuration complete. */
1397:.\Generated_Source\PSoC5/USBUART.c ****                 USBUART_CyDmaChEnable(channelNum);
1398:.\Generated_Source\PSoC5/USBUART.c ****             #else
1399:.\Generated_Source\PSoC5/USBUART.c ****                 /* Configure DMA to transfer data. */
1400:.\Generated_Source\PSoC5/USBUART.c ****                 (void) CyDmaChDisable(USBUART_DmaChan[epNumber]);
1401:.\Generated_Source\PSoC5/USBUART.c ****                 (void) CyDmaTdSetConfiguration(USBUART_DmaTd[epNumber], length, CY_DMA_DISABLE_TD, 
1402:.\Generated_Source\PSoC5/USBUART.c ****                 (void) CyDmaTdSetAddress(USBUART_DmaTd[epNumber], LO16((uint32) pData), LO16((uint3
1403:.\Generated_Source\PSoC5/USBUART.c **** 
1404:.\Generated_Source\PSoC5/USBUART.c ****                 /* Enable DMA channel. */
1405:.\Generated_Source\PSoC5/USBUART.c ****                 (void) CyDmaChSetInitialTd(USBUART_DmaChan[epNumber], USBUART_DmaTd[epNumber]);
1406:.\Generated_Source\PSoC5/USBUART.c ****                 (void) CyDmaChEnable(USBUART_DmaChan[epNumber], 1u);
1407:.\Generated_Source\PSoC5/USBUART.c ****             #endif /* (CY_PSOC4) */
1408:.\Generated_Source\PSoC5/USBUART.c **** 
1409:.\Generated_Source\PSoC5/USBUART.c ****                 /* Generate DMA request. */
1410:.\Generated_Source\PSoC5/USBUART.c ****                 USBUART_ARB_EP_BASE.arbEp[epNumber].epCfg |=  (uint8)  USBUART_ARB_EPX_CFG_DMA_REQ;
1411:.\Generated_Source\PSoC5/USBUART.c ****                 USBUART_ARB_EP_BASE.arbEp[epNumber].epCfg &=  (uint8) ~USBUART_ARB_EPX_CFG_DMA_REQ;
1412:.\Generated_Source\PSoC5/USBUART.c **** 
1413:.\Generated_Source\PSoC5/USBUART.c ****                 /* IN endpoint will be armed in ARB_ISR(source: IN_BUF_FULL) after first DMA transf
1414:.\Generated_Source\PSoC5/USBUART.c ****             }
1415:.\Generated_Source\PSoC5/USBUART.c ****             else
1416:.\Generated_Source\PSoC5/USBUART.c ****             {
1417:.\Generated_Source\PSoC5/USBUART.c ****                 /* When zero-length packet: arm IN endpoint directly. */
1418:.\Generated_Source\PSoC5/USBUART.c ****                 USBUART_SIE_EP_BASE.sieEp[epNumber].epCr0 = USBUART_EP[epNumber].epMode;
1419:.\Generated_Source\PSoC5/USBUART.c ****             }
1420:.\Generated_Source\PSoC5/USBUART.c ****         #endif /* (USBUART_EP_MANAGEMENT_DMA_MANUAL) */
1421:.\Generated_Source\PSoC5/USBUART.c **** 
ARM GAS  C:\Users\Tim\AppData\Local\Temp\ccA4EuzY.s 			page 42


1422:.\Generated_Source\PSoC5/USBUART.c ****         #if (USBUART_EP_MANAGEMENT_DMA_AUTO)
1423:.\Generated_Source\PSoC5/USBUART.c ****             if (pData != NULL)
1424:.\Generated_Source\PSoC5/USBUART.c ****             {
1425:.\Generated_Source\PSoC5/USBUART.c ****             #if (CY_PSOC4)
1426:.\Generated_Source\PSoC5/USBUART.c ****                 uint32 channelNum = (uint32) USBUART_DmaChan[epNumber];
1427:.\Generated_Source\PSoC5/USBUART.c **** 
1428:.\Generated_Source\PSoC5/USBUART.c ****                 /* Store address of buffer. */
1429:.\Generated_Source\PSoC5/USBUART.c ****                 USBUART_DmaEpBufferAddrBackup[epNumber] = (uint32) pData;
1430:.\Generated_Source\PSoC5/USBUART.c **** 
1431:.\Generated_Source\PSoC5/USBUART.c ****                 /* Disable DMA channel: start configuration. */
1432:.\Generated_Source\PSoC5/USBUART.c ****                 USBUART_CyDmaChDisable(channelNum);
1433:.\Generated_Source\PSoC5/USBUART.c **** 
1434:.\Generated_Source\PSoC5/USBUART.c ****                 /* Set destination address. */
1435:.\Generated_Source\PSoC5/USBUART.c ****                 USBUART_CyDmaSetDstAddress(channelNum, USBUART_DMA_DESCR0, (void*) &USBUART_ARB_EP_
1436:.\Generated_Source\PSoC5/USBUART.c ****                 USBUART_CyDmaSetDstAddress(channelNum, USBUART_DMA_DESCR1, (void*) &USBUART_ARB_EP_
1437:.\Generated_Source\PSoC5/USBUART.c **** 
1438:.\Generated_Source\PSoC5/USBUART.c ****                 /* Configure DMA descriptor. */
1439:.\Generated_Source\PSoC5/USBUART.c ****                 USBUART_CyDmaSetConfiguration(channelNum, USBUART_DMA_DESCR0, USBUART_DMA_COMMON_CF
1440:.\Generated_Source\PSoC5/USBUART.c ****                                                         CYDMA_BYTE | CYDMA_ELEMENT_WORD | CYDMA_INC
1441:.\Generated_Source\PSoC5/USBUART.c **** 
1442:.\Generated_Source\PSoC5/USBUART.c ****                 /* Configure DMA descriptor. */
1443:.\Generated_Source\PSoC5/USBUART.c ****                 USBUART_CyDmaSetConfiguration(channelNum, USBUART_DMA_DESCR1, USBUART_DMA_COMMON_CF
1444:.\Generated_Source\PSoC5/USBUART.c ****                                                         CYDMA_BYTE | CYDMA_ELEMENT_WORD | CYDMA_INC
1445:.\Generated_Source\PSoC5/USBUART.c **** 
1446:.\Generated_Source\PSoC5/USBUART.c ****                 /* Enable interrupt from DMA channel. */
1447:.\Generated_Source\PSoC5/USBUART.c ****                 USBUART_CyDmaSetInterruptMask(channelNum);
1448:.\Generated_Source\PSoC5/USBUART.c **** 
1449:.\Generated_Source\PSoC5/USBUART.c ****                 /* Validate descriptor 1. It will not be invalided during operation. */
1450:.\Generated_Source\PSoC5/USBUART.c ****                 USBUART_CyDmaValidateDescriptor(channelNum, USBUART_DMA_DESCR1);
1451:.\Generated_Source\PSoC5/USBUART.c **** 
1452:.\Generated_Source\PSoC5/USBUART.c ****                 /* Enable DMA channel: configuration complete. */
1453:.\Generated_Source\PSoC5/USBUART.c ****                 USBUART_CyDmaChEnable(channelNum);
1454:.\Generated_Source\PSoC5/USBUART.c **** 
1455:.\Generated_Source\PSoC5/USBUART.c ****             #else
1456:.\Generated_Source\PSoC5/USBUART.c ****                 (void) CyDmaChDisable(USBUART_DmaChan[epNumber]);
1457:.\Generated_Source\PSoC5/USBUART.c **** 
1458:.\Generated_Source\PSoC5/USBUART.c ****                 #if (USBUART_EP_DMA_AUTO_OPT == 0u)
1459:.\Generated_Source\PSoC5/USBUART.c ****                     USBUART_inLength[epNumber] = length;
1460:.\Generated_Source\PSoC5/USBUART.c ****                     USBUART_inDataPointer[epNumber] = pData;
1461:.\Generated_Source\PSoC5/USBUART.c **** 
1462:.\Generated_Source\PSoC5/USBUART.c ****                     /* Configure DMA to send data only for first burst */
1463:.\Generated_Source\PSoC5/USBUART.c ****                     (void) CyDmaTdSetConfiguration(USBUART_DmaTd[epNumber],
1464:.\Generated_Source\PSoC5/USBUART.c ****                         (length > USBUART_DMA_BYTES_PER_BURST) ? USBUART_DMA_BYTES_PER_BURST : leng
1465:.\Generated_Source\PSoC5/USBUART.c ****                         USBUART_DmaNextTd[epNumber], TD_TERMIN_EN | TD_INC_SRC_ADR);
1466:.\Generated_Source\PSoC5/USBUART.c ****                     (void) CyDmaTdSetAddress(USBUART_DmaTd[epNumber], LO16((uint32) pData),
1467:.\Generated_Source\PSoC5/USBUART.c ****                                                                                LO16((uint32) &USBUA
1468:.\Generated_Source\PSoC5/USBUART.c **** 
1469:.\Generated_Source\PSoC5/USBUART.c ****                     /* The second TD will be executed only when the first one fails.
1470:.\Generated_Source\PSoC5/USBUART.c ****                     *  The intention of this TD is to generate NRQ interrupt
1471:.\Generated_Source\PSoC5/USBUART.c ****                     *  and repeat 2 last bytes of the first burst.
1472:.\Generated_Source\PSoC5/USBUART.c ****                     */
1473:.\Generated_Source\PSoC5/USBUART.c ****                     (void) CyDmaTdSetConfiguration(USBUART_DmaNextTd[epNumber], 1u,
1474:.\Generated_Source\PSoC5/USBUART.c ****                                                    USBUART_DmaNextTd[epNumber],
1475:.\Generated_Source\PSoC5/USBUART.c ****                                                    USBUART_epX_TD_TERMOUT_EN[epNumber]);
1476:.\Generated_Source\PSoC5/USBUART.c **** 
1477:.\Generated_Source\PSoC5/USBUART.c ****                     /* Configure DmaNextTd to clear Data Ready status. */
1478:.\Generated_Source\PSoC5/USBUART.c ****                     (void) CyDmaTdSetAddress(USBUART_DmaNextTd[epNumber], LO16((uint32) &clearInDat
ARM GAS  C:\Users\Tim\AppData\Local\Temp\ccA4EuzY.s 			page 43


1479:.\Generated_Source\PSoC5/USBUART.c ****                                                                                    LO16((uint32) &U
1480:.\Generated_Source\PSoC5/USBUART.c ****                 #else
1481:.\Generated_Source\PSoC5/USBUART.c ****                     /* Configure DMA to send all data. */
1482:.\Generated_Source\PSoC5/USBUART.c ****                     (void) CyDmaTdSetConfiguration(USBUART_DmaTd[epNumber], length,
1483:.\Generated_Source\PSoC5/USBUART.c ****                                                    USBUART_DmaTd[epNumber], TD_TERMIN_EN | TD_INC_S
1484:.\Generated_Source\PSoC5/USBUART.c ****                     (void) CyDmaTdSetAddress(USBUART_DmaTd[epNumber], LO16((uint32) pData),
1485:.\Generated_Source\PSoC5/USBUART.c ****                                                                                LO16((uint32) &USBUA
1486:.\Generated_Source\PSoC5/USBUART.c ****                 #endif /* (USBUART_EP_DMA_AUTO_OPT == 0u) */
1487:.\Generated_Source\PSoC5/USBUART.c **** 
1488:.\Generated_Source\PSoC5/USBUART.c ****                 /* Clear any potential pending DMA requests before starting DMA channel to transfer
1489:.\Generated_Source\PSoC5/USBUART.c ****                 (void) CyDmaClearPendingDrq(USBUART_DmaChan[epNumber]);
1490:.\Generated_Source\PSoC5/USBUART.c ****                 /* Enable DMA. */
1491:.\Generated_Source\PSoC5/USBUART.c ****                 (void) CyDmaChSetInitialTd(USBUART_DmaChan[epNumber], USBUART_DmaTd[epNumber]);
1492:.\Generated_Source\PSoC5/USBUART.c ****                 (void) CyDmaChEnable(USBUART_DmaChan[epNumber], 1u);
1493:.\Generated_Source\PSoC5/USBUART.c ****             #endif /* (CY_PSOC4) */
1494:.\Generated_Source\PSoC5/USBUART.c ****             }
1495:.\Generated_Source\PSoC5/USBUART.c ****             else
1496:.\Generated_Source\PSoC5/USBUART.c ****             {
1497:.\Generated_Source\PSoC5/USBUART.c ****                 /* IN endpoint buffer (32 bytes) will shortly be preloaded by DMA. */
1498:.\Generated_Source\PSoC5/USBUART.c ****                 USBUART_EP[epNumber].apiEpState = USBUART_NO_EVENT_PENDING;
1499:.\Generated_Source\PSoC5/USBUART.c **** 
1500:.\Generated_Source\PSoC5/USBUART.c ****                 if (length > 0u)
1501:.\Generated_Source\PSoC5/USBUART.c ****                 {
1502:.\Generated_Source\PSoC5/USBUART.c ****                 #if (CY_PSOC4)
1503:.\Generated_Source\PSoC5/USBUART.c ****                     uint32 lengthDescr0, lengthDescr1;
1504:.\Generated_Source\PSoC5/USBUART.c ****                     uint32 channelNum = (uint32) USBUART_DmaChan[epNumber];
1505:.\Generated_Source\PSoC5/USBUART.c **** 
1506:.\Generated_Source\PSoC5/USBUART.c ****                     /* Get number of full bursts. */
1507:.\Generated_Source\PSoC5/USBUART.c ****                     USBUART_DmaEpBurstCnt[epNumber] = (uint8) (length / USBUART_DMA_BYTES_PER_BURST
1508:.\Generated_Source\PSoC5/USBUART.c **** 
1509:.\Generated_Source\PSoC5/USBUART.c ****                     /* Get number of elements in the last burst. */
1510:.\Generated_Source\PSoC5/USBUART.c ****                     USBUART_DmaEpLastBurstEl[epNumber] = (uint8) (length % USBUART_DMA_BYTES_PER_BU
1511:.\Generated_Source\PSoC5/USBUART.c **** 
1512:.\Generated_Source\PSoC5/USBUART.c ****                     /* Get total number of bursts. */
1513:.\Generated_Source\PSoC5/USBUART.c ****                     USBUART_DmaEpBurstCnt[epNumber] += (0u != USBUART_DmaEpLastBurstEl[epNumber]) ?
1514:.\Generated_Source\PSoC5/USBUART.c **** 
1515:.\Generated_Source\PSoC5/USBUART.c ****                     /* Adjust number of data elements transferred in last burst. */
1516:.\Generated_Source\PSoC5/USBUART.c ****                     USBUART_DmaEpLastBurstEl[epNumber] = (0u != USBUART_DmaEpLastBurstEl[epNumber])
1517:.\Generated_Source\PSoC5/USBUART.c ****                                                                           (USBUART_DmaEpLastBurstEl
1518:.\Generated_Source\PSoC5/USBUART.c ****                                                                           (USBUART_DMA_BYTES_PER_BU
1519:.\Generated_Source\PSoC5/USBUART.c **** 
1520:.\Generated_Source\PSoC5/USBUART.c ****                     /* Get number of data elements to transfer for descriptor 0 and 1. */
1521:.\Generated_Source\PSoC5/USBUART.c ****                     lengthDescr0 = (1u == USBUART_DmaEpBurstCnt[epNumber]) ? USBUART_DmaEpLastBurst
1522:.\Generated_Source\PSoC5/USBUART.c ****                     lengthDescr1 = (2u == USBUART_DmaEpBurstCnt[epNumber]) ? USBUART_DmaEpLastBurst
1523:.\Generated_Source\PSoC5/USBUART.c **** 
1524:.\Generated_Source\PSoC5/USBUART.c **** 
1525:.\Generated_Source\PSoC5/USBUART.c ****                     /* Mark which descriptor is last one to execute. */
1526:.\Generated_Source\PSoC5/USBUART.c ****                     USBUART_DmaEpLastBurstEl[epNumber] |= (0u != (USBUART_DmaEpBurstCnt[epNumber] &
1527:.\Generated_Source\PSoC5/USBUART.c ****                                                                             USBUART_DMA_DESCR0_MASK
1528:.\Generated_Source\PSoC5/USBUART.c **** 
1529:.\Generated_Source\PSoC5/USBUART.c ****                     /* Adjust burst counter taking to account: 2 valid descriptors and interrupt tr
1530:.\Generated_Source\PSoC5/USBUART.c ****                     USBUART_DmaEpBurstCnt[epNumber] = USBUART_DMA_GET_BURST_CNT(USBUART_DmaEpBurstC
1531:.\Generated_Source\PSoC5/USBUART.c **** 
1532:.\Generated_Source\PSoC5/USBUART.c ****                     /* Restore DMA settings for current transfer. */
1533:.\Generated_Source\PSoC5/USBUART.c ****                     USBUART_CyDmaChDisable(channelNum);
1534:.\Generated_Source\PSoC5/USBUART.c **** 
1535:.\Generated_Source\PSoC5/USBUART.c ****                     /* Restore destination address for input endpoint. */
ARM GAS  C:\Users\Tim\AppData\Local\Temp\ccA4EuzY.s 			page 44


1536:.\Generated_Source\PSoC5/USBUART.c ****                     USBUART_CyDmaSetSrcAddress(channelNum, USBUART_DMA_DESCR0, (void*) ((uint32) US
1537:.\Generated_Source\PSoC5/USBUART.c ****                     USBUART_CyDmaSetSrcAddress(channelNum, USBUART_DMA_DESCR1, (void*) ((uint32) US
1538:.\Generated_Source\PSoC5/USBUART.c ****                                                                                                    
1539:.\Generated_Source\PSoC5/USBUART.c **** 
1540:.\Generated_Source\PSoC5/USBUART.c ****                     /* Set number of elements to transfer. */
1541:.\Generated_Source\PSoC5/USBUART.c ****                     USBUART_CyDmaSetNumDataElements(channelNum, USBUART_DMA_DESCR0, lengthDescr0);
1542:.\Generated_Source\PSoC5/USBUART.c ****                     USBUART_CyDmaSetNumDataElements(channelNum, USBUART_DMA_DESCR1, lengthDescr1);
1543:.\Generated_Source\PSoC5/USBUART.c **** 
1544:.\Generated_Source\PSoC5/USBUART.c ****                     /* Validate descriptor 0 and command to start with it. */
1545:.\Generated_Source\PSoC5/USBUART.c ****                     USBUART_CyDmaValidateDescriptor(channelNum, USBUART_DMA_DESCR0);
1546:.\Generated_Source\PSoC5/USBUART.c ****                     USBUART_CyDmaSetDescriptor0Next(channelNum);
1547:.\Generated_Source\PSoC5/USBUART.c **** 
1548:.\Generated_Source\PSoC5/USBUART.c ****                     /* Enable DMA channel: configuration complete. */
1549:.\Generated_Source\PSoC5/USBUART.c ****                     USBUART_CyDmaChEnable(channelNum);
1550:.\Generated_Source\PSoC5/USBUART.c **** 
1551:.\Generated_Source\PSoC5/USBUART.c ****                 #elif (USBUART_EP_DMA_AUTO_OPT == 0u)
1552:.\Generated_Source\PSoC5/USBUART.c ****                     USBUART_inLength[epNumber]  = length;
1553:.\Generated_Source\PSoC5/USBUART.c ****                     USBUART_inBufFull[epNumber] = 0u;
1554:.\Generated_Source\PSoC5/USBUART.c **** 
1555:.\Generated_Source\PSoC5/USBUART.c ****                     (void) CyDmaChDisable(USBUART_DmaChan[epNumber]);
1556:.\Generated_Source\PSoC5/USBUART.c ****                     /* Configure DMA to send data only for first burst. */
1557:.\Generated_Source\PSoC5/USBUART.c ****                     (void) CyDmaTdSetConfiguration(
1558:.\Generated_Source\PSoC5/USBUART.c ****                         USBUART_DmaTd[epNumber], (length > USBUART_DMA_BYTES_PER_BURST) ?
1559:.\Generated_Source\PSoC5/USBUART.c ****                         USBUART_DMA_BYTES_PER_BURST : length,
1560:.\Generated_Source\PSoC5/USBUART.c ****                         USBUART_DmaNextTd[epNumber], TD_TERMIN_EN | TD_INC_SRC_ADR );
1561:.\Generated_Source\PSoC5/USBUART.c ****                     (void) CyDmaTdSetAddress(USBUART_DmaTd[epNumber], LO16((uint32)  USBUART_inData
1562:.\Generated_Source\PSoC5/USBUART.c ****                                                                                LO16((uint32) &USBUA
1563:.\Generated_Source\PSoC5/USBUART.c ****                     /* Clear Any potential pending DMA requests before starting DMA channel to tran
1564:.\Generated_Source\PSoC5/USBUART.c ****                     (void) CyDmaClearPendingDrq(USBUART_DmaChan[epNumber]);
1565:.\Generated_Source\PSoC5/USBUART.c ****                     /* Enable DMA. */
1566:.\Generated_Source\PSoC5/USBUART.c ****                     (void) CyDmaChSetInitialTd(USBUART_DmaChan[epNumber], USBUART_DmaTd[epNumber]);
1567:.\Generated_Source\PSoC5/USBUART.c ****                     (void) CyDmaChEnable(USBUART_DmaChan[epNumber], 1u);
1568:.\Generated_Source\PSoC5/USBUART.c ****                 #endif /* (CY_PSOC4) */
1569:.\Generated_Source\PSoC5/USBUART.c **** 
1570:.\Generated_Source\PSoC5/USBUART.c ****                 #if !defined (USBUART_MANUAL_IN_EP_ARM)
1571:.\Generated_Source\PSoC5/USBUART.c ****                     /* Set IN data ready to generate DMA request to load data into endpoint buffer.
1572:.\Generated_Source\PSoC5/USBUART.c ****                     USBUART_ARB_EP_BASE.arbEp[epNumber].epCfg |= USBUART_ARB_EPX_CFG_IN_DATA_RDY;
1573:.\Generated_Source\PSoC5/USBUART.c ****                 #endif  /* (USBUART_MANUAL_IN_EP_ARM) */
1574:.\Generated_Source\PSoC5/USBUART.c **** 
1575:.\Generated_Source\PSoC5/USBUART.c ****                     /* IN endpoint will be armed in ARB_ISR(source: IN_BUF_FULL) after first DMA tr
1576:.\Generated_Source\PSoC5/USBUART.c ****                 }
1577:.\Generated_Source\PSoC5/USBUART.c ****                 else
1578:.\Generated_Source\PSoC5/USBUART.c ****                 {
1579:.\Generated_Source\PSoC5/USBUART.c ****                     /* When zero-length packet: arm IN endpoint directly. */
1580:.\Generated_Source\PSoC5/USBUART.c ****                     USBUART_SIE_EP_BASE.sieEp[epNumber].epCr0 = USBUART_EP[epNumber].epMode;
1581:.\Generated_Source\PSoC5/USBUART.c ****                 }
1582:.\Generated_Source\PSoC5/USBUART.c ****             }
1583:.\Generated_Source\PSoC5/USBUART.c ****         #endif /* (USBUART_EP_MANAGEMENT_DMA_AUTO) */
1584:.\Generated_Source\PSoC5/USBUART.c ****     #endif /* (USBUART_EP_MANAGEMENT_MANUAL) */
1585:.\Generated_Source\PSoC5/USBUART.c ****     }
1586:.\Generated_Source\PSoC5/USBUART.c **** }
 903              		.loc 1 1586 0
 904 007e F0BC     		pop	{r4, r5, r6, r7}
 905              		.cfi_restore 7
 906              		.cfi_restore 6
 907              		.cfi_restore 5
 908              		.cfi_restore 4
ARM GAS  C:\Users\Tim\AppData\Local\Temp\ccA4EuzY.s 			page 45


 909              		.cfi_def_cfa_offset 0
 910              	.L62:
 911 0080 7047     		bx	lr
 912              	.L64:
 913 0082 00BF     		.align	2
 914              	.L63:
 915 0084 00000000 		.word	USBUART_EP
 916 0088 FC5F0040 		.word	1073766396
 917 008c 78600040 		.word	1073766520
 918 0090 FE5F0040 		.word	1073766398
 919              		.cfi_endproc
 920              	.LFE11:
 921              		.size	USBUART_LoadInEP, .-USBUART_LoadInEP
 922              		.section	.text.USBUART_EnableOutEP,"ax",%progbits
 923              		.align	2
 924              		.global	USBUART_EnableOutEP
 925              		.thumb
 926              		.thumb_func
 927              		.type	USBUART_EnableOutEP, %function
 928              	USBUART_EnableOutEP:
 929              	.LFB13:
1587:.\Generated_Source\PSoC5/USBUART.c **** 
1588:.\Generated_Source\PSoC5/USBUART.c **** 
1589:.\Generated_Source\PSoC5/USBUART.c **** /*******************************************************************************
1590:.\Generated_Source\PSoC5/USBUART.c **** * Function Name: USBUART_ReadOutEP
1591:.\Generated_Source\PSoC5/USBUART.c **** ****************************************************************************//**
1592:.\Generated_Source\PSoC5/USBUART.c **** *
1593:.\Generated_Source\PSoC5/USBUART.c **** *   This function performs different functionality depending on the Component’s
1594:.\Generated_Source\PSoC5/USBUART.c **** *   configured Endpoint Buffer Management. This parameter is defined in the
1595:.\Generated_Source\PSoC5/USBUART.c **** *   Descriptor Root in Component Configure window.
1596:.\Generated_Source\PSoC5/USBUART.c **** *
1597:.\Generated_Source\PSoC5/USBUART.c **** *   *Manual (Static/Dynamic Allocation):*
1598:.\Generated_Source\PSoC5/USBUART.c **** *   This function moves the specified number of bytes from endpoint buffer to
1599:.\Generated_Source\PSoC5/USBUART.c **** *   system RAM. The number of bytes actually transferred from endpoint buffer to
1600:.\Generated_Source\PSoC5/USBUART.c **** *   system RAM is the lesser of the actual number of bytes sent by the host or
1601:.\Generated_Source\PSoC5/USBUART.c **** *   the number of bytes requested by the length parameter.
1602:.\Generated_Source\PSoC5/USBUART.c **** *
1603:.\Generated_Source\PSoC5/USBUART.c **** *   *DMA with Manual Buffer Management:*
1604:.\Generated_Source\PSoC5/USBUART.c **** *   Configure DMA to transfer data from endpoint buffer to system RAM. Generate
1605:.\Generated_Source\PSoC5/USBUART.c **** *   a DMA request. The firmware must wait until the DMA completes the data
1606:.\Generated_Source\PSoC5/USBUART.c **** *   transfer after calling the USBUART_ReadOutEP() API. For example,
1607:.\Generated_Source\PSoC5/USBUART.c **** *   by checking EPstate:
1608:.\Generated_Source\PSoC5/USBUART.c **** *
1609:.\Generated_Source\PSoC5/USBUART.c **** *   \snippet /USBFS_sut_02.cydsn/main.c checking EPstatey
1610:.\Generated_Source\PSoC5/USBUART.c **** *
1611:.\Generated_Source\PSoC5/USBUART.c **** *   The USBFS_EnableOutEP() has to be called to allow host to write data into
1612:.\Generated_Source\PSoC5/USBUART.c **** *   the endpoint buffer after DMA has completed transfer data from OUT endpoint
1613:.\Generated_Source\PSoC5/USBUART.c **** *   buffer to SRAM.
1614:.\Generated_Source\PSoC5/USBUART.c **** *
1615:.\Generated_Source\PSoC5/USBUART.c **** *   *DMA with Automatic Buffer Management:*
1616:.\Generated_Source\PSoC5/USBUART.c **** *   Configure DMA. This is required only once and automatically generates DMA
1617:.\Generated_Source\PSoC5/USBUART.c **** *   requests as data arrives
1618:.\Generated_Source\PSoC5/USBUART.c **** *
1619:.\Generated_Source\PSoC5/USBUART.c **** *  \param epNumber: Contains the data endpoint number.
1620:.\Generated_Source\PSoC5/USBUART.c **** *            Valid values are between 1 and 8.
1621:.\Generated_Source\PSoC5/USBUART.c **** *  \param pData: A pointer to a data array from which the data for the endpoint
1622:.\Generated_Source\PSoC5/USBUART.c **** *         space is loaded.
ARM GAS  C:\Users\Tim\AppData\Local\Temp\ccA4EuzY.s 			page 46


1623:.\Generated_Source\PSoC5/USBUART.c **** *  \param length: The number of bytes to transfer from the USB Out endpoint and
1624:.\Generated_Source\PSoC5/USBUART.c **** *          loads it into data array. Valid values are between 0 and 1023. The
1625:.\Generated_Source\PSoC5/USBUART.c **** *          function moves fewer than the requested number of bytes if the host
1626:.\Generated_Source\PSoC5/USBUART.c **** *          sends fewer bytes than requested.
1627:.\Generated_Source\PSoC5/USBUART.c **** *
1628:.\Generated_Source\PSoC5/USBUART.c **** * \return
1629:.\Generated_Source\PSoC5/USBUART.c **** *  Number of bytes received, 0 for an invalid endpoint.
1630:.\Generated_Source\PSoC5/USBUART.c **** *
1631:.\Generated_Source\PSoC5/USBUART.c **** * \reentrant
1632:.\Generated_Source\PSoC5/USBUART.c **** *  No.
1633:.\Generated_Source\PSoC5/USBUART.c **** *
1634:.\Generated_Source\PSoC5/USBUART.c **** *******************************************************************************/
1635:.\Generated_Source\PSoC5/USBUART.c **** uint16 USBUART_ReadOutEP(uint8 epNumber, uint8 pData[], uint16 length)
1636:.\Generated_Source\PSoC5/USBUART.c ****                                                                         
1637:.\Generated_Source\PSoC5/USBUART.c **** {
1638:.\Generated_Source\PSoC5/USBUART.c ****     if ((pData != NULL) && (epNumber > USBUART_EP0) && (epNumber < USBUART_MAX_EP))
1639:.\Generated_Source\PSoC5/USBUART.c ****     {
1640:.\Generated_Source\PSoC5/USBUART.c ****     #if (!USBUART_EP_MANAGEMENT_DMA_AUTO)
1641:.\Generated_Source\PSoC5/USBUART.c ****         /* Adjust requested length to available data. */
1642:.\Generated_Source\PSoC5/USBUART.c ****         length = (length > USBUART_GetEPCount(epNumber)) ? USBUART_GetEPCount(epNumber) : length;
1643:.\Generated_Source\PSoC5/USBUART.c ****     #endif /* (!USBUART_EP_MANAGEMENT_DMA_AUTO) */
1644:.\Generated_Source\PSoC5/USBUART.c **** 
1645:.\Generated_Source\PSoC5/USBUART.c ****     #if (USBUART_EP_MANAGEMENT_MANUAL)
1646:.\Generated_Source\PSoC5/USBUART.c ****         {
1647:.\Generated_Source\PSoC5/USBUART.c ****             /* Copy data using arbiter data register. */
1648:.\Generated_Source\PSoC5/USBUART.c ****             uint16 i;
1649:.\Generated_Source\PSoC5/USBUART.c ****             for (i = 0u; i < length; ++i)
1650:.\Generated_Source\PSoC5/USBUART.c ****             {
1651:.\Generated_Source\PSoC5/USBUART.c ****                 pData[i] = (uint8) USBUART_ARB_EP_BASE.arbEp[epNumber].rwDr;
1652:.\Generated_Source\PSoC5/USBUART.c ****             }
1653:.\Generated_Source\PSoC5/USBUART.c ****         }
1654:.\Generated_Source\PSoC5/USBUART.c **** 
1655:.\Generated_Source\PSoC5/USBUART.c ****         /* Arm OUT endpoint after data has been copied from endpoint buffer. */
1656:.\Generated_Source\PSoC5/USBUART.c ****         USBUART_EnableOutEP(epNumber);
1657:.\Generated_Source\PSoC5/USBUART.c ****     #else
1658:.\Generated_Source\PSoC5/USBUART.c **** 
1659:.\Generated_Source\PSoC5/USBUART.c ****         #if (CY_PSOC3 || CY_PSOC5LP)
1660:.\Generated_Source\PSoC5/USBUART.c ****             /* Initialize DMA if it was not initialized. */
1661:.\Generated_Source\PSoC5/USBUART.c ****             if (DMA_INVALID_TD == USBUART_DmaTd[epNumber])
1662:.\Generated_Source\PSoC5/USBUART.c ****             {
1663:.\Generated_Source\PSoC5/USBUART.c ****                 USBUART_InitEP_DMA(epNumber, pData);
1664:.\Generated_Source\PSoC5/USBUART.c ****             }
1665:.\Generated_Source\PSoC5/USBUART.c ****         #endif /* (CY_PSOC3 || CY_PSOC5LP) */
1666:.\Generated_Source\PSoC5/USBUART.c **** 
1667:.\Generated_Source\PSoC5/USBUART.c ****         #if (USBUART_EP_MANAGEMENT_DMA_MANUAL)
1668:.\Generated_Source\PSoC5/USBUART.c ****         #if (CY_PSOC4)
1669:.\Generated_Source\PSoC5/USBUART.c ****         {
1670:.\Generated_Source\PSoC5/USBUART.c ****             uint32 channelNum = (uint32) USBUART_DmaChan[epNumber];
1671:.\Generated_Source\PSoC5/USBUART.c **** 
1672:.\Generated_Source\PSoC5/USBUART.c ****             /* Disable DMA channel: start configuration. */
1673:.\Generated_Source\PSoC5/USBUART.c ****             USBUART_CyDmaChDisable(channelNum);
1674:.\Generated_Source\PSoC5/USBUART.c **** 
1675:.\Generated_Source\PSoC5/USBUART.c ****             /* Configure source and destination. */
1676:.\Generated_Source\PSoC5/USBUART.c ****             USBUART_CyDmaSetSrcAddress(channelNum, USBUART_DMA_DESCR0, (void*) &USBUART_ARB_EP_BASE
1677:.\Generated_Source\PSoC5/USBUART.c ****             USBUART_CyDmaSetDstAddress(channelNum, USBUART_DMA_DESCR0, (void*) pData);
1678:.\Generated_Source\PSoC5/USBUART.c **** 
1679:.\Generated_Source\PSoC5/USBUART.c ****             /* Configure DMA descriptor. */
ARM GAS  C:\Users\Tim\AppData\Local\Temp\ccA4EuzY.s 			page 47


1680:.\Generated_Source\PSoC5/USBUART.c ****             USBUART_CyDmaSetConfiguration(channelNum, USBUART_DMA_DESCR0, USBUART_DMA_COMMON_CFG | 
1681:.\Generated_Source\PSoC5/USBUART.c ****                                                     CYDMA_BYTE | CYDMA_WORD_ELEMENT | CYDMA_INC_DST
1682:.\Generated_Source\PSoC5/USBUART.c **** 
1683:.\Generated_Source\PSoC5/USBUART.c ****             /* Validate descriptor to execute on following DMA request. */
1684:.\Generated_Source\PSoC5/USBUART.c ****             USBUART_CyDmaValidateDescriptor(channelNum, USBUART_DMA_DESCR0);
1685:.\Generated_Source\PSoC5/USBUART.c **** 
1686:.\Generated_Source\PSoC5/USBUART.c ****             /* Enable DMA channel: configuration complete. */
1687:.\Generated_Source\PSoC5/USBUART.c ****             USBUART_CyDmaChEnable(channelNum);
1688:.\Generated_Source\PSoC5/USBUART.c ****         }
1689:.\Generated_Source\PSoC5/USBUART.c ****         #else
1690:.\Generated_Source\PSoC5/USBUART.c ****             /* Configure DMA to transfer data. */
1691:.\Generated_Source\PSoC5/USBUART.c ****             (void) CyDmaChDisable(USBUART_DmaChan[epNumber]);
1692:.\Generated_Source\PSoC5/USBUART.c ****             (void) CyDmaTdSetConfiguration(USBUART_DmaTd[epNumber], length, CY_DMA_DISABLE_TD, TD_T
1693:.\Generated_Source\PSoC5/USBUART.c ****             (void) CyDmaTdSetAddress(USBUART_DmaTd[epNumber], LO16((uint32) &USBUART_ARB_EP_BASE.ar
1694:.\Generated_Source\PSoC5/USBUART.c **** 
1695:.\Generated_Source\PSoC5/USBUART.c ****             /* Enable DMA channel. */
1696:.\Generated_Source\PSoC5/USBUART.c ****             (void) CyDmaChSetInitialTd(USBUART_DmaChan[epNumber], USBUART_DmaTd[epNumber]);
1697:.\Generated_Source\PSoC5/USBUART.c ****             (void) CyDmaChEnable(USBUART_DmaChan[epNumber], 1u);
1698:.\Generated_Source\PSoC5/USBUART.c ****         #endif /* (CY_PSOC4) */
1699:.\Generated_Source\PSoC5/USBUART.c **** 
1700:.\Generated_Source\PSoC5/USBUART.c ****             /* Generate DMA request. */
1701:.\Generated_Source\PSoC5/USBUART.c ****             USBUART_ARB_EP_BASE.arbEp[epNumber].epCfg |=  (uint8)  USBUART_ARB_EPX_CFG_DMA_REQ;
1702:.\Generated_Source\PSoC5/USBUART.c ****             USBUART_ARB_EP_BASE.arbEp[epNumber].epCfg &=  (uint8) ~USBUART_ARB_EPX_CFG_DMA_REQ;
1703:.\Generated_Source\PSoC5/USBUART.c **** 
1704:.\Generated_Source\PSoC5/USBUART.c ****             /* OUT endpoint has to be armed again by user when DMA transfers have been completed.
1705:.\Generated_Source\PSoC5/USBUART.c ****             * NO_EVENT_PENDING: notifies that data has been copied from endpoint buffer.
1706:.\Generated_Source\PSoC5/USBUART.c ****             */
1707:.\Generated_Source\PSoC5/USBUART.c **** 
1708:.\Generated_Source\PSoC5/USBUART.c ****         #endif /* (USBUART_EP_MANAGEMENT_DMA_MANUAL) */
1709:.\Generated_Source\PSoC5/USBUART.c **** 
1710:.\Generated_Source\PSoC5/USBUART.c ****         #if (USBUART_EP_MANAGEMENT_DMA_AUTO)
1711:.\Generated_Source\PSoC5/USBUART.c ****         #if (CY_PSOC4)
1712:.\Generated_Source\PSoC5/USBUART.c ****         {
1713:.\Generated_Source\PSoC5/USBUART.c ****             uint32 channelNum = (uint32) USBUART_DmaChan[epNumber];
1714:.\Generated_Source\PSoC5/USBUART.c ****             uint32 lengthDescr0, lengthDescr1;
1715:.\Generated_Source\PSoC5/USBUART.c **** 
1716:.\Generated_Source\PSoC5/USBUART.c ****             /* Get number of full bursts. */
1717:.\Generated_Source\PSoC5/USBUART.c ****             USBUART_DmaEpBurstCnt[epNumber] = (uint8) (length / USBUART_DMA_BYTES_PER_BURST);
1718:.\Generated_Source\PSoC5/USBUART.c **** 
1719:.\Generated_Source\PSoC5/USBUART.c ****             /* Get number of elements in the last burst. */
1720:.\Generated_Source\PSoC5/USBUART.c ****             USBUART_DmaEpLastBurstEl[epNumber] = (uint8) (length % USBUART_DMA_BYTES_PER_BURST);
1721:.\Generated_Source\PSoC5/USBUART.c **** 
1722:.\Generated_Source\PSoC5/USBUART.c ****             /* Get total number of bursts. */
1723:.\Generated_Source\PSoC5/USBUART.c ****             USBUART_DmaEpBurstCnt[epNumber] += (0u != USBUART_DmaEpLastBurstEl[epNumber]) ? 1u : 0u
1724:.\Generated_Source\PSoC5/USBUART.c **** 
1725:.\Generated_Source\PSoC5/USBUART.c ****             /* Adjust number of the data elements transfered in last burst. */
1726:.\Generated_Source\PSoC5/USBUART.c ****             USBUART_DmaEpLastBurstEl[epNumber] = (0u != USBUART_DmaEpLastBurstEl[epNumber]) ?
1727:.\Generated_Source\PSoC5/USBUART.c ****                                                                   (USBUART_DmaEpLastBurstEl[epNumbe
1728:.\Generated_Source\PSoC5/USBUART.c ****                                                                   (USBUART_DMA_BYTES_PER_BURST - 1u
1729:.\Generated_Source\PSoC5/USBUART.c **** 
1730:.\Generated_Source\PSoC5/USBUART.c ****             /* Get number of data elements to transfer for descriptor 0 and 1. */
1731:.\Generated_Source\PSoC5/USBUART.c ****             lengthDescr0 = (1u == USBUART_DmaEpBurstCnt[epNumber]) ? USBUART_DmaEpLastBurstEl[epNum
1732:.\Generated_Source\PSoC5/USBUART.c ****             lengthDescr1 = (2u == USBUART_DmaEpBurstCnt[epNumber]) ? USBUART_DmaEpLastBurstEl[epNum
1733:.\Generated_Source\PSoC5/USBUART.c **** 
1734:.\Generated_Source\PSoC5/USBUART.c ****             /* Mark if revert number of data elements in descriptor after transfer completion. */
1735:.\Generated_Source\PSoC5/USBUART.c ****             USBUART_DmaEpLastBurstEl[epNumber] |= (USBUART_DmaEpBurstCnt[epNumber] > 2u) ? USBUART_
1736:.\Generated_Source\PSoC5/USBUART.c **** 
ARM GAS  C:\Users\Tim\AppData\Local\Temp\ccA4EuzY.s 			page 48


1737:.\Generated_Source\PSoC5/USBUART.c ****             /* Mark last descriptor to be executed. */
1738:.\Generated_Source\PSoC5/USBUART.c ****             USBUART_DmaEpLastBurstEl[epNumber] |= (0u != (USBUART_DmaEpBurstCnt[epNumber] & 0x1u)) 
1739:.\Generated_Source\PSoC5/USBUART.c ****                                                                     USBUART_DMA_DESCR0_MASK : USBUA
1740:.\Generated_Source\PSoC5/USBUART.c **** 
1741:.\Generated_Source\PSoC5/USBUART.c ****             /* Adjust burst counter taking to account: 2 valid descriptors and interrupt trigger af
1742:.\Generated_Source\PSoC5/USBUART.c ****             USBUART_DmaEpBurstCnt[epNumber] = USBUART_DMA_GET_BURST_CNT(USBUART_DmaEpBurstCnt[epNum
1743:.\Generated_Source\PSoC5/USBUART.c **** 
1744:.\Generated_Source\PSoC5/USBUART.c ****             /* Store address of buffer and burst counter for endpoint. */
1745:.\Generated_Source\PSoC5/USBUART.c ****             USBUART_DmaEpBufferAddrBackup[epNumber] = (uint32) pData;
1746:.\Generated_Source\PSoC5/USBUART.c ****             USBUART_DmaEpBurstCntBackup[epNumber]   = USBUART_DmaEpBurstCnt[epNumber];
1747:.\Generated_Source\PSoC5/USBUART.c **** 
1748:.\Generated_Source\PSoC5/USBUART.c ****             /* Disable DMA channel: start configuration. */
1749:.\Generated_Source\PSoC5/USBUART.c ****             USBUART_CyDmaChDisable(channelNum);
1750:.\Generated_Source\PSoC5/USBUART.c **** 
1751:.\Generated_Source\PSoC5/USBUART.c ****             /* Set destination address. */
1752:.\Generated_Source\PSoC5/USBUART.c ****             USBUART_CyDmaSetSrcAddress(channelNum, USBUART_DMA_DESCR0, (void*) &USBUART_ARB_EP_BASE
1753:.\Generated_Source\PSoC5/USBUART.c ****             USBUART_CyDmaSetSrcAddress(channelNum, USBUART_DMA_DESCR1, (void*) &USBUART_ARB_EP_BASE
1754:.\Generated_Source\PSoC5/USBUART.c **** 
1755:.\Generated_Source\PSoC5/USBUART.c ****             USBUART_CyDmaSetDstAddress(channelNum, USBUART_DMA_DESCR0, (void*) ((uint32) pData));
1756:.\Generated_Source\PSoC5/USBUART.c ****             USBUART_CyDmaSetDstAddress(channelNum, USBUART_DMA_DESCR1, (void*) ((uint32) pData + US
1757:.\Generated_Source\PSoC5/USBUART.c **** 
1758:.\Generated_Source\PSoC5/USBUART.c ****             /* Configure DMA descriptor. */
1759:.\Generated_Source\PSoC5/USBUART.c ****             USBUART_CyDmaSetConfiguration(channelNum, USBUART_DMA_DESCR0, USBUART_DMA_COMMON_CFG  |
1760:.\Generated_Source\PSoC5/USBUART.c ****                                                     CYDMA_BYTE | CYDMA_WORD_ELEMENT | CYDMA_INC_DST
1761:.\Generated_Source\PSoC5/USBUART.c **** 
1762:.\Generated_Source\PSoC5/USBUART.c ****             /* Configure DMA descriptor. */
1763:.\Generated_Source\PSoC5/USBUART.c ****             USBUART_CyDmaSetConfiguration(channelNum, USBUART_DMA_DESCR1, USBUART_DMA_COMMON_CFG  |
1764:.\Generated_Source\PSoC5/USBUART.c ****                                                     CYDMA_BYTE | CYDMA_WORD_ELEMENT | CYDMA_INC_DST
1765:.\Generated_Source\PSoC5/USBUART.c **** 
1766:.\Generated_Source\PSoC5/USBUART.c ****             /* Enable interrupt from DMA channel. */
1767:.\Generated_Source\PSoC5/USBUART.c ****             USBUART_CyDmaSetInterruptMask(channelNum);
1768:.\Generated_Source\PSoC5/USBUART.c **** 
1769:.\Generated_Source\PSoC5/USBUART.c ****             /* Validate DMA descriptor 0 and 1. */
1770:.\Generated_Source\PSoC5/USBUART.c ****             USBUART_CyDmaValidateDescriptor(channelNum, USBUART_DMA_DESCR0);
1771:.\Generated_Source\PSoC5/USBUART.c ****             USBUART_CyDmaValidateDescriptor(channelNum, USBUART_DMA_DESCR1);
1772:.\Generated_Source\PSoC5/USBUART.c **** 
1773:.\Generated_Source\PSoC5/USBUART.c ****             /* Enable DMA channel: configuration complete. */
1774:.\Generated_Source\PSoC5/USBUART.c ****             USBUART_CyDmaChEnable(channelNum);
1775:.\Generated_Source\PSoC5/USBUART.c ****         }
1776:.\Generated_Source\PSoC5/USBUART.c ****         #else
1777:.\Generated_Source\PSoC5/USBUART.c ****             (void) CyDmaChDisable(USBUART_DmaChan[epNumber]);
1778:.\Generated_Source\PSoC5/USBUART.c ****             (void) CyDmaTdSetConfiguration(USBUART_DmaTd[epNumber], length,  USBUART_DmaTd[epNumber
1779:.\Generated_Source\PSoC5/USBUART.c ****             (void) CyDmaTdSetAddress(USBUART_DmaTd[epNumber], LO16((uint32) &USBUART_ARB_EP_BASE.ar
1780:.\Generated_Source\PSoC5/USBUART.c **** 
1781:.\Generated_Source\PSoC5/USBUART.c ****             /* Clear Any potential pending DMA requests before starting DMA channel to transfer dat
1782:.\Generated_Source\PSoC5/USBUART.c ****             (void) CyDmaClearPendingDrq(USBUART_DmaChan[epNumber]);
1783:.\Generated_Source\PSoC5/USBUART.c **** 
1784:.\Generated_Source\PSoC5/USBUART.c ****             /* Enable DMA channel. */
1785:.\Generated_Source\PSoC5/USBUART.c ****             (void) CyDmaChSetInitialTd(USBUART_DmaChan[epNumber], USBUART_DmaTd[epNumber]);
1786:.\Generated_Source\PSoC5/USBUART.c ****             (void) CyDmaChEnable(USBUART_DmaChan[epNumber], 1u);
1787:.\Generated_Source\PSoC5/USBUART.c ****         #endif /* (CY_PSOC4) */
1788:.\Generated_Source\PSoC5/USBUART.c **** 
1789:.\Generated_Source\PSoC5/USBUART.c ****             /* OUT endpoint has to be armed again by user when DMA transfers have been completed.
1790:.\Generated_Source\PSoC5/USBUART.c ****             * NO_EVENT_PENDING: notifies that data has been copied from endpoint buffer.
1791:.\Generated_Source\PSoC5/USBUART.c ****             */
1792:.\Generated_Source\PSoC5/USBUART.c **** 
1793:.\Generated_Source\PSoC5/USBUART.c ****         #endif /* (USBUART_EP_MANAGEMENT_DMA_AUTO) */
ARM GAS  C:\Users\Tim\AppData\Local\Temp\ccA4EuzY.s 			page 49


1794:.\Generated_Source\PSoC5/USBUART.c ****     #endif /* (USBUART_EP_MANAGEMENT_MANUAL) */
1795:.\Generated_Source\PSoC5/USBUART.c ****     }
1796:.\Generated_Source\PSoC5/USBUART.c ****     else
1797:.\Generated_Source\PSoC5/USBUART.c ****     {
1798:.\Generated_Source\PSoC5/USBUART.c ****         length = 0u;
1799:.\Generated_Source\PSoC5/USBUART.c ****     }
1800:.\Generated_Source\PSoC5/USBUART.c **** 
1801:.\Generated_Source\PSoC5/USBUART.c ****     return (length);
1802:.\Generated_Source\PSoC5/USBUART.c **** }
1803:.\Generated_Source\PSoC5/USBUART.c **** 
1804:.\Generated_Source\PSoC5/USBUART.c **** 
1805:.\Generated_Source\PSoC5/USBUART.c **** #if (USBUART_16BITS_EP_ACCESS_ENABLE)
1806:.\Generated_Source\PSoC5/USBUART.c **** /*******************************************************************************
1807:.\Generated_Source\PSoC5/USBUART.c **** * Function Name: USBUART_LoadInEP16
1808:.\Generated_Source\PSoC5/USBUART.c **** ****************************************************************************//**
1809:.\Generated_Source\PSoC5/USBUART.c **** *
1810:.\Generated_Source\PSoC5/USBUART.c **** *  This function performs different functionality depending on the Component’s
1811:.\Generated_Source\PSoC5/USBUART.c **** *  configured Endpoint Buffer Management. This parameter is defined in
1812:.\Generated_Source\PSoC5/USBUART.c **** *  the Descriptor Root in Component Configure window.
1813:.\Generated_Source\PSoC5/USBUART.c **** *
1814:.\Generated_Source\PSoC5/USBUART.c **** *  *Manual (Static/Dynamic Allocation):*
1815:.\Generated_Source\PSoC5/USBUART.c **** *  This function loads and enables the specified USB data endpoint for an IN
1816:.\Generated_Source\PSoC5/USBUART.c **** *  data transfer.
1817:.\Generated_Source\PSoC5/USBUART.c **** *
1818:.\Generated_Source\PSoC5/USBUART.c **** *  *DMA with Manual Buffer Management:*
1819:.\Generated_Source\PSoC5/USBUART.c **** *  Configures DMA for a data transfer from system RAM to endpoint buffer.
1820:.\Generated_Source\PSoC5/USBUART.c **** *  Generates request for a transfer.
1821:.\Generated_Source\PSoC5/USBUART.c **** *
1822:.\Generated_Source\PSoC5/USBUART.c **** *  *DMA with Automatic Buffer Management:*
1823:.\Generated_Source\PSoC5/USBUART.c **** *  Configures DMA. This is required only once, so it is done only when parameter
1824:.\Generated_Source\PSoC5/USBUART.c **** *  pData is not NULL. When the pData pointer is NULL, the function skips this
1825:.\Generated_Source\PSoC5/USBUART.c **** *  task. Sets Data ready status: This generates the first DMA transfer and
1826:.\Generated_Source\PSoC5/USBUART.c **** *  prepares data in endpoint buffer.
1827:.\Generated_Source\PSoC5/USBUART.c **** *
1828:.\Generated_Source\PSoC5/USBUART.c **** *  \param epNumber Contains the data endpoint number.
1829:.\Generated_Source\PSoC5/USBUART.c **** *        Valid values are between 1 and 8.
1830:.\Generated_Source\PSoC5/USBUART.c **** *  \param *pData A pointer to a data array from which the data for the endpoint
1831:.\Generated_Source\PSoC5/USBUART.c **** *        space is loaded. It shall be ensured that this pointer address is even
1832:.\Generated_Source\PSoC5/USBUART.c **** *        to ensure the 16-bit transfer is aligned to even address. Else, a hard
1833:.\Generated_Source\PSoC5/USBUART.c **** *        fault condition can occur.
1834:.\Generated_Source\PSoC5/USBUART.c **** *  \param length The number of bytes to transfer from the array and then send as
1835:.\Generated_Source\PSoC5/USBUART.c **** *        a result of an IN request. Valid values are between 0 and 512 (1023 for
1836:.\Generated_Source\PSoC5/USBUART.c **** *        DMA with Automatic Buffer Management mode). The value 512 is applicable
1837:.\Generated_Source\PSoC5/USBUART.c **** *        if only one endpoint is used.
1838:.\Generated_Source\PSoC5/USBUART.c **** *
1839:.\Generated_Source\PSoC5/USBUART.c **** * \reentrant
1840:.\Generated_Source\PSoC5/USBUART.c **** *  No.
1841:.\Generated_Source\PSoC5/USBUART.c **** *
1842:.\Generated_Source\PSoC5/USBUART.c **** *******************************************************************************/
1843:.\Generated_Source\PSoC5/USBUART.c **** void USBUART_LoadInEP16(uint8 epNumber, const uint8 pData[], uint16 length)
1844:.\Generated_Source\PSoC5/USBUART.c **** {
1845:.\Generated_Source\PSoC5/USBUART.c ****     /* Check array alignment on half-word boundary. */
1846:.\Generated_Source\PSoC5/USBUART.c ****     CYASSERT(0u == (((uint32) pData) & 0x01u));
1847:.\Generated_Source\PSoC5/USBUART.c **** 
1848:.\Generated_Source\PSoC5/USBUART.c ****     if ((epNumber > USBUART_EP0) && (epNumber < USBUART_MAX_EP))
1849:.\Generated_Source\PSoC5/USBUART.c ****     {
1850:.\Generated_Source\PSoC5/USBUART.c ****     #if (!USBUART_EP_MANAGEMENT_DMA_AUTO)
ARM GAS  C:\Users\Tim\AppData\Local\Temp\ccA4EuzY.s 			page 50


1851:.\Generated_Source\PSoC5/USBUART.c ****         /* Limit length to available buffer USB IP buffer size. */
1852:.\Generated_Source\PSoC5/USBUART.c ****         if (length > (USBUART_EPX_DATA_BUF_MAX - USBUART_EP[epNumber].buffOffset))
1853:.\Generated_Source\PSoC5/USBUART.c ****         {
1854:.\Generated_Source\PSoC5/USBUART.c ****             length = USBUART_EPX_DATA_BUF_MAX - USBUART_EP[epNumber].buffOffset;
1855:.\Generated_Source\PSoC5/USBUART.c ****         }
1856:.\Generated_Source\PSoC5/USBUART.c ****     #endif /* (!USBUART_EP_MANAGEMENT_DMA_AUTO) */
1857:.\Generated_Source\PSoC5/USBUART.c **** 
1858:.\Generated_Source\PSoC5/USBUART.c ****         /* Set count and data toggle. */
1859:.\Generated_Source\PSoC5/USBUART.c ****         USBUART_SIE_EP_BASE.sieEp[epNumber].epCnt0 = (uint32) HI8(length) | USBUART_EP[epNumber].ep
1860:.\Generated_Source\PSoC5/USBUART.c ****         USBUART_SIE_EP_BASE.sieEp[epNumber].epCnt1 = (uint32) LO8(length);
1861:.\Generated_Source\PSoC5/USBUART.c **** 
1862:.\Generated_Source\PSoC5/USBUART.c ****         /* Adjust requested length: 2 bytes are handled at one data register access. */
1863:.\Generated_Source\PSoC5/USBUART.c ****         length += (length & 0x01u);
1864:.\Generated_Source\PSoC5/USBUART.c **** 
1865:.\Generated_Source\PSoC5/USBUART.c ****     #if (USBUART_EP_MANAGEMENT_MANUAL)
1866:.\Generated_Source\PSoC5/USBUART.c ****         if (NULL != pData)
1867:.\Generated_Source\PSoC5/USBUART.c ****         {
1868:.\Generated_Source\PSoC5/USBUART.c ****             /* Convert uint8 array to uint16. */
1869:.\Generated_Source\PSoC5/USBUART.c ****             const uint16 *dataBuf = (uint16 *) pData;
1870:.\Generated_Source\PSoC5/USBUART.c **** 
1871:.\Generated_Source\PSoC5/USBUART.c ****             /* Copy data using 16-bits arbiter data register. */
1872:.\Generated_Source\PSoC5/USBUART.c ****             uint16 i;
1873:.\Generated_Source\PSoC5/USBUART.c ****             for (i = 0u; i < (length >> 1u); ++i)
1874:.\Generated_Source\PSoC5/USBUART.c ****             {
1875:.\Generated_Source\PSoC5/USBUART.c ****                 USBUART_ARB_EP16_BASE.arbEp[epNumber].rwDr16 = dataBuf[i];
1876:.\Generated_Source\PSoC5/USBUART.c ****             }
1877:.\Generated_Source\PSoC5/USBUART.c ****         }
1878:.\Generated_Source\PSoC5/USBUART.c **** 
1879:.\Generated_Source\PSoC5/USBUART.c ****         /* IN endpoint buffer is full - read to be read. */
1880:.\Generated_Source\PSoC5/USBUART.c ****         USBUART_EP[epNumber].apiEpState = USBUART_NO_EVENT_PENDING;
1881:.\Generated_Source\PSoC5/USBUART.c **** 
1882:.\Generated_Source\PSoC5/USBUART.c ****         /* Arm IN endpoint. */
1883:.\Generated_Source\PSoC5/USBUART.c ****         USBUART_SIE_EP_BASE.sieEp[epNumber].epCr0 = USBUART_EP[epNumber].epMode;
1884:.\Generated_Source\PSoC5/USBUART.c **** 
1885:.\Generated_Source\PSoC5/USBUART.c ****     #else
1886:.\Generated_Source\PSoC5/USBUART.c **** 
1887:.\Generated_Source\PSoC5/USBUART.c ****         #if (USBUART_EP_MANAGEMENT_DMA_MANUAL)
1888:.\Generated_Source\PSoC5/USBUART.c ****             /* IN endpoint buffer will be fully loaded by DMA shortly. */
1889:.\Generated_Source\PSoC5/USBUART.c ****             USBUART_EP[epNumber].apiEpState = USBUART_NO_EVENT_PENDING;
1890:.\Generated_Source\PSoC5/USBUART.c **** 
1891:.\Generated_Source\PSoC5/USBUART.c ****             if ((pData != NULL) && (length > 0u))
1892:.\Generated_Source\PSoC5/USBUART.c ****             {
1893:.\Generated_Source\PSoC5/USBUART.c ****                 uint32 channelNum = (uint32) USBUART_DmaChan[epNumber];
1894:.\Generated_Source\PSoC5/USBUART.c **** 
1895:.\Generated_Source\PSoC5/USBUART.c ****                 /* Disable DMA channel: start configuration. */
1896:.\Generated_Source\PSoC5/USBUART.c ****                 USBUART_CyDmaChDisable(channelNum);
1897:.\Generated_Source\PSoC5/USBUART.c **** 
1898:.\Generated_Source\PSoC5/USBUART.c ****                 /* Configure source and destination. */
1899:.\Generated_Source\PSoC5/USBUART.c ****                 USBUART_CyDmaSetSrcAddress(channelNum, USBUART_DMA_DESCR0, (void*) pData);
1900:.\Generated_Source\PSoC5/USBUART.c ****                 USBUART_CyDmaSetDstAddress(channelNum, USBUART_DMA_DESCR0, (void*) &USBUART_ARB_EP1
1901:.\Generated_Source\PSoC5/USBUART.c **** 
1902:.\Generated_Source\PSoC5/USBUART.c ****                 /* Configure DMA descriptor. */
1903:.\Generated_Source\PSoC5/USBUART.c ****                 length = (length >> 1u) - 1u;
1904:.\Generated_Source\PSoC5/USBUART.c ****                 USBUART_CyDmaSetConfiguration(channelNum, USBUART_DMA_DESCR0, USBUART_DMA_COMMON_CF
1905:.\Generated_Source\PSoC5/USBUART.c ****                                                         CYDMA_HALFWORD | CYDMA_ELEMENT_WORD | CYDMA
1906:.\Generated_Source\PSoC5/USBUART.c **** 
1907:.\Generated_Source\PSoC5/USBUART.c ****                 /* Validate descriptor to execute on following DMA request. */
ARM GAS  C:\Users\Tim\AppData\Local\Temp\ccA4EuzY.s 			page 51


1908:.\Generated_Source\PSoC5/USBUART.c ****                 USBUART_CyDmaValidateDescriptor(channelNum, USBUART_DMA_DESCR0);
1909:.\Generated_Source\PSoC5/USBUART.c **** 
1910:.\Generated_Source\PSoC5/USBUART.c ****                 /* Enable DMA channel: configuration complete. */
1911:.\Generated_Source\PSoC5/USBUART.c ****                 USBUART_CyDmaChEnable(channelNum);
1912:.\Generated_Source\PSoC5/USBUART.c **** 
1913:.\Generated_Source\PSoC5/USBUART.c ****                 /* Generate DMA request. */
1914:.\Generated_Source\PSoC5/USBUART.c ****                 USBUART_ARB_EP_BASE.arbEp[epNumber].epCfg |=  (uint32)  USBUART_ARB_EPX_CFG_DMA_REQ
1915:.\Generated_Source\PSoC5/USBUART.c ****                 USBUART_ARB_EP_BASE.arbEp[epNumber].epCfg &=  (uint32) ~USBUART_ARB_EPX_CFG_DMA_REQ
1916:.\Generated_Source\PSoC5/USBUART.c **** 
1917:.\Generated_Source\PSoC5/USBUART.c ****                 /* IN endpoint will be armed in ARB_ISR(source: IN_BUF_FULL) after first DMA transf
1918:.\Generated_Source\PSoC5/USBUART.c ****             }
1919:.\Generated_Source\PSoC5/USBUART.c ****             else
1920:.\Generated_Source\PSoC5/USBUART.c ****             {
1921:.\Generated_Source\PSoC5/USBUART.c ****                 /* When zero-length packet: arm IN endpoint directly. */
1922:.\Generated_Source\PSoC5/USBUART.c ****                 USBUART_SIE_EP_BASE.sieEp[epNumber].epCr0 = USBUART_EP[epNumber].epMode;
1923:.\Generated_Source\PSoC5/USBUART.c ****             }
1924:.\Generated_Source\PSoC5/USBUART.c ****         #endif /* (USBUART_EP_MANAGEMENT_DMA_MANUAL) */
1925:.\Generated_Source\PSoC5/USBUART.c **** 
1926:.\Generated_Source\PSoC5/USBUART.c ****         #if (USBUART_EP_MANAGEMENT_DMA_AUTO)
1927:.\Generated_Source\PSoC5/USBUART.c ****             if (pData != NULL)
1928:.\Generated_Source\PSoC5/USBUART.c ****             {
1929:.\Generated_Source\PSoC5/USBUART.c ****                 uint32 channelNum = (uint32) USBUART_DmaChan[epNumber];
1930:.\Generated_Source\PSoC5/USBUART.c **** 
1931:.\Generated_Source\PSoC5/USBUART.c ****                 /* Store address of buffer. */
1932:.\Generated_Source\PSoC5/USBUART.c ****                 USBUART_DmaEpBufferAddrBackup[epNumber] = (uint32) pData;
1933:.\Generated_Source\PSoC5/USBUART.c **** 
1934:.\Generated_Source\PSoC5/USBUART.c ****                 /* Disable DMA channel: start configuration. */
1935:.\Generated_Source\PSoC5/USBUART.c ****                 USBUART_CyDmaChDisable(channelNum);
1936:.\Generated_Source\PSoC5/USBUART.c **** 
1937:.\Generated_Source\PSoC5/USBUART.c ****                 /* Set destination address. */
1938:.\Generated_Source\PSoC5/USBUART.c ****                 USBUART_CyDmaSetDstAddress(channelNum, USBUART_DMA_DESCR0, (void*) &USBUART_ARB_EP1
1939:.\Generated_Source\PSoC5/USBUART.c ****                 USBUART_CyDmaSetDstAddress(channelNum, USBUART_DMA_DESCR1, (void*) &USBUART_ARB_EP1
1940:.\Generated_Source\PSoC5/USBUART.c **** 
1941:.\Generated_Source\PSoC5/USBUART.c ****                 /* Configure DMA descriptor. */
1942:.\Generated_Source\PSoC5/USBUART.c ****                 USBUART_CyDmaSetConfiguration(channelNum, USBUART_DMA_DESCR0, USBUART_DMA_COMMON_CF
1943:.\Generated_Source\PSoC5/USBUART.c ****                                                         CYDMA_HALFWORD | CYDMA_ELEMENT_WORD | CYDMA
1944:.\Generated_Source\PSoC5/USBUART.c **** 
1945:.\Generated_Source\PSoC5/USBUART.c ****                 /* Configure DMA descriptor. */
1946:.\Generated_Source\PSoC5/USBUART.c ****                 USBUART_CyDmaSetConfiguration(channelNum, USBUART_DMA_DESCR1, USBUART_DMA_COMMON_CF
1947:.\Generated_Source\PSoC5/USBUART.c ****                                                         CYDMA_HALFWORD | CYDMA_ELEMENT_WORD | CYDMA
1948:.\Generated_Source\PSoC5/USBUART.c **** 
1949:.\Generated_Source\PSoC5/USBUART.c ****                 /* Enable interrupt from DMA channel. */
1950:.\Generated_Source\PSoC5/USBUART.c ****                 USBUART_CyDmaSetInterruptMask(channelNum);
1951:.\Generated_Source\PSoC5/USBUART.c **** 
1952:.\Generated_Source\PSoC5/USBUART.c ****                 /* Validate descriptor 1. It will not be invalided during operation. */
1953:.\Generated_Source\PSoC5/USBUART.c ****                 USBUART_CyDmaValidateDescriptor(channelNum, USBUART_DMA_DESCR1);
1954:.\Generated_Source\PSoC5/USBUART.c **** 
1955:.\Generated_Source\PSoC5/USBUART.c ****                 /* Enable DMA channel: configuration complete. */
1956:.\Generated_Source\PSoC5/USBUART.c ****                 USBUART_CyDmaChEnable(channelNum);
1957:.\Generated_Source\PSoC5/USBUART.c ****             }
1958:.\Generated_Source\PSoC5/USBUART.c ****             else
1959:.\Generated_Source\PSoC5/USBUART.c ****             {
1960:.\Generated_Source\PSoC5/USBUART.c ****                 /* IN endpoint buffer (32 bytes) will shortly be preloaded by DMA. */
1961:.\Generated_Source\PSoC5/USBUART.c ****                 USBUART_EP[epNumber].apiEpState = USBUART_NO_EVENT_PENDING;
1962:.\Generated_Source\PSoC5/USBUART.c **** 
1963:.\Generated_Source\PSoC5/USBUART.c ****                 if (length > 0u)
1964:.\Generated_Source\PSoC5/USBUART.c ****                 {
ARM GAS  C:\Users\Tim\AppData\Local\Temp\ccA4EuzY.s 			page 52


1965:.\Generated_Source\PSoC5/USBUART.c ****                     uint32 lengthDescr0, lengthDescr1;
1966:.\Generated_Source\PSoC5/USBUART.c ****                     uint32 channelNum = (uint32) USBUART_DmaChan[epNumber];
1967:.\Generated_Source\PSoC5/USBUART.c **** 
1968:.\Generated_Source\PSoC5/USBUART.c ****                     /* Get number of full bursts. */
1969:.\Generated_Source\PSoC5/USBUART.c ****                     USBUART_DmaEpBurstCnt[epNumber] = (uint8) (length / USBUART_DMA_BYTES_PER_BURST
1970:.\Generated_Source\PSoC5/USBUART.c **** 
1971:.\Generated_Source\PSoC5/USBUART.c ****                     /* Get number of elements in the last burst. */
1972:.\Generated_Source\PSoC5/USBUART.c ****                     USBUART_DmaEpLastBurstEl[epNumber] = (uint8) (length % USBUART_DMA_BYTES_PER_BU
1973:.\Generated_Source\PSoC5/USBUART.c **** 
1974:.\Generated_Source\PSoC5/USBUART.c ****                     /* Get total number of bursts. */
1975:.\Generated_Source\PSoC5/USBUART.c ****                     USBUART_DmaEpBurstCnt[epNumber] += (0u != USBUART_DmaEpLastBurstEl[epNumber]) ?
1976:.\Generated_Source\PSoC5/USBUART.c **** 
1977:.\Generated_Source\PSoC5/USBUART.c ****                     /* Adjust number of data elements transferred in last burst. */
1978:.\Generated_Source\PSoC5/USBUART.c ****                     USBUART_DmaEpLastBurstEl[epNumber] = (0u != USBUART_DmaEpLastBurstEl[epNumber])
1979:.\Generated_Source\PSoC5/USBUART.c ****                                                                           ((USBUART_DmaEpLastBurstE
1980:.\Generated_Source\PSoC5/USBUART.c ****                                                                            (USBUART_DMA_HALFWORDS_P
1981:.\Generated_Source\PSoC5/USBUART.c **** 
1982:.\Generated_Source\PSoC5/USBUART.c ****                     /* Get number of data elements to transfer for descriptor 0 and 1. */
1983:.\Generated_Source\PSoC5/USBUART.c ****                     lengthDescr0 = (1u == USBUART_DmaEpBurstCnt[epNumber]) ? USBUART_DmaEpLastBurst
1984:.\Generated_Source\PSoC5/USBUART.c ****                     lengthDescr1 = (2u == USBUART_DmaEpBurstCnt[epNumber]) ? USBUART_DmaEpLastBurst
1985:.\Generated_Source\PSoC5/USBUART.c **** 
1986:.\Generated_Source\PSoC5/USBUART.c ****                     /* Mark which descriptor is last one to execute. */
1987:.\Generated_Source\PSoC5/USBUART.c ****                     USBUART_DmaEpLastBurstEl[epNumber] |= (0u != (USBUART_DmaEpBurstCnt[epNumber] &
1988:.\Generated_Source\PSoC5/USBUART.c ****                                                                             USBUART_DMA_DESCR0_MASK
1989:.\Generated_Source\PSoC5/USBUART.c **** 
1990:.\Generated_Source\PSoC5/USBUART.c ****                     /* Adjust burst counter taking to account: 2 valid descriptors and interrupt tr
1991:.\Generated_Source\PSoC5/USBUART.c ****                     USBUART_DmaEpBurstCnt[epNumber] = USBUART_DMA_GET_BURST_CNT(USBUART_DmaEpBurstC
1992:.\Generated_Source\PSoC5/USBUART.c **** 
1993:.\Generated_Source\PSoC5/USBUART.c ****                     /* Restore DMA settings for current transfer. */
1994:.\Generated_Source\PSoC5/USBUART.c ****                     USBUART_CyDmaChDisable(channelNum);
1995:.\Generated_Source\PSoC5/USBUART.c **** 
1996:.\Generated_Source\PSoC5/USBUART.c ****                     /* Restore destination address for input endpoint. */
1997:.\Generated_Source\PSoC5/USBUART.c ****                     USBUART_CyDmaSetSrcAddress(channelNum, USBUART_DMA_DESCR0, (void*) ((uint32) US
1998:.\Generated_Source\PSoC5/USBUART.c ****                     USBUART_CyDmaSetSrcAddress(channelNum, USBUART_DMA_DESCR1, (void*) ((uint32) US
1999:.\Generated_Source\PSoC5/USBUART.c ****                                                                                                    
2000:.\Generated_Source\PSoC5/USBUART.c **** 
2001:.\Generated_Source\PSoC5/USBUART.c ****                     /* Set number of elements to transfer. */
2002:.\Generated_Source\PSoC5/USBUART.c ****                     USBUART_CyDmaSetNumDataElements(channelNum, USBUART_DMA_DESCR0, lengthDescr0);
2003:.\Generated_Source\PSoC5/USBUART.c ****                     USBUART_CyDmaSetNumDataElements(channelNum, USBUART_DMA_DESCR1, lengthDescr1);
2004:.\Generated_Source\PSoC5/USBUART.c **** 
2005:.\Generated_Source\PSoC5/USBUART.c ****                     /* Validate descriptor 0 and command to start with it. */
2006:.\Generated_Source\PSoC5/USBUART.c ****                     USBUART_CyDmaValidateDescriptor(channelNum, USBUART_DMA_DESCR0);
2007:.\Generated_Source\PSoC5/USBUART.c ****                     USBUART_CyDmaSetDescriptor0Next(channelNum);
2008:.\Generated_Source\PSoC5/USBUART.c **** 
2009:.\Generated_Source\PSoC5/USBUART.c ****                     /* Enable DMA channel: configuration complete. */
2010:.\Generated_Source\PSoC5/USBUART.c ****                     USBUART_CyDmaChEnable(channelNum);
2011:.\Generated_Source\PSoC5/USBUART.c **** 
2012:.\Generated_Source\PSoC5/USBUART.c ****                 #if !defined (USBUART_MANUAL_IN_EP_ARM)
2013:.\Generated_Source\PSoC5/USBUART.c ****                     /* Set IN data ready to generate DMA request to load data into endpoint buffer.
2014:.\Generated_Source\PSoC5/USBUART.c ****                     USBUART_ARB_EP_BASE.arbEp[epNumber].epCfg |= USBUART_ARB_EPX_CFG_IN_DATA_RDY;
2015:.\Generated_Source\PSoC5/USBUART.c ****                 #endif  /* (USBUART_MANUAL_IN_EP_ARM) */
2016:.\Generated_Source\PSoC5/USBUART.c **** 
2017:.\Generated_Source\PSoC5/USBUART.c ****                     /* IN endpoint will be armed in ARB_ISR(source: IN_BUF_FULL) after first DMA tr
2018:.\Generated_Source\PSoC5/USBUART.c ****                 }
2019:.\Generated_Source\PSoC5/USBUART.c ****                 else
2020:.\Generated_Source\PSoC5/USBUART.c ****                 {
2021:.\Generated_Source\PSoC5/USBUART.c ****                     /* When zero-length packet: arm IN endpoint directly. */
ARM GAS  C:\Users\Tim\AppData\Local\Temp\ccA4EuzY.s 			page 53


2022:.\Generated_Source\PSoC5/USBUART.c ****                     USBUART_SIE_EP_BASE.sieEp[epNumber].epCr0 = USBUART_EP[epNumber].epMode;
2023:.\Generated_Source\PSoC5/USBUART.c ****                 }
2024:.\Generated_Source\PSoC5/USBUART.c ****             }
2025:.\Generated_Source\PSoC5/USBUART.c ****         #endif /* (USBUART_EP_MANAGEMENT_DMA_AUTO) */
2026:.\Generated_Source\PSoC5/USBUART.c ****     #endif /* (USBUART_EP_MANAGEMENT_MANUAL) */
2027:.\Generated_Source\PSoC5/USBUART.c ****     }
2028:.\Generated_Source\PSoC5/USBUART.c **** }
2029:.\Generated_Source\PSoC5/USBUART.c **** 
2030:.\Generated_Source\PSoC5/USBUART.c **** 
2031:.\Generated_Source\PSoC5/USBUART.c **** /*******************************************************************************
2032:.\Generated_Source\PSoC5/USBUART.c **** * Function Name: USBUART_ReadOutEP16
2033:.\Generated_Source\PSoC5/USBUART.c **** ****************************************************************************//**
2034:.\Generated_Source\PSoC5/USBUART.c **** *
2035:.\Generated_Source\PSoC5/USBUART.c **** *   This function performs different functionality depending on the Component’s
2036:.\Generated_Source\PSoC5/USBUART.c **** *   configured Endpoint Buffer Management. This parameter is defined in the
2037:.\Generated_Source\PSoC5/USBUART.c **** *   Descriptor Root in Component Configure window.
2038:.\Generated_Source\PSoC5/USBUART.c **** *
2039:.\Generated_Source\PSoC5/USBUART.c **** *   *Manual (Static/Dynamic Allocation):*
2040:.\Generated_Source\PSoC5/USBUART.c **** *   This function moves the specified number of bytes from endpoint buffer to
2041:.\Generated_Source\PSoC5/USBUART.c **** *   system RAM. The number of bytes actually transferred from endpoint buffer to
2042:.\Generated_Source\PSoC5/USBUART.c **** *   system RAM is the lesser of the actual number of bytes sent by the host or
2043:.\Generated_Source\PSoC5/USBUART.c **** *   the number of bytes requested by the length parameter.
2044:.\Generated_Source\PSoC5/USBUART.c **** *
2045:.\Generated_Source\PSoC5/USBUART.c **** *   *DMA with Manual Buffer Management:*
2046:.\Generated_Source\PSoC5/USBUART.c **** *   Configure DMA to transfer data from endpoint buffer to system RAM. Generate
2047:.\Generated_Source\PSoC5/USBUART.c **** *   a DMA request. The firmware must wait until the DMA completes the data
2048:.\Generated_Source\PSoC5/USBUART.c **** *   transfer after calling the USBUART_ReadOutEP() API. For example,
2049:.\Generated_Source\PSoC5/USBUART.c **** *   by checking EPstate:
2050:.\Generated_Source\PSoC5/USBUART.c **** *
2051:.\Generated_Source\PSoC5/USBUART.c **** *   \snippet /USBFS_sut_02.cydsn/main.c checking EPstatey
2052:.\Generated_Source\PSoC5/USBUART.c **** *
2053:.\Generated_Source\PSoC5/USBUART.c **** *   The USBFS_EnableOutEP() has to be called to allow host to write data into
2054:.\Generated_Source\PSoC5/USBUART.c **** *   the endpoint buffer after DMA has completed transfer data from OUT endpoint
2055:.\Generated_Source\PSoC5/USBUART.c **** *   buffer to SRAM.
2056:.\Generated_Source\PSoC5/USBUART.c **** *
2057:.\Generated_Source\PSoC5/USBUART.c **** *   *DMA with Automatic Buffer Management:*
2058:.\Generated_Source\PSoC5/USBUART.c **** *   Configure DMA. This is required only once and automatically generates DMA
2059:.\Generated_Source\PSoC5/USBUART.c **** *   requests as data arrives
2060:.\Generated_Source\PSoC5/USBUART.c **** *
2061:.\Generated_Source\PSoC5/USBUART.c **** *  \param epNumber: Contains the data endpoint number.
2062:.\Generated_Source\PSoC5/USBUART.c **** *         Valid values are between 1 and 8.
2063:.\Generated_Source\PSoC5/USBUART.c **** *  \param pData: A pointer to a data array into which the data for the endpoint
2064:.\Generated_Source\PSoC5/USBUART.c **** *         space is copied. It shall be ensured that this pointer address is
2065:.\Generated_Source\PSoC5/USBUART.c **** *         even to ensure the 16-bit transfer is aligned to even address. Else,
2066:.\Generated_Source\PSoC5/USBUART.c **** *         a hard fault condition can occur.
2067:.\Generated_Source\PSoC5/USBUART.c **** *  \param length: The number of bytes to transfer from the USB Out endpoint and
2068:.\Generated_Source\PSoC5/USBUART.c **** *         loads it into data array. Valid values are between 0 and 1023. The
2069:.\Generated_Source\PSoC5/USBUART.c **** *         function moves fewer than the requested number of bytes if the host
2070:.\Generated_Source\PSoC5/USBUART.c **** *         sends fewer bytes than requested.
2071:.\Generated_Source\PSoC5/USBUART.c **** *
2072:.\Generated_Source\PSoC5/USBUART.c **** * \return
2073:.\Generated_Source\PSoC5/USBUART.c **** *  Number of bytes received, 0 for an invalid endpoint.
2074:.\Generated_Source\PSoC5/USBUART.c **** *
2075:.\Generated_Source\PSoC5/USBUART.c **** * \reentrant
2076:.\Generated_Source\PSoC5/USBUART.c **** *  No.
2077:.\Generated_Source\PSoC5/USBUART.c **** *
2078:.\Generated_Source\PSoC5/USBUART.c **** *******************************************************************************/
ARM GAS  C:\Users\Tim\AppData\Local\Temp\ccA4EuzY.s 			page 54


2079:.\Generated_Source\PSoC5/USBUART.c **** uint16 USBUART_ReadOutEP16(uint8 epNumber, uint8 pData[], uint16 length)
2080:.\Generated_Source\PSoC5/USBUART.c **** {
2081:.\Generated_Source\PSoC5/USBUART.c ****     uint32 adjLength;
2082:.\Generated_Source\PSoC5/USBUART.c **** 
2083:.\Generated_Source\PSoC5/USBUART.c ****     /* Check array alignment on half-word boundary */
2084:.\Generated_Source\PSoC5/USBUART.c ****     CYASSERT(0u == (((uint32) pData) & 0x01u));
2085:.\Generated_Source\PSoC5/USBUART.c **** 
2086:.\Generated_Source\PSoC5/USBUART.c ****     if ((pData != NULL) && (epNumber > USBUART_EP0) && (epNumber < USBUART_MAX_EP))
2087:.\Generated_Source\PSoC5/USBUART.c ****     {
2088:.\Generated_Source\PSoC5/USBUART.c ****     #if (!USBUART_EP_MANAGEMENT_DMA_AUTO)
2089:.\Generated_Source\PSoC5/USBUART.c ****         /* Adjust requested length to available data. */
2090:.\Generated_Source\PSoC5/USBUART.c ****         length = (length > USBUART_GetEPCount(epNumber)) ? USBUART_GetEPCount(epNumber) : length;
2091:.\Generated_Source\PSoC5/USBUART.c ****     #endif /* (!USBUART_EP_MANAGEMENT_DMA_AUTO) */
2092:.\Generated_Source\PSoC5/USBUART.c **** 
2093:.\Generated_Source\PSoC5/USBUART.c ****     /* Adjust requested length: 2 bytes are handled at one data register access. */
2094:.\Generated_Source\PSoC5/USBUART.c ****     adjLength =  length + ((uint32)length & 1u);
2095:.\Generated_Source\PSoC5/USBUART.c **** 
2096:.\Generated_Source\PSoC5/USBUART.c ****     #if (USBUART_EP_MANAGEMENT_MANUAL)
2097:.\Generated_Source\PSoC5/USBUART.c ****         {
2098:.\Generated_Source\PSoC5/USBUART.c ****             /* Convert uint8 array to uint16. */
2099:.\Generated_Source\PSoC5/USBUART.c ****             uint16 *dataBuf = (uint16 *) pData;
2100:.\Generated_Source\PSoC5/USBUART.c **** 
2101:.\Generated_Source\PSoC5/USBUART.c ****             /* Copy data using 16-bits arbiter data register. */
2102:.\Generated_Source\PSoC5/USBUART.c ****             uint16 i;
2103:.\Generated_Source\PSoC5/USBUART.c ****             for (i = 0u; i < (adjLength >> 1u); ++i)
2104:.\Generated_Source\PSoC5/USBUART.c ****             {
2105:.\Generated_Source\PSoC5/USBUART.c ****                 dataBuf[i] = (uint16) USBUART_ARB_EP16_BASE.arbEp[epNumber].rwDr16;
2106:.\Generated_Source\PSoC5/USBUART.c ****             }
2107:.\Generated_Source\PSoC5/USBUART.c ****         }
2108:.\Generated_Source\PSoC5/USBUART.c **** 
2109:.\Generated_Source\PSoC5/USBUART.c ****         /* Arm OUT endpoint after data has been read from endpoint buffer. */
2110:.\Generated_Source\PSoC5/USBUART.c ****         USBUART_EnableOutEP(epNumber);
2111:.\Generated_Source\PSoC5/USBUART.c ****     #else
2112:.\Generated_Source\PSoC5/USBUART.c **** 
2113:.\Generated_Source\PSoC5/USBUART.c ****         #if (USBUART_EP_MANAGEMENT_DMA_MANUAL)
2114:.\Generated_Source\PSoC5/USBUART.c ****         {
2115:.\Generated_Source\PSoC5/USBUART.c ****             uint32 channelNum = (uint32) USBUART_DmaChan[epNumber];
2116:.\Generated_Source\PSoC5/USBUART.c **** 
2117:.\Generated_Source\PSoC5/USBUART.c ****             /* Disable DMA channel: start configuration. */
2118:.\Generated_Source\PSoC5/USBUART.c ****             USBUART_CyDmaChDisable(channelNum);
2119:.\Generated_Source\PSoC5/USBUART.c **** 
2120:.\Generated_Source\PSoC5/USBUART.c ****             /* Configure source and destination. */
2121:.\Generated_Source\PSoC5/USBUART.c ****             USBUART_CyDmaSetSrcAddress(channelNum, USBUART_DMA_DESCR0, (void*) &USBUART_ARB_EP16_BA
2122:.\Generated_Source\PSoC5/USBUART.c ****             USBUART_CyDmaSetDstAddress(channelNum, USBUART_DMA_DESCR0, (void*) pData);
2123:.\Generated_Source\PSoC5/USBUART.c **** 
2124:.\Generated_Source\PSoC5/USBUART.c ****             /* Configure DMA descriptor. */
2125:.\Generated_Source\PSoC5/USBUART.c ****             USBUART_CyDmaSetConfiguration(channelNum, USBUART_DMA_DESCR0, USBUART_DMA_COMMON_CFG | 
2126:.\Generated_Source\PSoC5/USBUART.c ****                                                     CYDMA_HALFWORD | CYDMA_WORD_ELEMENT | CYDMA_INC
2127:.\Generated_Source\PSoC5/USBUART.c **** 
2128:.\Generated_Source\PSoC5/USBUART.c ****             /* Validate descriptor to execute on following DMA request. */
2129:.\Generated_Source\PSoC5/USBUART.c ****             USBUART_CyDmaValidateDescriptor(channelNum, USBUART_DMA_DESCR0);
2130:.\Generated_Source\PSoC5/USBUART.c **** 
2131:.\Generated_Source\PSoC5/USBUART.c ****             /* Enable DMA channel: configuration complete. */
2132:.\Generated_Source\PSoC5/USBUART.c ****             USBUART_CyDmaChEnable(channelNum);
2133:.\Generated_Source\PSoC5/USBUART.c **** 
2134:.\Generated_Source\PSoC5/USBUART.c ****             /* Generate DMA request. */
2135:.\Generated_Source\PSoC5/USBUART.c ****             USBUART_ARB_EP_BASE.arbEp[epNumber].epCfg |=  (uint32)  USBUART_ARB_EPX_CFG_DMA_REQ;
ARM GAS  C:\Users\Tim\AppData\Local\Temp\ccA4EuzY.s 			page 55


2136:.\Generated_Source\PSoC5/USBUART.c ****             USBUART_ARB_EP_BASE.arbEp[epNumber].epCfg &=  (uint32) ~USBUART_ARB_EPX_CFG_DMA_REQ;
2137:.\Generated_Source\PSoC5/USBUART.c **** 
2138:.\Generated_Source\PSoC5/USBUART.c ****             /* OUT endpoint has to be armed again by user when DMA transfers have been completed.
2139:.\Generated_Source\PSoC5/USBUART.c ****             * NO_EVENT_PENDING: notifies that data has been copied from endpoint buffer.
2140:.\Generated_Source\PSoC5/USBUART.c ****             */
2141:.\Generated_Source\PSoC5/USBUART.c ****         }
2142:.\Generated_Source\PSoC5/USBUART.c ****         #endif /* (USBUART_EP_MANAGEMENT_DMA_MANUAL) */
2143:.\Generated_Source\PSoC5/USBUART.c **** 
2144:.\Generated_Source\PSoC5/USBUART.c ****         #if (USBUART_EP_MANAGEMENT_DMA_AUTO)
2145:.\Generated_Source\PSoC5/USBUART.c ****         {
2146:.\Generated_Source\PSoC5/USBUART.c ****             uint32 lengthDescr0, lengthDescr1;
2147:.\Generated_Source\PSoC5/USBUART.c ****             uint32 channelNum = (uint32) USBUART_DmaChan[epNumber];
2148:.\Generated_Source\PSoC5/USBUART.c **** 
2149:.\Generated_Source\PSoC5/USBUART.c ****             /* Get number of full bursts. */
2150:.\Generated_Source\PSoC5/USBUART.c ****             USBUART_DmaEpBurstCnt[epNumber] = (uint8) (adjLength / USBUART_DMA_BYTES_PER_BURST);
2151:.\Generated_Source\PSoC5/USBUART.c **** 
2152:.\Generated_Source\PSoC5/USBUART.c ****             /* Get number of elements in last burst. */
2153:.\Generated_Source\PSoC5/USBUART.c ****             USBUART_DmaEpLastBurstEl[epNumber] = (uint8) (adjLength % USBUART_DMA_BYTES_PER_BURST);
2154:.\Generated_Source\PSoC5/USBUART.c **** 
2155:.\Generated_Source\PSoC5/USBUART.c ****             /* Get total number of bursts. */
2156:.\Generated_Source\PSoC5/USBUART.c ****             USBUART_DmaEpBurstCnt[epNumber] += (0u != USBUART_DmaEpLastBurstEl[epNumber]) ? 1u : 0u
2157:.\Generated_Source\PSoC5/USBUART.c **** 
2158:.\Generated_Source\PSoC5/USBUART.c ****             /* Adjust number of data elements transferred in last burst. */
2159:.\Generated_Source\PSoC5/USBUART.c ****             USBUART_DmaEpLastBurstEl[epNumber] = (0u != USBUART_DmaEpLastBurstEl[epNumber]) ?
2160:.\Generated_Source\PSoC5/USBUART.c ****                                                                   ((USBUART_DmaEpLastBurstEl[epNumb
2161:.\Generated_Source\PSoC5/USBUART.c ****                                                                    (USBUART_DMA_HALFWORDS_PER_BURST
2162:.\Generated_Source\PSoC5/USBUART.c **** 
2163:.\Generated_Source\PSoC5/USBUART.c ****             /* Get number of data elements to transfer for descriptor 0 and 1. */
2164:.\Generated_Source\PSoC5/USBUART.c ****             lengthDescr0 = (1u == USBUART_DmaEpBurstCnt[epNumber]) ? USBUART_DmaEpLastBurstEl[epNum
2165:.\Generated_Source\PSoC5/USBUART.c ****             lengthDescr1 = (2u == USBUART_DmaEpBurstCnt[epNumber]) ? USBUART_DmaEpLastBurstEl[epNum
2166:.\Generated_Source\PSoC5/USBUART.c **** 
2167:.\Generated_Source\PSoC5/USBUART.c ****             /* Mark last descriptor to be executed. */
2168:.\Generated_Source\PSoC5/USBUART.c ****             USBUART_DmaEpLastBurstEl[epNumber] |= (0u != (USBUART_DmaEpBurstCnt[epNumber] & 0x1u)) 
2169:.\Generated_Source\PSoC5/USBUART.c ****                                                                     USBUART_DMA_DESCR0_MASK : USBUA
2170:.\Generated_Source\PSoC5/USBUART.c **** 
2171:.\Generated_Source\PSoC5/USBUART.c ****             /* Mark if revert number of data elements in descriptor after transfer completion. */
2172:.\Generated_Source\PSoC5/USBUART.c ****             USBUART_DmaEpLastBurstEl[epNumber] |= (USBUART_DmaEpBurstCnt[epNumber] > 2u) ? USBUART_
2173:.\Generated_Source\PSoC5/USBUART.c **** 
2174:.\Generated_Source\PSoC5/USBUART.c ****             /* Mark that 16-bits access to data register is performed. */
2175:.\Generated_Source\PSoC5/USBUART.c ****             USBUART_DmaEpLastBurstEl[epNumber] |= USBUART_DMA_DESCR_16BITS;
2176:.\Generated_Source\PSoC5/USBUART.c **** 
2177:.\Generated_Source\PSoC5/USBUART.c ****             /* Adjust burst counter taking to account: 2 valid descriptors and interrupt trigger af
2178:.\Generated_Source\PSoC5/USBUART.c ****             USBUART_DmaEpBurstCnt[epNumber] = USBUART_DMA_GET_BURST_CNT(USBUART_DmaEpBurstCnt[epNum
2179:.\Generated_Source\PSoC5/USBUART.c **** 
2180:.\Generated_Source\PSoC5/USBUART.c ****             /* Store address of buffer and burst counter for endpoint. */
2181:.\Generated_Source\PSoC5/USBUART.c ****             USBUART_DmaEpBufferAddrBackup[epNumber] = (uint32) pData;
2182:.\Generated_Source\PSoC5/USBUART.c ****             USBUART_DmaEpBurstCntBackup[epNumber]   = USBUART_DmaEpBurstCnt[epNumber];
2183:.\Generated_Source\PSoC5/USBUART.c **** 
2184:.\Generated_Source\PSoC5/USBUART.c ****             /* Disable DMA channel: start configuration. */
2185:.\Generated_Source\PSoC5/USBUART.c ****             USBUART_CyDmaChDisable(channelNum);
2186:.\Generated_Source\PSoC5/USBUART.c **** 
2187:.\Generated_Source\PSoC5/USBUART.c ****             /* Set destination address. */
2188:.\Generated_Source\PSoC5/USBUART.c ****             USBUART_CyDmaSetSrcAddress(channelNum, USBUART_DMA_DESCR0, (void*) &USBUART_ARB_EP16_BA
2189:.\Generated_Source\PSoC5/USBUART.c ****             USBUART_CyDmaSetSrcAddress(channelNum, USBUART_DMA_DESCR1, (void*) &USBUART_ARB_EP16_BA
2190:.\Generated_Source\PSoC5/USBUART.c **** 
2191:.\Generated_Source\PSoC5/USBUART.c ****             USBUART_CyDmaSetDstAddress(channelNum, USBUART_DMA_DESCR0, (void*) ((uint32) pData));
2192:.\Generated_Source\PSoC5/USBUART.c ****             USBUART_CyDmaSetDstAddress(channelNum, USBUART_DMA_DESCR1, (void*) ((uint32) pData + US
ARM GAS  C:\Users\Tim\AppData\Local\Temp\ccA4EuzY.s 			page 56


2193:.\Generated_Source\PSoC5/USBUART.c **** 
2194:.\Generated_Source\PSoC5/USBUART.c ****             /* Configure DMA descriptor 0. */
2195:.\Generated_Source\PSoC5/USBUART.c ****             USBUART_CyDmaSetConfiguration(channelNum, USBUART_DMA_DESCR0, USBUART_DMA_COMMON_CFG  |
2196:.\Generated_Source\PSoC5/USBUART.c ****                                                     CYDMA_HALFWORD | CYDMA_WORD_ELEMENT | CYDMA_INC
2197:.\Generated_Source\PSoC5/USBUART.c **** 
2198:.\Generated_Source\PSoC5/USBUART.c ****             /* Configure DMA descriptor 1. */
2199:.\Generated_Source\PSoC5/USBUART.c ****             USBUART_CyDmaSetConfiguration(channelNum, USBUART_DMA_DESCR1, USBUART_DMA_COMMON_CFG  |
2200:.\Generated_Source\PSoC5/USBUART.c ****                                                     CYDMA_HALFWORD | CYDMA_WORD_ELEMENT | CYDMA_INC
2201:.\Generated_Source\PSoC5/USBUART.c **** 
2202:.\Generated_Source\PSoC5/USBUART.c ****             /* Enable interrupt from DMA channel. */
2203:.\Generated_Source\PSoC5/USBUART.c ****             USBUART_CyDmaSetInterruptMask(channelNum);
2204:.\Generated_Source\PSoC5/USBUART.c **** 
2205:.\Generated_Source\PSoC5/USBUART.c ****             /* Validate DMA descriptor 0 and 1. */
2206:.\Generated_Source\PSoC5/USBUART.c ****             USBUART_CyDmaValidateDescriptor(channelNum, USBUART_DMA_DESCR0);
2207:.\Generated_Source\PSoC5/USBUART.c ****             USBUART_CyDmaValidateDescriptor(channelNum, USBUART_DMA_DESCR1);
2208:.\Generated_Source\PSoC5/USBUART.c **** 
2209:.\Generated_Source\PSoC5/USBUART.c ****             /* Enable DMA channel: configuration complete. */
2210:.\Generated_Source\PSoC5/USBUART.c ****             USBUART_CyDmaChEnable(channelNum);
2211:.\Generated_Source\PSoC5/USBUART.c **** 
2212:.\Generated_Source\PSoC5/USBUART.c ****             /* OUT endpoint has to be armed again by user when DMA transfers have been completed.
2213:.\Generated_Source\PSoC5/USBUART.c ****             * NO_EVENT_PENDING: notifies that data has been copied from endpoint buffer.
2214:.\Generated_Source\PSoC5/USBUART.c ****             */
2215:.\Generated_Source\PSoC5/USBUART.c ****         }
2216:.\Generated_Source\PSoC5/USBUART.c ****         #endif /* (USBUART_EP_MANAGEMENT_DMA_AUTO) */
2217:.\Generated_Source\PSoC5/USBUART.c ****     #endif /* (USBUART_EP_MANAGEMENT_MANUAL) */
2218:.\Generated_Source\PSoC5/USBUART.c ****     }
2219:.\Generated_Source\PSoC5/USBUART.c ****     else
2220:.\Generated_Source\PSoC5/USBUART.c ****     {
2221:.\Generated_Source\PSoC5/USBUART.c ****         length = 0u;
2222:.\Generated_Source\PSoC5/USBUART.c ****     }
2223:.\Generated_Source\PSoC5/USBUART.c **** 
2224:.\Generated_Source\PSoC5/USBUART.c ****     return (length);
2225:.\Generated_Source\PSoC5/USBUART.c **** }
2226:.\Generated_Source\PSoC5/USBUART.c **** #endif /* (USBUART_16BITS_EP_ACCESS_ENABLE) */
2227:.\Generated_Source\PSoC5/USBUART.c **** 
2228:.\Generated_Source\PSoC5/USBUART.c **** 
2229:.\Generated_Source\PSoC5/USBUART.c **** /*******************************************************************************
2230:.\Generated_Source\PSoC5/USBUART.c **** * Function Name: USBUART_EnableOutEP
2231:.\Generated_Source\PSoC5/USBUART.c **** ****************************************************************************//**
2232:.\Generated_Source\PSoC5/USBUART.c **** *
2233:.\Generated_Source\PSoC5/USBUART.c **** *  This function enables the specified endpoint for OUT transfers. Do not call
2234:.\Generated_Source\PSoC5/USBUART.c **** *  this function for IN endpoints.
2235:.\Generated_Source\PSoC5/USBUART.c **** *
2236:.\Generated_Source\PSoC5/USBUART.c **** *  \param epNumber: Contains the data endpoint number. Valid values are between
2237:.\Generated_Source\PSoC5/USBUART.c **** *  1 and 8.
2238:.\Generated_Source\PSoC5/USBUART.c **** *
2239:.\Generated_Source\PSoC5/USBUART.c **** * \globalvars
2240:.\Generated_Source\PSoC5/USBUART.c **** *
2241:.\Generated_Source\PSoC5/USBUART.c **** *  \ref USBUART_EP[epNumber].apiEpState - set to NO_EVENT_PENDING
2242:.\Generated_Source\PSoC5/USBUART.c **** *
2243:.\Generated_Source\PSoC5/USBUART.c **** * \reentrant
2244:.\Generated_Source\PSoC5/USBUART.c **** *  No.
2245:.\Generated_Source\PSoC5/USBUART.c **** *
2246:.\Generated_Source\PSoC5/USBUART.c **** *******************************************************************************/
2247:.\Generated_Source\PSoC5/USBUART.c **** void USBUART_EnableOutEP(uint8 epNumber) 
2248:.\Generated_Source\PSoC5/USBUART.c **** {
 930              		.loc 1 2248 0
ARM GAS  C:\Users\Tim\AppData\Local\Temp\ccA4EuzY.s 			page 57


 931              		.cfi_startproc
 932              		@ args = 0, pretend = 0, frame = 0
 933              		@ frame_needed = 0, uses_anonymous_args = 0
 934              		@ link register save eliminated.
 935              	.LVL69:
2249:.\Generated_Source\PSoC5/USBUART.c ****     if ((epNumber > USBUART_EP0) && (epNumber < USBUART_MAX_EP))
 936              		.loc 1 2249 0
 937 0000 431E     		subs	r3, r0, #1
 938 0002 DBB2     		uxtb	r3, r3
 939 0004 072B     		cmp	r3, #7
 940 0006 0BD8     		bhi	.L65
2250:.\Generated_Source\PSoC5/USBUART.c ****     {
2251:.\Generated_Source\PSoC5/USBUART.c ****         USBUART_EP[epNumber].apiEpState = USBUART_NO_EVENT_PENDING;
 941              		.loc 1 2251 0
 942 0008 4300     		lsls	r3, r0, #1
 943 000a 0344     		add	r3, r3, r0
 944 000c 9B00     		lsls	r3, r3, #2
 945 000e 054A     		ldr	r2, .L67
 946 0010 1344     		add	r3, r3, r2
 947 0012 0022     		movs	r2, #0
 948 0014 5A70     		strb	r2, [r3, #1]
2252:.\Generated_Source\PSoC5/USBUART.c **** 
2253:.\Generated_Source\PSoC5/USBUART.c ****         /* Enable OUT endpoint to be written by Host. */
2254:.\Generated_Source\PSoC5/USBUART.c ****         USBUART_SIE_EP_BASE.sieEp[epNumber].epCr0 = USBUART_EP[epNumber].epMode;
 949              		.loc 1 2254 0
 950 0016 5A79     		ldrb	r2, [r3, #5]	@ zero_extendqisi2
 951 0018 D2B2     		uxtb	r2, r2
 952 001a 0001     		lsls	r0, r0, #4
 953              	.LVL70:
 954 001c 024B     		ldr	r3, .L67+4
 955 001e 1A54     		strb	r2, [r3, r0]
 956              	.L65:
 957 0020 7047     		bx	lr
 958              	.L68:
 959 0022 00BF     		.align	2
 960              	.L67:
 961 0024 00000000 		.word	USBUART_EP
 962 0028 FE5F0040 		.word	1073766398
 963              		.cfi_endproc
 964              	.LFE13:
 965              		.size	USBUART_EnableOutEP, .-USBUART_EnableOutEP
 966              		.section	.text.USBUART_ReadOutEP,"ax",%progbits
 967              		.align	2
 968              		.global	USBUART_ReadOutEP
 969              		.thumb
 970              		.thumb_func
 971              		.type	USBUART_ReadOutEP, %function
 972              	USBUART_ReadOutEP:
 973              	.LFB12:
1637:.\Generated_Source\PSoC5/USBUART.c ****     if ((pData != NULL) && (epNumber > USBUART_EP0) && (epNumber < USBUART_MAX_EP))
 974              		.loc 1 1637 0
 975              		.cfi_startproc
 976              		@ args = 0, pretend = 0, frame = 0
 977              		@ frame_needed = 0, uses_anonymous_args = 0
 978              	.LVL71:
 979 0000 70B5     		push	{r4, r5, r6, lr}
 980              		.cfi_def_cfa_offset 16
ARM GAS  C:\Users\Tim\AppData\Local\Temp\ccA4EuzY.s 			page 58


 981              		.cfi_offset 4, -16
 982              		.cfi_offset 5, -12
 983              		.cfi_offset 6, -8
 984              		.cfi_offset 14, -4
1638:.\Generated_Source\PSoC5/USBUART.c ****     {
 985              		.loc 1 1638 0
 986 0002 D9B1     		cbz	r1, .L74
 987 0004 0546     		mov	r5, r0
 988 0006 1446     		mov	r4, r2
 989 0008 0E46     		mov	r6, r1
1638:.\Generated_Source\PSoC5/USBUART.c ****     {
 990              		.loc 1 1638 0 is_stmt 0 discriminator 1
 991 000a C8B1     		cbz	r0, .L75
1638:.\Generated_Source\PSoC5/USBUART.c ****     {
 992              		.loc 1 1638 0 discriminator 2
 993 000c 0828     		cmp	r0, #8
 994 000e 19D8     		bhi	.L76
1642:.\Generated_Source\PSoC5/USBUART.c ****     #endif /* (!USBUART_EP_MANAGEMENT_DMA_AUTO) */
 995              		.loc 1 1642 0 is_stmt 1
 996 0010 FFF7FEFF 		bl	USBUART_GetEPCount
 997              	.LVL72:
 998 0014 A042     		cmp	r0, r4
 999 0016 03D2     		bcs	.L71
1642:.\Generated_Source\PSoC5/USBUART.c ****     #endif /* (!USBUART_EP_MANAGEMENT_DMA_AUTO) */
 1000              		.loc 1 1642 0 is_stmt 0 discriminator 1
 1001 0018 2846     		mov	r0, r5
 1002 001a FFF7FEFF 		bl	USBUART_GetEPCount
 1003              	.LVL73:
 1004 001e 0446     		mov	r4, r0
 1005              	.L71:
 1006              	.LVL74:
 1007              	.LBB4:
1649:.\Generated_Source\PSoC5/USBUART.c ****             {
 1008              		.loc 1 1649 0 is_stmt 1 discriminator 4
 1009 0020 0023     		movs	r3, #0
 1010 0022 05E0     		b	.L72
 1011              	.LVL75:
 1012              	.L73:
1651:.\Generated_Source\PSoC5/USBUART.c ****             }
 1013              		.loc 1 1651 0 discriminator 3
 1014 0024 2901     		lsls	r1, r5, #4
 1015 0026 094A     		ldr	r2, .L78
 1016 0028 525C     		ldrb	r2, [r2, r1]	@ zero_extendqisi2
 1017 002a F254     		strb	r2, [r6, r3]
1649:.\Generated_Source\PSoC5/USBUART.c ****             {
 1018              		.loc 1 1649 0 discriminator 3
 1019 002c 0133     		adds	r3, r3, #1
 1020              	.LVL76:
 1021 002e 9BB2     		uxth	r3, r3
 1022              	.LVL77:
 1023              	.L72:
1649:.\Generated_Source\PSoC5/USBUART.c ****             {
 1024              		.loc 1 1649 0 is_stmt 0 discriminator 1
 1025 0030 A342     		cmp	r3, r4
 1026 0032 F7D3     		bcc	.L73
 1027              	.LBE4:
1656:.\Generated_Source\PSoC5/USBUART.c ****     #else
ARM GAS  C:\Users\Tim\AppData\Local\Temp\ccA4EuzY.s 			page 59


 1028              		.loc 1 1656 0 is_stmt 1
 1029 0034 2846     		mov	r0, r5
 1030 0036 FFF7FEFF 		bl	USBUART_EnableOutEP
 1031              	.LVL78:
 1032 003a 04E0     		b	.L70
 1033              	.LVL79:
 1034              	.L74:
1798:.\Generated_Source\PSoC5/USBUART.c ****     }
 1035              		.loc 1 1798 0
 1036 003c 0024     		movs	r4, #0
 1037 003e 02E0     		b	.L70
 1038              	.L75:
 1039 0040 0024     		movs	r4, #0
 1040 0042 00E0     		b	.L70
 1041              	.L76:
 1042 0044 0024     		movs	r4, #0
 1043              	.LVL80:
 1044              	.L70:
1802:.\Generated_Source\PSoC5/USBUART.c **** 
 1045              		.loc 1 1802 0
 1046 0046 2046     		mov	r0, r4
 1047 0048 70BD     		pop	{r4, r5, r6, pc}
 1048              	.LVL81:
 1049              	.L79:
 1050 004a 00BF     		.align	2
 1051              	.L78:
 1052 004c 78600040 		.word	1073766520
 1053              		.cfi_endproc
 1054              	.LFE12:
 1055              		.size	USBUART_ReadOutEP, .-USBUART_ReadOutEP
 1056              		.section	.text.USBUART_DisableOutEP,"ax",%progbits
 1057              		.align	2
 1058              		.global	USBUART_DisableOutEP
 1059              		.thumb
 1060              		.thumb_func
 1061              		.type	USBUART_DisableOutEP, %function
 1062              	USBUART_DisableOutEP:
 1063              	.LFB14:
2255:.\Generated_Source\PSoC5/USBUART.c ****         
2256:.\Generated_Source\PSoC5/USBUART.c ****     }
2257:.\Generated_Source\PSoC5/USBUART.c **** }
2258:.\Generated_Source\PSoC5/USBUART.c **** 
2259:.\Generated_Source\PSoC5/USBUART.c **** 
2260:.\Generated_Source\PSoC5/USBUART.c **** /*******************************************************************************
2261:.\Generated_Source\PSoC5/USBUART.c **** * Function Name: USBUART_DisableOutEP
2262:.\Generated_Source\PSoC5/USBUART.c **** ****************************************************************************//**
2263:.\Generated_Source\PSoC5/USBUART.c **** *
2264:.\Generated_Source\PSoC5/USBUART.c **** *  This function disables the specified USBFS OUT endpoint. Do not call this
2265:.\Generated_Source\PSoC5/USBUART.c **** *  function for IN endpoints.
2266:.\Generated_Source\PSoC5/USBUART.c **** *
2267:.\Generated_Source\PSoC5/USBUART.c **** *  \param epNumber: Contains the data endpoint number.
2268:.\Generated_Source\PSoC5/USBUART.c **** *            Valid values are between 1 and 8.
2269:.\Generated_Source\PSoC5/USBUART.c **** *
2270:.\Generated_Source\PSoC5/USBUART.c **** *******************************************************************************/
2271:.\Generated_Source\PSoC5/USBUART.c **** void USBUART_DisableOutEP(uint8 epNumber) 
2272:.\Generated_Source\PSoC5/USBUART.c **** {
 1064              		.loc 1 2272 0
ARM GAS  C:\Users\Tim\AppData\Local\Temp\ccA4EuzY.s 			page 60


 1065              		.cfi_startproc
 1066              		@ args = 0, pretend = 0, frame = 0
 1067              		@ frame_needed = 0, uses_anonymous_args = 0
 1068              		@ link register save eliminated.
 1069              	.LVL82:
2273:.\Generated_Source\PSoC5/USBUART.c ****     if ((epNumber > USBUART_EP0) && (epNumber < USBUART_MAX_EP))
 1070              		.loc 1 2273 0
 1071 0000 431E     		subs	r3, r0, #1
 1072 0002 DBB2     		uxtb	r3, r3
 1073 0004 072B     		cmp	r3, #7
 1074 0006 03D8     		bhi	.L80
2274:.\Generated_Source\PSoC5/USBUART.c ****     {
2275:.\Generated_Source\PSoC5/USBUART.c ****         /* Set NAK response for OUT endpoint. */
2276:.\Generated_Source\PSoC5/USBUART.c ****         USBUART_SIE_EP_BASE.sieEp[epNumber].epCr0 = USBUART_MODE_NAK_OUT;
 1075              		.loc 1 2276 0
 1076 0008 0001     		lsls	r0, r0, #4
 1077              	.LVL83:
 1078 000a 024B     		ldr	r3, .L82
 1079 000c 0822     		movs	r2, #8
 1080 000e 1A54     		strb	r2, [r3, r0]
 1081              	.L80:
 1082 0010 7047     		bx	lr
 1083              	.L83:
 1084 0012 00BF     		.align	2
 1085              	.L82:
 1086 0014 FE5F0040 		.word	1073766398
 1087              		.cfi_endproc
 1088              	.LFE14:
 1089              		.size	USBUART_DisableOutEP, .-USBUART_DisableOutEP
 1090              		.section	.text.USBUART_Force,"ax",%progbits
 1091              		.align	2
 1092              		.global	USBUART_Force
 1093              		.thumb
 1094              		.thumb_func
 1095              		.type	USBUART_Force, %function
 1096              	USBUART_Force:
 1097              	.LFB15:
2277:.\Generated_Source\PSoC5/USBUART.c ****     }
2278:.\Generated_Source\PSoC5/USBUART.c **** }
2279:.\Generated_Source\PSoC5/USBUART.c **** 
2280:.\Generated_Source\PSoC5/USBUART.c **** 
2281:.\Generated_Source\PSoC5/USBUART.c **** /*******************************************************************************
2282:.\Generated_Source\PSoC5/USBUART.c **** * Function Name: USBUART_Force
2283:.\Generated_Source\PSoC5/USBUART.c **** ****************************************************************************//**
2284:.\Generated_Source\PSoC5/USBUART.c **** *
2285:.\Generated_Source\PSoC5/USBUART.c **** *  This function forces a USB J, K, or SE0 state on the D+/D– lines. It provides
2286:.\Generated_Source\PSoC5/USBUART.c **** *  the necessary mechanism for a USB device application to perform a USB Remote
2287:.\Generated_Source\PSoC5/USBUART.c **** *  Wakeup. For more information, see the USB 2.0 Specification for details on
2288:.\Generated_Source\PSoC5/USBUART.c **** *  Suspend and Resume.
2289:.\Generated_Source\PSoC5/USBUART.c **** *
2290:.\Generated_Source\PSoC5/USBUART.c **** *  \param state A byte indicating which of the four bus states to enable.
2291:.\Generated_Source\PSoC5/USBUART.c **** *        Symbolic names  and their associated values are listed here:
2292:.\Generated_Source\PSoC5/USBUART.c **** *    State                      |Description
2293:.\Generated_Source\PSoC5/USBUART.c **** *    ---------------------------|----------------------------------------------
2294:.\Generated_Source\PSoC5/USBUART.c **** *    USBUART_FORCE_J   | Force a J State onto the D+/D– lines
2295:.\Generated_Source\PSoC5/USBUART.c **** *    USBUART_FORCE_K   | Force a K State onto the D+/D– lines
2296:.\Generated_Source\PSoC5/USBUART.c **** *    USBUART_FORCE_SE0 | Force a Single Ended 0 onto the D+/D– lines
ARM GAS  C:\Users\Tim\AppData\Local\Temp\ccA4EuzY.s 			page 61


