ARM GAS  C:\Users\Tim\AppData\Local\Temp\ccA4EuzY.s 			page 1


   1              		.syntax unified
   2              		.cpu cortex-m3
   3              		.fpu softvfp
   4              		.eabi_attribute 20, 1
   5              		.eabi_attribute 21, 1
   6              		.eabi_attribute 23, 3
   7              		.eabi_attribute 24, 1
   8              		.eabi_attribute 25, 1
   9              		.eabi_attribute 26, 1
  10              		.eabi_attribute 30, 1
  11              		.eabi_attribute 34, 1
  12              		.eabi_attribute 18, 4
  13              		.thumb
  14              		.file	"USBUART.c"
  15              		.text
  16              	.Ltext0:
  17              		.cfi_sections	.debug_frame
  18              		.section	.text.USBUART_Init,"ax",%progbits
  19              		.align	2
  20              		.global	USBUART_Init
  21              		.thumb
  22              		.thumb_func
  23              		.type	USBUART_Init, %function
  24              	USBUART_Init:
  25              	.LFB1:
  26              		.file 1 ".\\Generated_Source\\PSoC5\\USBUART.c"
   1:.\Generated_Source\PSoC5/USBUART.c **** /***************************************************************************//**
   2:.\Generated_Source\PSoC5/USBUART.c **** * \file USBUART.c
   3:.\Generated_Source\PSoC5/USBUART.c **** * \version 3.0
   4:.\Generated_Source\PSoC5/USBUART.c **** *
   5:.\Generated_Source\PSoC5/USBUART.c **** * \brief
   6:.\Generated_Source\PSoC5/USBUART.c **** *  This file contains the global USBFS API functions.
   7:.\Generated_Source\PSoC5/USBUART.c **** *
   8:.\Generated_Source\PSoC5/USBUART.c **** * Note:
   9:.\Generated_Source\PSoC5/USBUART.c **** *  Many of the functions use an endpoint number. SRAM arrays are sized with 9
  10:.\Generated_Source\PSoC5/USBUART.c **** *  elements, so they are indexed directly by epNumber.  The SIE and ARB
  11:.\Generated_Source\PSoC5/USBUART.c **** *  registers are indexed by variations of epNumber - 1.
  12:.\Generated_Source\PSoC5/USBUART.c **** *
  13:.\Generated_Source\PSoC5/USBUART.c **** ********************************************************************************
  14:.\Generated_Source\PSoC5/USBUART.c **** * \copyright
  15:.\Generated_Source\PSoC5/USBUART.c **** * Copyright 2008-2015, Cypress Semiconductor Corporation.  All rights reserved.
  16:.\Generated_Source\PSoC5/USBUART.c **** * You may use this file only in accordance with the license, terms, conditions,
  17:.\Generated_Source\PSoC5/USBUART.c **** * disclaimers, and limitations in the end user license agreement accompanying
  18:.\Generated_Source\PSoC5/USBUART.c **** * the software package with which this file was provided.
  19:.\Generated_Source\PSoC5/USBUART.c **** *******************************************************************************/
  20:.\Generated_Source\PSoC5/USBUART.c **** 
  21:.\Generated_Source\PSoC5/USBUART.c **** #include "USBUART_pvt.h"
  22:.\Generated_Source\PSoC5/USBUART.c **** #include "USBUART_cydmac.h"
  23:.\Generated_Source\PSoC5/USBUART.c **** #include "USBUART_hid.h"
  24:.\Generated_Source\PSoC5/USBUART.c **** 
  25:.\Generated_Source\PSoC5/USBUART.c **** 
  26:.\Generated_Source\PSoC5/USBUART.c **** /***************************************
  27:.\Generated_Source\PSoC5/USBUART.c **** * Global data allocation
  28:.\Generated_Source\PSoC5/USBUART.c **** ***************************************/
  29:.\Generated_Source\PSoC5/USBUART.c **** 
  30:.\Generated_Source\PSoC5/USBUART.c **** /** Indicates whether the USBFS has been initialized. The variable is
  31:.\Generated_Source\PSoC5/USBUART.c **** * initialized to 0 after device reset and set to 1 the first time USBFS_Start()
ARM GAS  C:\Users\Tim\AppData\Local\Temp\ccA4EuzY.s 			page 2


  32:.\Generated_Source\PSoC5/USBUART.c **** * is called. This allows the Component to restart without reinitialization after
  33:.\Generated_Source\PSoC5/USBUART.c **** * the first call to the USBFS_Start() routine.
  34:.\Generated_Source\PSoC5/USBUART.c **** * If re-initialization of the Component is required, the variable should be set
  35:.\Generated_Source\PSoC5/USBUART.c **** * to 0 before the USBFS_Start() routine is called. Alternatively, the USBFS can
  36:.\Generated_Source\PSoC5/USBUART.c **** * be reinitialized by calling both USBFS_Init() and USBFS_InitComponent()
  37:.\Generated_Source\PSoC5/USBUART.c **** * functions.
  38:.\Generated_Source\PSoC5/USBUART.c **** */
  39:.\Generated_Source\PSoC5/USBUART.c **** uint8 USBUART_initVar = 0u;
  40:.\Generated_Source\PSoC5/USBUART.c **** 
  41:.\Generated_Source\PSoC5/USBUART.c **** #if (USBUART_EP_MANAGEMENT_DMA)
  42:.\Generated_Source\PSoC5/USBUART.c ****     #if (CY_PSOC4)
  43:.\Generated_Source\PSoC5/USBUART.c ****         static void USBUART_InitEpDma(void);
  44:.\Generated_Source\PSoC5/USBUART.c **** 
  45:.\Generated_Source\PSoC5/USBUART.c ****         /* DMA chanels assigend for endpoints. */
  46:.\Generated_Source\PSoC5/USBUART.c ****         const uint8 USBUART_DmaChan[USBUART_MAX_EP] =
  47:.\Generated_Source\PSoC5/USBUART.c ****         {
  48:.\Generated_Source\PSoC5/USBUART.c ****             0u,
  49:.\Generated_Source\PSoC5/USBUART.c ****             0u,
  50:.\Generated_Source\PSoC5/USBUART.c ****             0u,
  51:.\Generated_Source\PSoC5/USBUART.c ****             0u,
  52:.\Generated_Source\PSoC5/USBUART.c ****             0u,
  53:.\Generated_Source\PSoC5/USBUART.c ****             0u,
  54:.\Generated_Source\PSoC5/USBUART.c ****             0u,
  55:.\Generated_Source\PSoC5/USBUART.c ****             0u,
  56:.\Generated_Source\PSoC5/USBUART.c ****             0u,
  57:.\Generated_Source\PSoC5/USBUART.c ****         };        
  58:.\Generated_Source\PSoC5/USBUART.c ****     #else
  59:.\Generated_Source\PSoC5/USBUART.c ****         /* DMA chanels assigend for endpoints. */
  60:.\Generated_Source\PSoC5/USBUART.c ****         uint8 USBUART_DmaChan[USBUART_MAX_EP];
  61:.\Generated_Source\PSoC5/USBUART.c ****         
  62:.\Generated_Source\PSoC5/USBUART.c ****         /* DMA TDs require for PSoC 3/5LP operation. */
  63:.\Generated_Source\PSoC5/USBUART.c ****         uint8 USBUART_DmaTd[USBUART_MAX_EP];
  64:.\Generated_Source\PSoC5/USBUART.c ****     #endif /* (CY_PSOC4) */
  65:.\Generated_Source\PSoC5/USBUART.c **** #endif /* (USBUART_EP_MANAGEMENT_DMA) */
  66:.\Generated_Source\PSoC5/USBUART.c **** 
  67:.\Generated_Source\PSoC5/USBUART.c **** #if (USBUART_EP_MANAGEMENT_DMA_AUTO)
  68:.\Generated_Source\PSoC5/USBUART.c **** #if (CY_PSOC4)
  69:.\Generated_Source\PSoC5/USBUART.c ****     /* Number of DMA bursts. */
  70:.\Generated_Source\PSoC5/USBUART.c ****     uint8  USBUART_DmaEpBurstCnt   [USBUART_MAX_EP];
  71:.\Generated_Source\PSoC5/USBUART.c ****     
  72:.\Generated_Source\PSoC5/USBUART.c ****     /* Number of bytes to transfer in last DMA burst. */
  73:.\Generated_Source\PSoC5/USBUART.c ****     uint8  USBUART_DmaEpLastBurstEl[USBUART_MAX_EP];
  74:.\Generated_Source\PSoC5/USBUART.c **** 
  75:.\Generated_Source\PSoC5/USBUART.c ****     /* Storage for arrays above. */
  76:.\Generated_Source\PSoC5/USBUART.c ****     uint8  USBUART_DmaEpBurstCntBackup  [USBUART_MAX_EP];
  77:.\Generated_Source\PSoC5/USBUART.c ****     uint32 USBUART_DmaEpBufferAddrBackup[USBUART_MAX_EP];
  78:.\Generated_Source\PSoC5/USBUART.c ****      
  79:.\Generated_Source\PSoC5/USBUART.c ****     /* DMA trigger mux output for usb.dma_req[0-7]. */
  80:.\Generated_Source\PSoC5/USBUART.c ****     const uint8 USBUART_DmaReqOut[USBUART_MAX_EP] =
  81:.\Generated_Source\PSoC5/USBUART.c ****     {
  82:.\Generated_Source\PSoC5/USBUART.c ****         0u,
  83:.\Generated_Source\PSoC5/USBUART.c ****         USBUART_ep1_dma__TR_OUTPUT,
  84:.\Generated_Source\PSoC5/USBUART.c ****         USBUART_ep2_dma__TR_OUTPUT,
  85:.\Generated_Source\PSoC5/USBUART.c ****         USBUART_ep3_dma__TR_OUTPUT,
  86:.\Generated_Source\PSoC5/USBUART.c ****         0u,
  87:.\Generated_Source\PSoC5/USBUART.c ****         0u,
  88:.\Generated_Source\PSoC5/USBUART.c ****         0u,
ARM GAS  C:\Users\Tim\AppData\Local\Temp\ccA4EuzY.s 			page 3


  89:.\Generated_Source\PSoC5/USBUART.c ****         0u,
  90:.\Generated_Source\PSoC5/USBUART.c ****         0u,
  91:.\Generated_Source\PSoC5/USBUART.c ****     };
  92:.\Generated_Source\PSoC5/USBUART.c **** 
  93:.\Generated_Source\PSoC5/USBUART.c ****     /* DMA trigger mux output for usb.dma_burstend[0-7]. */
  94:.\Generated_Source\PSoC5/USBUART.c ****     const uint8 USBUART_DmaBurstEndOut[USBUART_MAX_EP] =
  95:.\Generated_Source\PSoC5/USBUART.c ****     {
  96:.\Generated_Source\PSoC5/USBUART.c ****         0u,
  97:.\Generated_Source\PSoC5/USBUART.c ****         USBUART_BURSTEND_0_TR_OUTPUT,
  98:.\Generated_Source\PSoC5/USBUART.c ****         USBUART_BURSTEND_1_TR_OUTPUT,
  99:.\Generated_Source\PSoC5/USBUART.c ****         USBUART_BURSTEND_2_TR_OUTPUT,
 100:.\Generated_Source\PSoC5/USBUART.c ****         USBUART_BURSTEND_3_TR_OUTPUT,
 101:.\Generated_Source\PSoC5/USBUART.c ****         USBUART_BURSTEND_4_TR_OUTPUT,
 102:.\Generated_Source\PSoC5/USBUART.c ****         USBUART_BURSTEND_5_TR_OUTPUT,
 103:.\Generated_Source\PSoC5/USBUART.c ****         USBUART_BURSTEND_6_TR_OUTPUT,
 104:.\Generated_Source\PSoC5/USBUART.c ****         USBUART_BURSTEND_7_TR_OUTPUT
 105:.\Generated_Source\PSoC5/USBUART.c ****     };
 106:.\Generated_Source\PSoC5/USBUART.c ****     
 107:.\Generated_Source\PSoC5/USBUART.c **** #else
 108:.\Generated_Source\PSoC5/USBUART.c ****     #if (USBUART_EP_DMA_AUTO_OPT == 0u)
 109:.\Generated_Source\PSoC5/USBUART.c ****         static uint8 clearInDataRdyStatus = USBUART_ARB_EPX_CFG_DEFAULT;
 110:.\Generated_Source\PSoC5/USBUART.c ****         uint8 USBUART_DmaNextTd[USBUART_MAX_EP];
 111:.\Generated_Source\PSoC5/USBUART.c ****         const uint8 USBUART_epX_TD_TERMOUT_EN[USBUART_MAX_EP] =
 112:.\Generated_Source\PSoC5/USBUART.c ****         {
 113:.\Generated_Source\PSoC5/USBUART.c ****             0u,
 114:.\Generated_Source\PSoC5/USBUART.c ****             0u,
 115:.\Generated_Source\PSoC5/USBUART.c ****             0u,
 116:.\Generated_Source\PSoC5/USBUART.c ****             0u,
 117:.\Generated_Source\PSoC5/USBUART.c ****             0u,
 118:.\Generated_Source\PSoC5/USBUART.c ****             0u,
 119:.\Generated_Source\PSoC5/USBUART.c ****             0u,
 120:.\Generated_Source\PSoC5/USBUART.c ****             0u,
 121:.\Generated_Source\PSoC5/USBUART.c ****             0u,
 122:.\Generated_Source\PSoC5/USBUART.c ****         };
 123:.\Generated_Source\PSoC5/USBUART.c **** 
 124:.\Generated_Source\PSoC5/USBUART.c ****         volatile uint16 USBUART_inLength[USBUART_MAX_EP];
 125:.\Generated_Source\PSoC5/USBUART.c ****         const uint8 *USBUART_inDataPointer[USBUART_MAX_EP];
 126:.\Generated_Source\PSoC5/USBUART.c ****         volatile uint8 USBUART_inBufFull[USBUART_MAX_EP];
 127:.\Generated_Source\PSoC5/USBUART.c ****     #endif /* (USBUART_EP_DMA_AUTO_OPT == 0u) */
 128:.\Generated_Source\PSoC5/USBUART.c **** #endif /* (CY_PSOC4) */
 129:.\Generated_Source\PSoC5/USBUART.c **** #endif /* (USBUART_EP_MANAGEMENT_DMA_AUTO) */
 130:.\Generated_Source\PSoC5/USBUART.c **** 
 131:.\Generated_Source\PSoC5/USBUART.c **** 
 132:.\Generated_Source\PSoC5/USBUART.c **** /*******************************************************************************
 133:.\Generated_Source\PSoC5/USBUART.c **** * Function Name: USBUART_Start
 134:.\Generated_Source\PSoC5/USBUART.c **** ****************************************************************************//**
 135:.\Generated_Source\PSoC5/USBUART.c **** *
 136:.\Generated_Source\PSoC5/USBUART.c **** *   This function performs all required initialization for the USBFS component.
 137:.\Generated_Source\PSoC5/USBUART.c **** *   After this function call, the USB device initiates communication with the
 138:.\Generated_Source\PSoC5/USBUART.c **** *   host by pull-up D+ line. This is the preferred method to begin component
 139:.\Generated_Source\PSoC5/USBUART.c **** *   operation.
 140:.\Generated_Source\PSoC5/USBUART.c **** *
 141:.\Generated_Source\PSoC5/USBUART.c **** *   Note that global interrupts have to be enabled because interrupts are
 142:.\Generated_Source\PSoC5/USBUART.c **** *   required for USBFS component operation.
 143:.\Generated_Source\PSoC5/USBUART.c **** *
 144:.\Generated_Source\PSoC5/USBUART.c **** *   PSoC 4200L devices: when USBFS component configured to DMA with Automatic
 145:.\Generated_Source\PSoC5/USBUART.c **** *   Buffer Management, the DMA interrupt priority is changed to the highest
ARM GAS  C:\Users\Tim\AppData\Local\Temp\ccA4EuzY.s 			page 4


 146:.\Generated_Source\PSoC5/USBUART.c **** *   (priority 0) inside this function.
 147:.\Generated_Source\PSoC5/USBUART.c **** *
 148:.\Generated_Source\PSoC5/USBUART.c **** *   PSoC 3/PSoC 5LP devices: when USBFS component configured to DMA with
 149:.\Generated_Source\PSoC5/USBUART.c **** *   Automatic Buffer Management, the Arbiter interrupt priority is changed to
 150:.\Generated_Source\PSoC5/USBUART.c **** *   the highest (priority 0) inside this function.
 151:.\Generated_Source\PSoC5/USBUART.c **** *
 152:.\Generated_Source\PSoC5/USBUART.c **** *  \param device
 153:.\Generated_Source\PSoC5/USBUART.c **** *          Contains the device number of the desired device descriptor.
 154:.\Generated_Source\PSoC5/USBUART.c **** *          The device number can be found in the Device Descriptor Tab of
 155:.\Generated_Source\PSoC5/USBUART.c **** *          "Configure" dialog, under the settings of desired Device Descriptor,
 156:.\Generated_Source\PSoC5/USBUART.c **** *          in the "Device Number" field.
 157:.\Generated_Source\PSoC5/USBUART.c **** *  \param mode:
 158:.\Generated_Source\PSoC5/USBUART.c **** *   The operating voltage. This determines whether the voltage regulator
 159:.\Generated_Source\PSoC5/USBUART.c **** *   is enabled for 5V operation or if pass through mode is used for 3.3V
 160:.\Generated_Source\PSoC5/USBUART.c **** *   operation. Symbolic names and their associated values are given in the
 161:.\Generated_Source\PSoC5/USBUART.c **** *   following list.
 162:.\Generated_Source\PSoC5/USBUART.c **** *
 163:.\Generated_Source\PSoC5/USBUART.c **** *       *USBUART_3V_OPERATION* - Disable voltage regulator and pass-
 164:.\Generated_Source\PSoC5/USBUART.c **** *                                      through Vcc for pull-up
 165:.\Generated_Source\PSoC5/USBUART.c **** *
 166:.\Generated_Source\PSoC5/USBUART.c **** *       *USBUART_5V_OPERATION* - Enable voltage regulator and use
 167:.\Generated_Source\PSoC5/USBUART.c **** *                                      regulator for pull-up
 168:.\Generated_Source\PSoC5/USBUART.c **** *
 169:.\Generated_Source\PSoC5/USBUART.c **** *       *USBUART_DWR_POWER_OPERATION* - Enable or disable the voltage
 170:.\Generated_Source\PSoC5/USBUART.c **** *                                      regulator depending on the power supply
 171:.\Generated_Source\PSoC5/USBUART.c **** *                                      voltage configuration in the DWR tab.
 172:.\Generated_Source\PSoC5/USBUART.c **** *                                      For PSoC 3/5LP devices, the VDDD supply
 173:.\Generated_Source\PSoC5/USBUART.c **** *                                      voltage is considered and for PSoC 4A-L,
 174:.\Generated_Source\PSoC5/USBUART.c **** *                                      the VBUS supply voltage is considered.*
 175:.\Generated_Source\PSoC5/USBUART.c **** * \globalvars
 176:.\Generated_Source\PSoC5/USBUART.c **** *  \ref USBUART_initVar
 177:.\Generated_Source\PSoC5/USBUART.c **** *
 178:.\Generated_Source\PSoC5/USBUART.c **** * \sideeffect
 179:.\Generated_Source\PSoC5/USBUART.c **** *   This function will reset all communication states to default.
 180:.\Generated_Source\PSoC5/USBUART.c **** *
 181:.\Generated_Source\PSoC5/USBUART.c **** * \reentrant
 182:.\Generated_Source\PSoC5/USBUART.c **** *  No.
 183:.\Generated_Source\PSoC5/USBUART.c **** *
 184:.\Generated_Source\PSoC5/USBUART.c **** *******************************************************************************/
 185:.\Generated_Source\PSoC5/USBUART.c **** void USBUART_Start(uint8 device, uint8 mode) 
 186:.\Generated_Source\PSoC5/USBUART.c **** {
 187:.\Generated_Source\PSoC5/USBUART.c ****     if (0u == USBUART_initVar)
 188:.\Generated_Source\PSoC5/USBUART.c ****     {
 189:.\Generated_Source\PSoC5/USBUART.c ****         USBUART_Init();
 190:.\Generated_Source\PSoC5/USBUART.c ****         USBUART_initVar = 1u;
 191:.\Generated_Source\PSoC5/USBUART.c ****     }
 192:.\Generated_Source\PSoC5/USBUART.c **** 
 193:.\Generated_Source\PSoC5/USBUART.c ****     USBUART_InitComponent(device, mode);
 194:.\Generated_Source\PSoC5/USBUART.c **** }
 195:.\Generated_Source\PSoC5/USBUART.c **** 
 196:.\Generated_Source\PSoC5/USBUART.c **** 
 197:.\Generated_Source\PSoC5/USBUART.c **** /*******************************************************************************
 198:.\Generated_Source\PSoC5/USBUART.c **** * Function Name: USBUART_Init
 199:.\Generated_Source\PSoC5/USBUART.c **** ****************************************************************************//**
 200:.\Generated_Source\PSoC5/USBUART.c **** *
 201:.\Generated_Source\PSoC5/USBUART.c **** * This function initializes or restores the component according to the
 202:.\Generated_Source\PSoC5/USBUART.c **** * customizer Configure dialog settings. It is not necessary to call
ARM GAS  C:\Users\Tim\AppData\Local\Temp\ccA4EuzY.s 			page 5


 203:.\Generated_Source\PSoC5/USBUART.c **** * USBUART_Init() because the USBUART_Start() routine calls
 204:.\Generated_Source\PSoC5/USBUART.c **** * this function and is the preferred method to begin component operation.
 205:.\Generated_Source\PSoC5/USBUART.c **** *
 206:.\Generated_Source\PSoC5/USBUART.c **** * \reentrant
 207:.\Generated_Source\PSoC5/USBUART.c **** *  No.
 208:.\Generated_Source\PSoC5/USBUART.c **** *
 209:.\Generated_Source\PSoC5/USBUART.c **** *******************************************************************************/
 210:.\Generated_Source\PSoC5/USBUART.c **** void USBUART_Init(void) 
 211:.\Generated_Source\PSoC5/USBUART.c **** {
  27              		.loc 1 211 0
  28              		.cfi_startproc
  29              		@ args = 0, pretend = 0, frame = 0
  30              		@ frame_needed = 0, uses_anonymous_args = 0
  31 0000 F8B5     		push	{r3, r4, r5, r6, r7, lr}
  32              		.cfi_def_cfa_offset 24
  33              		.cfi_offset 3, -24
  34              		.cfi_offset 4, -20
  35              		.cfi_offset 5, -16
  36              		.cfi_offset 6, -12
  37              		.cfi_offset 7, -8
  38              		.cfi_offset 14, -4
 212:.\Generated_Source\PSoC5/USBUART.c **** #if (CY_PSOC4)
 213:.\Generated_Source\PSoC5/USBUART.c ****     /* Enable clock to USB IP. */
 214:.\Generated_Source\PSoC5/USBUART.c ****     USBUART_USB_CLK_EN_REG = USBUART_USB_CLK_CSR_CLK_EN;
 215:.\Generated_Source\PSoC5/USBUART.c **** 
 216:.\Generated_Source\PSoC5/USBUART.c ****     /* The internal regulator (CR1.REG_ENABLE) is enabled in
 217:.\Generated_Source\PSoC5/USBUART.c ****     * USBUART_InitComponent() if it is required.
 218:.\Generated_Source\PSoC5/USBUART.c ****     */
 219:.\Generated_Source\PSoC5/USBUART.c **** 
 220:.\Generated_Source\PSoC5/USBUART.c ****     /* Enable USBIO control on drive mode of D+ and D- pins. */
 221:.\Generated_Source\PSoC5/USBUART.c ****     USBUART_USBIO_CR1_REG &= ~ (uint32) USBUART_USBIO_CR1_IOMODE;
 222:.\Generated_Source\PSoC5/USBUART.c **** 
 223:.\Generated_Source\PSoC5/USBUART.c ****     /* Set number of LF CLK to detect UBS bus reset. */
 224:.\Generated_Source\PSoC5/USBUART.c ****     USBUART_BUS_RST_CNT_REG = USBUART_DEFUALT_BUS_RST_CNT;
 225:.\Generated_Source\PSoC5/USBUART.c **** 
 226:.\Generated_Source\PSoC5/USBUART.c ****     /* Select VBUS detection source and clear PHY isolate. The application level
 227:.\Generated_Source\PSoC5/USBUART.c ****     * must ensure that VBUS is valid. There is no need to wait 2us before VBUS is valid.
 228:.\Generated_Source\PSoC5/USBUART.c ****     */
 229:.\Generated_Source\PSoC5/USBUART.c ****     USBUART_POWER_CTRL_REG = USBUART_DEFAULT_POWER_CTRL_VBUS;
 230:.\Generated_Source\PSoC5/USBUART.c **** 
 231:.\Generated_Source\PSoC5/USBUART.c ****     /* Enable PHY detector and single-ended and differential receivers. */
 232:.\Generated_Source\PSoC5/USBUART.c ****     USBUART_POWER_CTRL_REG |= USBUART_DEFAULT_POWER_CTRL_PHY;
 233:.\Generated_Source\PSoC5/USBUART.c **** 
 234:.\Generated_Source\PSoC5/USBUART.c ****     /* Suspend clear sequence. */
 235:.\Generated_Source\PSoC5/USBUART.c ****     USBUART_POWER_CTRL_REG &= (uint32) ~USBUART_POWER_CTRL_SUSPEND;
 236:.\Generated_Source\PSoC5/USBUART.c ****     CyDelayUs(USBUART_WAIT_SUSPEND_DEL_DISABLE);
 237:.\Generated_Source\PSoC5/USBUART.c ****     USBUART_POWER_CTRL_REG &= (uint32) ~USBUART_POWER_CTRL_SUSPEND_DEL;
 238:.\Generated_Source\PSoC5/USBUART.c **** 
 239:.\Generated_Source\PSoC5/USBUART.c ****     /* Sets IMO lock options and clear all other bits. */
 240:.\Generated_Source\PSoC5/USBUART.c ****     USBUART_CR1_REG = USBUART_DEFUALT_CR1;
 241:.\Generated_Source\PSoC5/USBUART.c **** 
 242:.\Generated_Source\PSoC5/USBUART.c ****     /* Configure level (hi, lo, med) for each interrupt source. */
 243:.\Generated_Source\PSoC5/USBUART.c ****     USBUART_INTR_LVL_SEL_REG = USBUART_DEFAULT_INTR_LVL_SEL;
 244:.\Generated_Source\PSoC5/USBUART.c **** 
 245:.\Generated_Source\PSoC5/USBUART.c ****     /* Configure interrupt sources from: SOF, Bus Reset and EP0. */
 246:.\Generated_Source\PSoC5/USBUART.c ****     USBUART_INTR_SIE_MASK_REG = USBUART_DEFAULT_INTR_SIE_MASK;
 247:.\Generated_Source\PSoC5/USBUART.c **** 
ARM GAS  C:\Users\Tim\AppData\Local\Temp\ccA4EuzY.s 			page 6


 248:.\Generated_Source\PSoC5/USBUART.c **** #else
 249:.\Generated_Source\PSoC5/USBUART.c ****     uint8 enableInterrupts = CyEnterCriticalSection();
  39              		.loc 1 249 0
  40 0002 FFF7FEFF 		bl	CyEnterCriticalSection
  41              	.LVL0:
  42 0006 0546     		mov	r5, r0
  43              	.LVL1:
 250:.\Generated_Source\PSoC5/USBUART.c **** 
 251:.\Generated_Source\PSoC5/USBUART.c **** #if (USBUART_EP_MANAGEMENT_DMA)
 252:.\Generated_Source\PSoC5/USBUART.c ****     uint16 i;
 253:.\Generated_Source\PSoC5/USBUART.c **** #endif /* (USBUART_EP_MANAGEMENT_DMA) */
 254:.\Generated_Source\PSoC5/USBUART.c **** 
 255:.\Generated_Source\PSoC5/USBUART.c ****     /* Enable USB block. */
 256:.\Generated_Source\PSoC5/USBUART.c ****     USBUART_PM_ACT_CFG_REG |= USBUART_PM_ACT_EN_FSUSB;
  44              		.loc 1 256 0
  45 0008 404A     		ldr	r2, .L3
  46 000a 1378     		ldrb	r3, [r2]	@ zero_extendqisi2
  47 000c 43F00103 		orr	r3, r3, #1
  48 0010 1370     		strb	r3, [r2]
 257:.\Generated_Source\PSoC5/USBUART.c ****     /* Enable USB block for Standby Power Mode. */
 258:.\Generated_Source\PSoC5/USBUART.c ****     USBUART_PM_STBY_CFG_REG |= USBUART_PM_STBY_EN_FSUSB;
  49              		.loc 1 258 0
  50 0012 1032     		adds	r2, r2, #16
  51 0014 1378     		ldrb	r3, [r2]	@ zero_extendqisi2
  52 0016 43F00103 		orr	r3, r3, #1
  53 001a 1370     		strb	r3, [r2]
 259:.\Generated_Source\PSoC5/USBUART.c **** 
 260:.\Generated_Source\PSoC5/USBUART.c ****     /* Enable core clock. */
 261:.\Generated_Source\PSoC5/USBUART.c ****     USBUART_USB_CLK_EN_REG = USBUART_USB_CLK_ENABLE;
  54              		.loc 1 261 0
  55 001c 0127     		movs	r7, #1
  56 001e 3C4B     		ldr	r3, .L3+4
  57 0020 1F70     		strb	r7, [r3]
 262:.\Generated_Source\PSoC5/USBUART.c **** 
 263:.\Generated_Source\PSoC5/USBUART.c ****     USBUART_CR1_REG = USBUART_CR1_ENABLE_LOCK;
  58              		.loc 1 263 0
  59 0022 0226     		movs	r6, #2
  60 0024 943B     		subs	r3, r3, #148
  61 0026 1E70     		strb	r6, [r3]
 264:.\Generated_Source\PSoC5/USBUART.c **** 
 265:.\Generated_Source\PSoC5/USBUART.c ****     /* ENABLING USBIO PADS IN USB MODE FROM I/O MODE. */
 266:.\Generated_Source\PSoC5/USBUART.c ****     /* Ensure USB transmit enable is low (USB_USBIO_CR0.ten). - Manual Transmission - Disabled. */
 267:.\Generated_Source\PSoC5/USBUART.c ****     USBUART_USBIO_CR0_REG &= (uint8) ~USBUART_USBIO_CR0_TEN;
  62              		.loc 1 267 0
  63 0028 02F5E252 		add	r2, r2, #7232
  64 002c 1B32     		adds	r2, r2, #27
  65 002e 1378     		ldrb	r3, [r2]	@ zero_extendqisi2
  66 0030 03F07F03 		and	r3, r3, #127
  67 0034 1370     		strb	r3, [r2]
 268:.\Generated_Source\PSoC5/USBUART.c ****     CyDelayUs(USBUART_WAIT_REG_STABILITY_50NS);  /* ~50ns delay. */
  68              		.loc 1 268 0
  69 0036 0020     		movs	r0, #0
  70 0038 FFF7FEFF 		bl	CyDelayUs
  71              	.LVL2:
 269:.\Generated_Source\PSoC5/USBUART.c ****     /* Disable USBIO by asserting PM.USB_CR0.fsusbio_pd_n(Inverted.
 270:.\Generated_Source\PSoC5/USBUART.c ****     *  high. These bits will be set low by the power manager out-of-reset.
 271:.\Generated_Source\PSoC5/USBUART.c ****     *  Also confirm USBIO pull-up is disabled.
ARM GAS  C:\Users\Tim\AppData\Local\Temp\ccA4EuzY.s 			page 7


 272:.\Generated_Source\PSoC5/USBUART.c ****     */
 273:.\Generated_Source\PSoC5/USBUART.c ****     USBUART_PM_USB_CR0_REG &= (uint8) ~(USBUART_PM_USB_CR0_PD_N |
  72              		.loc 1 273 0
  73 003c 354C     		ldr	r4, .L3+8
  74 003e 2378     		ldrb	r3, [r4]	@ zero_extendqisi2
  75 0040 03F0F903 		and	r3, r3, #249
  76 0044 2370     		strb	r3, [r4]
 274:.\Generated_Source\PSoC5/USBUART.c ****                                                  USBUART_PM_USB_CR0_PD_PULLUP_N);
 275:.\Generated_Source\PSoC5/USBUART.c **** 
 276:.\Generated_Source\PSoC5/USBUART.c ****     /* Select IOMODE to USB mode. */
 277:.\Generated_Source\PSoC5/USBUART.c ****     USBUART_USBIO_CR1_REG &= (uint8) ~USBUART_USBIO_CR1_IOMODE;
  77              		.loc 1 277 0
  78 0046 344A     		ldr	r2, .L3+12
  79 0048 1378     		ldrb	r3, [r2]	@ zero_extendqisi2
  80 004a 03F0DF03 		and	r3, r3, #223
  81 004e 1370     		strb	r3, [r2]
 278:.\Generated_Source\PSoC5/USBUART.c **** 
 279:.\Generated_Source\PSoC5/USBUART.c ****     /* Enable USBIO reference by setting PM.USB_CR0.fsusbio_ref_en. */
 280:.\Generated_Source\PSoC5/USBUART.c ****     USBUART_PM_USB_CR0_REG |= USBUART_PM_USB_CR0_REF_EN;
  82              		.loc 1 280 0
  83 0050 2378     		ldrb	r3, [r4]	@ zero_extendqisi2
  84 0052 3B43     		orrs	r3, r3, r7
  85 0054 2370     		strb	r3, [r4]
 281:.\Generated_Source\PSoC5/USBUART.c ****     /* Reference is available for 1us after regulator is enabled. */
 282:.\Generated_Source\PSoC5/USBUART.c ****     CyDelayUs(USBUART_WAIT_REG_STABILITY_1US);
  86              		.loc 1 282 0
  87 0056 3846     		mov	r0, r7
  88 0058 FFF7FEFF 		bl	CyDelayUs
  89              	.LVL3:
 283:.\Generated_Source\PSoC5/USBUART.c ****     /* OR 40us after power is restored. */
 284:.\Generated_Source\PSoC5/USBUART.c ****     CyDelayUs(USBUART_WAIT_VREF_RESTORE);
  90              		.loc 1 284 0
  91 005c 2820     		movs	r0, #40
  92 005e FFF7FEFF 		bl	CyDelayUs
  93              	.LVL4:
 285:.\Generated_Source\PSoC5/USBUART.c ****     /* Ensure single-ended disable bits are low (PRT15.INP_DIS[7:6])(input receiver enabled). */
 286:.\Generated_Source\PSoC5/USBUART.c ****     USBUART_DM_INP_DIS_REG &= (uint8) ~USBUART_DM_MASK;
  94              		.loc 1 286 0
  95 0062 2E4B     		ldr	r3, .L3+16
  96 0064 1A78     		ldrb	r2, [r3]	@ zero_extendqisi2
  97 0066 02F07F02 		and	r2, r2, #127
  98 006a 1A70     		strb	r2, [r3]
 287:.\Generated_Source\PSoC5/USBUART.c ****     USBUART_DP_INP_DIS_REG &= (uint8) ~USBUART_DP_MASK;
  99              		.loc 1 287 0
 100 006c 1A78     		ldrb	r2, [r3]	@ zero_extendqisi2
 101 006e 02F0BF02 		and	r2, r2, #191
 102 0072 1A70     		strb	r2, [r3]
 288:.\Generated_Source\PSoC5/USBUART.c **** 
 289:.\Generated_Source\PSoC5/USBUART.c ****     /* Enable USBIO. */
 290:.\Generated_Source\PSoC5/USBUART.c ****     USBUART_PM_USB_CR0_REG |= USBUART_PM_USB_CR0_PD_N;
 103              		.loc 1 290 0
 104 0074 2378     		ldrb	r3, [r4]	@ zero_extendqisi2
 105 0076 3343     		orrs	r3, r3, r6
 106 0078 2370     		strb	r3, [r4]
 291:.\Generated_Source\PSoC5/USBUART.c ****     CyDelayUs(USBUART_WAIT_PD_PULLUP_N_ENABLE);
 107              		.loc 1 291 0
 108 007a 3046     		mov	r0, r6
ARM GAS  C:\Users\Tim\AppData\Local\Temp\ccA4EuzY.s 			page 8


 109 007c FFF7FEFF 		bl	CyDelayUs
 110              	.LVL5:
 292:.\Generated_Source\PSoC5/USBUART.c ****     /* Set USBIO pull-up enable. */
 293:.\Generated_Source\PSoC5/USBUART.c ****     USBUART_PM_USB_CR0_REG |= USBUART_PM_USB_CR0_PD_PULLUP_N;
 111              		.loc 1 293 0
 112 0080 2378     		ldrb	r3, [r4]	@ zero_extendqisi2
 113 0082 43F00403 		orr	r3, r3, #4
 114 0086 2370     		strb	r3, [r4]
 294:.\Generated_Source\PSoC5/USBUART.c **** 
 295:.\Generated_Source\PSoC5/USBUART.c ****     /* Reset Arbiter Write Address register for endpoint 1. */
 296:.\Generated_Source\PSoC5/USBUART.c ****     CY_SET_REG8(USBUART_ARB_RW1_WA_PTR,     0u);
 115              		.loc 1 296 0
 116 0088 0023     		movs	r3, #0
 117 008a 254A     		ldr	r2, .L3+20
 118 008c 1370     		strb	r3, [r2]
 297:.\Generated_Source\PSoC5/USBUART.c ****     CY_SET_REG8(USBUART_ARB_RW1_WA_MSB_PTR, 0u);
 119              		.loc 1 297 0
 120 008e 0132     		adds	r2, r2, #1
 121 0090 1370     		strb	r3, [r2]
 298:.\Generated_Source\PSoC5/USBUART.c **** 
 299:.\Generated_Source\PSoC5/USBUART.c **** #if (USBUART_EP_MANAGEMENT_DMA)
 300:.\Generated_Source\PSoC5/USBUART.c ****     /* Initialize transfer descriptor. This will be used to detect DMA state - initialized or not. 
 301:.\Generated_Source\PSoC5/USBUART.c ****     for (i = 0u; i < USBUART_MAX_EP; ++i)
 302:.\Generated_Source\PSoC5/USBUART.c ****     {
 303:.\Generated_Source\PSoC5/USBUART.c ****         USBUART_DmaTd[i] = DMA_INVALID_TD;
 304:.\Generated_Source\PSoC5/USBUART.c **** 
 305:.\Generated_Source\PSoC5/USBUART.c ****     #if (USBUART_EP_MANAGEMENT_DMA_AUTO && (USBUART_EP_DMA_AUTO_OPT == 0u))
 306:.\Generated_Source\PSoC5/USBUART.c ****         USBUART_DmaNextTd[i] = DMA_INVALID_TD;
 307:.\Generated_Source\PSoC5/USBUART.c ****     #endif /* (USBUART_EP_MANAGEMENT_DMA_AUTO && (USBUART_EP_DMA_AUTO_OPT == 0u)) */
 308:.\Generated_Source\PSoC5/USBUART.c ****     }
 309:.\Generated_Source\PSoC5/USBUART.c **** #endif /* (USBUART_EP_MANAGEMENT_DMA) */
 310:.\Generated_Source\PSoC5/USBUART.c **** 
 311:.\Generated_Source\PSoC5/USBUART.c ****     CyExitCriticalSection(enableInterrupts);
 122              		.loc 1 311 0
 123 0092 2846     		mov	r0, r5
 124 0094 FFF7FEFF 		bl	CyExitCriticalSection
 125              	.LVL6:
 312:.\Generated_Source\PSoC5/USBUART.c **** #endif /* (CY_PSOC4) */
 313:.\Generated_Source\PSoC5/USBUART.c **** 
 314:.\Generated_Source\PSoC5/USBUART.c ****     /* Configure interrupts from USB block. */
 315:.\Generated_Source\PSoC5/USBUART.c **** #if (CY_PSOC4)
 316:.\Generated_Source\PSoC5/USBUART.c ****     /* Configure hi_int: set handler and priority. */
 317:.\Generated_Source\PSoC5/USBUART.c ****     CyIntSetPriority     (USBUART_INTR_HI_VECT_NUM,  USBUART_INTR_HI_PRIORITY);
 318:.\Generated_Source\PSoC5/USBUART.c ****     (void) CyIntSetVector(USBUART_INTR_HI_VECT_NUM, &USBUART_INTR_HI_ISR);
 319:.\Generated_Source\PSoC5/USBUART.c **** 
 320:.\Generated_Source\PSoC5/USBUART.c ****     /* Configure lo_int: set handler and priority. */
 321:.\Generated_Source\PSoC5/USBUART.c ****     CyIntSetPriority     (USBUART_INTR_LO_VECT_NUM,  USBUART_INTR_LO_PRIORITY);
 322:.\Generated_Source\PSoC5/USBUART.c ****     (void) CyIntSetVector(USBUART_INTR_LO_VECT_NUM, &USBUART_INTR_LO_ISR);
 323:.\Generated_Source\PSoC5/USBUART.c **** 
 324:.\Generated_Source\PSoC5/USBUART.c ****     /* Configure med_int: set handler and priority (routed through DSI). */
 325:.\Generated_Source\PSoC5/USBUART.c ****     CyIntSetPriority     (USBUART_INTR_MED_VECT_NUM,  USBUART_INTR_MED_PRIORITY);
 326:.\Generated_Source\PSoC5/USBUART.c ****     (void) CyIntSetVector(USBUART_INTR_MED_VECT_NUM, &USBUART_INTR_MED_ISR);
 327:.\Generated_Source\PSoC5/USBUART.c **** 
 328:.\Generated_Source\PSoC5/USBUART.c **** #else
 329:.\Generated_Source\PSoC5/USBUART.c ****     /* Set bus reset interrupt. */
 330:.\Generated_Source\PSoC5/USBUART.c ****     CyIntSetPriority(USBUART_BUS_RESET_VECT_NUM, USBUART_BUS_RESET_PRIOR);
 126              		.loc 1 330 0
ARM GAS  C:\Users\Tim\AppData\Local\Temp\ccA4EuzY.s 			page 9


 127 0098 1720     		movs	r0, #23
 128 009a 0721     		movs	r1, #7
 129 009c FFF7FEFF 		bl	CyIntSetPriority
 130              	.LVL7:
 331:.\Generated_Source\PSoC5/USBUART.c ****     (void) CyIntSetVector(USBUART_BUS_RESET_VECT_NUM,   &USBUART_BUS_RESET_ISR);
 131              		.loc 1 331 0
 132 00a0 1720     		movs	r0, #23
 133 00a2 2049     		ldr	r1, .L3+24
 134 00a4 FFF7FEFF 		bl	CyIntSetVector
 135              	.LVL8:
 332:.\Generated_Source\PSoC5/USBUART.c **** 
 333:.\Generated_Source\PSoC5/USBUART.c ****     /* Set Control Endpoint Interrupt. */
 334:.\Generated_Source\PSoC5/USBUART.c ****     CyIntSetPriority(USBUART_EP_0_VECT_NUM, USBUART_EP_0_PRIOR);
 136              		.loc 1 334 0
 137 00a8 1820     		movs	r0, #24
 138 00aa 0721     		movs	r1, #7
 139 00ac FFF7FEFF 		bl	CyIntSetPriority
 140              	.LVL9:
 335:.\Generated_Source\PSoC5/USBUART.c ****     (void) CyIntSetVector(USBUART_EP_0_VECT_NUM,   &USBUART_EP_0_ISR);
 141              		.loc 1 335 0
 142 00b0 1820     		movs	r0, #24
 143 00b2 1D49     		ldr	r1, .L3+28
 144 00b4 FFF7FEFF 		bl	CyIntSetVector
 145              	.LVL10:
 336:.\Generated_Source\PSoC5/USBUART.c **** 
 337:.\Generated_Source\PSoC5/USBUART.c ****     /* Set SOF interrupt. */
 338:.\Generated_Source\PSoC5/USBUART.c ****     #if (USBUART_SOF_ISR_ACTIVE)
 339:.\Generated_Source\PSoC5/USBUART.c ****         CyIntSetPriority     (USBUART_SOF_VECT_NUM,  USBUART_SOF_PRIOR);
 146              		.loc 1 339 0
 147 00b8 1520     		movs	r0, #21
 148 00ba 0721     		movs	r1, #7
 149 00bc FFF7FEFF 		bl	CyIntSetPriority
 150              	.LVL11:
 340:.\Generated_Source\PSoC5/USBUART.c ****         (void) CyIntSetVector(USBUART_SOF_VECT_NUM, &USBUART_SOF_ISR);
 151              		.loc 1 340 0
 152 00c0 1520     		movs	r0, #21
 153 00c2 1A49     		ldr	r1, .L3+32
 154 00c4 FFF7FEFF 		bl	CyIntSetVector
 155              	.LVL12:
 341:.\Generated_Source\PSoC5/USBUART.c ****     #endif /* (USBUART_SOF_ISR_ACTIVE) */
 342:.\Generated_Source\PSoC5/USBUART.c **** 
 343:.\Generated_Source\PSoC5/USBUART.c ****     /* Set Data Endpoint 1 Interrupt. */
 344:.\Generated_Source\PSoC5/USBUART.c ****     #if (USBUART_EP1_ISR_ACTIVE)
 345:.\Generated_Source\PSoC5/USBUART.c ****         CyIntSetPriority     (USBUART_EP_1_VECT_NUM,  USBUART_EP_1_PRIOR);
 156              		.loc 1 345 0
 157 00c8 0A20     		movs	r0, #10
 158 00ca 0721     		movs	r1, #7
 159 00cc FFF7FEFF 		bl	CyIntSetPriority
 160              	.LVL13:
 346:.\Generated_Source\PSoC5/USBUART.c ****         (void) CyIntSetVector(USBUART_EP_1_VECT_NUM,  &USBUART_EP_1_ISR);
 161              		.loc 1 346 0
 162 00d0 0A20     		movs	r0, #10
 163 00d2 1749     		ldr	r1, .L3+36
 164 00d4 FFF7FEFF 		bl	CyIntSetVector
 165              	.LVL14:
 347:.\Generated_Source\PSoC5/USBUART.c ****     #endif /* (USBUART_EP1_ISR_ACTIVE) */
 348:.\Generated_Source\PSoC5/USBUART.c **** 
ARM GAS  C:\Users\Tim\AppData\Local\Temp\ccA4EuzY.s 			page 10


 349:.\Generated_Source\PSoC5/USBUART.c ****     /* Set Data Endpoint 2 Interrupt. */
 350:.\Generated_Source\PSoC5/USBUART.c ****     #if (USBUART_EP2_ISR_ACTIVE)
 351:.\Generated_Source\PSoC5/USBUART.c ****         CyIntSetPriority     (USBUART_EP_2_VECT_NUM,  USBUART_EP_2_PRIOR);
 166              		.loc 1 351 0
 167 00d8 0B20     		movs	r0, #11
 168 00da 0721     		movs	r1, #7
 169 00dc FFF7FEFF 		bl	CyIntSetPriority
 170              	.LVL15:
 352:.\Generated_Source\PSoC5/USBUART.c ****         (void) CyIntSetVector(USBUART_EP_2_VECT_NUM, &USBUART_EP_2_ISR);
 171              		.loc 1 352 0
 172 00e0 0B20     		movs	r0, #11
 173 00e2 1449     		ldr	r1, .L3+40
 174 00e4 FFF7FEFF 		bl	CyIntSetVector
 175              	.LVL16:
 353:.\Generated_Source\PSoC5/USBUART.c ****     #endif /* (USBUART_EP2_ISR_ACTIVE) */
 354:.\Generated_Source\PSoC5/USBUART.c **** 
 355:.\Generated_Source\PSoC5/USBUART.c ****     /* Set Data Endpoint 3 Interrupt. */
 356:.\Generated_Source\PSoC5/USBUART.c ****     #if (USBUART_EP3_ISR_ACTIVE)
 357:.\Generated_Source\PSoC5/USBUART.c ****         CyIntSetPriority     (USBUART_EP_3_VECT_NUM,  USBUART_EP_3_PRIOR);
 176              		.loc 1 357 0
 177 00e8 0D20     		movs	r0, #13
 178 00ea 0721     		movs	r1, #7
 179 00ec FFF7FEFF 		bl	CyIntSetPriority
 180              	.LVL17:
 358:.\Generated_Source\PSoC5/USBUART.c ****         (void) CyIntSetVector(USBUART_EP_3_VECT_NUM, &USBUART_EP_3_ISR);
 181              		.loc 1 358 0
 182 00f0 0D20     		movs	r0, #13
 183 00f2 1149     		ldr	r1, .L3+44
 184 00f4 FFF7FEFF 		bl	CyIntSetVector
 185              	.LVL18:
 359:.\Generated_Source\PSoC5/USBUART.c ****     #endif /* (USBUART_EP3_ISR_ACTIVE) */
 360:.\Generated_Source\PSoC5/USBUART.c **** 
 361:.\Generated_Source\PSoC5/USBUART.c ****     /* Set Data Endpoint 4 Interrupt. */
 362:.\Generated_Source\PSoC5/USBUART.c ****     #if (USBUART_EP4_ISR_ACTIVE)
 363:.\Generated_Source\PSoC5/USBUART.c ****         CyIntSetPriority     (USBUART_EP_4_VECT_NUM,  USBUART_EP_4_PRIOR);
 364:.\Generated_Source\PSoC5/USBUART.c ****         (void) CyIntSetVector(USBUART_EP_4_VECT_NUM, &USBUART_EP_4_ISR);
 365:.\Generated_Source\PSoC5/USBUART.c ****     #endif /* (USBUART_EP4_ISR_ACTIVE) */
 366:.\Generated_Source\PSoC5/USBUART.c **** 
 367:.\Generated_Source\PSoC5/USBUART.c ****     /* Set Data Endpoint 5 Interrupt. */
 368:.\Generated_Source\PSoC5/USBUART.c ****     #if (USBUART_EP5_ISR_ACTIVE)
 369:.\Generated_Source\PSoC5/USBUART.c ****         CyIntSetPriority     (USBUART_EP_5_VECT_NUM,  USBUART_EP_5_PRIOR);
 370:.\Generated_Source\PSoC5/USBUART.c ****         (void) CyIntSetVector(USBUART_EP_5_VECT_NUM, &USBUART_EP_5_ISR);
 371:.\Generated_Source\PSoC5/USBUART.c ****     #endif /* (USBUART_EP5_ISR_ACTIVE) */
 372:.\Generated_Source\PSoC5/USBUART.c **** 
 373:.\Generated_Source\PSoC5/USBUART.c ****     /* Set Data Endpoint 6 Interrupt. */
 374:.\Generated_Source\PSoC5/USBUART.c ****     #if (USBUART_EP6_ISR_ACTIVE)
 375:.\Generated_Source\PSoC5/USBUART.c ****         CyIntSetPriority     (USBUART_EP_6_VECT_NUM,  USBUART_EP_6_PRIOR);
 376:.\Generated_Source\PSoC5/USBUART.c ****         (void) CyIntSetVector(USBUART_EP_6_VECT_NUM, &USBUART_EP_6_ISR);
 377:.\Generated_Source\PSoC5/USBUART.c ****     #endif /* (USBUART_EP6_ISR_ACTIVE) */
 378:.\Generated_Source\PSoC5/USBUART.c **** 
 379:.\Generated_Source\PSoC5/USBUART.c ****      /* Set Data Endpoint 7 Interrupt. */
 380:.\Generated_Source\PSoC5/USBUART.c ****     #if (USBUART_EP7_ISR_ACTIVE)
 381:.\Generated_Source\PSoC5/USBUART.c ****         CyIntSetPriority     (USBUART_EP_7_VECT_NUM,  USBUART_EP_7_PRIOR);
 382:.\Generated_Source\PSoC5/USBUART.c ****         (void) CyIntSetVector(USBUART_EP_7_VECT_NUM, &USBUART_EP_7_ISR);
 383:.\Generated_Source\PSoC5/USBUART.c ****     #endif /* (USBUART_EP7_ISR_ACTIVE) */
 384:.\Generated_Source\PSoC5/USBUART.c **** 
 385:.\Generated_Source\PSoC5/USBUART.c ****     /* Set Data Endpoint 8 Interrupt. */
ARM GAS  C:\Users\Tim\AppData\Local\Temp\ccA4EuzY.s 			page 11


 386:.\Generated_Source\PSoC5/USBUART.c ****     #if (USBUART_EP8_ISR_ACTIVE)
 387:.\Generated_Source\PSoC5/USBUART.c ****         CyIntSetPriority     (USBUART_EP_8_VECT_NUM,  USBUART_EP_8_PRIOR);
 388:.\Generated_Source\PSoC5/USBUART.c ****         (void) CyIntSetVector(USBUART_EP_8_VECT_NUM, &USBUART_EP_8_ISR);
 389:.\Generated_Source\PSoC5/USBUART.c ****     #endif /* (USBUART_EP8_ISR_ACTIVE) */
 390:.\Generated_Source\PSoC5/USBUART.c **** 
 391:.\Generated_Source\PSoC5/USBUART.c ****     /* Set ARB Interrupt. */
 392:.\Generated_Source\PSoC5/USBUART.c ****     #if (USBUART_EP_MANAGEMENT_DMA && USBUART_ARB_ISR_ACTIVE)
 393:.\Generated_Source\PSoC5/USBUART.c ****         CyIntSetPriority     (USBUART_ARB_VECT_NUM,  USBUART_ARB_PRIOR);
 394:.\Generated_Source\PSoC5/USBUART.c ****         (void) CyIntSetVector(USBUART_ARB_VECT_NUM, &USBUART_ARB_ISR);
 395:.\Generated_Source\PSoC5/USBUART.c ****     #endif /* (USBUART_EP_MANAGEMENT_DMA && USBUART_ARB_ISR_ACTIVE) */
 396:.\Generated_Source\PSoC5/USBUART.c **** #endif /* (CY_PSOC4) */
 397:.\Generated_Source\PSoC5/USBUART.c **** 
 398:.\Generated_Source\PSoC5/USBUART.c ****     /* Common: Configure GPIO interrupt for wakeup. */
 399:.\Generated_Source\PSoC5/USBUART.c **** #if (USBUART_DP_ISR_ACTIVE)
 400:.\Generated_Source\PSoC5/USBUART.c ****     CyIntSetPriority     (USBUART_DP_INTC_VECT_NUM,  USBUART_DP_INTC_PRIORITY);
 186              		.loc 1 400 0
 187 00f8 0C20     		movs	r0, #12
 188 00fa 0721     		movs	r1, #7
 189 00fc FFF7FEFF 		bl	CyIntSetPriority
 190              	.LVL19:
 401:.\Generated_Source\PSoC5/USBUART.c ****     (void) CyIntSetVector(USBUART_DP_INTC_VECT_NUM, &USBUART_DP_ISR);
 191              		.loc 1 401 0
 192 0100 0C20     		movs	r0, #12
 193 0102 0E49     		ldr	r1, .L3+48
 194 0104 FFF7FEFF 		bl	CyIntSetVector
 195              	.LVL20:
 196 0108 F8BD     		pop	{r3, r4, r5, r6, r7, pc}
 197              	.LVL21:
 198              	.L4:
 199 010a 00BF     		.align	2
 200              	.L3:
 201 010c A5430040 		.word	1073759141
 202 0110 9D600040 		.word	1073766557
 203 0114 94430040 		.word	1073759124
 204 0118 12600040 		.word	1073766418
 205 011c F8510040 		.word	1073762808
 206 0120 84600040 		.word	1073766532
 207 0124 00000000 		.word	USBUART_BUS_RESET_ISR
 208 0128 00000000 		.word	USBUART_EP_0_ISR
 209 012c 00000000 		.word	USBUART_SOF_ISR
 210 0130 00000000 		.word	USBUART_EP_1_ISR
 211 0134 00000000 		.word	USBUART_EP_2_ISR
 212 0138 00000000 		.word	USBUART_EP_3_ISR
 213 013c 00000000 		.word	USBUART_DP_ISR
 214              		.cfi_endproc
 215              	.LFE1:
 216              		.size	USBUART_Init, .-USBUART_Init
 217              		.section	.text.USBUART_InitComponent,"ax",%progbits
 218              		.align	2
 219              		.global	USBUART_InitComponent
 220              		.thumb
 221              		.thumb_func
 222              		.type	USBUART_InitComponent, %function
 223              	USBUART_InitComponent:
 224              	.LFB2:
 402:.\Generated_Source\PSoC5/USBUART.c **** #endif /* (USBUART_DP_ISR_ACTIVE) */
 403:.\Generated_Source\PSoC5/USBUART.c **** 
ARM GAS  C:\Users\Tim\AppData\Local\Temp\ccA4EuzY.s 			page 12


 404:.\Generated_Source\PSoC5/USBUART.c **** #if (USBUART_EP_MANAGEMENT_DMA && CY_PSOC4)
 405:.\Generated_Source\PSoC5/USBUART.c ****     /* Initialize DMA channels. */
 406:.\Generated_Source\PSoC5/USBUART.c ****     USBUART_InitEpDma();
 407:.\Generated_Source\PSoC5/USBUART.c **** #endif /* (USBUART_EP_MANAGEMENT_DMA && CY_PSOC4) */
 408:.\Generated_Source\PSoC5/USBUART.c **** }
 409:.\Generated_Source\PSoC5/USBUART.c **** 
 410:.\Generated_Source\PSoC5/USBUART.c **** 
 411:.\Generated_Source\PSoC5/USBUART.c **** /*******************************************************************************
 412:.\Generated_Source\PSoC5/USBUART.c **** * Function Name: USBUART_InitComponent
 413:.\Generated_Source\PSoC5/USBUART.c **** ****************************************************************************//**
 414:.\Generated_Source\PSoC5/USBUART.c **** *
 415:.\Generated_Source\PSoC5/USBUART.c **** *   This function initializes the component’s global variables and initiates
 416:.\Generated_Source\PSoC5/USBUART.c **** *   communication with the host by pull-up D+ line.
 417:.\Generated_Source\PSoC5/USBUART.c **** *
 418:.\Generated_Source\PSoC5/USBUART.c **** * \param device:
 419:.\Generated_Source\PSoC5/USBUART.c **** *   Contains the device number of the desired device descriptor. The device
 420:.\Generated_Source\PSoC5/USBUART.c **** *   number can be found in the Device Descriptor Tab of "Configure" dialog,
 421:.\Generated_Source\PSoC5/USBUART.c **** *   under the settings of desired Device Descriptor, in the *Device Number*
 422:.\Generated_Source\PSoC5/USBUART.c **** *   field.
 423:.\Generated_Source\PSoC5/USBUART.c **** *  \param mode:
 424:.\Generated_Source\PSoC5/USBUART.c **** *   The operating voltage. This determines whether the voltage regulator
 425:.\Generated_Source\PSoC5/USBUART.c **** *   is enabled for 5V operation or if pass through mode is used for 3.3V
 426:.\Generated_Source\PSoC5/USBUART.c **** *   operation. Symbolic names and their associated values are given in the
 427:.\Generated_Source\PSoC5/USBUART.c **** *   following list.
 428:.\Generated_Source\PSoC5/USBUART.c **** *
 429:.\Generated_Source\PSoC5/USBUART.c **** *       *USBUART_3V_OPERATION* - Disable voltage regulator and pass-
 430:.\Generated_Source\PSoC5/USBUART.c **** *                                      through Vcc for pull-up
 431:.\Generated_Source\PSoC5/USBUART.c **** *
 432:.\Generated_Source\PSoC5/USBUART.c **** *       *USBUART_5V_OPERATION* - Enable voltage regulator and use
 433:.\Generated_Source\PSoC5/USBUART.c **** *                                      regulator for pull-up
 434:.\Generated_Source\PSoC5/USBUART.c **** *
 435:.\Generated_Source\PSoC5/USBUART.c **** *       *USBUART_DWR_POWER_OPERATION* - Enable or disable the voltage
 436:.\Generated_Source\PSoC5/USBUART.c **** *                                      regulator depending on the power supply
 437:.\Generated_Source\PSoC5/USBUART.c **** *                                      voltage configuration in the DWR tab.
 438:.\Generated_Source\PSoC5/USBUART.c **** *                                      For PSoC 3/5LP devices, the VDDD supply
 439:.\Generated_Source\PSoC5/USBUART.c **** *                                      voltage is considered and for PSoC 4A-L,
 440:.\Generated_Source\PSoC5/USBUART.c **** *                                      the VBUS supply voltage is considered.
 441:.\Generated_Source\PSoC5/USBUART.c **** *
 442:.\Generated_Source\PSoC5/USBUART.c **** * \globalvars
 443:.\Generated_Source\PSoC5/USBUART.c **** *   \ref USBUART_device
 444:.\Generated_Source\PSoC5/USBUART.c **** *   \ref USBUART_transferState
 445:.\Generated_Source\PSoC5/USBUART.c **** *   \ref USBUART_configuration
 446:.\Generated_Source\PSoC5/USBUART.c **** *   \ref USBUART_deviceStatus
 447:.\Generated_Source\PSoC5/USBUART.c **** *
 448:.\Generated_Source\PSoC5/USBUART.c **** *   \ref USBUART_deviceAddress - Contains the current device address. This
 449:.\Generated_Source\PSoC5/USBUART.c **** *       variable is initialized to zero in this API. The Host starts to communicate
 450:.\Generated_Source\PSoC5/USBUART.c **** *      to the device with address 0 and then sets it to a whatever value using a
 451:.\Generated_Source\PSoC5/USBUART.c **** *      SET_ADDRESS request.
 452:.\Generated_Source\PSoC5/USBUART.c **** *
 453:.\Generated_Source\PSoC5/USBUART.c **** *   \ref USBUART_lastPacketSize - Initialized to 0;
 454:.\Generated_Source\PSoC5/USBUART.c **** *
 455:.\Generated_Source\PSoC5/USBUART.c **** * \reentrant
 456:.\Generated_Source\PSoC5/USBUART.c **** *  No.
 457:.\Generated_Source\PSoC5/USBUART.c **** *
 458:.\Generated_Source\PSoC5/USBUART.c **** *******************************************************************************/
 459:.\Generated_Source\PSoC5/USBUART.c **** void USBUART_InitComponent(uint8 device, uint8 mode) 
 460:.\Generated_Source\PSoC5/USBUART.c **** {
ARM GAS  C:\Users\Tim\AppData\Local\Temp\ccA4EuzY.s 			page 13


 225              		.loc 1 460 0
 226              		.cfi_startproc
 227              		@ args = 0, pretend = 0, frame = 0
 228              		@ frame_needed = 0, uses_anonymous_args = 0
 229              	.LVL22:
 230 0000 10B5     		push	{r4, lr}
 231              		.cfi_def_cfa_offset 8
 232              		.cfi_offset 4, -8
 233              		.cfi_offset 14, -4
 234              	.LVL23:
 461:.\Generated_Source\PSoC5/USBUART.c ****     /* Initialize _hidProtocol variable to comply with
 462:.\Generated_Source\PSoC5/USBUART.c ****     *  HID 7.2.6 Set_Protocol Request:
 463:.\Generated_Source\PSoC5/USBUART.c ****     *  "When initialized, all devices default to report protocol."
 464:.\Generated_Source\PSoC5/USBUART.c ****     */
 465:.\Generated_Source\PSoC5/USBUART.c **** #if defined(USBUART_ENABLE_HID_CLASS)
 466:.\Generated_Source\PSoC5/USBUART.c ****     uint8 i;
 467:.\Generated_Source\PSoC5/USBUART.c **** 
 468:.\Generated_Source\PSoC5/USBUART.c ****     for (i = 0u; i < USBUART_MAX_INTERFACES_NUMBER; i++)
 235              		.loc 1 468 0
 236 0002 0023     		movs	r3, #0
 237 0004 04E0     		b	.L6
 238              	.LVL24:
 239              	.L7:
 469:.\Generated_Source\PSoC5/USBUART.c ****     {
 470:.\Generated_Source\PSoC5/USBUART.c ****         USBUART_hidProtocol[i] = USBUART_PROTOCOL_REPORT;
 240              		.loc 1 470 0 discriminator 3
 241 0006 0124     		movs	r4, #1
 242 0008 254A     		ldr	r2, .L14
 243 000a D454     		strb	r4, [r2, r3]
 468:.\Generated_Source\PSoC5/USBUART.c ****     {
 244              		.loc 1 468 0 discriminator 3
 245 000c 2344     		add	r3, r3, r4
 246              	.LVL25:
 247 000e DBB2     		uxtb	r3, r3
 248              	.LVL26:
 249              	.L6:
 468:.\Generated_Source\PSoC5/USBUART.c ****     {
 250              		.loc 1 468 0 is_stmt 0 discriminator 1
 251 0010 012B     		cmp	r3, #1
 252 0012 F8D9     		bls	.L7
 471:.\Generated_Source\PSoC5/USBUART.c ****     }
 472:.\Generated_Source\PSoC5/USBUART.c **** #endif /* USBUART_ENABLE_HID_CLASS */
 473:.\Generated_Source\PSoC5/USBUART.c **** 
 474:.\Generated_Source\PSoC5/USBUART.c ****     /* Store device number to access descriptor. */
 475:.\Generated_Source\PSoC5/USBUART.c ****     USBUART_device = device;
 253              		.loc 1 475 0 is_stmt 1
 254 0014 234B     		ldr	r3, .L14+4
 255              	.LVL27:
 256 0016 1870     		strb	r0, [r3]
 476:.\Generated_Source\PSoC5/USBUART.c **** 
 477:.\Generated_Source\PSoC5/USBUART.c ****     /* Reset component internal variables. */
 478:.\Generated_Source\PSoC5/USBUART.c ****     USBUART_transferState   = USBUART_TRANS_STATE_IDLE;
 257              		.loc 1 478 0
 258 0018 0023     		movs	r3, #0
 259 001a 234A     		ldr	r2, .L14+8
 260 001c 1370     		strb	r3, [r2]
 479:.\Generated_Source\PSoC5/USBUART.c ****     USBUART_configurationChanged = 0u;
ARM GAS  C:\Users\Tim\AppData\Local\Temp\ccA4EuzY.s 			page 14


 261              		.loc 1 479 0
 262 001e 234A     		ldr	r2, .L14+12
 263 0020 1370     		strb	r3, [r2]
 480:.\Generated_Source\PSoC5/USBUART.c ****     USBUART_configuration   = 0u;
 264              		.loc 1 480 0
 265 0022 234A     		ldr	r2, .L14+16
 266 0024 1370     		strb	r3, [r2]
 481:.\Generated_Source\PSoC5/USBUART.c ****     USBUART_interfaceNumber = 0u;
 267              		.loc 1 481 0
 268 0026 234A     		ldr	r2, .L14+20
 269 0028 1370     		strb	r3, [r2]
 482:.\Generated_Source\PSoC5/USBUART.c ****     USBUART_deviceAddress   = 0u;
 270              		.loc 1 482 0
 271 002a 234A     		ldr	r2, .L14+24
 272 002c 1370     		strb	r3, [r2]
 483:.\Generated_Source\PSoC5/USBUART.c ****     USBUART_deviceStatus    = 0u;
 273              		.loc 1 483 0
 274 002e 234A     		ldr	r2, .L14+28
 275 0030 1370     		strb	r3, [r2]
 484:.\Generated_Source\PSoC5/USBUART.c ****     USBUART_lastPacketSize  = 0u;
 276              		.loc 1 484 0
 277 0032 234A     		ldr	r2, .L14+32
 278 0034 1370     		strb	r3, [r2]
 485:.\Generated_Source\PSoC5/USBUART.c **** 
 486:.\Generated_Source\PSoC5/USBUART.c ****     /* Enable component interrupts. */
 487:.\Generated_Source\PSoC5/USBUART.c **** #if (CY_PSOC4)
 488:.\Generated_Source\PSoC5/USBUART.c ****     CyIntEnable(USBUART_INTR_HI_VECT_NUM);
 489:.\Generated_Source\PSoC5/USBUART.c ****     CyIntEnable(USBUART_INTR_MED_VECT_NUM);
 490:.\Generated_Source\PSoC5/USBUART.c ****     CyIntEnable(USBUART_INTR_LO_VECT_NUM);
 491:.\Generated_Source\PSoC5/USBUART.c **** #else
 492:.\Generated_Source\PSoC5/USBUART.c ****     CyIntEnable(USBUART_BUS_RESET_VECT_NUM);
 279              		.loc 1 492 0
 280 0036 234B     		ldr	r3, .L14+36
 281 0038 4FF40002 		mov	r2, #8388608
 282 003c 1A60     		str	r2, [r3]
 493:.\Generated_Source\PSoC5/USBUART.c ****     CyIntEnable(USBUART_EP_0_VECT_NUM);
 283              		.loc 1 493 0
 284 003e 4FF08072 		mov	r2, #16777216
 285 0042 1A60     		str	r2, [r3]
 494:.\Generated_Source\PSoC5/USBUART.c **** 
 495:.\Generated_Source\PSoC5/USBUART.c ****     #if (USBUART_SOF_ISR_ACTIVE)
 496:.\Generated_Source\PSoC5/USBUART.c ****         CyIntEnable(USBUART_SOF_VECT_NUM);
 286              		.loc 1 496 0
 287 0044 4FF40012 		mov	r2, #2097152
 288 0048 1A60     		str	r2, [r3]
 497:.\Generated_Source\PSoC5/USBUART.c ****     #endif /* (USBUART_SOF_ISR_ACTIVE) */
 498:.\Generated_Source\PSoC5/USBUART.c **** 
 499:.\Generated_Source\PSoC5/USBUART.c ****     #if (USBUART_EP1_ISR_ACTIVE)
 500:.\Generated_Source\PSoC5/USBUART.c ****         CyIntEnable(USBUART_EP_1_VECT_NUM);
 289              		.loc 1 500 0
 290 004a 4FF48062 		mov	r2, #1024
 291 004e 1A60     		str	r2, [r3]
 501:.\Generated_Source\PSoC5/USBUART.c ****     #endif /* (USBUART_EP1_ISR_ACTIVE) */
 502:.\Generated_Source\PSoC5/USBUART.c **** 
 503:.\Generated_Source\PSoC5/USBUART.c ****     #if (USBUART_EP2_ISR_ACTIVE)
 504:.\Generated_Source\PSoC5/USBUART.c ****         CyIntEnable(USBUART_EP_2_VECT_NUM);
 292              		.loc 1 504 0
ARM GAS  C:\Users\Tim\AppData\Local\Temp\ccA4EuzY.s 			page 15


 293 0050 4FF40062 		mov	r2, #2048
 294 0054 1A60     		str	r2, [r3]
 505:.\Generated_Source\PSoC5/USBUART.c ****     #endif /* (USBUART_EP5_ISR_ACTIVE) */
 506:.\Generated_Source\PSoC5/USBUART.c **** 
 507:.\Generated_Source\PSoC5/USBUART.c ****     #if (USBUART_EP3_ISR_ACTIVE)
 508:.\Generated_Source\PSoC5/USBUART.c ****         CyIntEnable(USBUART_EP_3_VECT_NUM);
 295              		.loc 1 508 0
 296 0056 4FF40052 		mov	r2, #8192
 297 005a 1A60     		str	r2, [r3]
 509:.\Generated_Source\PSoC5/USBUART.c ****     #endif /* (USBUART_EP5_ISR_ACTIVE) */
 510:.\Generated_Source\PSoC5/USBUART.c **** 
 511:.\Generated_Source\PSoC5/USBUART.c ****     #if (USBUART_EP4_ISR_ACTIVE)
 512:.\Generated_Source\PSoC5/USBUART.c ****         CyIntEnable(USBUART_EP_4_VECT_NUM);
 513:.\Generated_Source\PSoC5/USBUART.c ****     #endif /* (USBUART_EP5_ISR_ACTIVE) */
 514:.\Generated_Source\PSoC5/USBUART.c **** 
 515:.\Generated_Source\PSoC5/USBUART.c ****     #if (USBUART_EP5_ISR_ACTIVE)
 516:.\Generated_Source\PSoC5/USBUART.c ****         CyIntEnable(USBUART_EP_5_VECT_NUM);
 517:.\Generated_Source\PSoC5/USBUART.c ****     #endif /* (USBUART_EP5_ISR_ACTIVE) */
 518:.\Generated_Source\PSoC5/USBUART.c **** 
 519:.\Generated_Source\PSoC5/USBUART.c ****     #if (USBUART_EP6_ISR_ACTIVE)
 520:.\Generated_Source\PSoC5/USBUART.c ****         CyIntEnable(USBUART_EP_6_VECT_NUM);
 521:.\Generated_Source\PSoC5/USBUART.c ****     #endif /* USBUART_EP6_ISR_REMOVE */
 522:.\Generated_Source\PSoC5/USBUART.c **** 
 523:.\Generated_Source\PSoC5/USBUART.c ****     #if (USBUART_EP7_ISR_ACTIVE)
 524:.\Generated_Source\PSoC5/USBUART.c ****         CyIntEnable(USBUART_EP_7_VECT_NUM);
 525:.\Generated_Source\PSoC5/USBUART.c ****     #endif /* (USBUART_EP7_ISR_ACTIVE) */
 526:.\Generated_Source\PSoC5/USBUART.c **** 
 527:.\Generated_Source\PSoC5/USBUART.c ****     #if (USBUART_EP8_ISR_ACTIVE)
 528:.\Generated_Source\PSoC5/USBUART.c ****         CyIntEnable(USBUART_EP_8_VECT_NUM);
 529:.\Generated_Source\PSoC5/USBUART.c ****     #endif /* (USBUART_EP8_ISR_ACTIVE) */
 530:.\Generated_Source\PSoC5/USBUART.c **** #endif /* (CY_PSOC4) */
 531:.\Generated_Source\PSoC5/USBUART.c **** 
 532:.\Generated_Source\PSoC5/USBUART.c **** #if (USBUART_EP_MANAGEMENT_DMA && USBUART_ARB_ISR_ACTIVE)
 533:.\Generated_Source\PSoC5/USBUART.c ****     /* Enable ARB EP interrupt sources. */
 534:.\Generated_Source\PSoC5/USBUART.c ****     USBUART_ARB_INT_EN_REG = USBUART_DEFAULT_ARB_INT_EN;
 535:.\Generated_Source\PSoC5/USBUART.c **** 
 536:.\Generated_Source\PSoC5/USBUART.c ****     #if (CY_PSOC3 || CY_PSOC5)
 537:.\Generated_Source\PSoC5/USBUART.c ****         CyIntEnable(USBUART_ARB_VECT_NUM);
 538:.\Generated_Source\PSoC5/USBUART.c ****     #endif /* (CY_PSOC3 || CY_PSOC5) */
 539:.\Generated_Source\PSoC5/USBUART.c **** #endif   /* (USBUART_EP_MANAGEMENT_DMA && USBUART_ARB_ISR_ACTIVE) */
 540:.\Generated_Source\PSoC5/USBUART.c **** 
 541:.\Generated_Source\PSoC5/USBUART.c **** /* Arbiter configuration for DMA transfers. */
 542:.\Generated_Source\PSoC5/USBUART.c **** #if (USBUART_EP_MANAGEMENT_DMA)
 543:.\Generated_Source\PSoC5/USBUART.c ****     /* Configure Arbiter for Manual or Auto DMA operation and clear configuration completion. */
 544:.\Generated_Source\PSoC5/USBUART.c ****     USBUART_ARB_CFG_REG = USBUART_DEFAULT_ARB_CFG;
 545:.\Generated_Source\PSoC5/USBUART.c **** 
 546:.\Generated_Source\PSoC5/USBUART.c ****     #if (CY_PSOC4)
 547:.\Generated_Source\PSoC5/USBUART.c ****         /* Enable DMA operation. */
 548:.\Generated_Source\PSoC5/USBUART.c ****         CyDmaEnable();
 549:.\Generated_Source\PSoC5/USBUART.c **** 
 550:.\Generated_Source\PSoC5/USBUART.c ****         #if (USBUART_EP_MANAGEMENT_DMA_AUTO)
 551:.\Generated_Source\PSoC5/USBUART.c ****             /* Change DMA priority to be highest. */
 552:.\Generated_Source\PSoC5/USBUART.c ****              CyIntSetPriority(CYDMA_INTR_NUMBER, USBUART_DMA_AUTO_INTR_PRIO);
 553:.\Generated_Source\PSoC5/USBUART.c ****         #endif /* (USBUART_EP_MANAGEMENT_DMA_AUTO) */
 554:.\Generated_Source\PSoC5/USBUART.c ****     #endif /* (CY_PSOC4) */
 555:.\Generated_Source\PSoC5/USBUART.c **** 
 556:.\Generated_Source\PSoC5/USBUART.c ****     #if (USBUART_EP_MANAGEMENT_DMA_AUTO)
ARM GAS  C:\Users\Tim\AppData\Local\Temp\ccA4EuzY.s 			page 16


 557:.\Generated_Source\PSoC5/USBUART.c ****         #if (CY_PSOC4)
 558:.\Generated_Source\PSoC5/USBUART.c ****             /* Enable DMA interrupt to handle DMA management. */
 559:.\Generated_Source\PSoC5/USBUART.c ****             CyIntEnable(CYDMA_INTR_NUMBER);
 560:.\Generated_Source\PSoC5/USBUART.c ****         #else
 561:.\Generated_Source\PSoC5/USBUART.c ****             #if (USBUART_EP_DMA_AUTO_OPT == 0u)
 562:.\Generated_Source\PSoC5/USBUART.c ****                 /* Initialize interrupts which handle verification of successful DMA transaction. *
 563:.\Generated_Source\PSoC5/USBUART.c ****                 USBUART_EP_DMA_Done_isr_StartEx(&USBUART_EP_DMA_DONE_ISR);
 564:.\Generated_Source\PSoC5/USBUART.c ****                 USBUART_EP17_DMA_Done_SR_InterruptEnable();
 565:.\Generated_Source\PSoC5/USBUART.c ****                 USBUART_EP8_DMA_Done_SR_InterruptEnable();
 566:.\Generated_Source\PSoC5/USBUART.c ****             #endif /* (USBUART_EP_DMA_AUTO_OPT == 0u) */
 567:.\Generated_Source\PSoC5/USBUART.c ****         #endif /* (CY_PSOC4) */
 568:.\Generated_Source\PSoC5/USBUART.c ****     #endif /* (USBUART_EP_MANAGEMENT_DMA_AUTO) */
 569:.\Generated_Source\PSoC5/USBUART.c **** #endif /* (USBUART_EP_MANAGEMENT_DMA) */
 570:.\Generated_Source\PSoC5/USBUART.c **** 
 571:.\Generated_Source\PSoC5/USBUART.c ****     /* Enable USB regulator depends on operation voltage. IMO Locking is enabled in Init(). */
 572:.\Generated_Source\PSoC5/USBUART.c ****     switch(mode)
 298              		.loc 1 572 0
 299 005c 11B1     		cbz	r1, .L9
 300 005e 0129     		cmp	r1, #1
 301 0060 06D0     		beq	.L10
 302 0062 0BE0     		b	.L12
 303              	.L9:
 573:.\Generated_Source\PSoC5/USBUART.c ****     {
 574:.\Generated_Source\PSoC5/USBUART.c ****     case USBUART_3V_OPERATION:
 575:.\Generated_Source\PSoC5/USBUART.c ****         /* Disable regulator for 3V operation. */
 576:.\Generated_Source\PSoC5/USBUART.c ****         USBUART_CR1_REG &= (uint8) ~USBUART_CR1_REG_ENABLE;
 304              		.loc 1 576 0
 305 0064 184A     		ldr	r2, .L14+40
 306 0066 1378     		ldrb	r3, [r2]	@ zero_extendqisi2
 307 0068 03F0FE03 		and	r3, r3, #254
 308 006c 1370     		strb	r3, [r2]
 577:.\Generated_Source\PSoC5/USBUART.c ****         break;
 309              		.loc 1 577 0
 310 006e 0AE0     		b	.L11
 311              	.L10:
 578:.\Generated_Source\PSoC5/USBUART.c **** 
 579:.\Generated_Source\PSoC5/USBUART.c ****     case USBUART_5V_OPERATION:
 580:.\Generated_Source\PSoC5/USBUART.c ****         /* Enable regulator for 5V operation. */
 581:.\Generated_Source\PSoC5/USBUART.c ****         USBUART_CR1_REG |= (uint8)  USBUART_CR1_REG_ENABLE;
 312              		.loc 1 581 0
 313 0070 154A     		ldr	r2, .L14+40
 314 0072 1378     		ldrb	r3, [r2]	@ zero_extendqisi2
 315 0074 43F00103 		orr	r3, r3, #1
 316 0078 1370     		strb	r3, [r2]
 582:.\Generated_Source\PSoC5/USBUART.c ****         break;
 317              		.loc 1 582 0
 318 007a 04E0     		b	.L11
 319              	.L12:
 583:.\Generated_Source\PSoC5/USBUART.c **** 
 584:.\Generated_Source\PSoC5/USBUART.c ****     default: /* Check DWR settings of USB power supply. */
 585:.\Generated_Source\PSoC5/USBUART.c ****     #if (USBUART_VDDD_MV < USBUART_3500MV)
 586:.\Generated_Source\PSoC5/USBUART.c ****         /* Disable regulator for 3V operation. */
 587:.\Generated_Source\PSoC5/USBUART.c ****         USBUART_CR1_REG &= (uint8) ~USBUART_CR1_REG_ENABLE;
 588:.\Generated_Source\PSoC5/USBUART.c ****     #else
 589:.\Generated_Source\PSoC5/USBUART.c ****         /* Enable regulator for 5V operation. */
 590:.\Generated_Source\PSoC5/USBUART.c ****         USBUART_CR1_REG |= (uint8)  USBUART_CR1_REG_ENABLE;
 320              		.loc 1 590 0
ARM GAS  C:\Users\Tim\AppData\Local\Temp\ccA4EuzY.s 			page 17


 321 007c 124A     		ldr	r2, .L14+40
 322 007e 1378     		ldrb	r3, [r2]	@ zero_extendqisi2
 323 0080 43F00103 		orr	r3, r3, #1
 324 0084 1370     		strb	r3, [r2]
 325              	.L11:
 591:.\Generated_Source\PSoC5/USBUART.c ****     #endif /* (USBUART_VDDD_MV < USBUART_3500MV) */
 592:.\Generated_Source\PSoC5/USBUART.c ****         break;
 593:.\Generated_Source\PSoC5/USBUART.c ****     }
 594:.\Generated_Source\PSoC5/USBUART.c **** 
 595:.\Generated_Source\PSoC5/USBUART.c **** #if (CY_PSOC4)
 596:.\Generated_Source\PSoC5/USBUART.c ****     /* Clear bus activity. */
 597:.\Generated_Source\PSoC5/USBUART.c ****     USBUART_CR1_REG &= (uint32) ~USBUART_CR1_BUS_ACTIVITY;
 598:.\Generated_Source\PSoC5/USBUART.c **** 
 599:.\Generated_Source\PSoC5/USBUART.c ****     /* Clear EP0 count register. */
 600:.\Generated_Source\PSoC5/USBUART.c ****     USBUART_EP0_CNT_REG = USBUART_CLEAR_REG;
 601:.\Generated_Source\PSoC5/USBUART.c **** 
 602:.\Generated_Source\PSoC5/USBUART.c ****     /* Set EP0.CR: ACK Setup, NAK IN/OUT. */
 603:.\Generated_Source\PSoC5/USBUART.c ****     USBUART_EP0_CR_REG = USBUART_MODE_NAK_IN_OUT;
 604:.\Generated_Source\PSoC5/USBUART.c **** 
 605:.\Generated_Source\PSoC5/USBUART.c ****     #if (USBUART_LPM_ACTIVE)
 606:.\Generated_Source\PSoC5/USBUART.c ****         if (NULL != USBUART_GetBOSPtr())
 607:.\Generated_Source\PSoC5/USBUART.c ****         {
 608:.\Generated_Source\PSoC5/USBUART.c ****             /* Enable LPM and acknowledge LPM packets for active device.
 609:.\Generated_Source\PSoC5/USBUART.c ****             * Reset NYET_EN and SUB_RESP bits in the LPM_CTRL register.
 610:.\Generated_Source\PSoC5/USBUART.c ****             */
 611:.\Generated_Source\PSoC5/USBUART.c ****             USBUART_LPM_CTRL_REG = (USBUART_LPM_CTRL_LPM_EN | \
 612:.\Generated_Source\PSoC5/USBUART.c ****                                              USBUART_LPM_CTRL_LPM_ACK_RESP);
 613:.\Generated_Source\PSoC5/USBUART.c ****         }
 614:.\Generated_Source\PSoC5/USBUART.c ****         else
 615:.\Generated_Source\PSoC5/USBUART.c ****         {
 616:.\Generated_Source\PSoC5/USBUART.c ****             /* Disable LPM for active device. */
 617:.\Generated_Source\PSoC5/USBUART.c ****             USBUART_LPM_CTRL_REG &= (uint32) ~USBUART_LPM_CTRL_LPM_EN;
 618:.\Generated_Source\PSoC5/USBUART.c ****         }
 619:.\Generated_Source\PSoC5/USBUART.c ****     #endif /* (USBUART_LPM_ACTIVE) */
 620:.\Generated_Source\PSoC5/USBUART.c **** 
 621:.\Generated_Source\PSoC5/USBUART.c ****     /* Enable device to responds to USB traffic with address 0. */
 622:.\Generated_Source\PSoC5/USBUART.c ****     USBUART_CR0_REG = USBUART_DEFUALT_CR0;
 623:.\Generated_Source\PSoC5/USBUART.c **** 
 624:.\Generated_Source\PSoC5/USBUART.c **** #else
 625:.\Generated_Source\PSoC5/USBUART.c ****     /* Set EP0.CR: ACK Setup, STALL IN/OUT. */
 626:.\Generated_Source\PSoC5/USBUART.c ****     USBUART_EP0_CR_REG = USBUART_MODE_STALL_IN_OUT;
 326              		.loc 1 626 0
 327 0086 0322     		movs	r2, #3
 328 0088 104B     		ldr	r3, .L14+44
 329 008a 1A70     		strb	r2, [r3]
 627:.\Generated_Source\PSoC5/USBUART.c **** 
 628:.\Generated_Source\PSoC5/USBUART.c ****     /* Enable device to respond to USB traffic with address 0. */
 629:.\Generated_Source\PSoC5/USBUART.c ****     USBUART_CR0_REG = USBUART_DEFUALT_CR0;
 330              		.loc 1 629 0
 331 008c 8022     		movs	r2, #128
 332 008e 203B     		subs	r3, r3, #32
 333 0090 1A70     		strb	r2, [r3]
 630:.\Generated_Source\PSoC5/USBUART.c ****     CyDelayCycles(USBUART_WAIT_CR0_REG_STABILITY);
 334              		.loc 1 630 0
 335 0092 0120     		movs	r0, #1
 336              	.LVL28:
 337 0094 FFF7FEFF 		bl	CyDelayCycles
ARM GAS  C:\Users\Tim\AppData\Local\Temp\ccA4EuzY.s 			page 18


 338              	.LVL29:
 631:.\Generated_Source\PSoC5/USBUART.c **** #endif /* (CY_PSOC4) */
 632:.\Generated_Source\PSoC5/USBUART.c **** 
 633:.\Generated_Source\PSoC5/USBUART.c ****     /* Enable D+ pull-up and keep USB control on IO. */
 634:.\Generated_Source\PSoC5/USBUART.c ****     USBUART_USBIO_CR1_REG = USBUART_USBIO_CR1_USBPUEN;
 339              		.loc 1 634 0
 340 0098 0422     		movs	r2, #4
 341 009a 0D4B     		ldr	r3, .L14+48
 342 009c 1A70     		strb	r2, [r3]
 343 009e 10BD     		pop	{r4, pc}
 344              	.L15:
 345              		.align	2
 346              	.L14:
 347 00a0 00000000 		.word	USBUART_hidProtocol
 348 00a4 00000000 		.word	USBUART_device
 349 00a8 00000000 		.word	USBUART_transferState
 350 00ac 00000000 		.word	USBUART_configurationChanged
 351 00b0 00000000 		.word	USBUART_configuration
 352 00b4 00000000 		.word	USBUART_interfaceNumber
 353 00b8 00000000 		.word	USBUART_deviceAddress
 354 00bc 00000000 		.word	USBUART_deviceStatus
 355 00c0 00000000 		.word	USBUART_lastPacketSize
 356 00c4 00E100E0 		.word	-536813312
 357 00c8 09600040 		.word	1073766409
 358 00cc 28600040 		.word	1073766440
 359 00d0 12600040 		.word	1073766418
 360              		.cfi_endproc
 361              	.LFE2:
 362              		.size	USBUART_InitComponent, .-USBUART_InitComponent
 363              		.section	.text.USBUART_Start,"ax",%progbits
 364              		.align	2
 365              		.global	USBUART_Start
 366              		.thumb
 367              		.thumb_func
 368              		.type	USBUART_Start, %function
 369              	USBUART_Start:
 370              	.LFB0:
 186:.\Generated_Source\PSoC5/USBUART.c ****     if (0u == USBUART_initVar)
 371              		.loc 1 186 0
 372              		.cfi_startproc
 373              		@ args = 0, pretend = 0, frame = 0
 374              		@ frame_needed = 0, uses_anonymous_args = 0
 375              	.LVL30:
 376 0000 38B5     		push	{r3, r4, r5, lr}
 377              		.cfi_def_cfa_offset 16
 378              		.cfi_offset 3, -16
 379              		.cfi_offset 4, -12
 380              		.cfi_offset 5, -8
 381              		.cfi_offset 14, -4
 382 0002 0546     		mov	r5, r0
 383 0004 0C46     		mov	r4, r1
 187:.\Generated_Source\PSoC5/USBUART.c ****     {
 384              		.loc 1 187 0
 385 0006 064B     		ldr	r3, .L19
 386 0008 1B78     		ldrb	r3, [r3]	@ zero_extendqisi2
 387 000a 23B9     		cbnz	r3, .L17
 189:.\Generated_Source\PSoC5/USBUART.c ****         USBUART_initVar = 1u;
ARM GAS  C:\Users\Tim\AppData\Local\Temp\ccA4EuzY.s 			page 19


 388              		.loc 1 189 0
 389 000c FFF7FEFF 		bl	USBUART_Init
 390              	.LVL31:
 190:.\Generated_Source\PSoC5/USBUART.c ****     }
 391              		.loc 1 190 0
 392 0010 0122     		movs	r2, #1
 393 0012 034B     		ldr	r3, .L19
 394 0014 1A70     		strb	r2, [r3]
 395              	.L17:
 193:.\Generated_Source\PSoC5/USBUART.c **** }
 396              		.loc 1 193 0
 397 0016 2846     		mov	r0, r5
 398 0018 2146     		mov	r1, r4
 399 001a FFF7FEFF 		bl	USBUART_InitComponent
 400              	.LVL32:
 401 001e 38BD     		pop	{r3, r4, r5, pc}
 402              	.L20:
 403              		.align	2
 404              	.L19:
 405 0020 00000000 		.word	.LANCHOR0
 406              		.cfi_endproc
 407              	.LFE0:
 408              		.size	USBUART_Start, .-USBUART_Start
 409              		.section	.text.USBUART_ReInitComponent,"ax",%progbits
 410              		.align	2
 411              		.global	USBUART_ReInitComponent
 412              		.thumb
 413              		.thumb_func
 414              		.type	USBUART_ReInitComponent, %function
 415              	USBUART_ReInitComponent:
 416              	.LFB3:
 635:.\Generated_Source\PSoC5/USBUART.c **** }
 636:.\Generated_Source\PSoC5/USBUART.c **** 
 637:.\Generated_Source\PSoC5/USBUART.c **** 
 638:.\Generated_Source\PSoC5/USBUART.c **** /*******************************************************************************
 639:.\Generated_Source\PSoC5/USBUART.c **** * Function Name: USBUART_ReInitComponent
 640:.\Generated_Source\PSoC5/USBUART.c **** ****************************************************************************//**
 641:.\Generated_Source\PSoC5/USBUART.c **** *
 642:.\Generated_Source\PSoC5/USBUART.c **** *  This function reinitialize the component configuration and is
 643:.\Generated_Source\PSoC5/USBUART.c **** *  intend to be called from the Reset interrupt.
 644:.\Generated_Source\PSoC5/USBUART.c **** *
 645:.\Generated_Source\PSoC5/USBUART.c **** * \globalvars
 646:.\Generated_Source\PSoC5/USBUART.c **** *   USBUART_device - Contains the device number of the desired Device
 647:.\Generated_Source\PSoC5/USBUART.c **** *        Descriptor. The device number can be found in the Device Descriptor tab
 648:.\Generated_Source\PSoC5/USBUART.c **** *       of the Configure dialog, under the settings of the desired Device Descriptor,
 649:.\Generated_Source\PSoC5/USBUART.c **** *       in the Device Number field.
 650:.\Generated_Source\PSoC5/USBUART.c **** *   USBUART_transferState - This variable is used by the communication
 651:.\Generated_Source\PSoC5/USBUART.c **** *       functions to handle the current transfer state. Initialized to
 652:.\Generated_Source\PSoC5/USBUART.c **** *       TRANS_STATE_IDLE in this API.
 653:.\Generated_Source\PSoC5/USBUART.c **** *   USBUART_configuration - Contains the current configuration number
 654:.\Generated_Source\PSoC5/USBUART.c **** *       set by the Host using a SET_CONFIGURATION request.
 655:.\Generated_Source\PSoC5/USBUART.c **** *       Initialized to zero in this API.
 656:.\Generated_Source\PSoC5/USBUART.c **** *   USBUART_deviceAddress - Contains the current device address. This
 657:.\Generated_Source\PSoC5/USBUART.c **** *       variable is initialized to zero in this API. The Host starts to communicate
 658:.\Generated_Source\PSoC5/USBUART.c **** *      to the device with address 0 and then sets it to a whatever value using
 659:.\Generated_Source\PSoC5/USBUART.c **** *      a SET_ADDRESS request.
 660:.\Generated_Source\PSoC5/USBUART.c **** *   USBUART_deviceStatus - Initialized to 0.
ARM GAS  C:\Users\Tim\AppData\Local\Temp\ccA4EuzY.s 			page 20


 661:.\Generated_Source\PSoC5/USBUART.c **** *       This is a two-bit variable which contains the power status in the first bit
 662:.\Generated_Source\PSoC5/USBUART.c **** *       (DEVICE_STATUS_BUS_POWERED or DEVICE_STATUS_SELF_POWERED) and the remote
 663:.\Generated_Source\PSoC5/USBUART.c **** *       wakeup status (DEVICE_STATUS_REMOTE_WAKEUP) in the second bit.
 664:.\Generated_Source\PSoC5/USBUART.c **** *   USBUART_lastPacketSize - Initialized to 0;
 665:.\Generated_Source\PSoC5/USBUART.c **** *
 666:.\Generated_Source\PSoC5/USBUART.c **** * \reentrant
 667:.\Generated_Source\PSoC5/USBUART.c **** *  No.
 668:.\Generated_Source\PSoC5/USBUART.c **** *
 669:.\Generated_Source\PSoC5/USBUART.c **** *******************************************************************************/
 670:.\Generated_Source\PSoC5/USBUART.c **** void USBUART_ReInitComponent(void) 
 671:.\Generated_Source\PSoC5/USBUART.c **** {
 417              		.loc 1 671 0
 418              		.cfi_startproc
 419              		@ args = 0, pretend = 0, frame = 0
 420              		@ frame_needed = 0, uses_anonymous_args = 0
 421              		@ link register save eliminated.
 422              	.LVL33:
 672:.\Generated_Source\PSoC5/USBUART.c ****     /* Initialize _hidProtocol variable to comply with HID 7.2.6 Set_Protocol
 673:.\Generated_Source\PSoC5/USBUART.c ****     *  Request: "When initialized, all devices default to report protocol."
 674:.\Generated_Source\PSoC5/USBUART.c ****     */
 675:.\Generated_Source\PSoC5/USBUART.c **** #if defined(USBUART_ENABLE_HID_CLASS)
 676:.\Generated_Source\PSoC5/USBUART.c ****     uint8 i;
 677:.\Generated_Source\PSoC5/USBUART.c **** 
 678:.\Generated_Source\PSoC5/USBUART.c ****     for (i = 0u; i < USBUART_MAX_INTERFACES_NUMBER; i++)
 423              		.loc 1 678 0
 424 0000 0023     		movs	r3, #0
 425 0002 04E0     		b	.L22
 426              	.LVL34:
 427              	.L23:
 679:.\Generated_Source\PSoC5/USBUART.c ****     {
 680:.\Generated_Source\PSoC5/USBUART.c ****         USBUART_hidProtocol[i] = USBUART_PROTOCOL_REPORT;
 428              		.loc 1 680 0 discriminator 3
 429 0004 0121     		movs	r1, #1
 430 0006 0E4A     		ldr	r2, .L24
 431 0008 D154     		strb	r1, [r2, r3]
 678:.\Generated_Source\PSoC5/USBUART.c ****     {
 432              		.loc 1 678 0 discriminator 3
 433 000a 0B44     		add	r3, r3, r1
 434              	.LVL35:
 435 000c DBB2     		uxtb	r3, r3
 436              	.LVL36:
 437              	.L22:
 678:.\Generated_Source\PSoC5/USBUART.c ****     {
 438              		.loc 1 678 0 is_stmt 0 discriminator 1
 439 000e 012B     		cmp	r3, #1
 440 0010 F8D9     		bls	.L23
 681:.\Generated_Source\PSoC5/USBUART.c ****     }
 682:.\Generated_Source\PSoC5/USBUART.c **** #endif /* USBUART_ENABLE_HID_CLASS */
 683:.\Generated_Source\PSoC5/USBUART.c **** 
 684:.\Generated_Source\PSoC5/USBUART.c ****     /* Reset component internal variables. */
 685:.\Generated_Source\PSoC5/USBUART.c ****     USBUART_transferState   = USBUART_TRANS_STATE_IDLE;
 441              		.loc 1 685 0 is_stmt 1
 442 0012 0023     		movs	r3, #0
 443              	.LVL37:
 444 0014 0B4A     		ldr	r2, .L24+4
 445 0016 1370     		strb	r3, [r2]
 686:.\Generated_Source\PSoC5/USBUART.c ****     USBUART_configurationChanged = 0u;
ARM GAS  C:\Users\Tim\AppData\Local\Temp\ccA4EuzY.s 			page 21


 446              		.loc 1 686 0
 447 0018 0B4A     		ldr	r2, .L24+8
 448 001a 1370     		strb	r3, [r2]
 687:.\Generated_Source\PSoC5/USBUART.c ****     USBUART_configuration   = 0u;
 449              		.loc 1 687 0
 450 001c 0B4A     		ldr	r2, .L24+12
 451 001e 1370     		strb	r3, [r2]
 688:.\Generated_Source\PSoC5/USBUART.c ****     USBUART_interfaceNumber = 0u;
 452              		.loc 1 688 0
 453 0020 0B4A     		ldr	r2, .L24+16
 454 0022 1370     		strb	r3, [r2]
 689:.\Generated_Source\PSoC5/USBUART.c ****     USBUART_deviceAddress   = 0u;
 455              		.loc 1 689 0
 456 0024 0B4A     		ldr	r2, .L24+20
 457 0026 1370     		strb	r3, [r2]
 690:.\Generated_Source\PSoC5/USBUART.c ****     USBUART_deviceStatus    = 0u;
 458              		.loc 1 690 0
 459 0028 0B4A     		ldr	r2, .L24+24
 460 002a 1370     		strb	r3, [r2]
 691:.\Generated_Source\PSoC5/USBUART.c ****     USBUART_lastPacketSize  = 0u;
 461              		.loc 1 691 0
 462 002c 0B4A     		ldr	r2, .L24+28
 463 002e 1370     		strb	r3, [r2]
 692:.\Generated_Source\PSoC5/USBUART.c **** 
 693:.\Generated_Source\PSoC5/USBUART.c **** #if (CY_PSOC4)
 694:.\Generated_Source\PSoC5/USBUART.c ****     /* Set EP0.CR: ACK Setup, NAK IN/OUT. */
 695:.\Generated_Source\PSoC5/USBUART.c ****     USBUART_EP0_CR_REG = USBUART_MODE_NAK_IN_OUT;
 696:.\Generated_Source\PSoC5/USBUART.c **** #else
 697:.\Generated_Source\PSoC5/USBUART.c ****     /* Set EP0.CR: ACK Setup, STALL IN/OUT. */
 698:.\Generated_Source\PSoC5/USBUART.c ****     USBUART_EP0_CR_REG = USBUART_MODE_STALL_IN_OUT;
 464              		.loc 1 698 0
 465 0030 0322     		movs	r2, #3
 466 0032 0B4B     		ldr	r3, .L24+32
 467 0034 1A70     		strb	r2, [r3]
 699:.\Generated_Source\PSoC5/USBUART.c **** #endif /* (CY_PSOC4) */
 700:.\Generated_Source\PSoC5/USBUART.c **** 
 701:.\Generated_Source\PSoC5/USBUART.c ****     /* Enable device to respond to USB traffic with address 0. */
 702:.\Generated_Source\PSoC5/USBUART.c ****     USBUART_CR0_REG = USBUART_DEFUALT_CR0;
 468              		.loc 1 702 0
 469 0036 8022     		movs	r2, #128
 470 0038 203B     		subs	r3, r3, #32
 471 003a 1A70     		strb	r2, [r3]
 472 003c 7047     		bx	lr
 473              	.L25:
 474 003e 00BF     		.align	2
 475              	.L24:
 476 0040 00000000 		.word	USBUART_hidProtocol
 477 0044 00000000 		.word	USBUART_transferState
 478 0048 00000000 		.word	USBUART_configurationChanged
 479 004c 00000000 		.word	USBUART_configuration
 480 0050 00000000 		.word	USBUART_interfaceNumber
 481 0054 00000000 		.word	USBUART_deviceAddress
 482 0058 00000000 		.word	USBUART_deviceStatus
 483 005c 00000000 		.word	USBUART_lastPacketSize
 484 0060 28600040 		.word	1073766440
 485              		.cfi_endproc
 486              	.LFE3:
ARM GAS  C:\Users\Tim\AppData\Local\Temp\ccA4EuzY.s 			page 22


 487              		.size	USBUART_ReInitComponent, .-USBUART_ReInitComponent
 488              		.section	.text.USBUART_Stop,"ax",%progbits
 489              		.align	2
 490              		.global	USBUART_Stop
 491              		.thumb
 492              		.thumb_func
 493              		.type	USBUART_Stop, %function
 494              	USBUART_Stop:
 495              	.LFB4:
 703:.\Generated_Source\PSoC5/USBUART.c **** }
 704:.\Generated_Source\PSoC5/USBUART.c **** 
 705:.\Generated_Source\PSoC5/USBUART.c **** 
 706:.\Generated_Source\PSoC5/USBUART.c **** /*******************************************************************************
 707:.\Generated_Source\PSoC5/USBUART.c **** * Function Name: USBUART_Stop
 708:.\Generated_Source\PSoC5/USBUART.c **** ****************************************************************************//**
 709:.\Generated_Source\PSoC5/USBUART.c **** *
 710:.\Generated_Source\PSoC5/USBUART.c **** *  This function shuts down the USB function including to release
 711:.\Generated_Source\PSoC5/USBUART.c **** *  the D+ pull-up and disabling the SIE.
 712:.\Generated_Source\PSoC5/USBUART.c **** *
 713:.\Generated_Source\PSoC5/USBUART.c **** * \globalvars
 714:.\Generated_Source\PSoC5/USBUART.c **** *   \ref USBUART_configuration
 715:.\Generated_Source\PSoC5/USBUART.c **** *
 716:.\Generated_Source\PSoC5/USBUART.c **** *   USBUART_deviceAddress - Contains the current device address. This
 717:.\Generated_Source\PSoC5/USBUART.c **** *       variable is initialized to zero in this API. The Host starts to communicate
 718:.\Generated_Source\PSoC5/USBUART.c **** *      to the device with address 0 and then sets it to a whatever value using
 719:.\Generated_Source\PSoC5/USBUART.c **** *      a SET_ADDRESS request.
 720:.\Generated_Source\PSoC5/USBUART.c **** *
 721:.\Generated_Source\PSoC5/USBUART.c **** *   \ref USBUART_deviceStatus
 722:.\Generated_Source\PSoC5/USBUART.c **** *
 723:.\Generated_Source\PSoC5/USBUART.c **** *   \ref USBUART_configurationChanged
 724:.\Generated_Source\PSoC5/USBUART.c **** *
 725:.\Generated_Source\PSoC5/USBUART.c **** *   USBUART_intiVar -  This variable is set to zero
 726:.\Generated_Source\PSoC5/USBUART.c **** *
 727:.\Generated_Source\PSoC5/USBUART.c **** *******************************************************************************/
 728:.\Generated_Source\PSoC5/USBUART.c **** void USBUART_Stop(void) 
 729:.\Generated_Source\PSoC5/USBUART.c **** {
 496              		.loc 1 729 0
 497              		.cfi_startproc
 498              		@ args = 0, pretend = 0, frame = 0
 499              		@ frame_needed = 0, uses_anonymous_args = 0
 500 0000 08B5     		push	{r3, lr}
 501              		.cfi_def_cfa_offset 8
 502              		.cfi_offset 3, -8
 503              		.cfi_offset 14, -4
 730:.\Generated_Source\PSoC5/USBUART.c ****     uint8 enableInterrupts;
 731:.\Generated_Source\PSoC5/USBUART.c **** 
 732:.\Generated_Source\PSoC5/USBUART.c **** #if (USBUART_EP_MANAGEMENT_DMA)
 733:.\Generated_Source\PSoC5/USBUART.c ****     /* Stop all DMA channels. */
 734:.\Generated_Source\PSoC5/USBUART.c ****     USBUART_Stop_DMA(USBUART_MAX_EP);
 735:.\Generated_Source\PSoC5/USBUART.c **** #endif /* (USBUART_EP_MANAGEMENT_DMA) */
 736:.\Generated_Source\PSoC5/USBUART.c **** 
 737:.\Generated_Source\PSoC5/USBUART.c ****     enableInterrupts = CyEnterCriticalSection();
 504              		.loc 1 737 0
 505 0002 FFF7FEFF 		bl	CyEnterCriticalSection
 506              	.LVL38:
 738:.\Generated_Source\PSoC5/USBUART.c **** 
 739:.\Generated_Source\PSoC5/USBUART.c ****     /* Disable USB IP to respond to USB traffic. */
ARM GAS  C:\Users\Tim\AppData\Local\Temp\ccA4EuzY.s 			page 23


 740:.\Generated_Source\PSoC5/USBUART.c ****     USBUART_CR0_REG &= (uint8) ~USBUART_CR0_ENABLE;
 507              		.loc 1 740 0
 508 0006 1C4A     		ldr	r2, .L28
 509 0008 1378     		ldrb	r3, [r2]	@ zero_extendqisi2
 510 000a 03F07F03 		and	r3, r3, #127
 511 000e 1370     		strb	r3, [r2]
 741:.\Generated_Source\PSoC5/USBUART.c **** 
 742:.\Generated_Source\PSoC5/USBUART.c ****     /* Disable D+ pull-up. */
 743:.\Generated_Source\PSoC5/USBUART.c ****     USBUART_USBIO_CR1_REG &= (uint8) ~ USBUART_USBIO_CR1_USBPUEN;
 512              		.loc 1 743 0
 513 0010 0A32     		adds	r2, r2, #10
 514 0012 1378     		ldrb	r3, [r2]	@ zero_extendqisi2
 515 0014 03F0FB03 		and	r3, r3, #251
 516 0018 1370     		strb	r3, [r2]
 744:.\Generated_Source\PSoC5/USBUART.c **** 
 745:.\Generated_Source\PSoC5/USBUART.c **** #if (CY_PSOC4)
 746:.\Generated_Source\PSoC5/USBUART.c ****     /* Disable USBFS block. */
 747:.\Generated_Source\PSoC5/USBUART.c ****     USBUART_POWER_CTRL_REG &= (uint32) ~USBUART_POWER_CTRL_ENABLE;
 748:.\Generated_Source\PSoC5/USBUART.c **** #else
 749:.\Generated_Source\PSoC5/USBUART.c ****     /* Clear power active and standby mode templates. */
 750:.\Generated_Source\PSoC5/USBUART.c ****     USBUART_PM_ACT_CFG_REG  &= (uint8) ~USBUART_PM_ACT_EN_FSUSB;
 517              		.loc 1 750 0
 518 001a A2F5E352 		sub	r2, r2, #7264
 519 001e 0D3A     		subs	r2, r2, #13
 520 0020 1378     		ldrb	r3, [r2]	@ zero_extendqisi2
 521 0022 03F0FE03 		and	r3, r3, #254
 522 0026 1370     		strb	r3, [r2]
 751:.\Generated_Source\PSoC5/USBUART.c ****     USBUART_PM_STBY_CFG_REG &= (uint8) ~USBUART_PM_STBY_EN_FSUSB;
 523              		.loc 1 751 0
 524 0028 1032     		adds	r2, r2, #16
 525 002a 1378     		ldrb	r3, [r2]	@ zero_extendqisi2
 526 002c 03F0FE03 		and	r3, r3, #254
 527 0030 1370     		strb	r3, [r2]
 752:.\Generated_Source\PSoC5/USBUART.c **** #endif /* (CY_PSOC4) */
 753:.\Generated_Source\PSoC5/USBUART.c **** 
 754:.\Generated_Source\PSoC5/USBUART.c ****     CyExitCriticalSection(enableInterrupts);
 528              		.loc 1 754 0
 529 0032 FFF7FEFF 		bl	CyExitCriticalSection
 530              	.LVL39:
 755:.\Generated_Source\PSoC5/USBUART.c **** 
 756:.\Generated_Source\PSoC5/USBUART.c ****     /* Disable component interrupts. */
 757:.\Generated_Source\PSoC5/USBUART.c **** #if (CY_PSOC4)
 758:.\Generated_Source\PSoC5/USBUART.c ****     CyIntDisable(USBUART_INTR_HI_VECT_NUM);
 759:.\Generated_Source\PSoC5/USBUART.c ****     CyIntDisable(USBUART_INTR_LO_VECT_NUM);
 760:.\Generated_Source\PSoC5/USBUART.c ****     CyIntDisable(USBUART_INTR_MED_VECT_NUM);
 761:.\Generated_Source\PSoC5/USBUART.c **** #else
 762:.\Generated_Source\PSoC5/USBUART.c **** 
 763:.\Generated_Source\PSoC5/USBUART.c ****     CyIntDisable(USBUART_BUS_RESET_VECT_NUM);
 531              		.loc 1 763 0
 532 0036 114B     		ldr	r3, .L28+4
 533 0038 4FF40002 		mov	r2, #8388608
 534 003c 1A60     		str	r2, [r3]
 764:.\Generated_Source\PSoC5/USBUART.c ****     CyIntDisable(USBUART_EP_0_VECT_NUM);
 535              		.loc 1 764 0
 536 003e 4FF08072 		mov	r2, #16777216
 537 0042 1A60     		str	r2, [r3]
 765:.\Generated_Source\PSoC5/USBUART.c **** 
ARM GAS  C:\Users\Tim\AppData\Local\Temp\ccA4EuzY.s 			page 24


 766:.\Generated_Source\PSoC5/USBUART.c ****     #if (USBUART_SOF_ISR_ACTIVE)
 767:.\Generated_Source\PSoC5/USBUART.c ****         CyIntDisable(USBUART_SOF_VECT_NUM);
 538              		.loc 1 767 0
 539 0044 4FF40012 		mov	r2, #2097152
 540 0048 1A60     		str	r2, [r3]
 768:.\Generated_Source\PSoC5/USBUART.c ****     #endif /* (USBUART_SOF_ISR_ACTIVE) */
 769:.\Generated_Source\PSoC5/USBUART.c **** 
 770:.\Generated_Source\PSoC5/USBUART.c ****     #if (USBUART_EP1_ISR_ACTIVE)
 771:.\Generated_Source\PSoC5/USBUART.c ****         CyIntDisable(USBUART_EP_1_VECT_NUM);
 541              		.loc 1 771 0
 542 004a 4FF48062 		mov	r2, #1024
 543 004e 1A60     		str	r2, [r3]
 772:.\Generated_Source\PSoC5/USBUART.c ****     #endif /* (USBUART_EP1_ISR_ACTIVE) */
 773:.\Generated_Source\PSoC5/USBUART.c **** 
 774:.\Generated_Source\PSoC5/USBUART.c ****     #if (USBUART_EP2_ISR_ACTIVE)
 775:.\Generated_Source\PSoC5/USBUART.c ****         CyIntDisable(USBUART_EP_2_VECT_NUM);
 544              		.loc 1 775 0
 545 0050 4FF40062 		mov	r2, #2048
 546 0054 1A60     		str	r2, [r3]
 776:.\Generated_Source\PSoC5/USBUART.c ****     #endif /* (USBUART_EP2_ISR_ACTIVE) */
 777:.\Generated_Source\PSoC5/USBUART.c **** 
 778:.\Generated_Source\PSoC5/USBUART.c ****     #if (USBUART_EP3_ISR_ACTIVE)
 779:.\Generated_Source\PSoC5/USBUART.c ****         CyIntDisable(USBUART_EP_3_VECT_NUM);
 547              		.loc 1 779 0
 548 0056 4FF40052 		mov	r2, #8192
 549 005a 1A60     		str	r2, [r3]
 780:.\Generated_Source\PSoC5/USBUART.c ****     #endif /* (USBUART_EP3_ISR_ACTIVE) */
 781:.\Generated_Source\PSoC5/USBUART.c **** 
 782:.\Generated_Source\PSoC5/USBUART.c ****     #if (USBUART_EP4_ISR_ACTIVE)
 783:.\Generated_Source\PSoC5/USBUART.c ****         CyIntDisable(USBUART_EP_4_VECT_NUM);
 784:.\Generated_Source\PSoC5/USBUART.c ****     #endif /* (USBUART_EP4_ISR_ACTIVE) */
 785:.\Generated_Source\PSoC5/USBUART.c **** 
 786:.\Generated_Source\PSoC5/USBUART.c ****     #if (USBUART_EP5_ISR_ACTIVE)
 787:.\Generated_Source\PSoC5/USBUART.c ****         CyIntDisable(USBUART_EP_5_VECT_NUM);
 788:.\Generated_Source\PSoC5/USBUART.c ****     #endif /* (USBUART_EP5_ISR_ACTIVE) */
 789:.\Generated_Source\PSoC5/USBUART.c **** 
 790:.\Generated_Source\PSoC5/USBUART.c ****     #if (USBUART_EP6_ISR_ACTIVE)
 791:.\Generated_Source\PSoC5/USBUART.c ****         CyIntDisable(USBUART_EP_6_VECT_NUM);
 792:.\Generated_Source\PSoC5/USBUART.c ****     #endif /* USBUART_EP6_ISR_REMOVE */
 793:.\Generated_Source\PSoC5/USBUART.c **** 
 794:.\Generated_Source\PSoC5/USBUART.c ****     #if (USBUART_EP7_ISR_ACTIVE)
 795:.\Generated_Source\PSoC5/USBUART.c ****         CyIntDisable(USBUART_EP_7_VECT_NUM);
 796:.\Generated_Source\PSoC5/USBUART.c ****     #endif /* (USBUART_EP7_ISR_ACTIVE) */
 797:.\Generated_Source\PSoC5/USBUART.c **** 
 798:.\Generated_Source\PSoC5/USBUART.c ****     #if (USBUART_EP8_ISR_ACTIVE)
 799:.\Generated_Source\PSoC5/USBUART.c ****         CyIntDisable(USBUART_EP_8_VECT_NUM);
 800:.\Generated_Source\PSoC5/USBUART.c ****     #endif /* (USBUART_EP8_ISR_ACTIVE) */
 801:.\Generated_Source\PSoC5/USBUART.c **** #endif /* (CY_PSOC4) */
 802:.\Generated_Source\PSoC5/USBUART.c **** 
 803:.\Generated_Source\PSoC5/USBUART.c ****     /* Reset component internal variables. */
 804:.\Generated_Source\PSoC5/USBUART.c ****     USBUART_configurationChanged = 0u;
 550              		.loc 1 804 0
 551 005c 0023     		movs	r3, #0
 552 005e 084A     		ldr	r2, .L28+8
 553 0060 1370     		strb	r3, [r2]
 805:.\Generated_Source\PSoC5/USBUART.c ****     USBUART_configuration   = 0u;
 554              		.loc 1 805 0
ARM GAS  C:\Users\Tim\AppData\Local\Temp\ccA4EuzY.s 			page 25


 555 0062 084A     		ldr	r2, .L28+12
 556 0064 1370     		strb	r3, [r2]
 806:.\Generated_Source\PSoC5/USBUART.c ****     USBUART_interfaceNumber = 0u;
 557              		.loc 1 806 0
 558 0066 084A     		ldr	r2, .L28+16
 559 0068 1370     		strb	r3, [r2]
 807:.\Generated_Source\PSoC5/USBUART.c ****     USBUART_deviceAddress   = 0u;
 560              		.loc 1 807 0
 561 006a 084A     		ldr	r2, .L28+20
 562 006c 1370     		strb	r3, [r2]
 808:.\Generated_Source\PSoC5/USBUART.c ****     USBUART_deviceStatus    = 0u;
 563              		.loc 1 808 0
 564 006e 084A     		ldr	r2, .L28+24
 565 0070 1370     		strb	r3, [r2]
 809:.\Generated_Source\PSoC5/USBUART.c **** 
 810:.\Generated_Source\PSoC5/USBUART.c ****     /* It is mandatory for correct device startup. */
 811:.\Generated_Source\PSoC5/USBUART.c ****     USBUART_initVar = 0u;
 566              		.loc 1 811 0
 567 0072 084A     		ldr	r2, .L28+28
 568 0074 1370     		strb	r3, [r2]
 569 0076 08BD     		pop	{r3, pc}
 570              	.L29:
 571              		.align	2
 572              	.L28:
 573 0078 08600040 		.word	1073766408
 574 007c 80E100E0 		.word	-536813184
 575 0080 00000000 		.word	USBUART_configurationChanged
 576 0084 00000000 		.word	USBUART_configuration
 577 0088 00000000 		.word	USBUART_interfaceNumber
 578 008c 00000000 		.word	USBUART_deviceAddress
 579 0090 00000000 		.word	USBUART_deviceStatus
 580 0094 00000000 		.word	.LANCHOR0
 581              		.cfi_endproc
 582              	.LFE4:
 583              		.size	USBUART_Stop, .-USBUART_Stop
 584              		.section	.text.USBUART_CheckActivity,"ax",%progbits
 585              		.align	2
 586              		.global	USBUART_CheckActivity
 587              		.thumb
 588              		.thumb_func
 589              		.type	USBUART_CheckActivity, %function
 590              	USBUART_CheckActivity:
 591              	.LFB5:
 812:.\Generated_Source\PSoC5/USBUART.c **** }
 813:.\Generated_Source\PSoC5/USBUART.c **** 
 814:.\Generated_Source\PSoC5/USBUART.c **** 
 815:.\Generated_Source\PSoC5/USBUART.c **** /*******************************************************************************
 816:.\Generated_Source\PSoC5/USBUART.c **** * Function Name: USBUART_CheckActivity
 817:.\Generated_Source\PSoC5/USBUART.c **** ****************************************************************************//**
 818:.\Generated_Source\PSoC5/USBUART.c **** *
 819:.\Generated_Source\PSoC5/USBUART.c **** *  This function returns the activity status of the bus. It clears the hardware
 820:.\Generated_Source\PSoC5/USBUART.c **** *  status to provide updated status on the next call of this function. It
 821:.\Generated_Source\PSoC5/USBUART.c **** *  provides a way to determine whether any USB bus activity occurred. The
 822:.\Generated_Source\PSoC5/USBUART.c **** *  application should use this function to determine if the USB suspend
 823:.\Generated_Source\PSoC5/USBUART.c **** *  conditions are met.
 824:.\Generated_Source\PSoC5/USBUART.c **** *
 825:.\Generated_Source\PSoC5/USBUART.c **** *
ARM GAS  C:\Users\Tim\AppData\Local\Temp\ccA4EuzY.s 			page 26


 826:.\Generated_Source\PSoC5/USBUART.c **** * \return
 827:.\Generated_Source\PSoC5/USBUART.c **** *  cystatus: Status of the bus since the last call of the function.
 828:.\Generated_Source\PSoC5/USBUART.c **** *  Return Value |   Description
 829:.\Generated_Source\PSoC5/USBUART.c **** *  -------------|---------------------------------------------------------------
 830:.\Generated_Source\PSoC5/USBUART.c **** *  1            |Bus activity was detected since the last call to this function
 831:.\Generated_Source\PSoC5/USBUART.c **** *  0            |Bus activity was not detected since the last call to this function
 832:.\Generated_Source\PSoC5/USBUART.c **** *
 833:.\Generated_Source\PSoC5/USBUART.c **** *
 834:.\Generated_Source\PSoC5/USBUART.c **** *******************************************************************************/
 835:.\Generated_Source\PSoC5/USBUART.c **** uint8 USBUART_CheckActivity(void) 
 836:.\Generated_Source\PSoC5/USBUART.c **** {
 592              		.loc 1 836 0
 593              		.cfi_startproc
 594              		@ args = 0, pretend = 0, frame = 0
 595              		@ frame_needed = 0, uses_anonymous_args = 0
 596              		@ link register save eliminated.
 837:.\Generated_Source\PSoC5/USBUART.c ****     uint8 cr1Reg = USBUART_CR1_REG;
 597              		.loc 1 837 0
 598 0000 064A     		ldr	r2, .L32
 599 0002 1378     		ldrb	r3, [r2]	@ zero_extendqisi2
 600 0004 DBB2     		uxtb	r3, r3
 601              	.LVL40:
 838:.\Generated_Source\PSoC5/USBUART.c **** 
 839:.\Generated_Source\PSoC5/USBUART.c ****     /* Clear bus activity. */
 840:.\Generated_Source\PSoC5/USBUART.c ****     USBUART_CR1_REG = (cr1Reg & (uint8) ~USBUART_CR1_BUS_ACTIVITY);
 602              		.loc 1 840 0
 603 0006 03F0FB01 		and	r1, r3, #251
 604 000a 1170     		strb	r1, [r2]
 841:.\Generated_Source\PSoC5/USBUART.c **** 
 842:.\Generated_Source\PSoC5/USBUART.c ****     /* Get bus activity. */
 843:.\Generated_Source\PSoC5/USBUART.c ****     return ((0u != (cr1Reg & USBUART_CR1_BUS_ACTIVITY)) ? (1u) : (0u));
 605              		.loc 1 843 0
 606 000c 03F00403 		and	r3, r3, #4
 607              	.LVL41:
 608 0010 03F0FF00 		and	r0, r3, #255
 609 0014 03B1     		cbz	r3, .L31
 610 0016 0120     		movs	r0, #1
 611              	.L31:
 844:.\Generated_Source\PSoC5/USBUART.c **** }
 612              		.loc 1 844 0 discriminator 4
 613 0018 7047     		bx	lr
 614              	.L33:
 615 001a 00BF     		.align	2
 616              	.L32:
 617 001c 09600040 		.word	1073766409
 618              		.cfi_endproc
 619              	.LFE5:
 620              		.size	USBUART_CheckActivity, .-USBUART_CheckActivity
 621              		.section	.text.USBUART_GetConfiguration,"ax",%progbits
 622              		.align	2
 623              		.global	USBUART_GetConfiguration
 624              		.thumb
 625              		.thumb_func
 626              		.type	USBUART_GetConfiguration, %function
 627              	USBUART_GetConfiguration:
 628              	.LFB6:
 845:.\Generated_Source\PSoC5/USBUART.c **** 
ARM GAS  C:\Users\Tim\AppData\Local\Temp\ccA4EuzY.s 			page 27


 846:.\Generated_Source\PSoC5/USBUART.c **** 
 847:.\Generated_Source\PSoC5/USBUART.c **** /*******************************************************************************
 848:.\Generated_Source\PSoC5/USBUART.c **** * Function Name: USBUART_GetConfiguration
 849:.\Generated_Source\PSoC5/USBUART.c **** ****************************************************************************//**
 850:.\Generated_Source\PSoC5/USBUART.c **** *
 851:.\Generated_Source\PSoC5/USBUART.c **** *  This function gets the current configuration of the USB device.
 852:.\Generated_Source\PSoC5/USBUART.c **** *
 853:.\Generated_Source\PSoC5/USBUART.c **** * \return
 854:.\Generated_Source\PSoC5/USBUART.c **** *  Returns the currently assigned configuration. Returns 0 if the device
 855:.\Generated_Source\PSoC5/USBUART.c **** *  is not configured
 856:.\Generated_Source\PSoC5/USBUART.c **** *
 857:.\Generated_Source\PSoC5/USBUART.c **** *******************************************************************************/
 858:.\Generated_Source\PSoC5/USBUART.c **** uint8 USBUART_GetConfiguration(void) 
 859:.\Generated_Source\PSoC5/USBUART.c **** {
 629              		.loc 1 859 0
 630              		.cfi_startproc
 631              		@ args = 0, pretend = 0, frame = 0
 632              		@ frame_needed = 0, uses_anonymous_args = 0
 633              		@ link register save eliminated.
 860:.\Generated_Source\PSoC5/USBUART.c ****     return (USBUART_configuration);
 634              		.loc 1 860 0
 635 0000 014B     		ldr	r3, .L35
 636 0002 1878     		ldrb	r0, [r3]	@ zero_extendqisi2
 861:.\Generated_Source\PSoC5/USBUART.c **** }
 637              		.loc 1 861 0
 638 0004 7047     		bx	lr
 639              	.L36:
 640 0006 00BF     		.align	2
 641              	.L35:
 642 0008 00000000 		.word	USBUART_configuration
 643              		.cfi_endproc
 644              	.LFE6:
 645              		.size	USBUART_GetConfiguration, .-USBUART_GetConfiguration
 646              		.section	.text.USBUART_IsConfigurationChanged,"ax",%progbits
 647              		.align	2
 648              		.global	USBUART_IsConfigurationChanged
 649              		.thumb
 650              		.thumb_func
 651              		.type	USBUART_IsConfigurationChanged, %function
 652              	USBUART_IsConfigurationChanged:
 653              	.LFB7:
 862:.\Generated_Source\PSoC5/USBUART.c **** 
 863:.\Generated_Source\PSoC5/USBUART.c **** 
 864:.\Generated_Source\PSoC5/USBUART.c **** /*******************************************************************************
 865:.\Generated_Source\PSoC5/USBUART.c **** * Function Name: USBUART_IsConfigurationChanged
 866:.\Generated_Source\PSoC5/USBUART.c **** ****************************************************************************//**
 867:.\Generated_Source\PSoC5/USBUART.c **** *
 868:.\Generated_Source\PSoC5/USBUART.c **** *  This function returns the clear-on-read configuration state.  It is useful
 869:.\Generated_Source\PSoC5/USBUART.c **** *  when the host sends double SET_CONFIGURATION request with the same 
 870:.\Generated_Source\PSoC5/USBUART.c **** *  configuration number or changes alternate settings of the interface. 
 871:.\Generated_Source\PSoC5/USBUART.c **** *  After configuration has been changed the OUT endpoints must be enabled and IN 
 872:.\Generated_Source\PSoC5/USBUART.c **** *  endpoint must be loaded with data to start communication with the host.
 873:.\Generated_Source\PSoC5/USBUART.c **** *
 874:.\Generated_Source\PSoC5/USBUART.c **** * \return
 875:.\Generated_Source\PSoC5/USBUART.c **** *  None-zero value when new configuration has been changed, otherwise zero is
 876:.\Generated_Source\PSoC5/USBUART.c **** *  returned.
 877:.\Generated_Source\PSoC5/USBUART.c **** *
ARM GAS  C:\Users\Tim\AppData\Local\Temp\ccA4EuzY.s 			page 28


 878:.\Generated_Source\PSoC5/USBUART.c **** * \globalvars
 879:.\Generated_Source\PSoC5/USBUART.c **** *
 880:.\Generated_Source\PSoC5/USBUART.c **** *  \ref USBUART_configurationChanged - This variable is set to 1 after
 881:.\Generated_Source\PSoC5/USBUART.c **** *   a SET_CONFIGURATION request and cleared in this function.
 882:.\Generated_Source\PSoC5/USBUART.c **** *
 883:.\Generated_Source\PSoC5/USBUART.c **** *******************************************************************************/
 884:.\Generated_Source\PSoC5/USBUART.c **** uint8 USBUART_IsConfigurationChanged(void) 
 885:.\Generated_Source\PSoC5/USBUART.c **** {
 654              		.loc 1 885 0
 655              		.cfi_startproc
 656              		@ args = 0, pretend = 0, frame = 0
 657              		@ frame_needed = 0, uses_anonymous_args = 0
 658              		@ link register save eliminated.
 659              	.LVL42:
 886:.\Generated_Source\PSoC5/USBUART.c ****     uint8 res = 0u;
 887:.\Generated_Source\PSoC5/USBUART.c **** 
 888:.\Generated_Source\PSoC5/USBUART.c ****     if (USBUART_configurationChanged != 0u)
 660              		.loc 1 888 0
 661 0000 064B     		ldr	r3, .L40
 662 0002 1B78     		ldrb	r3, [r3]	@ zero_extendqisi2
 663 0004 13F0FF0F 		tst	r3, #255
 664 0008 05D0     		beq	.L39
 889:.\Generated_Source\PSoC5/USBUART.c ****     {
 890:.\Generated_Source\PSoC5/USBUART.c ****         res = USBUART_configurationChanged;
 665              		.loc 1 890 0
 666 000a 044B     		ldr	r3, .L40
 667 000c 1878     		ldrb	r0, [r3]	@ zero_extendqisi2
 668 000e C0B2     		uxtb	r0, r0
 669              	.LVL43:
 891:.\Generated_Source\PSoC5/USBUART.c ****         USBUART_configurationChanged = 0u;
 670              		.loc 1 891 0
 671 0010 0022     		movs	r2, #0
 672 0012 1A70     		strb	r2, [r3]
 673 0014 7047     		bx	lr
 674              	.LVL44:
 675              	.L39:
 886:.\Generated_Source\PSoC5/USBUART.c ****     uint8 res = 0u;
 676              		.loc 1 886 0
 677 0016 0020     		movs	r0, #0
 678              	.LVL45:
 892:.\Generated_Source\PSoC5/USBUART.c ****     }
 893:.\Generated_Source\PSoC5/USBUART.c **** 
 894:.\Generated_Source\PSoC5/USBUART.c ****     return (res);
 895:.\Generated_Source\PSoC5/USBUART.c **** }
 679              		.loc 1 895 0
 680 0018 7047     		bx	lr
 681              	.L41:
 682 001a 00BF     		.align	2
 683              	.L40:
 684 001c 00000000 		.word	USBUART_configurationChanged
 685              		.cfi_endproc
 686              	.LFE7:
 687              		.size	USBUART_IsConfigurationChanged, .-USBUART_IsConfigurationChanged
 688              		.section	.text.USBUART_GetInterfaceSetting,"ax",%progbits
 689              		.align	2
 690              		.global	USBUART_GetInterfaceSetting
 691              		.thumb
ARM GAS  C:\Users\Tim\AppData\Local\Temp\ccA4EuzY.s 			page 29


 692              		.thumb_func
 693              		.type	USBUART_GetInterfaceSetting, %function
 694              	USBUART_GetInterfaceSetting:
 695              	.LFB8:
 896:.\Generated_Source\PSoC5/USBUART.c **** 
 897:.\Generated_Source\PSoC5/USBUART.c **** 
 898:.\Generated_Source\PSoC5/USBUART.c **** /*******************************************************************************
 899:.\Generated_Source\PSoC5/USBUART.c **** * Function Name: USBUART_GetInterfaceSetting
 900:.\Generated_Source\PSoC5/USBUART.c **** ****************************************************************************//**
 901:.\Generated_Source\PSoC5/USBUART.c **** *
 902:.\Generated_Source\PSoC5/USBUART.c **** *  This function gets the current alternate setting for the specified interface.
 903:.\Generated_Source\PSoC5/USBUART.c **** *  It is useful to identify which alternate settings are active in the specified 
 904:.\Generated_Source\PSoC5/USBUART.c **** *  interface.
 905:.\Generated_Source\PSoC5/USBUART.c **** *
 906:.\Generated_Source\PSoC5/USBUART.c **** *  \param
 907:.\Generated_Source\PSoC5/USBUART.c **** *  interfaceNumber interface number
 908:.\Generated_Source\PSoC5/USBUART.c **** *
 909:.\Generated_Source\PSoC5/USBUART.c **** * \return
 910:.\Generated_Source\PSoC5/USBUART.c **** *  Returns the current alternate setting for the specified interface.
 911:.\Generated_Source\PSoC5/USBUART.c **** *
 912:.\Generated_Source\PSoC5/USBUART.c **** *******************************************************************************/
 913:.\Generated_Source\PSoC5/USBUART.c **** uint8  USBUART_GetInterfaceSetting(uint8 interfaceNumber)
 914:.\Generated_Source\PSoC5/USBUART.c ****                                                     
 915:.\Generated_Source\PSoC5/USBUART.c **** {
 696              		.loc 1 915 0
 697              		.cfi_startproc
 698              		@ args = 0, pretend = 0, frame = 0
 699              		@ frame_needed = 0, uses_anonymous_args = 0
 700              		@ link register save eliminated.
 701              	.LVL46:
 916:.\Generated_Source\PSoC5/USBUART.c ****     return (USBUART_interfaceSetting[interfaceNumber]);
 702              		.loc 1 916 0
 703 0000 014B     		ldr	r3, .L43
 704 0002 185C     		ldrb	r0, [r3, r0]	@ zero_extendqisi2
 705              	.LVL47:
 917:.\Generated_Source\PSoC5/USBUART.c **** }
 706              		.loc 1 917 0
 707 0004 7047     		bx	lr
 708              	.L44:
 709 0006 00BF     		.align	2
 710              	.L43:
 711 0008 00000000 		.word	USBUART_interfaceSetting
 712              		.cfi_endproc
 713              	.LFE8:
 714              		.size	USBUART_GetInterfaceSetting, .-USBUART_GetInterfaceSetting
 715              		.section	.text.USBUART_GetEPState,"ax",%progbits
 716              		.align	2
 717              		.global	USBUART_GetEPState
 718              		.thumb
 719              		.thumb_func
 720              		.type	USBUART_GetEPState, %function
 721              	USBUART_GetEPState:
 722              	.LFB9:
 918:.\Generated_Source\PSoC5/USBUART.c **** 
 919:.\Generated_Source\PSoC5/USBUART.c **** 
 920:.\Generated_Source\PSoC5/USBUART.c **** /*******************************************************************************
 921:.\Generated_Source\PSoC5/USBUART.c **** * Function Name: USBUART_GetEPState
ARM GAS  C:\Users\Tim\AppData\Local\Temp\ccA4EuzY.s 			page 30


 922:.\Generated_Source\PSoC5/USBUART.c **** ****************************************************************************//**
 923:.\Generated_Source\PSoC5/USBUART.c **** *
 924:.\Generated_Source\PSoC5/USBUART.c **** *  This function returns the state of the requested endpoint.
 925:.\Generated_Source\PSoC5/USBUART.c **** *
 926:.\Generated_Source\PSoC5/USBUART.c **** * \param epNumber Data endpoint number
 927:.\Generated_Source\PSoC5/USBUART.c **** *
 928:.\Generated_Source\PSoC5/USBUART.c **** * \return
 929:.\Generated_Source\PSoC5/USBUART.c **** *  Returns the current state of the specified USBFS endpoint. Symbolic names and
 930:.\Generated_Source\PSoC5/USBUART.c **** *  their associated values are given in the following table. Use these constants
 931:.\Generated_Source\PSoC5/USBUART.c **** *  whenever you write code to change the state of the endpoints, such as ISR
 932:.\Generated_Source\PSoC5/USBUART.c **** *  code, to handle data sent or received.
 933:.\Generated_Source\PSoC5/USBUART.c **** *
 934:.\Generated_Source\PSoC5/USBUART.c **** *  Return Value           | Description
 935:.\Generated_Source\PSoC5/USBUART.c **** *  -----------------------|-----------------------------------------------------
 936:.\Generated_Source\PSoC5/USBUART.c **** *  USBFS_NO_EVENT_PENDING |The endpoint is awaiting SIE action
 937:.\Generated_Source\PSoC5/USBUART.c **** *  USBFS_EVENT_PENDING    |The endpoint is awaiting CPU action
 938:.\Generated_Source\PSoC5/USBUART.c **** *  USBFS_NO_EVENT_ALLOWED |The endpoint is locked from access
 939:.\Generated_Source\PSoC5/USBUART.c **** *  USBFS_IN_BUFFER_FULL   |The IN endpoint is loaded and the mode is set to ACK IN
 940:.\Generated_Source\PSoC5/USBUART.c **** *  USBFS_IN_BUFFER_EMPTY  |An IN transaction occurred and more data can be loaded
 941:.\Generated_Source\PSoC5/USBUART.c **** *  USBFS_OUT_BUFFER_EMPTY |The OUT endpoint is set to ACK OUT and is waiting for data
 942:.\Generated_Source\PSoC5/USBUART.c **** *  USBFS_OUT_BUFFER_FULL  |An OUT transaction has occurred and data can be read
 943:.\Generated_Source\PSoC5/USBUART.c **** *
 944:.\Generated_Source\PSoC5/USBUART.c **** *******************************************************************************/
 945:.\Generated_Source\PSoC5/USBUART.c **** uint8 USBUART_GetEPState(uint8 epNumber) 
 946:.\Generated_Source\PSoC5/USBUART.c **** {
 723              		.loc 1 946 0
 724              		.cfi_startproc
 725              		@ args = 0, pretend = 0, frame = 0
 726              		@ frame_needed = 0, uses_anonymous_args = 0
 727              		@ link register save eliminated.
 728              	.LVL48:
 947:.\Generated_Source\PSoC5/USBUART.c ****     return (USBUART_EP[epNumber].apiEpState);
 729              		.loc 1 947 0
 730 0000 00EB4000 		add	r0, r0, r0, lsl #1
 731              	.LVL49:
 732 0004 8000     		lsls	r0, r0, #2
 733 0006 024B     		ldr	r3, .L46
 734 0008 1844     		add	r0, r0, r3
 735 000a 4078     		ldrb	r0, [r0, #1]	@ zero_extendqisi2
 948:.\Generated_Source\PSoC5/USBUART.c **** }
 736              		.loc 1 948 0
 737 000c 7047     		bx	lr
 738              	.L47:
 739 000e 00BF     		.align	2
 740              	.L46:
 741 0010 00000000 		.word	USBUART_EP
 742              		.cfi_endproc
 743              	.LFE9:
 744              		.size	USBUART_GetEPState, .-USBUART_GetEPState
 745              		.section	.text.USBUART_GetEPCount,"ax",%progbits
 746              		.align	2
 747              		.global	USBUART_GetEPCount
 748              		.thumb
 749              		.thumb_func
 750              		.type	USBUART_GetEPCount, %function
 751              	USBUART_GetEPCount:
 752              	.LFB10:
ARM GAS  C:\Users\Tim\AppData\Local\Temp\ccA4EuzY.s 			page 31


 949:.\Generated_Source\PSoC5/USBUART.c **** 
 950:.\Generated_Source\PSoC5/USBUART.c **** 
 951:.\Generated_Source\PSoC5/USBUART.c **** /*******************************************************************************
 952:.\Generated_Source\PSoC5/USBUART.c **** * Function Name: USBUART_GetEPCount
 953:.\Generated_Source\PSoC5/USBUART.c **** ****************************************************************************//**
 954:.\Generated_Source\PSoC5/USBUART.c **** *
 955:.\Generated_Source\PSoC5/USBUART.c **** *  This function supports Data Endpoints only(EP1-EP8).
 956:.\Generated_Source\PSoC5/USBUART.c **** *  Returns the transfer count for the requested endpoint.  The value from
 957:.\Generated_Source\PSoC5/USBUART.c **** *  the count registers includes 2 counts for the two byte checksum of the
 958:.\Generated_Source\PSoC5/USBUART.c **** *  packet.  This function subtracts the two counts.
 959:.\Generated_Source\PSoC5/USBUART.c **** *
 960:.\Generated_Source\PSoC5/USBUART.c **** *  \param epNumber Data Endpoint Number.
 961:.\Generated_Source\PSoC5/USBUART.c **** *                   Valid values are between 1 and 8.
 962:.\Generated_Source\PSoC5/USBUART.c **** *
 963:.\Generated_Source\PSoC5/USBUART.c **** * \return
 964:.\Generated_Source\PSoC5/USBUART.c **** *  Returns the current byte count from the specified endpoint or 0 for an
 965:.\Generated_Source\PSoC5/USBUART.c **** *  invalid endpoint.
 966:.\Generated_Source\PSoC5/USBUART.c **** *
 967:.\Generated_Source\PSoC5/USBUART.c **** *******************************************************************************/
 968:.\Generated_Source\PSoC5/USBUART.c **** uint16 USBUART_GetEPCount(uint8 epNumber) 
 969:.\Generated_Source\PSoC5/USBUART.c **** {
 753              		.loc 1 969 0
 754              		.cfi_startproc
 755              		@ args = 0, pretend = 0, frame = 0
 756              		@ frame_needed = 0, uses_anonymous_args = 0
 757              		@ link register save eliminated.
 758              	.LVL50:
 970:.\Generated_Source\PSoC5/USBUART.c ****     uint16 cntr = 0u;
 971:.\Generated_Source\PSoC5/USBUART.c **** 
 972:.\Generated_Source\PSoC5/USBUART.c ****     if ((epNumber > USBUART_EP0) && (epNumber < USBUART_MAX_EP))
 759              		.loc 1 972 0
 760 0000 431E     		subs	r3, r0, #1
 761 0002 DBB2     		uxtb	r3, r3
 762 0004 072B     		cmp	r3, #7
 763 0006 0BD8     		bhi	.L50
 973:.\Generated_Source\PSoC5/USBUART.c ****     {
 974:.\Generated_Source\PSoC5/USBUART.c ****         /* Get 11-bits EP counter where epCnt0 - 3 bits MSB and epCnt1 - 8 bits LSB. */
 975:.\Generated_Source\PSoC5/USBUART.c ****         cntr  = ((uint16) USBUART_SIE_EP_BASE.sieEp[epNumber].epCnt0) & USBUART_EPX_CNT0_MASK;
 764              		.loc 1 975 0
 765 0008 064B     		ldr	r3, .L51
 766 000a 0001     		lsls	r0, r0, #4
 767              	.LVL51:
 768 000c 1A18     		adds	r2, r3, r0
 769 000e 185C     		ldrb	r0, [r3, r0]	@ zero_extendqisi2
 770 0010 00F00F00 		and	r0, r0, #15
 771              	.LVL52:
 976:.\Generated_Source\PSoC5/USBUART.c ****         cntr  = ((uint16) (cntr << 8u)) | ((uint16) USBUART_SIE_EP_BASE.sieEp[epNumber].epCnt1);
 772              		.loc 1 976 0
 773 0014 5378     		ldrb	r3, [r2, #1]	@ zero_extendqisi2
 774 0016 43EA0020 		orr	r0, r3, r0, lsl #8
 775              	.LVL53:
 977:.\Generated_Source\PSoC5/USBUART.c ****         cntr -= USBUART_EPX_CNTX_CRC_COUNT;
 776              		.loc 1 977 0
 777 001a 0238     		subs	r0, r0, #2
 778              	.LVL54:
 779 001c 80B2     		uxth	r0, r0
 780              	.LVL55:
ARM GAS  C:\Users\Tim\AppData\Local\Temp\ccA4EuzY.s 			page 32


 781 001e 7047     		bx	lr
 782              	.LVL56:
 783              	.L50:
 970:.\Generated_Source\PSoC5/USBUART.c **** 
 784              		.loc 1 970 0
 785 0020 0020     		movs	r0, #0
 786              	.LVL57:
 978:.\Generated_Source\PSoC5/USBUART.c ****     }
 979:.\Generated_Source\PSoC5/USBUART.c **** 
 980:.\Generated_Source\PSoC5/USBUART.c ****     return (cntr);
 981:.\Generated_Source\PSoC5/USBUART.c **** }
 787              		.loc 1 981 0
 788 0022 7047     		bx	lr
 789              	.L52:
 790              		.align	2
 791              	.L51:
 792 0024 FC5F0040 		.word	1073766396
 793              		.cfi_endproc
 794              	.LFE10:
 795              		.size	USBUART_GetEPCount, .-USBUART_GetEPCount
 796              		.section	.text.USBUART_LoadInEP,"ax",%progbits
 797              		.align	2
 798              		.global	USBUART_LoadInEP
 799              		.thumb
 800              		.thumb_func
 801              		.type	USBUART_LoadInEP, %function
 802              	USBUART_LoadInEP:
 803              	.LFB11:
 982:.\Generated_Source\PSoC5/USBUART.c **** 
 983:.\Generated_Source\PSoC5/USBUART.c **** 
 984:.\Generated_Source\PSoC5/USBUART.c **** #if (USBUART_EP_MANAGEMENT_DMA)
 985:.\Generated_Source\PSoC5/USBUART.c **** #if (CY_PSOC4)
 986:.\Generated_Source\PSoC5/USBUART.c ****     /*******************************************************************************
 987:.\Generated_Source\PSoC5/USBUART.c ****     * Function Name: USBUART_InitEpDma
 988:.\Generated_Source\PSoC5/USBUART.c ****     ****************************************************************************//**
 989:.\Generated_Source\PSoC5/USBUART.c ****     *
 990:.\Generated_Source\PSoC5/USBUART.c ****     *  This function configures priority for all DMA channels utilized by the
 991:.\Generated_Source\PSoC5/USBUART.c ****     *  component. Also sets callbacks for DMA auto mode.
 992:.\Generated_Source\PSoC5/USBUART.c ****     *
 993:.\Generated_Source\PSoC5/USBUART.c ****     *******************************************************************************/
 994:.\Generated_Source\PSoC5/USBUART.c ****     static void USBUART_InitEpDma(void)
 995:.\Generated_Source\PSoC5/USBUART.c ****     {
 996:.\Generated_Source\PSoC5/USBUART.c ****     #if (USBUART_DMA1_ACTIVE)
 997:.\Generated_Source\PSoC5/USBUART.c ****         CYDMA_CH_CTL_BASE.ctl[USBUART_ep1_dma_CHANNEL] = USBUART_ep1_dma_CHANNEL_CFG;
 998:.\Generated_Source\PSoC5/USBUART.c ****     #endif /* (USBUART_DMA1_ACTIVE) */
 999:.\Generated_Source\PSoC5/USBUART.c **** 
1000:.\Generated_Source\PSoC5/USBUART.c ****     #if (USBUART_DMA2_ACTIVE)
1001:.\Generated_Source\PSoC5/USBUART.c ****         CYDMA_CH_CTL_BASE.ctl[USBUART_ep2_dma_CHANNEL] = USBUART_ep2_dma_CHANNEL_CFG;
1002:.\Generated_Source\PSoC5/USBUART.c ****     #endif /* (USBUART_DMA2_ACTIVE) */
1003:.\Generated_Source\PSoC5/USBUART.c **** 
1004:.\Generated_Source\PSoC5/USBUART.c ****     #if (USBUART_DMA3_ACTIVE)
1005:.\Generated_Source\PSoC5/USBUART.c ****         CYDMA_CH_CTL_BASE.ctl[USBUART_ep3_dma_CHANNEL] = USBUART_ep3_dma_CHANNEL_CFG;
1006:.\Generated_Source\PSoC5/USBUART.c ****     #endif /* (USBUART_DMA3_ACTIVE) */
1007:.\Generated_Source\PSoC5/USBUART.c **** 
1008:.\Generated_Source\PSoC5/USBUART.c ****     #if (USBUART_DMA4_ACTIVE)
1009:.\Generated_Source\PSoC5/USBUART.c ****         CYDMA_CH_CTL_BASE.ctl[USBUART_ep4_dma_CHANNEL] = USBUART_ep4_dma_CHANNEL_CFG;
1010:.\Generated_Source\PSoC5/USBUART.c ****     #endif /* (USBUART_DMA4_ACTIVE) */
ARM GAS  C:\Users\Tim\AppData\Local\Temp\ccA4EuzY.s 			page 33


1011:.\Generated_Source\PSoC5/USBUART.c **** 
1012:.\Generated_Source\PSoC5/USBUART.c ****     #if (USBUART_DMA5_ACTIVE)
1013:.\Generated_Source\PSoC5/USBUART.c ****         CYDMA_CH_CTL_BASE.ctl[USBUART_ep5_dma_CHANNEL] = USBUART_ep5_dma_CHANNEL_CFG;
1014:.\Generated_Source\PSoC5/USBUART.c ****     #endif /* (USBUART_DMA5_ACTIVE) */
1015:.\Generated_Source\PSoC5/USBUART.c **** 
1016:.\Generated_Source\PSoC5/USBUART.c ****     #if (USBUART_DMA6_ACTIVE)
1017:.\Generated_Source\PSoC5/USBUART.c ****         CYDMA_CH_CTL_BASE.ctl[USBUART_ep6_dma_CHANNEL] = USBUART_ep6_dma_CHANNEL_CFG;
1018:.\Generated_Source\PSoC5/USBUART.c ****     #endif /* (USBUART_DMA6_ACTIVE) */
1019:.\Generated_Source\PSoC5/USBUART.c **** 
1020:.\Generated_Source\PSoC5/USBUART.c ****     #if (USBUART_DMA7_ACTIVE)
1021:.\Generated_Source\PSoC5/USBUART.c ****         CYDMA_CH_CTL_BASE.ctl[USBUART_ep7_dma_CHANNEL] = USBUART_ep7_dma_CHANNEL_CFG;
1022:.\Generated_Source\PSoC5/USBUART.c ****     #endif /* (USBUART_DMA7_ACTIVE) */
1023:.\Generated_Source\PSoC5/USBUART.c **** 
1024:.\Generated_Source\PSoC5/USBUART.c ****     #if (USBUART_DMA8_ACTIVE)
1025:.\Generated_Source\PSoC5/USBUART.c ****         CYDMA_CH_CTL_BASE.ctl[USBUART_ep8_dma_CHANNEL] = USBUART_ep8_dma_CHANNEL_CFG;
1026:.\Generated_Source\PSoC5/USBUART.c ****     #endif /* (USBUART_DMA8_ACTIVE) */
1027:.\Generated_Source\PSoC5/USBUART.c **** 
1028:.\Generated_Source\PSoC5/USBUART.c ****     #if (USBUART_EP_MANAGEMENT_DMA_AUTO)
1029:.\Generated_Source\PSoC5/USBUART.c ****         /* Initialize DMA channel callbacks. */
1030:.\Generated_Source\PSoC5/USBUART.c ****         #if (USBUART_DMA1_ACTIVE)
1031:.\Generated_Source\PSoC5/USBUART.c ****             (void) USBUART_ep1_dma_SetInterruptCallback(&USBUART_EP1_DMA_DONE_ISR);
1032:.\Generated_Source\PSoC5/USBUART.c ****         #endif /* (USBUART_DMA1_ACTIVE) */
1033:.\Generated_Source\PSoC5/USBUART.c **** 
1034:.\Generated_Source\PSoC5/USBUART.c ****         #if (USBUART_DMA2_ACTIVE)
1035:.\Generated_Source\PSoC5/USBUART.c ****             (void) USBUART_ep2_dma_SetInterruptCallback(&USBUART_EP2_DMA_DONE_ISR);
1036:.\Generated_Source\PSoC5/USBUART.c ****         #endif /* (USBUART_DMA2_ACTIVE) */
1037:.\Generated_Source\PSoC5/USBUART.c **** 
1038:.\Generated_Source\PSoC5/USBUART.c ****         #if (USBUART_DMA3_ACTIVE)
1039:.\Generated_Source\PSoC5/USBUART.c ****             (void) USBUART_ep3_dma_SetInterruptCallback(&USBUART_EP3_DMA_DONE_ISR);
1040:.\Generated_Source\PSoC5/USBUART.c ****         #endif /* (USBUART_DMA3_ACTIVE) */
1041:.\Generated_Source\PSoC5/USBUART.c **** 
1042:.\Generated_Source\PSoC5/USBUART.c ****         #if (USBUART_DMA4_ACTIVE)
1043:.\Generated_Source\PSoC5/USBUART.c ****             (void) USBUART_ep4_dma_SetInterruptCallback(&USBUART_EP4_DMA_DONE_ISR);
1044:.\Generated_Source\PSoC5/USBUART.c ****         #endif /* (USBUART_DMA4_ACTIVE) */
1045:.\Generated_Source\PSoC5/USBUART.c **** 
1046:.\Generated_Source\PSoC5/USBUART.c ****         #if (USBUART_DMA5_ACTIVE)
1047:.\Generated_Source\PSoC5/USBUART.c ****             (void) USBUART_ep5_dma_SetInterruptCallback(&USBUART_EP5_DMA_DONE_ISR);
1048:.\Generated_Source\PSoC5/USBUART.c ****         #endif /* (USBUART_DMA5_ACTIVE) */
1049:.\Generated_Source\PSoC5/USBUART.c **** 
1050:.\Generated_Source\PSoC5/USBUART.c ****         #if (USBUART_DMA6_ACTIVE)
1051:.\Generated_Source\PSoC5/USBUART.c ****             (void) USBUART_ep6_dma_SetInterruptCallback(&USBUART_EP6_DMA_DONE_ISR);
1052:.\Generated_Source\PSoC5/USBUART.c ****         #endif /* (USBUART_DMA6_ACTIVE) */
1053:.\Generated_Source\PSoC5/USBUART.c **** 
1054:.\Generated_Source\PSoC5/USBUART.c ****         #if (USBUART_DMA7_ACTIVE)
1055:.\Generated_Source\PSoC5/USBUART.c ****             (void) USBUART_ep7_dma_SetInterruptCallback(&USBUART_EP7_DMA_DONE_ISR);
1056:.\Generated_Source\PSoC5/USBUART.c ****         #endif /* (USBUART_DMA7_ACTIVE) */
1057:.\Generated_Source\PSoC5/USBUART.c **** 
1058:.\Generated_Source\PSoC5/USBUART.c ****         #if (USBUART_DMA8_ACTIVE)
1059:.\Generated_Source\PSoC5/USBUART.c ****             (void) USBUART_ep8_dma_SetInterruptCallback(&USBUART_EP8_DMA_DONE_ISR);
1060:.\Generated_Source\PSoC5/USBUART.c ****         #endif /* (USBUART_DMA8_ACTIVE) */
1061:.\Generated_Source\PSoC5/USBUART.c ****     #endif /* (USBUART_EP_MANAGEMENT_DMA_AUTO) */
1062:.\Generated_Source\PSoC5/USBUART.c ****     }
1063:.\Generated_Source\PSoC5/USBUART.c **** #else
1064:.\Generated_Source\PSoC5/USBUART.c **** 
1065:.\Generated_Source\PSoC5/USBUART.c **** 
1066:.\Generated_Source\PSoC5/USBUART.c ****     /***************************************************************************
1067:.\Generated_Source\PSoC5/USBUART.c ****     * Function Name: USBUART_InitEP_DMA
ARM GAS  C:\Users\Tim\AppData\Local\Temp\ccA4EuzY.s 			page 34


1068:.\Generated_Source\PSoC5/USBUART.c ****     ************************************************************************//**
1069:.\Generated_Source\PSoC5/USBUART.c ****     *
1070:.\Generated_Source\PSoC5/USBUART.c ****     *  This function allocates and initializes a DMA channel to be used by the
1071:.\Generated_Source\PSoC5/USBUART.c ****     *  USBUART_LoadInEP() or USBUART_ReadOutEP() APIs for data
1072:.\Generated_Source\PSoC5/USBUART.c ****     *  transfer. It is available when the Endpoint Memory Management parameter
1073:.\Generated_Source\PSoC5/USBUART.c ****     *  is set to DMA.
1074:.\Generated_Source\PSoC5/USBUART.c ****     *
1075:.\Generated_Source\PSoC5/USBUART.c ****     *  This function is automatically called from the USBFS_LoadInEP() and USBFS_ReadOutEP() APIs.
1076:.\Generated_Source\PSoC5/USBUART.c ****     *
1077:.\Generated_Source\PSoC5/USBUART.c ****     *  \param epNumber Contains the data endpoint number.
1078:.\Generated_Source\PSoC5/USBUART.c ****     *            Valid values are between 1 and 8.
1079:.\Generated_Source\PSoC5/USBUART.c ****     *  \param *pData Pointer to a data array that is related to the EP transfers.
1080:.\Generated_Source\PSoC5/USBUART.c ****     *
1081:.\Generated_Source\PSoC5/USBUART.c ****     * \reentrant No.
1082:.\Generated_Source\PSoC5/USBUART.c ****     *
1083:.\Generated_Source\PSoC5/USBUART.c ****     ***************************************************************************/
1084:.\Generated_Source\PSoC5/USBUART.c ****     void USBUART_InitEP_DMA(uint8 epNumber, const uint8 *pData)
1085:.\Generated_Source\PSoC5/USBUART.c ****                                                                     
1086:.\Generated_Source\PSoC5/USBUART.c ****     {
1087:.\Generated_Source\PSoC5/USBUART.c ****         uint16 src;
1088:.\Generated_Source\PSoC5/USBUART.c ****         uint16 dst;
1089:.\Generated_Source\PSoC5/USBUART.c **** 
1090:.\Generated_Source\PSoC5/USBUART.c ****     #if (CY_PSOC3)
1091:.\Generated_Source\PSoC5/USBUART.c ****         src = HI16(CYDEV_SRAM_BASE);
1092:.\Generated_Source\PSoC5/USBUART.c ****         dst = HI16(CYDEV_PERIPH_BASE);
1093:.\Generated_Source\PSoC5/USBUART.c ****         pData = pData;
1094:.\Generated_Source\PSoC5/USBUART.c ****     #else
1095:.\Generated_Source\PSoC5/USBUART.c ****         if ((USBUART_EP[epNumber].addr & USBUART_DIR_IN) != 0u)
1096:.\Generated_Source\PSoC5/USBUART.c ****         {
1097:.\Generated_Source\PSoC5/USBUART.c ****             /* IN endpoint: source is memory buffer. */
1098:.\Generated_Source\PSoC5/USBUART.c ****             src = HI16(pData);
1099:.\Generated_Source\PSoC5/USBUART.c ****             dst = HI16(CYDEV_PERIPH_BASE);
1100:.\Generated_Source\PSoC5/USBUART.c ****         }
1101:.\Generated_Source\PSoC5/USBUART.c ****         else
1102:.\Generated_Source\PSoC5/USBUART.c ****         {
1103:.\Generated_Source\PSoC5/USBUART.c ****             /* OUT endpoint: source is USB IP memory buffer. */
1104:.\Generated_Source\PSoC5/USBUART.c ****             src = HI16(CYDEV_PERIPH_BASE);
1105:.\Generated_Source\PSoC5/USBUART.c ****             dst = HI16(pData);
1106:.\Generated_Source\PSoC5/USBUART.c ****         }
1107:.\Generated_Source\PSoC5/USBUART.c ****     #endif  /* (CY_PSOC3) */
1108:.\Generated_Source\PSoC5/USBUART.c **** 
1109:.\Generated_Source\PSoC5/USBUART.c ****         switch(epNumber)
1110:.\Generated_Source\PSoC5/USBUART.c ****         {
1111:.\Generated_Source\PSoC5/USBUART.c ****     #if (USBUART_DMA1_ACTIVE)
1112:.\Generated_Source\PSoC5/USBUART.c ****         case USBUART_EP1:
1113:.\Generated_Source\PSoC5/USBUART.c ****             USBUART_DmaChan[epNumber] = USBUART_ep1_DmaInitialize(USBUART_DMA_BYTES_PER_BURST,
1114:.\Generated_Source\PSoC5/USBUART.c ****                                                                                     USBUART_DMA_REQ
1115:.\Generated_Source\PSoC5/USBUART.c ****             break;
1116:.\Generated_Source\PSoC5/USBUART.c ****     #endif /* (USBUART_DMA1_ACTIVE) */
1117:.\Generated_Source\PSoC5/USBUART.c **** 
1118:.\Generated_Source\PSoC5/USBUART.c ****     #if (USBUART_DMA2_ACTIVE)
1119:.\Generated_Source\PSoC5/USBUART.c ****         case USBUART_EP2:
1120:.\Generated_Source\PSoC5/USBUART.c ****             USBUART_DmaChan[epNumber] = USBUART_ep2_DmaInitialize(USBUART_DMA_BYTES_PER_BURST,
1121:.\Generated_Source\PSoC5/USBUART.c ****                                                                                     USBUART_DMA_REQ
1122:.\Generated_Source\PSoC5/USBUART.c ****             break;
1123:.\Generated_Source\PSoC5/USBUART.c ****     #endif /* (USBUART_DMA2_ACTIVE) */
1124:.\Generated_Source\PSoC5/USBUART.c **** 
ARM GAS  C:\Users\Tim\AppData\Local\Temp\ccA4EuzY.s 			page 35


1125:.\Generated_Source\PSoC5/USBUART.c ****     #if (USBUART_DMA3_ACTIVE)
1126:.\Generated_Source\PSoC5/USBUART.c ****             case USBUART_EP3:
1127:.\Generated_Source\PSoC5/USBUART.c ****                 USBUART_DmaChan[epNumber] = USBUART_ep3_DmaInitialize(USBUART_DMA_BYTES_PER_BURST,
1128:.\Generated_Source\PSoC5/USBUART.c ****                                                                                         USBUART_DMA
1129:.\Generated_Source\PSoC5/USBUART.c ****             break;
1130:.\Generated_Source\PSoC5/USBUART.c ****     #endif /* (USBUART_DMA3_ACTIVE) */
1131:.\Generated_Source\PSoC5/USBUART.c **** 
1132:.\Generated_Source\PSoC5/USBUART.c ****     #if (USBUART_DMA4_ACTIVE)
1133:.\Generated_Source\PSoC5/USBUART.c ****             case USBUART_EP4:
1134:.\Generated_Source\PSoC5/USBUART.c ****                 USBUART_DmaChan[epNumber] = USBUART_ep4_DmaInitialize(USBUART_DMA_BYTES_PER_BURST,
1135:.\Generated_Source\PSoC5/USBUART.c ****                                                                                         USBUART_DMA
1136:.\Generated_Source\PSoC5/USBUART.c ****             break;
1137:.\Generated_Source\PSoC5/USBUART.c ****     #endif /* (USBUART_DMA4_ACTIVE) */
1138:.\Generated_Source\PSoC5/USBUART.c **** 
1139:.\Generated_Source\PSoC5/USBUART.c ****     #if (USBUART_DMA5_ACTIVE)
1140:.\Generated_Source\PSoC5/USBUART.c ****             case USBUART_EP5:
1141:.\Generated_Source\PSoC5/USBUART.c ****                 USBUART_DmaChan[epNumber] = USBUART_ep5_DmaInitialize(USBUART_DMA_BYTES_PER_BURST,
1142:.\Generated_Source\PSoC5/USBUART.c ****                                                                                         USBUART_DMA
1143:.\Generated_Source\PSoC5/USBUART.c ****             break;
1144:.\Generated_Source\PSoC5/USBUART.c ****     #endif /* (USBUART_DMA5_ACTIVE) */
1145:.\Generated_Source\PSoC5/USBUART.c **** 
1146:.\Generated_Source\PSoC5/USBUART.c ****     #if (USBUART_DMA6_ACTIVE)
1147:.\Generated_Source\PSoC5/USBUART.c ****         case USBUART_EP6:
1148:.\Generated_Source\PSoC5/USBUART.c ****             USBUART_DmaChan[epNumber] = USBUART_ep6_DmaInitialize(USBUART_DMA_BYTES_PER_BURST,
1149:.\Generated_Source\PSoC5/USBUART.c ****                                                                                     USBUART_DMA_REQ
1150:.\Generated_Source\PSoC5/USBUART.c ****             break;
1151:.\Generated_Source\PSoC5/USBUART.c ****     #endif /* (USBUART_DMA6_ACTIVE) */
1152:.\Generated_Source\PSoC5/USBUART.c **** 
1153:.\Generated_Source\PSoC5/USBUART.c ****     #if (USBUART_DMA7_ACTIVE)
1154:.\Generated_Source\PSoC5/USBUART.c ****         case USBUART_EP7:
1155:.\Generated_Source\PSoC5/USBUART.c ****                 USBUART_DmaChan[epNumber] = USBUART_ep7_DmaInitialize(USBUART_DMA_BYTES_PER_BURST,
1156:.\Generated_Source\PSoC5/USBUART.c ****                                                                                         USBUART_DMA
1157:.\Generated_Source\PSoC5/USBUART.c ****             break;
1158:.\Generated_Source\PSoC5/USBUART.c ****     #endif /* (USBUART_DMA7_ACTIVE) */
1159:.\Generated_Source\PSoC5/USBUART.c **** 
1160:.\Generated_Source\PSoC5/USBUART.c ****     #if (USBUART_DMA8_ACTIVE)
1161:.\Generated_Source\PSoC5/USBUART.c ****         case USBUART_EP8:
1162:.\Generated_Source\PSoC5/USBUART.c ****                 USBUART_DmaChan[epNumber] = USBUART_ep8_DmaInitialize(USBUART_DMA_BYTES_PER_BURST,
1163:.\Generated_Source\PSoC5/USBUART.c ****                                                                                         USBUART_DMA
1164:.\Generated_Source\PSoC5/USBUART.c ****             break;
1165:.\Generated_Source\PSoC5/USBUART.c ****     #endif /* (USBUART_DMA8_ACTIVE) */
1166:.\Generated_Source\PSoC5/USBUART.c **** 
1167:.\Generated_Source\PSoC5/USBUART.c ****         default:
1168:.\Generated_Source\PSoC5/USBUART.c ****             /* Do nothing for endpoints other than 1-8. */
1169:.\Generated_Source\PSoC5/USBUART.c ****             break;
1170:.\Generated_Source\PSoC5/USBUART.c ****         }
1171:.\Generated_Source\PSoC5/USBUART.c **** 
1172:.\Generated_Source\PSoC5/USBUART.c ****         if ((epNumber > USBUART_EP0) && (epNumber < USBUART_MAX_EP))
1173:.\Generated_Source\PSoC5/USBUART.c ****         {
1174:.\Generated_Source\PSoC5/USBUART.c ****             USBUART_DmaTd[epNumber] = CyDmaTdAllocate();
1175:.\Generated_Source\PSoC5/USBUART.c **** 
1176:.\Generated_Source\PSoC5/USBUART.c ****         #if (USBUART_EP_MANAGEMENT_DMA_AUTO && (USBUART_EP_DMA_AUTO_OPT == 0u))
1177:.\Generated_Source\PSoC5/USBUART.c ****             USBUART_DmaNextTd[epNumber] = CyDmaTdAllocate();
1178:.\Generated_Source\PSoC5/USBUART.c ****         #endif /* (USBUART_EP_MANAGEMENT_DMA_AUTO && (USBUART_EP_DMA_AUTO_OPT == 0u)) */
1179:.\Generated_Source\PSoC5/USBUART.c ****         }
1180:.\Generated_Source\PSoC5/USBUART.c ****     }
1181:.\Generated_Source\PSoC5/USBUART.c **** #endif /* (CY_PSOC4) */
ARM GAS  C:\Users\Tim\AppData\Local\Temp\ccA4EuzY.s 			page 36


1182:.\Generated_Source\PSoC5/USBUART.c **** 
1183:.\Generated_Source\PSoC5/USBUART.c ****     /***************************************************************************
1184:.\Generated_Source\PSoC5/USBUART.c ****     * Function Name: USBUART_Stop_DMA
1185:.\Generated_Source\PSoC5/USBUART.c ****     ************************************************************************//**
1186:.\Generated_Source\PSoC5/USBUART.c ****     *  
1187:.\Generated_Source\PSoC5/USBUART.c ****     *  This function stops DMA channel associated with endpoint. It is available 
1188:.\Generated_Source\PSoC5/USBUART.c ****     *  when the Endpoint Buffer Management parameter is set to DMA. Call this 
1189:.\Generated_Source\PSoC5/USBUART.c ****     *  function when endpoint direction is changed from IN to OUT or vice versa 
1190:.\Generated_Source\PSoC5/USBUART.c ****     *  to trigger DMA re-configuration when USBUART_LoadInEP() or 
1191:.\Generated_Source\PSoC5/USBUART.c ****     *  USBUART_ReadOutEP() functions are called the first time. 
1192:.\Generated_Source\PSoC5/USBUART.c ****     *  
1193:.\Generated_Source\PSoC5/USBUART.c ****     *  \param epNumber: The data endpoint number for which associated DMA 
1194:.\Generated_Source\PSoC5/USBUART.c ****     *  channel is stopped. The range of valid values is between 1 and 8. To stop 
1195:.\Generated_Source\PSoC5/USBUART.c ****     *  all DMAs associated with endpoints call this function with 
1196:.\Generated_Source\PSoC5/USBUART.c ****     *  USBUART_MAX_EP argument.
1197:.\Generated_Source\PSoC5/USBUART.c ****     *
1198:.\Generated_Source\PSoC5/USBUART.c ****     * \reentrant
1199:.\Generated_Source\PSoC5/USBUART.c ****     *  No.
1200:.\Generated_Source\PSoC5/USBUART.c ****     *
1201:.\Generated_Source\PSoC5/USBUART.c ****     ***************************************************************************/
1202:.\Generated_Source\PSoC5/USBUART.c ****     void USBUART_Stop_DMA(uint8 epNumber) 
1203:.\Generated_Source\PSoC5/USBUART.c ****     {
1204:.\Generated_Source\PSoC5/USBUART.c ****         uint8 i;
1205:.\Generated_Source\PSoC5/USBUART.c **** 
1206:.\Generated_Source\PSoC5/USBUART.c ****         i = (epNumber < USBUART_MAX_EP) ? epNumber : USBUART_EP1;
1207:.\Generated_Source\PSoC5/USBUART.c **** 
1208:.\Generated_Source\PSoC5/USBUART.c ****         do
1209:.\Generated_Source\PSoC5/USBUART.c ****         {
1210:.\Generated_Source\PSoC5/USBUART.c ****         #if (CY_PSOC4)
1211:.\Generated_Source\PSoC5/USBUART.c ****             if (0u != USBUART_DmaChan[i])
1212:.\Generated_Source\PSoC5/USBUART.c ****             {
1213:.\Generated_Source\PSoC5/USBUART.c ****                 USBUART_CyDmaChDisable(USBUART_DmaChan[i]);
1214:.\Generated_Source\PSoC5/USBUART.c ****             }
1215:.\Generated_Source\PSoC5/USBUART.c ****         #else
1216:.\Generated_Source\PSoC5/USBUART.c ****             if(USBUART_DmaTd[i] != DMA_INVALID_TD)
1217:.\Generated_Source\PSoC5/USBUART.c ****             {
1218:.\Generated_Source\PSoC5/USBUART.c ****                 (void) CyDmaChDisable(USBUART_DmaChan[i]);
1219:.\Generated_Source\PSoC5/USBUART.c ****                 CyDmaTdFree(USBUART_DmaTd[i]);
1220:.\Generated_Source\PSoC5/USBUART.c ****                 USBUART_DmaTd[i] = DMA_INVALID_TD;
1221:.\Generated_Source\PSoC5/USBUART.c ****             }
1222:.\Generated_Source\PSoC5/USBUART.c **** 
1223:.\Generated_Source\PSoC5/USBUART.c ****             #if (USBUART_EP_MANAGEMENT_DMA_AUTO && (USBUART_EP_DMA_AUTO_OPT == 0u))
1224:.\Generated_Source\PSoC5/USBUART.c ****                 if(USBUART_DmaNextTd[i] != DMA_INVALID_TD)
1225:.\Generated_Source\PSoC5/USBUART.c ****                 {
1226:.\Generated_Source\PSoC5/USBUART.c ****                     CyDmaTdFree(USBUART_DmaNextTd[i]);
1227:.\Generated_Source\PSoC5/USBUART.c ****                     USBUART_DmaNextTd[i] = DMA_INVALID_TD;
1228:.\Generated_Source\PSoC5/USBUART.c ****                 }
1229:.\Generated_Source\PSoC5/USBUART.c ****             #endif /* (USBUART_EP_MANAGEMENT_DMA_AUTO && (USBUART_EP_DMA_AUTO_OPT == 0u)) */
1230:.\Generated_Source\PSoC5/USBUART.c **** 
1231:.\Generated_Source\PSoC5/USBUART.c ****         #endif /* (CY_PSOC4) */
1232:.\Generated_Source\PSoC5/USBUART.c ****             i++;
1233:.\Generated_Source\PSoC5/USBUART.c ****         }
1234:.\Generated_Source\PSoC5/USBUART.c ****         while ((i < USBUART_MAX_EP) && (epNumber == USBUART_MAX_EP));
1235:.\Generated_Source\PSoC5/USBUART.c ****     }
1236:.\Generated_Source\PSoC5/USBUART.c **** #endif /* (USBUART_EP_MANAGEMENT_DMA) */
1237:.\Generated_Source\PSoC5/USBUART.c **** 
1238:.\Generated_Source\PSoC5/USBUART.c **** 
ARM GAS  C:\Users\Tim\AppData\Local\Temp\ccA4EuzY.s 			page 37


1239:.\Generated_Source\PSoC5/USBUART.c **** #if (CY_PSOC3 || CY_PSOC5)
1240:.\Generated_Source\PSoC5/USBUART.c **** #if (USBUART_EP_MANAGEMENT_DMA_AUTO && (USBUART_EP_DMA_AUTO_OPT == 0u))
1241:.\Generated_Source\PSoC5/USBUART.c ****     /***************************************************************************
1242:.\Generated_Source\PSoC5/USBUART.c ****     * Function Name: USBUART_LoadNextInEP
1243:.\Generated_Source\PSoC5/USBUART.c ****     ************************************************************************//**
1244:.\Generated_Source\PSoC5/USBUART.c ****     *
1245:.\Generated_Source\PSoC5/USBUART.c ****     * Summary:
1246:.\Generated_Source\PSoC5/USBUART.c ****     *  This internal function is used for IN endpoint DMA reconfiguration in
1247:.\Generated_Source\PSoC5/USBUART.c ****     *  Auto DMA mode.
1248:.\Generated_Source\PSoC5/USBUART.c ****     *
1249:.\Generated_Source\PSoC5/USBUART.c ****     * Parameters:
1250:.\Generated_Source\PSoC5/USBUART.c ****     *  epNumber: Contains the data endpoint number.
1251:.\Generated_Source\PSoC5/USBUART.c ****     *  mode:   0 - Configure DMA to send the the rest of data.
1252:.\Generated_Source\PSoC5/USBUART.c ****     *          1 - Configure DMA to repeat 2 last bytes of the first burst.
1253:.\Generated_Source\PSoC5/USBUART.c ****     *
1254:.\Generated_Source\PSoC5/USBUART.c ****     ***************************************************************************/
1255:.\Generated_Source\PSoC5/USBUART.c ****     void USBUART_LoadNextInEP(uint8 epNumber, uint8 mode) 
1256:.\Generated_Source\PSoC5/USBUART.c ****     {
1257:.\Generated_Source\PSoC5/USBUART.c ****         reg16 *convert;
1258:.\Generated_Source\PSoC5/USBUART.c **** 
1259:.\Generated_Source\PSoC5/USBUART.c ****         if (mode == 0u)
1260:.\Generated_Source\PSoC5/USBUART.c ****         {
1261:.\Generated_Source\PSoC5/USBUART.c ****             /* Configure DMA to send rest of data. */
1262:.\Generated_Source\PSoC5/USBUART.c ****             /* CyDmaTdSetConfiguration API is optimized to change transfer length only and configur
1263:.\Generated_Source\PSoC5/USBUART.c ****             convert = (reg16 *) &CY_DMA_TDMEM_STRUCT_PTR[USBUART_DmaTd[epNumber]].TD0[0u];
1264:.\Generated_Source\PSoC5/USBUART.c ****             /* Set transfer length. */
1265:.\Generated_Source\PSoC5/USBUART.c ****             CY_SET_REG16(convert, USBUART_inLength[epNumber] - USBUART_DMA_BYTES_PER_BURST);
1266:.\Generated_Source\PSoC5/USBUART.c ****             /* CyDmaTdSetAddress API is optimized to change source address only. */
1267:.\Generated_Source\PSoC5/USBUART.c ****             convert = (reg16 *) &CY_DMA_TDMEM_STRUCT_PTR[USBUART_DmaTd[epNumber]].TD1[0u];
1268:.\Generated_Source\PSoC5/USBUART.c ****             CY_SET_REG16(convert, LO16((uint32)USBUART_inDataPointer[epNumber] +
1269:.\Generated_Source\PSoC5/USBUART.c ****                                             USBUART_DMA_BYTES_PER_BURST));
1270:.\Generated_Source\PSoC5/USBUART.c ****             USBUART_inBufFull[epNumber] = 1u;
1271:.\Generated_Source\PSoC5/USBUART.c ****         }
1272:.\Generated_Source\PSoC5/USBUART.c ****         else
1273:.\Generated_Source\PSoC5/USBUART.c ****         {
1274:.\Generated_Source\PSoC5/USBUART.c ****             /* Configure DMA to repeat 2 last bytes of the first burst. */
1275:.\Generated_Source\PSoC5/USBUART.c ****             /* CyDmaTdSetConfiguration API is optimized to change transfer length only and configur
1276:.\Generated_Source\PSoC5/USBUART.c ****             convert = (reg16 *) &CY_DMA_TDMEM_STRUCT_PTR[USBUART_DmaTd[epNumber]].TD0[0u];
1277:.\Generated_Source\PSoC5/USBUART.c ****             /* Set transfer length. */
1278:.\Generated_Source\PSoC5/USBUART.c ****             CY_SET_REG16(convert, USBUART_DMA_BYTES_REPEAT);
1279:.\Generated_Source\PSoC5/USBUART.c ****             /* CyDmaTdSetAddress API is optimized to change source address only. */
1280:.\Generated_Source\PSoC5/USBUART.c ****             convert = (reg16 *) &CY_DMA_TDMEM_STRUCT_PTR[USBUART_DmaTd[epNumber]].TD1[0u];
1281:.\Generated_Source\PSoC5/USBUART.c ****             CY_SET_REG16(convert,  LO16((uint32)USBUART_inDataPointer[epNumber] +
1282:.\Generated_Source\PSoC5/USBUART.c ****                                    (USBUART_DMA_BYTES_PER_BURST - USBUART_DMA_BYTES_REPEAT)));
1283:.\Generated_Source\PSoC5/USBUART.c ****         }
1284:.\Generated_Source\PSoC5/USBUART.c **** 
1285:.\Generated_Source\PSoC5/USBUART.c ****         /* CyDmaChSetInitialTd API is optimized to initialize TD. */
1286:.\Generated_Source\PSoC5/USBUART.c ****         CY_DMA_CH_STRUCT_PTR[USBUART_DmaChan[epNumber]].basic_status[1u] = USBUART_DmaTd[epNumber];
1287:.\Generated_Source\PSoC5/USBUART.c ****     }
1288:.\Generated_Source\PSoC5/USBUART.c **** #endif /* (USBUART_EP_MANAGEMENT_DMA_AUTO && (USBUART_EP_DMA_AUTO_OPT == 0u)) */
1289:.\Generated_Source\PSoC5/USBUART.c **** #endif /* (CY_PSOC3 || CY_PSOC5) */
1290:.\Generated_Source\PSoC5/USBUART.c **** 
1291:.\Generated_Source\PSoC5/USBUART.c **** 
1292:.\Generated_Source\PSoC5/USBUART.c **** /*******************************************************************************
1293:.\Generated_Source\PSoC5/USBUART.c **** * Function Name: USBUART_LoadInEP
1294:.\Generated_Source\PSoC5/USBUART.c **** ****************************************************************************//**
1295:.\Generated_Source\PSoC5/USBUART.c **** *
ARM GAS  C:\Users\Tim\AppData\Local\Temp\ccA4EuzY.s 			page 38


1296:.\Generated_Source\PSoC5/USBUART.c **** *  This function performs different functionality depending on the Component’s
1297:.\Generated_Source\PSoC5/USBUART.c **** *  configured Endpoint Buffer Management. This parameter is defined in
1298:.\Generated_Source\PSoC5/USBUART.c **** *  the Descriptor Root in Component Configure window.
1299:.\Generated_Source\PSoC5/USBUART.c **** *
1300:.\Generated_Source\PSoC5/USBUART.c **** *  *Manual (Static/Dynamic Allocation):*
1301:.\Generated_Source\PSoC5/USBUART.c **** *  This function loads and enables the specified USB data endpoint for an IN
1302:.\Generated_Source\PSoC5/USBUART.c **** *  data transfer.
1303:.\Generated_Source\PSoC5/USBUART.c **** *
1304:.\Generated_Source\PSoC5/USBUART.c **** *  *DMA with Manual Buffer Management:*
1305:.\Generated_Source\PSoC5/USBUART.c **** *  Configures DMA for a data transfer from system RAM to endpoint buffer.
1306:.\Generated_Source\PSoC5/USBUART.c **** *  Generates request for a transfer.
1307:.\Generated_Source\PSoC5/USBUART.c **** *
1308:.\Generated_Source\PSoC5/USBUART.c **** *  *DMA with Automatic Buffer Management:*
1309:.\Generated_Source\PSoC5/USBUART.c **** *  Configures DMA. This is required only once, so it is done only when parameter
1310:.\Generated_Source\PSoC5/USBUART.c **** *  pData is not NULL. When the pData pointer is NULL, the function skips this
1311:.\Generated_Source\PSoC5/USBUART.c **** *  task. Sets Data ready status: This generates the first DMA transfer and
1312:.\Generated_Source\PSoC5/USBUART.c **** *  prepares data in endpoint buffer.
1313:.\Generated_Source\PSoC5/USBUART.c **** *
1314:.\Generated_Source\PSoC5/USBUART.c **** *  \param epNumber Contains the data endpoint number.
1315:.\Generated_Source\PSoC5/USBUART.c **** *            Valid values are between 1 and 8.
1316:.\Generated_Source\PSoC5/USBUART.c **** *  \param *pData A pointer to a data array from which the data for the endpoint space
1317:.\Generated_Source\PSoC5/USBUART.c **** *          is loaded.
1318:.\Generated_Source\PSoC5/USBUART.c **** *  \param length The number of bytes to transfer from the array and then send as
1319:.\Generated_Source\PSoC5/USBUART.c **** *          a result of an IN request. Valid values are between 0 and 512
1320:.\Generated_Source\PSoC5/USBUART.c **** *          (1023 for DMA with Automatic Buffer Management mode). The value 512
1321:.\Generated_Source\PSoC5/USBUART.c **** *          is applicable if only one endpoint is used.
1322:.\Generated_Source\PSoC5/USBUART.c **** *
1323:.\Generated_Source\PSoC5/USBUART.c **** *
1324:.\Generated_Source\PSoC5/USBUART.c **** * \reentrant
1325:.\Generated_Source\PSoC5/USBUART.c **** *  No.
1326:.\Generated_Source\PSoC5/USBUART.c **** *
1327:.\Generated_Source\PSoC5/USBUART.c **** *******************************************************************************/
1328:.\Generated_Source\PSoC5/USBUART.c **** void USBUART_LoadInEP(uint8 epNumber, const uint8 pData[], uint16 length)
1329:.\Generated_Source\PSoC5/USBUART.c ****                                                                         
1330:.\Generated_Source\PSoC5/USBUART.c **** {
 804              		.loc 1 1330 0
 805              		.cfi_startproc
 806              		@ args = 0, pretend = 0, frame = 0
 807              		@ frame_needed = 0, uses_anonymous_args = 0
 808              		@ link register save eliminated.
 809              	.LVL58:
1331:.\Generated_Source\PSoC5/USBUART.c ****     if ((epNumber > USBUART_EP0) && (epNumber < USBUART_MAX_EP))
 810              		.loc 1 1331 0
 811 0000 431E     		subs	r3, r0, #1
 812 0002 DBB2     		uxtb	r3, r3
 813 0004 072B     		cmp	r3, #7
 814 0006 3BD8     		bhi	.L62
1330:.\Generated_Source\PSoC5/USBUART.c ****     if ((epNumber > USBUART_EP0) && (epNumber < USBUART_MAX_EP))
 815              		.loc 1 1330 0
 816 0008 F0B4     		push	{r4, r5, r6, r7}
 817              		.cfi_def_cfa_offset 16
 818              		.cfi_offset 4, -16
 819              		.cfi_offset 5, -12
 820              		.cfi_offset 6, -8
 821              		.cfi_offset 7, -4
1332:.\Generated_Source\PSoC5/USBUART.c ****     {
1333:.\Generated_Source\PSoC5/USBUART.c ****     #if (!USBUART_EP_MANAGEMENT_DMA_AUTO)
ARM GAS  C:\Users\Tim\AppData\Local\Temp\ccA4EuzY.s 			page 39


1334:.\Generated_Source\PSoC5/USBUART.c ****         /* Limit length to available buffer USB IP buffer size.*/
1335:.\Generated_Source\PSoC5/USBUART.c ****         if (length > (USBUART_EPX_DATA_BUF_MAX - USBUART_EP[epNumber].buffOffset))
 822              		.loc 1 1335 0
 823 000a 0746     		mov	r7, r0
 824 000c 00EB4003 		add	r3, r0, r0, lsl #1
 825 0010 9B00     		lsls	r3, r3, #2
 826 0012 1C4C     		ldr	r4, .L63
 827 0014 2344     		add	r3, r3, r4
 828 0016 DB88     		ldrh	r3, [r3, #6]
 829 0018 9BB2     		uxth	r3, r3
 830 001a C3F50073 		rsb	r3, r3, #512
 831 001e 9A42     		cmp	r2, r3
 832 0020 07D9     		bls	.L55
1336:.\Generated_Source\PSoC5/USBUART.c ****         {
1337:.\Generated_Source\PSoC5/USBUART.c ****             length = USBUART_EPX_DATA_BUF_MAX - USBUART_EP[epNumber].buffOffset;
 833              		.loc 1 1337 0
 834 0022 00EB4003 		add	r3, r0, r0, lsl #1
 835 0026 9B00     		lsls	r3, r3, #2
 836 0028 2344     		add	r3, r3, r4
 837 002a DA88     		ldrh	r2, [r3, #6]
 838              	.LVL59:
 839 002c C2F50072 		rsb	r2, r2, #512
 840 0030 92B2     		uxth	r2, r2
 841              	.LVL60:
 842              	.L55:
1338:.\Generated_Source\PSoC5/USBUART.c ****         }
1339:.\Generated_Source\PSoC5/USBUART.c ****     #endif /* (!USBUART_EP_MANAGEMENT_DMA_AUTO) */
1340:.\Generated_Source\PSoC5/USBUART.c **** 
1341:.\Generated_Source\PSoC5/USBUART.c ****         /* Set count and data toggle. */
1342:.\Generated_Source\PSoC5/USBUART.c ****         USBUART_SIE_EP_BASE.sieEp[epNumber].epCnt0 = (uint8) HI8(length) | USBUART_EP[epNumber].epT
 843              		.loc 1 1342 0
 844 0032 00EB4003 		add	r3, r0, r0, lsl #1
 845 0036 9B00     		lsls	r3, r3, #2
 846 0038 124C     		ldr	r4, .L63
 847 003a 2344     		add	r3, r3, r4
 848 003c DB78     		ldrb	r3, [r3, #3]	@ zero_extendqisi2
 849 003e 43EA1223 		orr	r3, r3, r2, lsr #8
 850 0042 114D     		ldr	r5, .L63+4
 851 0044 0401     		lsls	r4, r0, #4
 852 0046 2E19     		adds	r6, r5, r4
 853 0048 2B55     		strb	r3, [r5, r4]
1343:.\Generated_Source\PSoC5/USBUART.c ****         USBUART_SIE_EP_BASE.sieEp[epNumber].epCnt1 = (uint8) LO8(length);
 854              		.loc 1 1343 0
 855 004a D3B2     		uxtb	r3, r2
 856 004c 7370     		strb	r3, [r6, #1]
1344:.\Generated_Source\PSoC5/USBUART.c **** 
1345:.\Generated_Source\PSoC5/USBUART.c ****     #if (USBUART_EP_MANAGEMENT_MANUAL)
1346:.\Generated_Source\PSoC5/USBUART.c ****         if (NULL != pData)
 857              		.loc 1 1346 0
 858 004e 39B9     		cbnz	r1, .L59
 859              	.LBB2:
 860 0050 09E0     		b	.L57
 861              	.LVL61:
 862              	.L58:
1347:.\Generated_Source\PSoC5/USBUART.c ****         {
1348:.\Generated_Source\PSoC5/USBUART.c **** 			/* Copy data using arbiter data register. */
1349:.\Generated_Source\PSoC5/USBUART.c ****             uint16 i;
ARM GAS  C:\Users\Tim\AppData\Local\Temp\ccA4EuzY.s 			page 40


1350:.\Generated_Source\PSoC5/USBUART.c ****             for (i = 0u; i < length; ++i)
1351:.\Generated_Source\PSoC5/USBUART.c ****             {
1352:.\Generated_Source\PSoC5/USBUART.c ****                 USBUART_ARB_EP_BASE.arbEp[epNumber].rwDr = pData[i];
 863              		.loc 1 1352 0 discriminator 3
 864 0052 CE5C     		ldrb	r6, [r1, r3]	@ zero_extendqisi2
 865 0054 3D01     		lsls	r5, r7, #4
 866 0056 0D4C     		ldr	r4, .L63+8
 867 0058 6655     		strb	r6, [r4, r5]
1350:.\Generated_Source\PSoC5/USBUART.c ****             {
 868              		.loc 1 1350 0 discriminator 3
 869 005a 0133     		adds	r3, r3, #1
 870              	.LVL62:
 871 005c 9BB2     		uxth	r3, r3
 872              	.LVL63:
 873 005e 00E0     		b	.L56
 874              	.LVL64:
 875              	.L59:
 876              	.LBE2:
 877 0060 0023     		movs	r3, #0
 878              	.L56:
 879              	.LVL65:
 880              	.LBB3:
1350:.\Generated_Source\PSoC5/USBUART.c ****             {
 881              		.loc 1 1350 0 is_stmt 0 discriminator 1
 882 0062 9342     		cmp	r3, r2
 883 0064 F5D3     		bcc	.L58
 884              	.LVL66:
 885              	.L57:
 886              	.LBE3:
1353:.\Generated_Source\PSoC5/USBUART.c ****             }
1354:.\Generated_Source\PSoC5/USBUART.c ****         }
1355:.\Generated_Source\PSoC5/USBUART.c **** 
1356:.\Generated_Source\PSoC5/USBUART.c ****         /* IN endpoint buffer is full - read to be read. */
1357:.\Generated_Source\PSoC5/USBUART.c ****         USBUART_EP[epNumber].apiEpState = USBUART_NO_EVENT_PENDING;
 887              		.loc 1 1357 0 is_stmt 1
 888 0066 4300     		lsls	r3, r0, #1
 889 0068 0344     		add	r3, r3, r0
 890 006a 9B00     		lsls	r3, r3, #2
 891 006c 054A     		ldr	r2, .L63
 892              	.LVL67:
 893 006e 1344     		add	r3, r3, r2
 894 0070 0022     		movs	r2, #0
 895 0072 5A70     		strb	r2, [r3, #1]
1358:.\Generated_Source\PSoC5/USBUART.c **** 
1359:.\Generated_Source\PSoC5/USBUART.c ****         /* Arm IN endpoint. */
1360:.\Generated_Source\PSoC5/USBUART.c ****         USBUART_SIE_EP_BASE.sieEp[epNumber].epCr0 = USBUART_EP[epNumber].epMode;
 896              		.loc 1 1360 0
 897 0074 5A79     		ldrb	r2, [r3, #5]	@ zero_extendqisi2
 898 0076 D2B2     		uxtb	r2, r2
 899 0078 0001     		lsls	r0, r0, #4
 900              	.LVL68:
 901 007a 054B     		ldr	r3, .L63+12
 902 007c 1A54     		strb	r2, [r3, r0]
1361:.\Generated_Source\PSoC5/USBUART.c **** 
1362:.\Generated_Source\PSoC5/USBUART.c ****     #else
1363:.\Generated_Source\PSoC5/USBUART.c **** 
1364:.\Generated_Source\PSoC5/USBUART.c ****         #if (CY_PSOC3 || CY_PSOC5LP)
ARM GAS  C:\Users\Tim\AppData\Local\Temp\ccA4EuzY.s 			page 41


1365:.\Generated_Source\PSoC5/USBUART.c ****             /* Initialize DMA if it was not initialized. */
1366:.\Generated_Source\PSoC5/USBUART.c ****             if (DMA_INVALID_TD == USBUART_DmaTd[epNumber])
1367:.\Generated_Source\PSoC5/USBUART.c ****             {
1368:.\Generated_Source\PSoC5/USBUART.c ****                 USBUART_InitEP_DMA(epNumber, pData);
1369:.\Generated_Source\PSoC5/USBUART.c ****             }
1370:.\Generated_Source\PSoC5/USBUART.c ****         #endif /* (CY_PSOC3 || CY_PSOC5LP) */
1371:.\Generated_Source\PSoC5/USBUART.c **** 
1372:.\Generated_Source\PSoC5/USBUART.c ****         #if (USBUART_EP_MANAGEMENT_DMA_MANUAL)
1373:.\Generated_Source\PSoC5/USBUART.c ****             /* IN endpoint buffer will be fully loaded by DMA shortly. */
1374:.\Generated_Source\PSoC5/USBUART.c ****             USBUART_EP[epNumber].apiEpState = USBUART_NO_EVENT_PENDING;
1375:.\Generated_Source\PSoC5/USBUART.c **** 
1376:.\Generated_Source\PSoC5/USBUART.c ****             if ((pData != NULL) && (length > 0u))
1377:.\Generated_Source\PSoC5/USBUART.c ****             {
1378:.\Generated_Source\PSoC5/USBUART.c ****             #if (CY_PSOC4)
1379:.\Generated_Source\PSoC5/USBUART.c ****                 uint32 channelNum = (uint32) USBUART_DmaChan[epNumber];
1380:.\Generated_Source\PSoC5/USBUART.c **** 
1381:.\Generated_Source\PSoC5/USBUART.c ****                 /* Disable DMA channel: start configuration. */
1382:.\Generated_Source\PSoC5/USBUART.c ****                 USBUART_CyDmaChDisable(channelNum);
1383:.\Generated_Source\PSoC5/USBUART.c **** 
1384:.\Generated_Source\PSoC5/USBUART.c ****                 /* Configure source and destination. */
1385:.\Generated_Source\PSoC5/USBUART.c ****                 USBUART_CyDmaSetSrcAddress(channelNum, USBUART_DMA_DESCR0, (void*) pData);
1386:.\Generated_Source\PSoC5/USBUART.c ****                 USBUART_CyDmaSetDstAddress(channelNum, USBUART_DMA_DESCR0, (void*) &USBUART_ARB_EP_
1387:.\Generated_Source\PSoC5/USBUART.c **** 
1388:.\Generated_Source\PSoC5/USBUART.c ****                 /* Configure DMA descriptor. */
1389:.\Generated_Source\PSoC5/USBUART.c ****                 --length;
1390:.\Generated_Source\PSoC5/USBUART.c ****                 USBUART_CyDmaSetConfiguration(channelNum, USBUART_DMA_DESCR0, USBUART_DMA_COMMON_CF
1391:.\Generated_Source\PSoC5/USBUART.c ****                                                         CYDMA_BYTE | CYDMA_ELEMENT_WORD | CYDMA_INC
1392:.\Generated_Source\PSoC5/USBUART.c **** 
1393:.\Generated_Source\PSoC5/USBUART.c ****                 /* Validate descriptor to execute on following DMA request. */
1394:.\Generated_Source\PSoC5/USBUART.c ****                 USBUART_CyDmaValidateDescriptor(channelNum, USBUART_DMA_DESCR0);
1395:.\Generated_Source\PSoC5/USBUART.c **** 
1396:.\Generated_Source\PSoC5/USBUART.c ****                 /* Enable DMA channel: configuration complete. */
1397:.\Generated_Source\PSoC5/USBUART.c ****                 USBUART_CyDmaChEnable(channelNum);
1398:.\Generated_Source\PSoC5/USBUART.c ****             #else
1399:.\Generated_Source\PSoC5/USBUART.c ****                 /* Configure DMA to transfer data. */
1400:.\Generated_Source\PSoC5/USBUART.c ****                 (void) CyDmaChDisable(USBUART_DmaChan[epNumber]);
1401:.\Generated_Source\PSoC5/USBUART.c ****                 (void) CyDmaTdSetConfiguration(USBUART_DmaTd[epNumber], length, CY_DMA_DISABLE_TD, 
1402:.\Generated_Source\PSoC5/USBUART.c ****                 (void) CyDmaTdSetAddress(USBUART_DmaTd[epNumber], LO16((uint32) pData), LO16((uint3
1403:.\Generated_Source\PSoC5/USBUART.c **** 
1404:.\Generated_Source\PSoC5/USBUART.c ****                 /* Enable DMA channel. */
1405:.\Generated_Source\PSoC5/USBUART.c ****                 (void) CyDmaChSetInitialTd(USBUART_DmaChan[epNumber], USBUART_DmaTd[epNumber]);
1406:.\Generated_Source\PSoC5/USBUART.c ****                 (void) CyDmaChEnable(USBUART_DmaChan[epNumber], 1u);
1407:.\Generated_Source\PSoC5/USBUART.c ****             #endif /* (CY_PSOC4) */
1408:.\Generated_Source\PSoC5/USBUART.c **** 
1409:.\Generated_Source\PSoC5/USBUART.c ****                 /* Generate DMA request. */
1410:.\Generated_Source\PSoC5/USBUART.c ****                 USBUART_ARB_EP_BASE.arbEp[epNumber].epCfg |=  (uint8)  USBUART_ARB_EPX_CFG_DMA_REQ;
1411:.\Generated_Source\PSoC5/USBUART.c ****                 USBUART_ARB_EP_BASE.arbEp[epNumber].epCfg &=  (uint8) ~USBUART_ARB_EPX_CFG_DMA_REQ;
1412:.\Generated_Source\PSoC5/USBUART.c **** 
1413:.\Generated_Source\PSoC5/USBUART.c ****                 /* IN endpoint will be armed in ARB_ISR(source: IN_BUF_FULL) after first DMA transf
1414:.\Generated_Source\PSoC5/USBUART.c ****             }
1415:.\Generated_Source\PSoC5/USBUART.c ****             else
1416:.\Generated_Source\PSoC5/USBUART.c ****             {
1417:.\Generated_Source\PSoC5/USBUART.c ****                 /* When zero-length packet: arm IN endpoint directly. */
1418:.\Generated_Source\PSoC5/USBUART.c ****                 USBUART_SIE_EP_BASE.sieEp[epNumber].epCr0 = USBUART_EP[epNumber].epMode;
1419:.\Generated_Source\PSoC5/USBUART.c ****             }
1420:.\Generated_Source\PSoC5/USBUART.c ****         #endif /* (USBUART_EP_MANAGEMENT_DMA_MANUAL) */
1421:.\Generated_Source\PSoC5/USBUART.c **** 
ARM GAS  C:\Users\Tim\AppData\Local\Temp\ccA4EuzY.s 			page 42


1422:.\Generated_Source\PSoC5/USBUART.c ****         #if (USBUART_EP_MANAGEMENT_DMA_AUTO)
1423:.\Generated_Source\PSoC5/USBUART.c ****             if (pData != NULL)
1424:.\Generated_Source\PSoC5/USBUART.c ****             {
1425:.\Generated_Source\PSoC5/USBUART.c ****             #if (CY_PSOC4)
1426:.\Generated_Source\PSoC5/USBUART.c ****                 uint32 channelNum = (uint32) USBUART_DmaChan[epNumber];
1427:.\Generated_Source\PSoC5/USBUART.c **** 
1428:.\Generated_Source\PSoC5/USBUART.c ****                 /* Store address of buffer. */
1429:.\Generated_Source\PSoC5/USBUART.c ****                 USBUART_DmaEpBufferAddrBackup[epNumber] = (uint32) pData;
1430:.\Generated_Source\PSoC5/USBUART.c **** 
1431:.\Generated_Source\PSoC5/USBUART.c ****                 /* Disable DMA channel: start configuration. */
1432:.\Generated_Source\PSoC5/USBUART.c ****                 USBUART_CyDmaChDisable(channelNum);
1433:.\Generated_Source\PSoC5/USBUART.c **** 
1434:.\Generated_Source\PSoC5/USBUART.c ****                 /* Set destination address. */
1435:.\Generated_Source\PSoC5/USBUART.c ****                 USBUART_CyDmaSetDstAddress(channelNum, USBUART_DMA_DESCR0, (void*) &USBUART_ARB_EP_
1436:.\Generated_Source\PSoC5/USBUART.c ****                 USBUART_CyDmaSetDstAddress(channelNum, USBUART_DMA_DESCR1, (void*) &USBUART_ARB_EP_
1437:.\Generated_Source\PSoC5/USBUART.c **** 
1438:.\Generated_Source\PSoC5/USBUART.c ****                 /* Configure DMA descriptor. */
1439:.\Generated_Source\PSoC5/USBUART.c ****                 USBUART_CyDmaSetConfiguration(channelNum, USBUART_DMA_DESCR0, USBUART_DMA_COMMON_CF
1440:.\Generated_Source\PSoC5/USBUART.c ****                                                         CYDMA_BYTE | CYDMA_ELEMENT_WORD | CYDMA_INC
1441:.\Generated_Source\PSoC5/USBUART.c **** 
1442:.\Generated_Source\PSoC5/USBUART.c ****                 /* Configure DMA descriptor. */
1443:.\Generated_Source\PSoC5/USBUART.c ****                 USBUART_CyDmaSetConfiguration(channelNum, USBUART_DMA_DESCR1, USBUART_DMA_COMMON_CF
1444:.\Generated_Source\PSoC5/USBUART.c ****                                                         CYDMA_BYTE | CYDMA_ELEMENT_WORD | CYDMA_INC
1445:.\Generated_Source\PSoC5/USBUART.c **** 
1446:.\Generated_Source\PSoC5/USBUART.c ****                 /* Enable interrupt from DMA channel. */
1447:.\Generated_Source\PSoC5/USBUART.c ****                 USBUART_CyDmaSetInterruptMask(channelNum);
1448:.\Generated_Source\PSoC5/USBUART.c **** 
1449:.\Generated_Source\PSoC5/USBUART.c ****                 /* Validate descriptor 1. It will not be invalided during operation. */
1450:.\Generated_Source\PSoC5/USBUART.c ****                 USBUART_CyDmaValidateDescriptor(channelNum, USBUART_DMA_DESCR1);
1451:.\Generated_Source\PSoC5/USBUART.c **** 
1452:.\Generated_Source\PSoC5/USBUART.c ****                 /* Enable DMA channel: configuration complete. */
1453:.\Generated_Source\PSoC5/USBUART.c ****                 USBUART_CyDmaChEnable(channelNum);
1454:.\Generated_Source\PSoC5/USBUART.c **** 
1455:.\Generated_Source\PSoC5/USBUART.c ****             #else
1456:.\Generated_Source\PSoC5/USBUART.c ****                 (void) CyDmaChDisable(USBUART_DmaChan[epNumber]);
1457:.\Generated_Source\PSoC5/USBUART.c **** 
1458:.\Generated_Source\PSoC5/USBUART.c ****                 #if (USBUART_EP_DMA_AUTO_OPT == 0u)
1459:.\Generated_Source\PSoC5/USBUART.c ****                     USBUART_inLength[epNumber] = length;
1460:.\Generated_Source\PSoC5/USBUART.c ****                     USBUART_inDataPointer[epNumber] = pData;
1461:.\Generated_Source\PSoC5/USBUART.c **** 
1462:.\Generated_Source\PSoC5/USBUART.c ****                     /* Configure DMA to send data only for first burst */
1463:.\Generated_Source\PSoC5/USBUART.c ****                     (void) CyDmaTdSetConfiguration(USBUART_DmaTd[epNumber],
1464:.\Generated_Source\PSoC5/USBUART.c ****                         (length > USBUART_DMA_BYTES_PER_BURST) ? USBUART_DMA_BYTES_PER_BURST : leng
1465:.\Generated_Source\PSoC5/USBUART.c ****                         USBUART_DmaNextTd[epNumber], TD_TERMIN_EN | TD_INC_SRC_ADR);
1466:.\Generated_Source\PSoC5/USBUART.c ****                     (void) CyDmaTdSetAddress(USBUART_DmaTd[epNumber], LO16((uint32) pData),
1467:.\Generated_Source\PSoC5/USBUART.c ****                                                                                LO16((uint32) &USBUA
1468:.\Generated_Source\PSoC5/USBUART.c **** 
1469:.\Generated_Source\PSoC5/USBUART.c ****                     /* The second TD will be executed only when the first one fails.
1470:.\Generated_Source\PSoC5/USBUART.c ****                     *  The intention of this TD is to generate NRQ interrupt
1471:.\Generated_Source\PSoC5/USBUART.c ****                     *  and repeat 2 last bytes of the first burst.
1472:.\Generated_Source\PSoC5/USBUART.c ****                     */
1473:.\Generated_Source\PSoC5/USBUART.c ****                     (void) CyDmaTdSetConfiguration(USBUART_DmaNextTd[epNumber], 1u,
1474:.\Generated_Source\PSoC5/USBUART.c ****                                                    USBUART_DmaNextTd[epNumber],
1475:.\Generated_Source\PSoC5/USBUART.c ****                                                    USBUART_epX_TD_TERMOUT_EN[epNumber]);
1476:.\Generated_Source\PSoC5/USBUART.c **** 
1477:.\Generated_Source\PSoC5/USBUART.c ****                     /* Configure DmaNextTd to clear Data Ready status. */
1478:.\Generated_Source\PSoC5/USBUART.c ****                     (void) CyDmaTdSetAddress(USBUART_DmaNextTd[epNumber], LO16((uint32) &clearInDat
ARM GAS  C:\Users\Tim\AppData\Local\Temp\ccA4EuzY.s 			page 43


1479:.\Generated_Source\PSoC5/USBUART.c ****                                                                                    LO16((uint32) &U
1480:.\Generated_Source\PSoC5/USBUART.c ****                 #else
1481:.\Generated_Source\PSoC5/USBUART.c ****                     /* Configure DMA to send all data. */
1482:.\Generated_Source\PSoC5/USBUART.c ****                     (void) CyDmaTdSetConfiguration(USBUART_DmaTd[epNumber], length,
1483:.\Generated_Source\PSoC5/USBUART.c ****                                                    USBUART_DmaTd[epNumber], TD_TERMIN_EN | TD_INC_S
1484:.\Generated_Source\PSoC5/USBUART.c ****                     (void) CyDmaTdSetAddress(USBUART_DmaTd[epNumber], LO16((uint32) pData),
1485:.\Generated_Source\PSoC5/USBUART.c ****                                                                                LO16((uint32) &USBUA
1486:.\Generated_Source\PSoC5/USBUART.c ****                 #endif /* (USBUART_EP_DMA_AUTO_OPT == 0u) */
1487:.\Generated_Source\PSoC5/USBUART.c **** 
1488:.\Generated_Source\PSoC5/USBUART.c ****                 /* Clear any potential pending DMA requests before starting DMA channel to transfer
1489:.\Generated_Source\PSoC5/USBUART.c ****                 (void) CyDmaClearPendingDrq(USBUART_DmaChan[epNumber]);
1490:.\Generated_Source\PSoC5/USBUART.c ****                 /* Enable DMA. */
1491:.\Generated_Source\PSoC5/USBUART.c ****                 (void) CyDmaChSetInitialTd(USBUART_DmaChan[epNumber], USBUART_DmaTd[epNumber]);
1492:.\Generated_Source\PSoC5/USBUART.c ****                 (void) CyDmaChEnable(USBUART_DmaChan[epNumber], 1u);
1493:.\Generated_Source\PSoC5/USBUART.c ****             #endif /* (CY_PSOC4) */
1494:.\Generated_Source\PSoC5/USBUART.c ****             }
1495:.\Generated_Source\PSoC5/USBUART.c ****             else
1496:.\Generated_Source\PSoC5/USBUART.c ****             {
1497:.\Generated_Source\PSoC5/USBUART.c ****                 /* IN endpoint buffer (32 bytes) will shortly be preloaded by DMA. */
1498:.\Generated_Source\PSoC5/USBUART.c ****                 USBUART_EP[epNumber].apiEpState = USBUART_NO_EVENT_PENDING;
1499:.\Generated_Source\PSoC5/USBUART.c **** 
1500:.\Generated_Source\PSoC5/USBUART.c ****                 if (length > 0u)
1501:.\Generated_Source\PSoC5/USBUART.c ****                 {
1502:.\Generated_Source\PSoC5/USBUART.c ****                 #if (CY_PSOC4)
1503:.\Generated_Source\PSoC5/USBUART.c ****                     uint32 lengthDescr0, lengthDescr1;
1504:.\Generated_Source\PSoC5/USBUART.c ****                     uint32 channelNum = (uint32) USBUART_DmaChan[epNumber];
1505:.\Generated_Source\PSoC5/USBUART.c **** 
1506:.\Generated_Source\PSoC5/USBUART.c ****                     /* Get number of full bursts. */
1507:.\Generated_Source\PSoC5/USBUART.c ****                     USBUART_DmaEpBurstCnt[epNumber] = (uint8) (length / USBUART_DMA_BYTES_PER_BURST
1508:.\Generated_Source\PSoC5/USBUART.c **** 
1509:.\Generated_Source\PSoC5/USBUART.c ****                     /* Get number of elements in the last burst. */
1510:.\Generated_Source\PSoC5/USBUART.c ****                     USBUART_DmaEpLastBurstEl[epNumber] = (uint8) (length % USBUART_DMA_BYTES_PER_BU
1511:.\Generated_Source\PSoC5/USBUART.c **** 
1512:.\Generated_Source\PSoC5/USBUART.c ****                     /* Get total number of bursts. */
1513:.\Generated_Source\PSoC5/USBUART.c ****                     USBUART_DmaEpBurstCnt[epNumber] += (0u != USBUART_DmaEpLastBurstEl[epNumber]) ?
1514:.\Generated_Source\PSoC5/USBUART.c **** 
1515:.\Generated_Source\PSoC5/USBUART.c ****                     /* Adjust number of data elements transferred in last burst. */
1516:.\Generated_Source\PSoC5/USBUART.c ****                     USBUART_DmaEpLastBurstEl[epNumber] = (0u != USBUART_DmaEpLastBurstEl[epNumber])
1517:.\Generated_Source\PSoC5/USBUART.c ****                                                                           (USBUART_DmaEpLastBurstEl
1518:.\Generated_Source\PSoC5/USBUART.c ****                                                                           (USBUART_DMA_BYTES_PER_BU
1519:.\Generated_Source\PSoC5/USBUART.c **** 
1520:.\Generated_Source\PSoC5/USBUART.c ****                     /* Get number of data elements to transfer for descriptor 0 and 1. */
1521:.\Generated_Source\PSoC5/USBUART.c ****                     lengthDescr0 = (1u == USBUART_DmaEpBurstCnt[epNumber]) ? USBUART_DmaEpLastBurst
1522:.\Generated_Source\PSoC5/USBUART.c ****                     lengthDescr1 = (2u == USBUART_DmaEpBurstCnt[epNumber]) ? USBUART_DmaEpLastBurst
1523:.\Generated_Source\PSoC5/USBUART.c **** 
1524:.\Generated_Source\PSoC5/USBUART.c **** 
1525:.\Generated_Source\PSoC5/USBUART.c ****                     /* Mark which descriptor is last one to execute. */
1526:.\Generated_Source\PSoC5/USBUART.c ****                     USBUART_DmaEpLastBurstEl[epNumber] |= (0u != (USBUART_DmaEpBurstCnt[epNumber] &
1527:.\Generated_Source\PSoC5/USBUART.c ****                                                                             USBUART_DMA_DESCR0_MASK
1528:.\Generated_Source\PSoC5/USBUART.c **** 
1529:.\Generated_Source\PSoC5/USBUART.c ****                     /* Adjust burst counter taking to account: 2 valid descriptors and interrupt tr
1530:.\Generated_Source\PSoC5/USBUART.c ****                     USBUART_DmaEpBurstCnt[epNumber] = USBUART_DMA_GET_BURST_CNT(USBUART_DmaEpBurstC
1531:.\Generated_Source\PSoC5/USBUART.c **** 
1532:.\Generated_Source\PSoC5/USBUART.c ****                     /* Restore DMA settings for current transfer. */
1533:.\Generated_Source\PSoC5/USBUART.c ****                     USBUART_CyDmaChDisable(channelNum);
1534:.\Generated_Source\PSoC5/USBUART.c **** 
1535:.\Generated_Source\PSoC5/USBUART.c ****                     /* Restore destination address for input endpoint. */
ARM GAS  C:\Users\Tim\AppData\Local\Temp\ccA4EuzY.s 			page 44


1536:.\Generated_Source\PSoC5/USBUART.c ****                     USBUART_CyDmaSetSrcAddress(channelNum, USBUART_DMA_DESCR0, (void*) ((uint32) US
1537:.\Generated_Source\PSoC5/USBUART.c ****                     USBUART_CyDmaSetSrcAddress(channelNum, USBUART_DMA_DESCR1, (void*) ((uint32) US
1538:.\Generated_Source\PSoC5/USBUART.c ****                                                                                                    
1539:.\Generated_Source\PSoC5/USBUART.c **** 
1540:.\Generated_Source\PSoC5/USBUART.c ****                     /* Set number of elements to transfer. */
1541:.\Generated_Source\PSoC5/USBUART.c ****                     USBUART_CyDmaSetNumDataElements(channelNum, USBUART_DMA_DESCR0, lengthDescr0);
1542:.\Generated_Source\PSoC5/USBUART.c ****                     USBUART_CyDmaSetNumDataElements(channelNum, USBUART_DMA_DESCR1, lengthDescr1);
1543:.\Generated_Source\PSoC5/USBUART.c **** 
1544:.\Generated_Source\PSoC5/USBUART.c ****                     /* Validate descriptor 0 and command to start with it. */
1545:.\Generated_Source\PSoC5/USBUART.c ****                     USBUART_CyDmaValidateDescriptor(channelNum, USBUART_DMA_DESCR0);
1546:.\Generated_Source\PSoC5/USBUART.c ****                     USBUART_CyDmaSetDescriptor0Next(channelNum);
1547:.\Generated_Source\PSoC5/USBUART.c **** 
1548:.\Generated_Source\PSoC5/USBUART.c ****                     /* Enable DMA channel: configuration complete. */
1549:.\Generated_Source\PSoC5/USBUART.c ****                     USBUART_CyDmaChEnable(channelNum);
1550:.\Generated_Source\PSoC5/USBUART.c **** 
1551:.\Generated_Source\PSoC5/USBUART.c ****                 #elif (USBUART_EP_DMA_AUTO_OPT == 0u)
1552:.\Generated_Source\PSoC5/USBUART.c ****                     USBUART_inLength[epNumber]  = length;
1553:.\Generated_Source\PSoC5/USBUART.c ****                     USBUART_inBufFull[epNumber] = 0u;
1554:.\Generated_Source\PSoC5/USBUART.c **** 
1555:.\Generated_Source\PSoC5/USBUART.c ****                     (void) CyDmaChDisable(USBUART_DmaChan[epNumber]);
1556:.\Generated_Source\PSoC5/USBUART.c ****                     /* Configure DMA to send data only for first burst. */
1557:.\Generated_Source\PSoC5/USBUART.c ****                     (void) CyDmaTdSetConfiguration(
1558:.\Generated_Source\PSoC5/USBUART.c ****                         USBUART_DmaTd[epNumber], (length > USBUART_DMA_BYTES_PER_BURST) ?
1559:.\Generated_Source\PSoC5/USBUART.c ****                         USBUART_DMA_BYTES_PER_BURST : length,
1560:.\Generated_Source\PSoC5/USBUART.c ****                         USBUART_DmaNextTd[epNumber], TD_TERMIN_EN | TD_INC_SRC_ADR );
1561:.\Generated_Source\PSoC5/USBUART.c ****                     (void) CyDmaTdSetAddress(USBUART_DmaTd[epNumber], LO16((uint32)  USBUART_inData
1562:.\Generated_Source\PSoC5/USBUART.c ****                                                                                LO16((uint32) &USBUA
1563:.\Generated_Source\PSoC5/USBUART.c ****                     /* Clear Any potential pending DMA requests before starting DMA channel to tran
1564:.\Generated_Source\PSoC5/USBUART.c ****                     (void) CyDmaClearPendingDrq(USBUART_DmaChan[epNumber]);
1565:.\Generated_Source\PSoC5/USBUART.c ****                     /* Enable DMA. */
1566:.\Generated_Source\PSoC5/USBUART.c ****                     (void) CyDmaChSetInitialTd(USBUART_DmaChan[epNumber], USBUART_DmaTd[epNumber]);
1567:.\Generated_Source\PSoC5/USBUART.c ****                     (void) CyDmaChEnable(USBUART_DmaChan[epNumber], 1u);
1568:.\Generated_Source\PSoC5/USBUART.c ****                 #endif /* (CY_PSOC4) */
1569:.\Generated_Source\PSoC5/USBUART.c **** 
1570:.\Generated_Source\PSoC5/USBUART.c ****                 #if !defined (USBUART_MANUAL_IN_EP_ARM)
1571:.\Generated_Source\PSoC5/USBUART.c ****                     /* Set IN data ready to generate DMA request to load data into endpoint buffer.
1572:.\Generated_Source\PSoC5/USBUART.c ****                     USBUART_ARB_EP_BASE.arbEp[epNumber].epCfg |= USBUART_ARB_EPX_CFG_IN_DATA_RDY;
1573:.\Generated_Source\PSoC5/USBUART.c ****                 #endif  /* (USBUART_MANUAL_IN_EP_ARM) */
1574:.\Generated_Source\PSoC5/USBUART.c **** 
1575:.\Generated_Source\PSoC5/USBUART.c ****                     /* IN endpoint will be armed in ARB_ISR(source: IN_BUF_FULL) after first DMA tr
1576:.\Generated_Source\PSoC5/USBUART.c ****                 }
1577:.\Generated_Source\PSoC5/USBUART.c ****                 else
1578:.\Generated_Source\PSoC5/USBUART.c ****                 {
1579:.\Generated_Source\PSoC5/USBUART.c ****                     /* When zero-length packet: arm IN endpoint directly. */
1580:.\Generated_Source\PSoC5/USBUART.c ****                     USBUART_SIE_EP_BASE.sieEp[epNumber].epCr0 = USBUART_EP[epNumber].epMode;
1581:.\Generated_Source\PSoC5/USBUART.c ****                 }
1582:.\Generated_Source\PSoC5/USBUART.c ****             }
1583:.\Generated_Source\PSoC5/USBUART.c ****         #endif /* (USBUART_EP_MANAGEMENT_DMA_AUTO) */
1584:.\Generated_Source\PSoC5/USBUART.c ****     #endif /* (USBUART_EP_MANAGEMENT_MANUAL) */
1585:.\Generated_Source\PSoC5/USBUART.c ****     }
1586:.\Generated_Source\PSoC5/USBUART.c **** }
 903              		.loc 1 1586 0
 904 007e F0BC     		pop	{r4, r5, r6, r7}
 905              		.cfi_restore 7
 906              		.cfi_restore 6
 907              		.cfi_restore 5
 908              		.cfi_restore 4
ARM GAS  C:\Users\Tim\AppData\Local\Temp\ccA4EuzY.s 			page 45


 909              		.cfi_def_cfa_offset 0
 910              	.L62:
 911 0080 7047     		bx	lr
 912              	.L64:
 913 0082 00BF     		.align	2
 914              	.L63:
 915 0084 00000000 		.word	USBUART_EP
 916 0088 FC5F0040 		.word	1073766396
 917 008c 78600040 		.word	1073766520
 918 0090 FE5F0040 		.word	1073766398
 919              		.cfi_endproc
 920              	.LFE11:
 921              		.size	USBUART_LoadInEP, .-USBUART_LoadInEP
 922              		.section	.text.USBUART_EnableOutEP,"ax",%progbits
 923              		.align	2
 924              		.global	USBUART_EnableOutEP
 925              		.thumb
 926              		.thumb_func
 927              		.type	USBUART_EnableOutEP, %function
 928              	USBUART_EnableOutEP:
 929              	.LFB13:
1587:.\Generated_Source\PSoC5/USBUART.c **** 
1588:.\Generated_Source\PSoC5/USBUART.c **** 
1589:.\Generated_Source\PSoC5/USBUART.c **** /*******************************************************************************
1590:.\Generated_Source\PSoC5/USBUART.c **** * Function Name: USBUART_ReadOutEP
1591:.\Generated_Source\PSoC5/USBUART.c **** ****************************************************************************//**
1592:.\Generated_Source\PSoC5/USBUART.c **** *
1593:.\Generated_Source\PSoC5/USBUART.c **** *   This function performs different functionality depending on the Component’s
1594:.\Generated_Source\PSoC5/USBUART.c **** *   configured Endpoint Buffer Management. This parameter is defined in the
1595:.\Generated_Source\PSoC5/USBUART.c **** *   Descriptor Root in Component Configure window.
1596:.\Generated_Source\PSoC5/USBUART.c **** *
1597:.\Generated_Source\PSoC5/USBUART.c **** *   *Manual (Static/Dynamic Allocation):*
1598:.\Generated_Source\PSoC5/USBUART.c **** *   This function moves the specified number of bytes from endpoint buffer to
1599:.\Generated_Source\PSoC5/USBUART.c **** *   system RAM. The number of bytes actually transferred from endpoint buffer to
1600:.\Generated_Source\PSoC5/USBUART.c **** *   system RAM is the lesser of the actual number of bytes sent by the host or
1601:.\Generated_Source\PSoC5/USBUART.c **** *   the number of bytes requested by the length parameter.
1602:.\Generated_Source\PSoC5/USBUART.c **** *
1603:.\Generated_Source\PSoC5/USBUART.c **** *   *DMA with Manual Buffer Management:*
1604:.\Generated_Source\PSoC5/USBUART.c **** *   Configure DMA to transfer data from endpoint buffer to system RAM. Generate
1605:.\Generated_Source\PSoC5/USBUART.c **** *   a DMA request. The firmware must wait until the DMA completes the data
1606:.\Generated_Source\PSoC5/USBUART.c **** *   transfer after calling the USBUART_ReadOutEP() API. For example,
1607:.\Generated_Source\PSoC5/USBUART.c **** *   by checking EPstate:
1608:.\Generated_Source\PSoC5/USBUART.c **** *
1609:.\Generated_Source\PSoC5/USBUART.c **** *   \snippet /USBFS_sut_02.cydsn/main.c checking EPstatey
1610:.\Generated_Source\PSoC5/USBUART.c **** *
1611:.\Generated_Source\PSoC5/USBUART.c **** *   The USBFS_EnableOutEP() has to be called to allow host to write data into
1612:.\Generated_Source\PSoC5/USBUART.c **** *   the endpoint buffer after DMA has completed transfer data from OUT endpoint
1613:.\Generated_Source\PSoC5/USBUART.c **** *   buffer to SRAM.
1614:.\Generated_Source\PSoC5/USBUART.c **** *
1615:.\Generated_Source\PSoC5/USBUART.c **** *   *DMA with Automatic Buffer Management:*
1616:.\Generated_Source\PSoC5/USBUART.c **** *   Configure DMA. This is required only once and automatically generates DMA
1617:.\Generated_Source\PSoC5/USBUART.c **** *   requests as data arrives
1618:.\Generated_Source\PSoC5/USBUART.c **** *
1619:.\Generated_Source\PSoC5/USBUART.c **** *  \param epNumber: Contains the data endpoint number.
1620:.\Generated_Source\PSoC5/USBUART.c **** *            Valid values are between 1 and 8.
1621:.\Generated_Source\PSoC5/USBUART.c **** *  \param pData: A pointer to a data array from which the data for the endpoint
1622:.\Generated_Source\PSoC5/USBUART.c **** *         space is loaded.
ARM GAS  C:\Users\Tim\AppData\Local\Temp\ccA4EuzY.s 			page 46


1623:.\Generated_Source\PSoC5/USBUART.c **** *  \param length: The number of bytes to transfer from the USB Out endpoint and
1624:.\Generated_Source\PSoC5/USBUART.c **** *          loads it into data array. Valid values are between 0 and 1023. The
1625:.\Generated_Source\PSoC5/USBUART.c **** *          function moves fewer than the requested number of bytes if the host
1626:.\Generated_Source\PSoC5/USBUART.c **** *          sends fewer bytes than requested.
1627:.\Generated_Source\PSoC5/USBUART.c **** *
1628:.\Generated_Source\PSoC5/USBUART.c **** * \return
1629:.\Generated_Source\PSoC5/USBUART.c **** *  Number of bytes received, 0 for an invalid endpoint.
1630:.\Generated_Source\PSoC5/USBUART.c **** *
1631:.\Generated_Source\PSoC5/USBUART.c **** * \reentrant
1632:.\Generated_Source\PSoC5/USBUART.c **** *  No.
1633:.\Generated_Source\PSoC5/USBUART.c **** *
1634:.\Generated_Source\PSoC5/USBUART.c **** *******************************************************************************/
1635:.\Generated_Source\PSoC5/USBUART.c **** uint16 USBUART_ReadOutEP(uint8 epNumber, uint8 pData[], uint16 length)
1636:.\Generated_Source\PSoC5/USBUART.c ****                                                                         
1637:.\Generated_Source\PSoC5/USBUART.c **** {
1638:.\Generated_Source\PSoC5/USBUART.c ****     if ((pData != NULL) && (epNumber > USBUART_EP0) && (epNumber < USBUART_MAX_EP))
1639:.\Generated_Source\PSoC5/USBUART.c ****     {
1640:.\Generated_Source\PSoC5/USBUART.c ****     #if (!USBUART_EP_MANAGEMENT_DMA_AUTO)
1641:.\Generated_Source\PSoC5/USBUART.c ****         /* Adjust requested length to available data. */
1642:.\Generated_Source\PSoC5/USBUART.c ****         length = (length > USBUART_GetEPCount(epNumber)) ? USBUART_GetEPCount(epNumber) : length;
1643:.\Generated_Source\PSoC5/USBUART.c ****     #endif /* (!USBUART_EP_MANAGEMENT_DMA_AUTO) */
1644:.\Generated_Source\PSoC5/USBUART.c **** 
1645:.\Generated_Source\PSoC5/USBUART.c ****     #if (USBUART_EP_MANAGEMENT_MANUAL)
1646:.\Generated_Source\PSoC5/USBUART.c ****         {
1647:.\Generated_Source\PSoC5/USBUART.c ****             /* Copy data using arbiter data register. */
1648:.\Generated_Source\PSoC5/USBUART.c ****             uint16 i;
1649:.\Generated_Source\PSoC5/USBUART.c ****             for (i = 0u; i < length; ++i)
1650:.\Generated_Source\PSoC5/USBUART.c ****             {
1651:.\Generated_Source\PSoC5/USBUART.c ****                 pData[i] = (uint8) USBUART_ARB_EP_BASE.arbEp[epNumber].rwDr;
1652:.\Generated_Source\PSoC5/USBUART.c ****             }
1653:.\Generated_Source\PSoC5/USBUART.c ****         }
1654:.\Generated_Source\PSoC5/USBUART.c **** 
1655:.\Generated_Source\PSoC5/USBUART.c ****         /* Arm OUT endpoint after data has been copied from endpoint buffer. */
1656:.\Generated_Source\PSoC5/USBUART.c ****         USBUART_EnableOutEP(epNumber);
1657:.\Generated_Source\PSoC5/USBUART.c ****     #else
1658:.\Generated_Source\PSoC5/USBUART.c **** 
1659:.\Generated_Source\PSoC5/USBUART.c ****         #if (CY_PSOC3 || CY_PSOC5LP)
1660:.\Generated_Source\PSoC5/USBUART.c ****             /* Initialize DMA if it was not initialized. */
1661:.\Generated_Source\PSoC5/USBUART.c ****             if (DMA_INVALID_TD == USBUART_DmaTd[epNumber])
1662:.\Generated_Source\PSoC5/USBUART.c ****             {
1663:.\Generated_Source\PSoC5/USBUART.c ****                 USBUART_InitEP_DMA(epNumber, pData);
1664:.\Generated_Source\PSoC5/USBUART.c ****             }
1665:.\Generated_Source\PSoC5/USBUART.c ****         #endif /* (CY_PSOC3 || CY_PSOC5LP) */
1666:.\Generated_Source\PSoC5/USBUART.c **** 
1667:.\Generated_Source\PSoC5/USBUART.c ****         #if (USBUART_EP_MANAGEMENT_DMA_MANUAL)
1668:.\Generated_Source\PSoC5/USBUART.c ****         #if (CY_PSOC4)
1669:.\Generated_Source\PSoC5/USBUART.c ****         {
1670:.\Generated_Source\PSoC5/USBUART.c ****             uint32 channelNum = (uint32) USBUART_DmaChan[epNumber];
1671:.\Generated_Source\PSoC5/USBUART.c **** 
1672:.\Generated_Source\PSoC5/USBUART.c ****             /* Disable DMA channel: start configuration. */
1673:.\Generated_Source\PSoC5/USBUART.c ****             USBUART_CyDmaChDisable(channelNum);
1674:.\Generated_Source\PSoC5/USBUART.c **** 
1675:.\Generated_Source\PSoC5/USBUART.c ****             /* Configure source and destination. */
1676:.\Generated_Source\PSoC5/USBUART.c ****             USBUART_CyDmaSetSrcAddress(channelNum, USBUART_DMA_DESCR0, (void*) &USBUART_ARB_EP_BASE
1677:.\Generated_Source\PSoC5/USBUART.c ****             USBUART_CyDmaSetDstAddress(channelNum, USBUART_DMA_DESCR0, (void*) pData);
1678:.\Generated_Source\PSoC5/USBUART.c **** 
1679:.\Generated_Source\PSoC5/USBUART.c ****             /* Configure DMA descriptor. */
ARM GAS  C:\Users\Tim\AppData\Local\Temp\ccA4EuzY.s 			page 47


1680:.\Generated_Source\PSoC5/USBUART.c ****             USBUART_CyDmaSetConfiguration(channelNum, USBUART_DMA_DESCR0, USBUART_DMA_COMMON_CFG | 
1681:.\Generated_Source\PSoC5/USBUART.c ****                                                     CYDMA_BYTE | CYDMA_WORD_ELEMENT | CYDMA_INC_DST
1682:.\Generated_Source\PSoC5/USBUART.c **** 
1683:.\Generated_Source\PSoC5/USBUART.c ****             /* Validate descriptor to execute on following DMA request. */
1684:.\Generated_Source\PSoC5/USBUART.c ****             USBUART_CyDmaValidateDescriptor(channelNum, USBUART_DMA_DESCR0);
1685:.\Generated_Source\PSoC5/USBUART.c **** 
1686:.\Generated_Source\PSoC5/USBUART.c ****             /* Enable DMA channel: configuration complete. */
1687:.\Generated_Source\PSoC5/USBUART.c ****             USBUART_CyDmaChEnable(channelNum);
1688:.\Generated_Source\PSoC5/USBUART.c ****         }
1689:.\Generated_Source\PSoC5/USBUART.c ****         #else
1690:.\Generated_Source\PSoC5/USBUART.c ****             /* Configure DMA to transfer data. */
1691:.\Generated_Source\PSoC5/USBUART.c ****             (void) CyDmaChDisable(USBUART_DmaChan[epNumber]);
1692:.\Generated_Source\PSoC5/USBUART.c ****             (void) CyDmaTdSetConfiguration(USBUART_DmaTd[epNumber], length, CY_DMA_DISABLE_TD, TD_T
1693:.\Generated_Source\PSoC5/USBUART.c ****             (void) CyDmaTdSetAddress(USBUART_DmaTd[epNumber], LO16((uint32) &USBUART_ARB_EP_BASE.ar
1694:.\Generated_Source\PSoC5/USBUART.c **** 
1695:.\Generated_Source\PSoC5/USBUART.c ****             /* Enable DMA channel. */
1696:.\Generated_Source\PSoC5/USBUART.c ****             (void) CyDmaChSetInitialTd(USBUART_DmaChan[epNumber], USBUART_DmaTd[epNumber]);
1697:.\Generated_Source\PSoC5/USBUART.c ****             (void) CyDmaChEnable(USBUART_DmaChan[epNumber], 1u);
1698:.\Generated_Source\PSoC5/USBUART.c ****         #endif /* (CY_PSOC4) */
1699:.\Generated_Source\PSoC5/USBUART.c **** 
1700:.\Generated_Source\PSoC5/USBUART.c ****             /* Generate DMA request. */
1701:.\Generated_Source\PSoC5/USBUART.c ****             USBUART_ARB_EP_BASE.arbEp[epNumber].epCfg |=  (uint8)  USBUART_ARB_EPX_CFG_DMA_REQ;
1702:.\Generated_Source\PSoC5/USBUART.c ****             USBUART_ARB_EP_BASE.arbEp[epNumber].epCfg &=  (uint8) ~USBUART_ARB_EPX_CFG_DMA_REQ;
1703:.\Generated_Source\PSoC5/USBUART.c **** 
1704:.\Generated_Source\PSoC5/USBUART.c ****             /* OUT endpoint has to be armed again by user when DMA transfers have been completed.
1705:.\Generated_Source\PSoC5/USBUART.c ****             * NO_EVENT_PENDING: notifies that data has been copied from endpoint buffer.
1706:.\Generated_Source\PSoC5/USBUART.c ****             */
1707:.\Generated_Source\PSoC5/USBUART.c **** 
1708:.\Generated_Source\PSoC5/USBUART.c ****         #endif /* (USBUART_EP_MANAGEMENT_DMA_MANUAL) */
1709:.\Generated_Source\PSoC5/USBUART.c **** 
1710:.\Generated_Source\PSoC5/USBUART.c ****         #if (USBUART_EP_MANAGEMENT_DMA_AUTO)
1711:.\Generated_Source\PSoC5/USBUART.c ****         #if (CY_PSOC4)
1712:.\Generated_Source\PSoC5/USBUART.c ****         {
1713:.\Generated_Source\PSoC5/USBUART.c ****             uint32 channelNum = (uint32) USBUART_DmaChan[epNumber];
1714:.\Generated_Source\PSoC5/USBUART.c ****             uint32 lengthDescr0, lengthDescr1;
1715:.\Generated_Source\PSoC5/USBUART.c **** 
1716:.\Generated_Source\PSoC5/USBUART.c ****             /* Get number of full bursts. */
1717:.\Generated_Source\PSoC5/USBUART.c ****             USBUART_DmaEpBurstCnt[epNumber] = (uint8) (length / USBUART_DMA_BYTES_PER_BURST);
1718:.\Generated_Source\PSoC5/USBUART.c **** 
1719:.\Generated_Source\PSoC5/USBUART.c ****             /* Get number of elements in the last burst. */
1720:.\Generated_Source\PSoC5/USBUART.c ****             USBUART_DmaEpLastBurstEl[epNumber] = (uint8) (length % USBUART_DMA_BYTES_PER_BURST);
1721:.\Generated_Source\PSoC5/USBUART.c **** 
1722:.\Generated_Source\PSoC5/USBUART.c ****             /* Get total number of bursts. */
1723:.\Generated_Source\PSoC5/USBUART.c ****             USBUART_DmaEpBurstCnt[epNumber] += (0u != USBUART_DmaEpLastBurstEl[epNumber]) ? 1u : 0u
1724:.\Generated_Source\PSoC5/USBUART.c **** 
1725:.\Generated_Source\PSoC5/USBUART.c ****             /* Adjust number of the data elements transfered in last burst. */
1726:.\Generated_Source\PSoC5/USBUART.c ****             USBUART_DmaEpLastBurstEl[epNumber] = (0u != USBUART_DmaEpLastBurstEl[epNumber]) ?
1727:.\Generated_Source\PSoC5/USBUART.c ****                                                                   (USBUART_DmaEpLastBurstEl[epNumbe
1728:.\Generated_Source\PSoC5/USBUART.c ****                                                                   (USBUART_DMA_BYTES_PER_BURST - 1u
1729:.\Generated_Source\PSoC5/USBUART.c **** 
1730:.\Generated_Source\PSoC5/USBUART.c ****             /* Get number of data elements to transfer for descriptor 0 and 1. */
1731:.\Generated_Source\PSoC5/USBUART.c ****             lengthDescr0 = (1u == USBUART_DmaEpBurstCnt[epNumber]) ? USBUART_DmaEpLastBurstEl[epNum
1732:.\Generated_Source\PSoC5/USBUART.c ****             lengthDescr1 = (2u == USBUART_DmaEpBurstCnt[epNumber]) ? USBUART_DmaEpLastBurstEl[epNum
1733:.\Generated_Source\PSoC5/USBUART.c **** 
1734:.\Generated_Source\PSoC5/USBUART.c ****             /* Mark if revert number of data elements in descriptor after transfer completion. */
1735:.\Generated_Source\PSoC5/USBUART.c ****             USBUART_DmaEpLastBurstEl[epNumber] |= (USBUART_DmaEpBurstCnt[epNumber] > 2u) ? USBUART_
1736:.\Generated_Source\PSoC5/USBUART.c **** 
ARM GAS  C:\Users\Tim\AppData\Local\Temp\ccA4EuzY.s 			page 48


1737:.\Generated_Source\PSoC5/USBUART.c ****             /* Mark last descriptor to be executed. */
1738:.\Generated_Source\PSoC5/USBUART.c ****             USBUART_DmaEpLastBurstEl[epNumber] |= (0u != (USBUART_DmaEpBurstCnt[epNumber] & 0x1u)) 
1739:.\Generated_Source\PSoC5/USBUART.c ****                                                                     USBUART_DMA_DESCR0_MASK : USBUA
1740:.\Generated_Source\PSoC5/USBUART.c **** 
1741:.\Generated_Source\PSoC5/USBUART.c ****             /* Adjust burst counter taking to account: 2 valid descriptors and interrupt trigger af
1742:.\Generated_Source\PSoC5/USBUART.c ****             USBUART_DmaEpBurstCnt[epNumber] = USBUART_DMA_GET_BURST_CNT(USBUART_DmaEpBurstCnt[epNum
1743:.\Generated_Source\PSoC5/USBUART.c **** 
1744:.\Generated_Source\PSoC5/USBUART.c ****             /* Store address of buffer and burst counter for endpoint. */
1745:.\Generated_Source\PSoC5/USBUART.c ****             USBUART_DmaEpBufferAddrBackup[epNumber] = (uint32) pData;
1746:.\Generated_Source\PSoC5/USBUART.c ****             USBUART_DmaEpBurstCntBackup[epNumber]   = USBUART_DmaEpBurstCnt[epNumber];
1747:.\Generated_Source\PSoC5/USBUART.c **** 
1748:.\Generated_Source\PSoC5/USBUART.c ****             /* Disable DMA channel: start configuration. */
1749:.\Generated_Source\PSoC5/USBUART.c ****             USBUART_CyDmaChDisable(channelNum);
1750:.\Generated_Source\PSoC5/USBUART.c **** 
1751:.\Generated_Source\PSoC5/USBUART.c ****             /* Set destination address. */
1752:.\Generated_Source\PSoC5/USBUART.c ****             USBUART_CyDmaSetSrcAddress(channelNum, USBUART_DMA_DESCR0, (void*) &USBUART_ARB_EP_BASE
1753:.\Generated_Source\PSoC5/USBUART.c ****             USBUART_CyDmaSetSrcAddress(channelNum, USBUART_DMA_DESCR1, (void*) &USBUART_ARB_EP_BASE
1754:.\Generated_Source\PSoC5/USBUART.c **** 
1755:.\Generated_Source\PSoC5/USBUART.c ****             USBUART_CyDmaSetDstAddress(channelNum, USBUART_DMA_DESCR0, (void*) ((uint32) pData));
1756:.\Generated_Source\PSoC5/USBUART.c ****             USBUART_CyDmaSetDstAddress(channelNum, USBUART_DMA_DESCR1, (void*) ((uint32) pData + US
1757:.\Generated_Source\PSoC5/USBUART.c **** 
1758:.\Generated_Source\PSoC5/USBUART.c ****             /* Configure DMA descriptor. */
1759:.\Generated_Source\PSoC5/USBUART.c ****             USBUART_CyDmaSetConfiguration(channelNum, USBUART_DMA_DESCR0, USBUART_DMA_COMMON_CFG  |
1760:.\Generated_Source\PSoC5/USBUART.c ****                                                     CYDMA_BYTE | CYDMA_WORD_ELEMENT | CYDMA_INC_DST
1761:.\Generated_Source\PSoC5/USBUART.c **** 
1762:.\Generated_Source\PSoC5/USBUART.c ****             /* Configure DMA descriptor. */
1763:.\Generated_Source\PSoC5/USBUART.c ****             USBUART_CyDmaSetConfiguration(channelNum, USBUART_DMA_DESCR1, USBUART_DMA_COMMON_CFG  |
1764:.\Generated_Source\PSoC5/USBUART.c ****                                                     CYDMA_BYTE | CYDMA_WORD_ELEMENT | CYDMA_INC_DST
1765:.\Generated_Source\PSoC5/USBUART.c **** 
1766:.\Generated_Source\PSoC5/USBUART.c ****             /* Enable interrupt from DMA channel. */
1767:.\Generated_Source\PSoC5/USBUART.c ****             USBUART_CyDmaSetInterruptMask(channelNum);
1768:.\Generated_Source\PSoC5/USBUART.c **** 
1769:.\Generated_Source\PSoC5/USBUART.c ****             /* Validate DMA descriptor 0 and 1. */
1770:.\Generated_Source\PSoC5/USBUART.c ****             USBUART_CyDmaValidateDescriptor(channelNum, USBUART_DMA_DESCR0);
1771:.\Generated_Source\PSoC5/USBUART.c ****             USBUART_CyDmaValidateDescriptor(channelNum, USBUART_DMA_DESCR1);
1772:.\Generated_Source\PSoC5/USBUART.c **** 
1773:.\Generated_Source\PSoC5/USBUART.c ****             /* Enable DMA channel: configuration complete. */
1774:.\Generated_Source\PSoC5/USBUART.c ****             USBUART_CyDmaChEnable(channelNum);
1775:.\Generated_Source\PSoC5/USBUART.c ****         }
1776:.\Generated_Source\PSoC5/USBUART.c ****         #else
1777:.\Generated_Source\PSoC5/USBUART.c ****             (void) CyDmaChDisable(USBUART_DmaChan[epNumber]);
1778:.\Generated_Source\PSoC5/USBUART.c ****             (void) CyDmaTdSetConfiguration(USBUART_DmaTd[epNumber], length,  USBUART_DmaTd[epNumber
1779:.\Generated_Source\PSoC5/USBUART.c ****             (void) CyDmaTdSetAddress(USBUART_DmaTd[epNumber], LO16((uint32) &USBUART_ARB_EP_BASE.ar
1780:.\Generated_Source\PSoC5/USBUART.c **** 
1781:.\Generated_Source\PSoC5/USBUART.c ****             /* Clear Any potential pending DMA requests before starting DMA channel to transfer dat
1782:.\Generated_Source\PSoC5/USBUART.c ****             (void) CyDmaClearPendingDrq(USBUART_DmaChan[epNumber]);
1783:.\Generated_Source\PSoC5/USBUART.c **** 
1784:.\Generated_Source\PSoC5/USBUART.c ****             /* Enable DMA channel. */
1785:.\Generated_Source\PSoC5/USBUART.c ****             (void) CyDmaChSetInitialTd(USBUART_DmaChan[epNumber], USBUART_DmaTd[epNumber]);
1786:.\Generated_Source\PSoC5/USBUART.c ****             (void) CyDmaChEnable(USBUART_DmaChan[epNumber], 1u);
1787:.\Generated_Source\PSoC5/USBUART.c ****         #endif /* (CY_PSOC4) */
1788:.\Generated_Source\PSoC5/USBUART.c **** 
1789:.\Generated_Source\PSoC5/USBUART.c ****             /* OUT endpoint has to be armed again by user when DMA transfers have been completed.
1790:.\Generated_Source\PSoC5/USBUART.c ****             * NO_EVENT_PENDING: notifies that data has been copied from endpoint buffer.
1791:.\Generated_Source\PSoC5/USBUART.c ****             */
1792:.\Generated_Source\PSoC5/USBUART.c **** 
1793:.\Generated_Source\PSoC5/USBUART.c ****         #endif /* (USBUART_EP_MANAGEMENT_DMA_AUTO) */
ARM GAS  C:\Users\Tim\AppData\Local\Temp\ccA4EuzY.s 			page 49


1794:.\Generated_Source\PSoC5/USBUART.c ****     #endif /* (USBUART_EP_MANAGEMENT_MANUAL) */
1795:.\Generated_Source\PSoC5/USBUART.c ****     }
1796:.\Generated_Source\PSoC5/USBUART.c ****     else
1797:.\Generated_Source\PSoC5/USBUART.c ****     {
1798:.\Generated_Source\PSoC5/USBUART.c ****         length = 0u;
1799:.\Generated_Source\PSoC5/USBUART.c ****     }
1800:.\Generated_Source\PSoC5/USBUART.c **** 
1801:.\Generated_Source\PSoC5/USBUART.c ****     return (length);
1802:.\Generated_Source\PSoC5/USBUART.c **** }
1803:.\Generated_Source\PSoC5/USBUART.c **** 
1804:.\Generated_Source\PSoC5/USBUART.c **** 
1805:.\Generated_Source\PSoC5/USBUART.c **** #if (USBUART_16BITS_EP_ACCESS_ENABLE)
1806:.\Generated_Source\PSoC5/USBUART.c **** /*******************************************************************************
1807:.\Generated_Source\PSoC5/USBUART.c **** * Function Name: USBUART_LoadInEP16
1808:.\Generated_Source\PSoC5/USBUART.c **** ****************************************************************************//**
1809:.\Generated_Source\PSoC5/USBUART.c **** *
1810:.\Generated_Source\PSoC5/USBUART.c **** *  This function performs different functionality depending on the Component’s
1811:.\Generated_Source\PSoC5/USBUART.c **** *  configured Endpoint Buffer Management. This parameter is defined in
1812:.\Generated_Source\PSoC5/USBUART.c **** *  the Descriptor Root in Component Configure window.
1813:.\Generated_Source\PSoC5/USBUART.c **** *
1814:.\Generated_Source\PSoC5/USBUART.c **** *  *Manual (Static/Dynamic Allocation):*
1815:.\Generated_Source\PSoC5/USBUART.c **** *  This function loads and enables the specified USB data endpoint for an IN
1816:.\Generated_Source\PSoC5/USBUART.c **** *  data transfer.
1817:.\Generated_Source\PSoC5/USBUART.c **** *
1818:.\Generated_Source\PSoC5/USBUART.c **** *  *DMA with Manual Buffer Management:*
1819:.\Generated_Source\PSoC5/USBUART.c **** *  Configures DMA for a data transfer from system RAM to endpoint buffer.
1820:.\Generated_Source\PSoC5/USBUART.c **** *  Generates request for a transfer.
1821:.\Generated_Source\PSoC5/USBUART.c **** *
1822:.\Generated_Source\PSoC5/USBUART.c **** *  *DMA with Automatic Buffer Management:*
1823:.\Generated_Source\PSoC5/USBUART.c **** *  Configures DMA. This is required only once, so it is done only when parameter
1824:.\Generated_Source\PSoC5/USBUART.c **** *  pData is not NULL. When the pData pointer is NULL, the function skips this
1825:.\Generated_Source\PSoC5/USBUART.c **** *  task. Sets Data ready status: This generates the first DMA transfer and
1826:.\Generated_Source\PSoC5/USBUART.c **** *  prepares data in endpoint buffer.
1827:.\Generated_Source\PSoC5/USBUART.c **** *
1828:.\Generated_Source\PSoC5/USBUART.c **** *  \param epNumber Contains the data endpoint number.
1829:.\Generated_Source\PSoC5/USBUART.c **** *        Valid values are between 1 and 8.
1830:.\Generated_Source\PSoC5/USBUART.c **** *  \param *pData A pointer to a data array from which the data for the endpoint
1831:.\Generated_Source\PSoC5/USBUART.c **** *        space is loaded. It shall be ensured that this pointer address is even
1832:.\Generated_Source\PSoC5/USBUART.c **** *        to ensure the 16-bit transfer is aligned to even address. Else, a hard
1833:.\Generated_Source\PSoC5/USBUART.c **** *        fault condition can occur.
1834:.\Generated_Source\PSoC5/USBUART.c **** *  \param length The number of bytes to transfer from the array and then send as
1835:.\Generated_Source\PSoC5/USBUART.c **** *        a result of an IN request. Valid values are between 0 and 512 (1023 for
1836:.\Generated_Source\PSoC5/USBUART.c **** *        DMA with Automatic Buffer Management mode). The value 512 is applicable
1837:.\Generated_Source\PSoC5/USBUART.c **** *        if only one endpoint is used.
1838:.\Generated_Source\PSoC5/USBUART.c **** *
1839:.\Generated_Source\PSoC5/USBUART.c **** * \reentrant
1840:.\Generated_Source\PSoC5/USBUART.c **** *  No.
1841:.\Generated_Source\PSoC5/USBUART.c **** *
1842:.\Generated_Source\PSoC5/USBUART.c **** *******************************************************************************/
1843:.\Generated_Source\PSoC5/USBUART.c **** void USBUART_LoadInEP16(uint8 epNumber, const uint8 pData[], uint16 length)
1844:.\Generated_Source\PSoC5/USBUART.c **** {
1845:.\Generated_Source\PSoC5/USBUART.c ****     /* Check array alignment on half-word boundary. */
1846:.\Generated_Source\PSoC5/USBUART.c ****     CYASSERT(0u == (((uint32) pData) & 0x01u));
1847:.\Generated_Source\PSoC5/USBUART.c **** 
1848:.\Generated_Source\PSoC5/USBUART.c ****     if ((epNumber > USBUART_EP0) && (epNumber < USBUART_MAX_EP))
1849:.\Generated_Source\PSoC5/USBUART.c ****     {
1850:.\Generated_Source\PSoC5/USBUART.c ****     #if (!USBUART_EP_MANAGEMENT_DMA_AUTO)
ARM GAS  C:\Users\Tim\AppData\Local\Temp\ccA4EuzY.s 			page 50


1851:.\Generated_Source\PSoC5/USBUART.c ****         /* Limit length to available buffer USB IP buffer size. */
1852:.\Generated_Source\PSoC5/USBUART.c ****         if (length > (USBUART_EPX_DATA_BUF_MAX - USBUART_EP[epNumber].buffOffset))
1853:.\Generated_Source\PSoC5/USBUART.c ****         {
1854:.\Generated_Source\PSoC5/USBUART.c ****             length = USBUART_EPX_DATA_BUF_MAX - USBUART_EP[epNumber].buffOffset;
1855:.\Generated_Source\PSoC5/USBUART.c ****         }
1856:.\Generated_Source\PSoC5/USBUART.c ****     #endif /* (!USBUART_EP_MANAGEMENT_DMA_AUTO) */
1857:.\Generated_Source\PSoC5/USBUART.c **** 
1858:.\Generated_Source\PSoC5/USBUART.c ****         /* Set count and data toggle. */
1859:.\Generated_Source\PSoC5/USBUART.c ****         USBUART_SIE_EP_BASE.sieEp[epNumber].epCnt0 = (uint32) HI8(length) | USBUART_EP[epNumber].ep
1860:.\Generated_Source\PSoC5/USBUART.c ****         USBUART_SIE_EP_BASE.sieEp[epNumber].epCnt1 = (uint32) LO8(length);
1861:.\Generated_Source\PSoC5/USBUART.c **** 
1862:.\Generated_Source\PSoC5/USBUART.c ****         /* Adjust requested length: 2 bytes are handled at one data register access. */
1863:.\Generated_Source\PSoC5/USBUART.c ****         length += (length & 0x01u);
1864:.\Generated_Source\PSoC5/USBUART.c **** 
1865:.\Generated_Source\PSoC5/USBUART.c ****     #if (USBUART_EP_MANAGEMENT_MANUAL)
1866:.\Generated_Source\PSoC5/USBUART.c ****         if (NULL != pData)
1867:.\Generated_Source\PSoC5/USBUART.c ****         {
1868:.\Generated_Source\PSoC5/USBUART.c ****             /* Convert uint8 array to uint16. */
1869:.\Generated_Source\PSoC5/USBUART.c ****             const uint16 *dataBuf = (uint16 *) pData;
1870:.\Generated_Source\PSoC5/USBUART.c **** 
1871:.\Generated_Source\PSoC5/USBUART.c ****             /* Copy data using 16-bits arbiter data register. */
1872:.\Generated_Source\PSoC5/USBUART.c ****             uint16 i;
1873:.\Generated_Source\PSoC5/USBUART.c ****             for (i = 0u; i < (length >> 1u); ++i)
1874:.\Generated_Source\PSoC5/USBUART.c ****             {
1875:.\Generated_Source\PSoC5/USBUART.c ****                 USBUART_ARB_EP16_BASE.arbEp[epNumber].rwDr16 = dataBuf[i];
1876:.\Generated_Source\PSoC5/USBUART.c ****             }
1877:.\Generated_Source\PSoC5/USBUART.c ****         }
1878:.\Generated_Source\PSoC5/USBUART.c **** 
1879:.\Generated_Source\PSoC5/USBUART.c ****         /* IN endpoint buffer is full - read to be read. */
1880:.\Generated_Source\PSoC5/USBUART.c ****         USBUART_EP[epNumber].apiEpState = USBUART_NO_EVENT_PENDING;
1881:.\Generated_Source\PSoC5/USBUART.c **** 
1882:.\Generated_Source\PSoC5/USBUART.c ****         /* Arm IN endpoint. */
1883:.\Generated_Source\PSoC5/USBUART.c ****         USBUART_SIE_EP_BASE.sieEp[epNumber].epCr0 = USBUART_EP[epNumber].epMode;
1884:.\Generated_Source\PSoC5/USBUART.c **** 
1885:.\Generated_Source\PSoC5/USBUART.c ****     #else
1886:.\Generated_Source\PSoC5/USBUART.c **** 
1887:.\Generated_Source\PSoC5/USBUART.c ****         #if (USBUART_EP_MANAGEMENT_DMA_MANUAL)
1888:.\Generated_Source\PSoC5/USBUART.c ****             /* IN endpoint buffer will be fully loaded by DMA shortly. */
1889:.\Generated_Source\PSoC5/USBUART.c ****             USBUART_EP[epNumber].apiEpState = USBUART_NO_EVENT_PENDING;
1890:.\Generated_Source\PSoC5/USBUART.c **** 
1891:.\Generated_Source\PSoC5/USBUART.c ****             if ((pData != NULL) && (length > 0u))
1892:.\Generated_Source\PSoC5/USBUART.c ****             {
1893:.\Generated_Source\PSoC5/USBUART.c ****                 uint32 channelNum = (uint32) USBUART_DmaChan[epNumber];
1894:.\Generated_Source\PSoC5/USBUART.c **** 
1895:.\Generated_Source\PSoC5/USBUART.c ****                 /* Disable DMA channel: start configuration. */
1896:.\Generated_Source\PSoC5/USBUART.c ****                 USBUART_CyDmaChDisable(channelNum);
1897:.\Generated_Source\PSoC5/USBUART.c **** 
1898:.\Generated_Source\PSoC5/USBUART.c ****                 /* Configure source and destination. */
1899:.\Generated_Source\PSoC5/USBUART.c ****                 USBUART_CyDmaSetSrcAddress(channelNum, USBUART_DMA_DESCR0, (void*) pData);
1900:.\Generated_Source\PSoC5/USBUART.c ****                 USBUART_CyDmaSetDstAddress(channelNum, USBUART_DMA_DESCR0, (void*) &USBUART_ARB_EP1
1901:.\Generated_Source\PSoC5/USBUART.c **** 
1902:.\Generated_Source\PSoC5/USBUART.c ****                 /* Configure DMA descriptor. */
1903:.\Generated_Source\PSoC5/USBUART.c ****                 length = (length >> 1u) - 1u;
1904:.\Generated_Source\PSoC5/USBUART.c ****                 USBUART_CyDmaSetConfiguration(channelNum, USBUART_DMA_DESCR0, USBUART_DMA_COMMON_CF
1905:.\Generated_Source\PSoC5/USBUART.c ****                                                         CYDMA_HALFWORD | CYDMA_ELEMENT_WORD | CYDMA
1906:.\Generated_Source\PSoC5/USBUART.c **** 
1907:.\Generated_Source\PSoC5/USBUART.c ****                 /* Validate descriptor to execute on following DMA request. */
ARM GAS  C:\Users\Tim\AppData\Local\Temp\ccA4EuzY.s 			page 51


1908:.\Generated_Source\PSoC5/USBUART.c ****                 USBUART_CyDmaValidateDescriptor(channelNum, USBUART_DMA_DESCR0);
1909:.\Generated_Source\PSoC5/USBUART.c **** 
1910:.\Generated_Source\PSoC5/USBUART.c ****                 /* Enable DMA channel: configuration complete. */
1911:.\Generated_Source\PSoC5/USBUART.c ****                 USBUART_CyDmaChEnable(channelNum);
1912:.\Generated_Source\PSoC5/USBUART.c **** 
1913:.\Generated_Source\PSoC5/USBUART.c ****                 /* Generate DMA request. */
1914:.\Generated_Source\PSoC5/USBUART.c ****                 USBUART_ARB_EP_BASE.arbEp[epNumber].epCfg |=  (uint32)  USBUART_ARB_EPX_CFG_DMA_REQ
1915:.\Generated_Source\PSoC5/USBUART.c ****                 USBUART_ARB_EP_BASE.arbEp[epNumber].epCfg &=  (uint32) ~USBUART_ARB_EPX_CFG_DMA_REQ
1916:.\Generated_Source\PSoC5/USBUART.c **** 
1917:.\Generated_Source\PSoC5/USBUART.c ****                 /* IN endpoint will be armed in ARB_ISR(source: IN_BUF_FULL) after first DMA transf
1918:.\Generated_Source\PSoC5/USBUART.c ****             }
1919:.\Generated_Source\PSoC5/USBUART.c ****             else
1920:.\Generated_Source\PSoC5/USBUART.c ****             {
1921:.\Generated_Source\PSoC5/USBUART.c ****                 /* When zero-length packet: arm IN endpoint directly. */
1922:.\Generated_Source\PSoC5/USBUART.c ****                 USBUART_SIE_EP_BASE.sieEp[epNumber].epCr0 = USBUART_EP[epNumber].epMode;
1923:.\Generated_Source\PSoC5/USBUART.c ****             }
1924:.\Generated_Source\PSoC5/USBUART.c ****         #endif /* (USBUART_EP_MANAGEMENT_DMA_MANUAL) */
1925:.\Generated_Source\PSoC5/USBUART.c **** 
1926:.\Generated_Source\PSoC5/USBUART.c ****         #if (USBUART_EP_MANAGEMENT_DMA_AUTO)
1927:.\Generated_Source\PSoC5/USBUART.c ****             if (pData != NULL)
1928:.\Generated_Source\PSoC5/USBUART.c ****             {
1929:.\Generated_Source\PSoC5/USBUART.c ****                 uint32 channelNum = (uint32) USBUART_DmaChan[epNumber];
1930:.\Generated_Source\PSoC5/USBUART.c **** 
1931:.\Generated_Source\PSoC5/USBUART.c ****                 /* Store address of buffer. */
1932:.\Generated_Source\PSoC5/USBUART.c ****                 USBUART_DmaEpBufferAddrBackup[epNumber] = (uint32) pData;
1933:.\Generated_Source\PSoC5/USBUART.c **** 
1934:.\Generated_Source\PSoC5/USBUART.c ****                 /* Disable DMA channel: start configuration. */
1935:.\Generated_Source\PSoC5/USBUART.c ****                 USBUART_CyDmaChDisable(channelNum);
1936:.\Generated_Source\PSoC5/USBUART.c **** 
1937:.\Generated_Source\PSoC5/USBUART.c ****                 /* Set destination address. */
1938:.\Generated_Source\PSoC5/USBUART.c ****                 USBUART_CyDmaSetDstAddress(channelNum, USBUART_DMA_DESCR0, (void*) &USBUART_ARB_EP1
1939:.\Generated_Source\PSoC5/USBUART.c ****                 USBUART_CyDmaSetDstAddress(channelNum, USBUART_DMA_DESCR1, (void*) &USBUART_ARB_EP1
1940:.\Generated_Source\PSoC5/USBUART.c **** 
1941:.\Generated_Source\PSoC5/USBUART.c ****                 /* Configure DMA descriptor. */
1942:.\Generated_Source\PSoC5/USBUART.c ****                 USBUART_CyDmaSetConfiguration(channelNum, USBUART_DMA_DESCR0, USBUART_DMA_COMMON_CF
1943:.\Generated_Source\PSoC5/USBUART.c ****                                                         CYDMA_HALFWORD | CYDMA_ELEMENT_WORD | CYDMA
1944:.\Generated_Source\PSoC5/USBUART.c **** 
1945:.\Generated_Source\PSoC5/USBUART.c ****                 /* Configure DMA descriptor. */
1946:.\Generated_Source\PSoC5/USBUART.c ****                 USBUART_CyDmaSetConfiguration(channelNum, USBUART_DMA_DESCR1, USBUART_DMA_COMMON_CF
1947:.\Generated_Source\PSoC5/USBUART.c ****                                                         CYDMA_HALFWORD | CYDMA_ELEMENT_WORD | CYDMA
1948:.\Generated_Source\PSoC5/USBUART.c **** 
1949:.\Generated_Source\PSoC5/USBUART.c ****                 /* Enable interrupt from DMA channel. */
1950:.\Generated_Source\PSoC5/USBUART.c ****                 USBUART_CyDmaSetInterruptMask(channelNum);
1951:.\Generated_Source\PSoC5/USBUART.c **** 
1952:.\Generated_Source\PSoC5/USBUART.c ****                 /* Validate descriptor 1. It will not be invalided during operation. */
1953:.\Generated_Source\PSoC5/USBUART.c ****                 USBUART_CyDmaValidateDescriptor(channelNum, USBUART_DMA_DESCR1);
1954:.\Generated_Source\PSoC5/USBUART.c **** 
1955:.\Generated_Source\PSoC5/USBUART.c ****                 /* Enable DMA channel: configuration complete. */
1956:.\Generated_Source\PSoC5/USBUART.c ****                 USBUART_CyDmaChEnable(channelNum);
1957:.\Generated_Source\PSoC5/USBUART.c ****             }
1958:.\Generated_Source\PSoC5/USBUART.c ****             else
1959:.\Generated_Source\PSoC5/USBUART.c ****             {
1960:.\Generated_Source\PSoC5/USBUART.c ****                 /* IN endpoint buffer (32 bytes) will shortly be preloaded by DMA. */
1961:.\Generated_Source\PSoC5/USBUART.c ****                 USBUART_EP[epNumber].apiEpState = USBUART_NO_EVENT_PENDING;
1962:.\Generated_Source\PSoC5/USBUART.c **** 
1963:.\Generated_Source\PSoC5/USBUART.c ****                 if (length > 0u)
1964:.\Generated_Source\PSoC5/USBUART.c ****                 {
ARM GAS  C:\Users\Tim\AppData\Local\Temp\ccA4EuzY.s 			page 52


1965:.\Generated_Source\PSoC5/USBUART.c ****                     uint32 lengthDescr0, lengthDescr1;
1966:.\Generated_Source\PSoC5/USBUART.c ****                     uint32 channelNum = (uint32) USBUART_DmaChan[epNumber];
1967:.\Generated_Source\PSoC5/USBUART.c **** 
1968:.\Generated_Source\PSoC5/USBUART.c ****                     /* Get number of full bursts. */
1969:.\Generated_Source\PSoC5/USBUART.c ****                     USBUART_DmaEpBurstCnt[epNumber] = (uint8) (length / USBUART_DMA_BYTES_PER_BURST
1970:.\Generated_Source\PSoC5/USBUART.c **** 
1971:.\Generated_Source\PSoC5/USBUART.c ****                     /* Get number of elements in the last burst. */
1972:.\Generated_Source\PSoC5/USBUART.c ****                     USBUART_DmaEpLastBurstEl[epNumber] = (uint8) (length % USBUART_DMA_BYTES_PER_BU
1973:.\Generated_Source\PSoC5/USBUART.c **** 
1974:.\Generated_Source\PSoC5/USBUART.c ****                     /* Get total number of bursts. */
1975:.\Generated_Source\PSoC5/USBUART.c ****                     USBUART_DmaEpBurstCnt[epNumber] += (0u != USBUART_DmaEpLastBurstEl[epNumber]) ?
1976:.\Generated_Source\PSoC5/USBUART.c **** 
1977:.\Generated_Source\PSoC5/USBUART.c ****                     /* Adjust number of data elements transferred in last burst. */
1978:.\Generated_Source\PSoC5/USBUART.c ****                     USBUART_DmaEpLastBurstEl[epNumber] = (0u != USBUART_DmaEpLastBurstEl[epNumber])
1979:.\Generated_Source\PSoC5/USBUART.c ****                                                                           ((USBUART_DmaEpLastBurstE
1980:.\Generated_Source\PSoC5/USBUART.c ****                                                                            (USBUART_DMA_HALFWORDS_P
1981:.\Generated_Source\PSoC5/USBUART.c **** 
1982:.\Generated_Source\PSoC5/USBUART.c ****                     /* Get number of data elements to transfer for descriptor 0 and 1. */
1983:.\Generated_Source\PSoC5/USBUART.c ****                     lengthDescr0 = (1u == USBUART_DmaEpBurstCnt[epNumber]) ? USBUART_DmaEpLastBurst
1984:.\Generated_Source\PSoC5/USBUART.c ****                     lengthDescr1 = (2u == USBUART_DmaEpBurstCnt[epNumber]) ? USBUART_DmaEpLastBurst
1985:.\Generated_Source\PSoC5/USBUART.c **** 
1986:.\Generated_Source\PSoC5/USBUART.c ****                     /* Mark which descriptor is last one to execute. */
1987:.\Generated_Source\PSoC5/USBUART.c ****                     USBUART_DmaEpLastBurstEl[epNumber] |= (0u != (USBUART_DmaEpBurstCnt[epNumber] &
1988:.\Generated_Source\PSoC5/USBUART.c ****                                                                             USBUART_DMA_DESCR0_MASK
1989:.\Generated_Source\PSoC5/USBUART.c **** 
1990:.\Generated_Source\PSoC5/USBUART.c ****                     /* Adjust burst counter taking to account: 2 valid descriptors and interrupt tr
1991:.\Generated_Source\PSoC5/USBUART.c ****                     USBUART_DmaEpBurstCnt[epNumber] = USBUART_DMA_GET_BURST_CNT(USBUART_DmaEpBurstC
1992:.\Generated_Source\PSoC5/USBUART.c **** 
1993:.\Generated_Source\PSoC5/USBUART.c ****                     /* Restore DMA settings for current transfer. */
1994:.\Generated_Source\PSoC5/USBUART.c ****                     USBUART_CyDmaChDisable(channelNum);
1995:.\Generated_Source\PSoC5/USBUART.c **** 
1996:.\Generated_Source\PSoC5/USBUART.c ****                     /* Restore destination address for input endpoint. */
1997:.\Generated_Source\PSoC5/USBUART.c ****                     USBUART_CyDmaSetSrcAddress(channelNum, USBUART_DMA_DESCR0, (void*) ((uint32) US
1998:.\Generated_Source\PSoC5/USBUART.c ****                     USBUART_CyDmaSetSrcAddress(channelNum, USBUART_DMA_DESCR1, (void*) ((uint32) US
1999:.\Generated_Source\PSoC5/USBUART.c ****                                                                                                    
2000:.\Generated_Source\PSoC5/USBUART.c **** 
2001:.\Generated_Source\PSoC5/USBUART.c ****                     /* Set number of elements to transfer. */
2002:.\Generated_Source\PSoC5/USBUART.c ****                     USBUART_CyDmaSetNumDataElements(channelNum, USBUART_DMA_DESCR0, lengthDescr0);
2003:.\Generated_Source\PSoC5/USBUART.c ****                     USBUART_CyDmaSetNumDataElements(channelNum, USBUART_DMA_DESCR1, lengthDescr1);
2004:.\Generated_Source\PSoC5/USBUART.c **** 
2005:.\Generated_Source\PSoC5/USBUART.c ****                     /* Validate descriptor 0 and command to start with it. */
2006:.\Generated_Source\PSoC5/USBUART.c ****                     USBUART_CyDmaValidateDescriptor(channelNum, USBUART_DMA_DESCR0);
2007:.\Generated_Source\PSoC5/USBUART.c ****                     USBUART_CyDmaSetDescriptor0Next(channelNum);
2008:.\Generated_Source\PSoC5/USBUART.c **** 
2009:.\Generated_Source\PSoC5/USBUART.c ****                     /* Enable DMA channel: configuration complete. */
2010:.\Generated_Source\PSoC5/USBUART.c ****                     USBUART_CyDmaChEnable(channelNum);
2011:.\Generated_Source\PSoC5/USBUART.c **** 
2012:.\Generated_Source\PSoC5/USBUART.c ****                 #if !defined (USBUART_MANUAL_IN_EP_ARM)
2013:.\Generated_Source\PSoC5/USBUART.c ****                     /* Set IN data ready to generate DMA request to load data into endpoint buffer.
2014:.\Generated_Source\PSoC5/USBUART.c ****                     USBUART_ARB_EP_BASE.arbEp[epNumber].epCfg |= USBUART_ARB_EPX_CFG_IN_DATA_RDY;
2015:.\Generated_Source\PSoC5/USBUART.c ****                 #endif  /* (USBUART_MANUAL_IN_EP_ARM) */
2016:.\Generated_Source\PSoC5/USBUART.c **** 
2017:.\Generated_Source\PSoC5/USBUART.c ****                     /* IN endpoint will be armed in ARB_ISR(source: IN_BUF_FULL) after first DMA tr
2018:.\Generated_Source\PSoC5/USBUART.c ****                 }
2019:.\Generated_Source\PSoC5/USBUART.c ****                 else
2020:.\Generated_Source\PSoC5/USBUART.c ****                 {
2021:.\Generated_Source\PSoC5/USBUART.c ****                     /* When zero-length packet: arm IN endpoint directly. */
ARM GAS  C:\Users\Tim\AppData\Local\Temp\ccA4EuzY.s 			page 53


2022:.\Generated_Source\PSoC5/USBUART.c ****                     USBUART_SIE_EP_BASE.sieEp[epNumber].epCr0 = USBUART_EP[epNumber].epMode;
2023:.\Generated_Source\PSoC5/USBUART.c ****                 }
2024:.\Generated_Source\PSoC5/USBUART.c ****             }
2025:.\Generated_Source\PSoC5/USBUART.c ****         #endif /* (USBUART_EP_MANAGEMENT_DMA_AUTO) */
2026:.\Generated_Source\PSoC5/USBUART.c ****     #endif /* (USBUART_EP_MANAGEMENT_MANUAL) */
2027:.\Generated_Source\PSoC5/USBUART.c ****     }
2028:.\Generated_Source\PSoC5/USBUART.c **** }
2029:.\Generated_Source\PSoC5/USBUART.c **** 
2030:.\Generated_Source\PSoC5/USBUART.c **** 
2031:.\Generated_Source\PSoC5/USBUART.c **** /*******************************************************************************
2032:.\Generated_Source\PSoC5/USBUART.c **** * Function Name: USBUART_ReadOutEP16
2033:.\Generated_Source\PSoC5/USBUART.c **** ****************************************************************************//**
2034:.\Generated_Source\PSoC5/USBUART.c **** *
2035:.\Generated_Source\PSoC5/USBUART.c **** *   This function performs different functionality depending on the Component’s
2036:.\Generated_Source\PSoC5/USBUART.c **** *   configured Endpoint Buffer Management. This parameter is defined in the
2037:.\Generated_Source\PSoC5/USBUART.c **** *   Descriptor Root in Component Configure window.
2038:.\Generated_Source\PSoC5/USBUART.c **** *
2039:.\Generated_Source\PSoC5/USBUART.c **** *   *Manual (Static/Dynamic Allocation):*
2040:.\Generated_Source\PSoC5/USBUART.c **** *   This function moves the specified number of bytes from endpoint buffer to
2041:.\Generated_Source\PSoC5/USBUART.c **** *   system RAM. The number of bytes actually transferred from endpoint buffer to
2042:.\Generated_Source\PSoC5/USBUART.c **** *   system RAM is the lesser of the actual number of bytes sent by the host or
2043:.\Generated_Source\PSoC5/USBUART.c **** *   the number of bytes requested by the length parameter.
2044:.\Generated_Source\PSoC5/USBUART.c **** *
2045:.\Generated_Source\PSoC5/USBUART.c **** *   *DMA with Manual Buffer Management:*
2046:.\Generated_Source\PSoC5/USBUART.c **** *   Configure DMA to transfer data from endpoint buffer to system RAM. Generate
2047:.\Generated_Source\PSoC5/USBUART.c **** *   a DMA request. The firmware must wait until the DMA completes the data
2048:.\Generated_Source\PSoC5/USBUART.c **** *   transfer after calling the USBUART_ReadOutEP() API. For example,
2049:.\Generated_Source\PSoC5/USBUART.c **** *   by checking EPstate:
2050:.\Generated_Source\PSoC5/USBUART.c **** *
2051:.\Generated_Source\PSoC5/USBUART.c **** *   \snippet /USBFS_sut_02.cydsn/main.c checking EPstatey
2052:.\Generated_Source\PSoC5/USBUART.c **** *
2053:.\Generated_Source\PSoC5/USBUART.c **** *   The USBFS_EnableOutEP() has to be called to allow host to write data into
2054:.\Generated_Source\PSoC5/USBUART.c **** *   the endpoint buffer after DMA has completed transfer data from OUT endpoint
2055:.\Generated_Source\PSoC5/USBUART.c **** *   buffer to SRAM.
2056:.\Generated_Source\PSoC5/USBUART.c **** *
2057:.\Generated_Source\PSoC5/USBUART.c **** *   *DMA with Automatic Buffer Management:*
2058:.\Generated_Source\PSoC5/USBUART.c **** *   Configure DMA. This is required only once and automatically generates DMA
2059:.\Generated_Source\PSoC5/USBUART.c **** *   requests as data arrives
2060:.\Generated_Source\PSoC5/USBUART.c **** *
2061:.\Generated_Source\PSoC5/USBUART.c **** *  \param epNumber: Contains the data endpoint number.
2062:.\Generated_Source\PSoC5/USBUART.c **** *         Valid values are between 1 and 8.
2063:.\Generated_Source\PSoC5/USBUART.c **** *  \param pData: A pointer to a data array into which the data for the endpoint
2064:.\Generated_Source\PSoC5/USBUART.c **** *         space is copied. It shall be ensured that this pointer address is
2065:.\Generated_Source\PSoC5/USBUART.c **** *         even to ensure the 16-bit transfer is aligned to even address. Else,
2066:.\Generated_Source\PSoC5/USBUART.c **** *         a hard fault condition can occur.
2067:.\Generated_Source\PSoC5/USBUART.c **** *  \param length: The number of bytes to transfer from the USB Out endpoint and
2068:.\Generated_Source\PSoC5/USBUART.c **** *         loads it into data array. Valid values are between 0 and 1023. The
2069:.\Generated_Source\PSoC5/USBUART.c **** *         function moves fewer than the requested number of bytes if the host
2070:.\Generated_Source\PSoC5/USBUART.c **** *         sends fewer bytes than requested.
2071:.\Generated_Source\PSoC5/USBUART.c **** *
2072:.\Generated_Source\PSoC5/USBUART.c **** * \return
2073:.\Generated_Source\PSoC5/USBUART.c **** *  Number of bytes received, 0 for an invalid endpoint.
2074:.\Generated_Source\PSoC5/USBUART.c **** *
2075:.\Generated_Source\PSoC5/USBUART.c **** * \reentrant
2076:.\Generated_Source\PSoC5/USBUART.c **** *  No.
2077:.\Generated_Source\PSoC5/USBUART.c **** *
2078:.\Generated_Source\PSoC5/USBUART.c **** *******************************************************************************/
ARM GAS  C:\Users\Tim\AppData\Local\Temp\ccA4EuzY.s 			page 54


2079:.\Generated_Source\PSoC5/USBUART.c **** uint16 USBUART_ReadOutEP16(uint8 epNumber, uint8 pData[], uint16 length)
2080:.\Generated_Source\PSoC5/USBUART.c **** {
2081:.\Generated_Source\PSoC5/USBUART.c ****     uint32 adjLength;
2082:.\Generated_Source\PSoC5/USBUART.c **** 
2083:.\Generated_Source\PSoC5/USBUART.c ****     /* Check array alignment on half-word boundary */
2084:.\Generated_Source\PSoC5/USBUART.c ****     CYASSERT(0u == (((uint32) pData) & 0x01u));
2085:.\Generated_Source\PSoC5/USBUART.c **** 
2086:.\Generated_Source\PSoC5/USBUART.c ****     if ((pData != NULL) && (epNumber > USBUART_EP0) && (epNumber < USBUART_MAX_EP))
2087:.\Generated_Source\PSoC5/USBUART.c ****     {
2088:.\Generated_Source\PSoC5/USBUART.c ****     #if (!USBUART_EP_MANAGEMENT_DMA_AUTO)
2089:.\Generated_Source\PSoC5/USBUART.c ****         /* Adjust requested length to available data. */
2090:.\Generated_Source\PSoC5/USBUART.c ****         length = (length > USBUART_GetEPCount(epNumber)) ? USBUART_GetEPCount(epNumber) : length;
2091:.\Generated_Source\PSoC5/USBUART.c ****     #endif /* (!USBUART_EP_MANAGEMENT_DMA_AUTO) */
2092:.\Generated_Source\PSoC5/USBUART.c **** 
2093:.\Generated_Source\PSoC5/USBUART.c ****     /* Adjust requested length: 2 bytes are handled at one data register access. */
2094:.\Generated_Source\PSoC5/USBUART.c ****     adjLength =  length + ((uint32)length & 1u);
2095:.\Generated_Source\PSoC5/USBUART.c **** 
2096:.\Generated_Source\PSoC5/USBUART.c ****     #if (USBUART_EP_MANAGEMENT_MANUAL)
2097:.\Generated_Source\PSoC5/USBUART.c ****         {
2098:.\Generated_Source\PSoC5/USBUART.c ****             /* Convert uint8 array to uint16. */
2099:.\Generated_Source\PSoC5/USBUART.c ****             uint16 *dataBuf = (uint16 *) pData;
2100:.\Generated_Source\PSoC5/USBUART.c **** 
2101:.\Generated_Source\PSoC5/USBUART.c ****             /* Copy data using 16-bits arbiter data register. */
2102:.\Generated_Source\PSoC5/USBUART.c ****             uint16 i;
2103:.\Generated_Source\PSoC5/USBUART.c ****             for (i = 0u; i < (adjLength >> 1u); ++i)
2104:.\Generated_Source\PSoC5/USBUART.c ****             {
2105:.\Generated_Source\PSoC5/USBUART.c ****                 dataBuf[i] = (uint16) USBUART_ARB_EP16_BASE.arbEp[epNumber].rwDr16;
2106:.\Generated_Source\PSoC5/USBUART.c ****             }
2107:.\Generated_Source\PSoC5/USBUART.c ****         }
2108:.\Generated_Source\PSoC5/USBUART.c **** 
2109:.\Generated_Source\PSoC5/USBUART.c ****         /* Arm OUT endpoint after data has been read from endpoint buffer. */
2110:.\Generated_Source\PSoC5/USBUART.c ****         USBUART_EnableOutEP(epNumber);
2111:.\Generated_Source\PSoC5/USBUART.c ****     #else
2112:.\Generated_Source\PSoC5/USBUART.c **** 
2113:.\Generated_Source\PSoC5/USBUART.c ****         #if (USBUART_EP_MANAGEMENT_DMA_MANUAL)
2114:.\Generated_Source\PSoC5/USBUART.c ****         {
2115:.\Generated_Source\PSoC5/USBUART.c ****             uint32 channelNum = (uint32) USBUART_DmaChan[epNumber];
2116:.\Generated_Source\PSoC5/USBUART.c **** 
2117:.\Generated_Source\PSoC5/USBUART.c ****             /* Disable DMA channel: start configuration. */
2118:.\Generated_Source\PSoC5/USBUART.c ****             USBUART_CyDmaChDisable(channelNum);
2119:.\Generated_Source\PSoC5/USBUART.c **** 
2120:.\Generated_Source\PSoC5/USBUART.c ****             /* Configure source and destination. */
2121:.\Generated_Source\PSoC5/USBUART.c ****             USBUART_CyDmaSetSrcAddress(channelNum, USBUART_DMA_DESCR0, (void*) &USBUART_ARB_EP16_BA
2122:.\Generated_Source\PSoC5/USBUART.c ****             USBUART_CyDmaSetDstAddress(channelNum, USBUART_DMA_DESCR0, (void*) pData);
2123:.\Generated_Source\PSoC5/USBUART.c **** 
2124:.\Generated_Source\PSoC5/USBUART.c ****             /* Configure DMA descriptor. */
2125:.\Generated_Source\PSoC5/USBUART.c ****             USBUART_CyDmaSetConfiguration(channelNum, USBUART_DMA_DESCR0, USBUART_DMA_COMMON_CFG | 
2126:.\Generated_Source\PSoC5/USBUART.c ****                                                     CYDMA_HALFWORD | CYDMA_WORD_ELEMENT | CYDMA_INC
2127:.\Generated_Source\PSoC5/USBUART.c **** 
2128:.\Generated_Source\PSoC5/USBUART.c ****             /* Validate descriptor to execute on following DMA request. */
2129:.\Generated_Source\PSoC5/USBUART.c ****             USBUART_CyDmaValidateDescriptor(channelNum, USBUART_DMA_DESCR0);
2130:.\Generated_Source\PSoC5/USBUART.c **** 
2131:.\Generated_Source\PSoC5/USBUART.c ****             /* Enable DMA channel: configuration complete. */
2132:.\Generated_Source\PSoC5/USBUART.c ****             USBUART_CyDmaChEnable(channelNum);
2133:.\Generated_Source\PSoC5/USBUART.c **** 
2134:.\Generated_Source\PSoC5/USBUART.c ****             /* Generate DMA request. */
2135:.\Generated_Source\PSoC5/USBUART.c ****             USBUART_ARB_EP_BASE.arbEp[epNumber].epCfg |=  (uint32)  USBUART_ARB_EPX_CFG_DMA_REQ;
ARM GAS  C:\Users\Tim\AppData\Local\Temp\ccA4EuzY.s 			page 55


2136:.\Generated_Source\PSoC5/USBUART.c ****             USBUART_ARB_EP_BASE.arbEp[epNumber].epCfg &=  (uint32) ~USBUART_ARB_EPX_CFG_DMA_REQ;
2137:.\Generated_Source\PSoC5/USBUART.c **** 
2138:.\Generated_Source\PSoC5/USBUART.c ****             /* OUT endpoint has to be armed again by user when DMA transfers have been completed.
2139:.\Generated_Source\PSoC5/USBUART.c ****             * NO_EVENT_PENDING: notifies that data has been copied from endpoint buffer.
2140:.\Generated_Source\PSoC5/USBUART.c ****             */
2141:.\Generated_Source\PSoC5/USBUART.c ****         }
2142:.\Generated_Source\PSoC5/USBUART.c ****         #endif /* (USBUART_EP_MANAGEMENT_DMA_MANUAL) */
2143:.\Generated_Source\PSoC5/USBUART.c **** 
2144:.\Generated_Source\PSoC5/USBUART.c ****         #if (USBUART_EP_MANAGEMENT_DMA_AUTO)
2145:.\Generated_Source\PSoC5/USBUART.c ****         {
2146:.\Generated_Source\PSoC5/USBUART.c ****             uint32 lengthDescr0, lengthDescr1;
2147:.\Generated_Source\PSoC5/USBUART.c ****             uint32 channelNum = (uint32) USBUART_DmaChan[epNumber];
2148:.\Generated_Source\PSoC5/USBUART.c **** 
2149:.\Generated_Source\PSoC5/USBUART.c ****             /* Get number of full bursts. */
2150:.\Generated_Source\PSoC5/USBUART.c ****             USBUART_DmaEpBurstCnt[epNumber] = (uint8) (adjLength / USBUART_DMA_BYTES_PER_BURST);
2151:.\Generated_Source\PSoC5/USBUART.c **** 
2152:.\Generated_Source\PSoC5/USBUART.c ****             /* Get number of elements in last burst. */
2153:.\Generated_Source\PSoC5/USBUART.c ****             USBUART_DmaEpLastBurstEl[epNumber] = (uint8) (adjLength % USBUART_DMA_BYTES_PER_BURST);
2154:.\Generated_Source\PSoC5/USBUART.c **** 
2155:.\Generated_Source\PSoC5/USBUART.c ****             /* Get total number of bursts. */
2156:.\Generated_Source\PSoC5/USBUART.c ****             USBUART_DmaEpBurstCnt[epNumber] += (0u != USBUART_DmaEpLastBurstEl[epNumber]) ? 1u : 0u
2157:.\Generated_Source\PSoC5/USBUART.c **** 
2158:.\Generated_Source\PSoC5/USBUART.c ****             /* Adjust number of data elements transferred in last burst. */
2159:.\Generated_Source\PSoC5/USBUART.c ****             USBUART_DmaEpLastBurstEl[epNumber] = (0u != USBUART_DmaEpLastBurstEl[epNumber]) ?
2160:.\Generated_Source\PSoC5/USBUART.c ****                                                                   ((USBUART_DmaEpLastBurstEl[epNumb
2161:.\Generated_Source\PSoC5/USBUART.c ****                                                                    (USBUART_DMA_HALFWORDS_PER_BURST
2162:.\Generated_Source\PSoC5/USBUART.c **** 
2163:.\Generated_Source\PSoC5/USBUART.c ****             /* Get number of data elements to transfer for descriptor 0 and 1. */
2164:.\Generated_Source\PSoC5/USBUART.c ****             lengthDescr0 = (1u == USBUART_DmaEpBurstCnt[epNumber]) ? USBUART_DmaEpLastBurstEl[epNum
2165:.\Generated_Source\PSoC5/USBUART.c ****             lengthDescr1 = (2u == USBUART_DmaEpBurstCnt[epNumber]) ? USBUART_DmaEpLastBurstEl[epNum
2166:.\Generated_Source\PSoC5/USBUART.c **** 
2167:.\Generated_Source\PSoC5/USBUART.c ****             /* Mark last descriptor to be executed. */
2168:.\Generated_Source\PSoC5/USBUART.c ****             USBUART_DmaEpLastBurstEl[epNumber] |= (0u != (USBUART_DmaEpBurstCnt[epNumber] & 0x1u)) 
2169:.\Generated_Source\PSoC5/USBUART.c ****                                                                     USBUART_DMA_DESCR0_MASK : USBUA
2170:.\Generated_Source\PSoC5/USBUART.c **** 
2171:.\Generated_Source\PSoC5/USBUART.c ****             /* Mark if revert number of data elements in descriptor after transfer completion. */
2172:.\Generated_Source\PSoC5/USBUART.c ****             USBUART_DmaEpLastBurstEl[epNumber] |= (USBUART_DmaEpBurstCnt[epNumber] > 2u) ? USBUART_
2173:.\Generated_Source\PSoC5/USBUART.c **** 
2174:.\Generated_Source\PSoC5/USBUART.c ****             /* Mark that 16-bits access to data register is performed. */
2175:.\Generated_Source\PSoC5/USBUART.c ****             USBUART_DmaEpLastBurstEl[epNumber] |= USBUART_DMA_DESCR_16BITS;
2176:.\Generated_Source\PSoC5/USBUART.c **** 
2177:.\Generated_Source\PSoC5/USBUART.c ****             /* Adjust burst counter taking to account: 2 valid descriptors and interrupt trigger af
2178:.\Generated_Source\PSoC5/USBUART.c ****             USBUART_DmaEpBurstCnt[epNumber] = USBUART_DMA_GET_BURST_CNT(USBUART_DmaEpBurstCnt[epNum
2179:.\Generated_Source\PSoC5/USBUART.c **** 
2180:.\Generated_Source\PSoC5/USBUART.c ****             /* Store address of buffer and burst counter for endpoint. */
2181:.\Generated_Source\PSoC5/USBUART.c ****             USBUART_DmaEpBufferAddrBackup[epNumber] = (uint32) pData;
2182:.\Generated_Source\PSoC5/USBUART.c ****             USBUART_DmaEpBurstCntBackup[epNumber]   = USBUART_DmaEpBurstCnt[epNumber];
2183:.\Generated_Source\PSoC5/USBUART.c **** 
2184:.\Generated_Source\PSoC5/USBUART.c ****             /* Disable DMA channel: start configuration. */
2185:.\Generated_Source\PSoC5/USBUART.c ****             USBUART_CyDmaChDisable(channelNum);
2186:.\Generated_Source\PSoC5/USBUART.c **** 
2187:.\Generated_Source\PSoC5/USBUART.c ****             /* Set destination address. */
2188:.\Generated_Source\PSoC5/USBUART.c ****             USBUART_CyDmaSetSrcAddress(channelNum, USBUART_DMA_DESCR0, (void*) &USBUART_ARB_EP16_BA
2189:.\Generated_Source\PSoC5/USBUART.c ****             USBUART_CyDmaSetSrcAddress(channelNum, USBUART_DMA_DESCR1, (void*) &USBUART_ARB_EP16_BA
2190:.\Generated_Source\PSoC5/USBUART.c **** 
2191:.\Generated_Source\PSoC5/USBUART.c ****             USBUART_CyDmaSetDstAddress(channelNum, USBUART_DMA_DESCR0, (void*) ((uint32) pData));
2192:.\Generated_Source\PSoC5/USBUART.c ****             USBUART_CyDmaSetDstAddress(channelNum, USBUART_DMA_DESCR1, (void*) ((uint32) pData + US
ARM GAS  C:\Users\Tim\AppData\Local\Temp\ccA4EuzY.s 			page 56


2193:.\Generated_Source\PSoC5/USBUART.c **** 
2194:.\Generated_Source\PSoC5/USBUART.c ****             /* Configure DMA descriptor 0. */
2195:.\Generated_Source\PSoC5/USBUART.c ****             USBUART_CyDmaSetConfiguration(channelNum, USBUART_DMA_DESCR0, USBUART_DMA_COMMON_CFG  |
2196:.\Generated_Source\PSoC5/USBUART.c ****                                                     CYDMA_HALFWORD | CYDMA_WORD_ELEMENT | CYDMA_INC
2197:.\Generated_Source\PSoC5/USBUART.c **** 
2198:.\Generated_Source\PSoC5/USBUART.c ****             /* Configure DMA descriptor 1. */
2199:.\Generated_Source\PSoC5/USBUART.c ****             USBUART_CyDmaSetConfiguration(channelNum, USBUART_DMA_DESCR1, USBUART_DMA_COMMON_CFG  |
2200:.\Generated_Source\PSoC5/USBUART.c ****                                                     CYDMA_HALFWORD | CYDMA_WORD_ELEMENT | CYDMA_INC
2201:.\Generated_Source\PSoC5/USBUART.c **** 
2202:.\Generated_Source\PSoC5/USBUART.c ****             /* Enable interrupt from DMA channel. */
2203:.\Generated_Source\PSoC5/USBUART.c ****             USBUART_CyDmaSetInterruptMask(channelNum);
2204:.\Generated_Source\PSoC5/USBUART.c **** 
2205:.\Generated_Source\PSoC5/USBUART.c ****             /* Validate DMA descriptor 0 and 1. */
2206:.\Generated_Source\PSoC5/USBUART.c ****             USBUART_CyDmaValidateDescriptor(channelNum, USBUART_DMA_DESCR0);
2207:.\Generated_Source\PSoC5/USBUART.c ****             USBUART_CyDmaValidateDescriptor(channelNum, USBUART_DMA_DESCR1);
2208:.\Generated_Source\PSoC5/USBUART.c **** 
2209:.\Generated_Source\PSoC5/USBUART.c ****             /* Enable DMA channel: configuration complete. */
2210:.\Generated_Source\PSoC5/USBUART.c ****             USBUART_CyDmaChEnable(channelNum);
2211:.\Generated_Source\PSoC5/USBUART.c **** 
2212:.\Generated_Source\PSoC5/USBUART.c ****             /* OUT endpoint has to be armed again by user when DMA transfers have been completed.
2213:.\Generated_Source\PSoC5/USBUART.c ****             * NO_EVENT_PENDING: notifies that data has been copied from endpoint buffer.
2214:.\Generated_Source\PSoC5/USBUART.c ****             */
2215:.\Generated_Source\PSoC5/USBUART.c ****         }
2216:.\Generated_Source\PSoC5/USBUART.c ****         #endif /* (USBUART_EP_MANAGEMENT_DMA_AUTO) */
2217:.\Generated_Source\PSoC5/USBUART.c ****     #endif /* (USBUART_EP_MANAGEMENT_MANUAL) */
2218:.\Generated_Source\PSoC5/USBUART.c ****     }
2219:.\Generated_Source\PSoC5/USBUART.c ****     else
2220:.\Generated_Source\PSoC5/USBUART.c ****     {
2221:.\Generated_Source\PSoC5/USBUART.c ****         length = 0u;
2222:.\Generated_Source\PSoC5/USBUART.c ****     }
2223:.\Generated_Source\PSoC5/USBUART.c **** 
2224:.\Generated_Source\PSoC5/USBUART.c ****     return (length);
2225:.\Generated_Source\PSoC5/USBUART.c **** }
2226:.\Generated_Source\PSoC5/USBUART.c **** #endif /* (USBUART_16BITS_EP_ACCESS_ENABLE) */
2227:.\Generated_Source\PSoC5/USBUART.c **** 
2228:.\Generated_Source\PSoC5/USBUART.c **** 
2229:.\Generated_Source\PSoC5/USBUART.c **** /*******************************************************************************
2230:.\Generated_Source\PSoC5/USBUART.c **** * Function Name: USBUART_EnableOutEP
2231:.\Generated_Source\PSoC5/USBUART.c **** ****************************************************************************//**
2232:.\Generated_Source\PSoC5/USBUART.c **** *
2233:.\Generated_Source\PSoC5/USBUART.c **** *  This function enables the specified endpoint for OUT transfers. Do not call
2234:.\Generated_Source\PSoC5/USBUART.c **** *  this function for IN endpoints.
2235:.\Generated_Source\PSoC5/USBUART.c **** *
2236:.\Generated_Source\PSoC5/USBUART.c **** *  \param epNumber: Contains the data endpoint number. Valid values are between
2237:.\Generated_Source\PSoC5/USBUART.c **** *  1 and 8.
2238:.\Generated_Source\PSoC5/USBUART.c **** *
2239:.\Generated_Source\PSoC5/USBUART.c **** * \globalvars
2240:.\Generated_Source\PSoC5/USBUART.c **** *
2241:.\Generated_Source\PSoC5/USBUART.c **** *  \ref USBUART_EP[epNumber].apiEpState - set to NO_EVENT_PENDING
2242:.\Generated_Source\PSoC5/USBUART.c **** *
2243:.\Generated_Source\PSoC5/USBUART.c **** * \reentrant
2244:.\Generated_Source\PSoC5/USBUART.c **** *  No.
2245:.\Generated_Source\PSoC5/USBUART.c **** *
2246:.\Generated_Source\PSoC5/USBUART.c **** *******************************************************************************/
2247:.\Generated_Source\PSoC5/USBUART.c **** void USBUART_EnableOutEP(uint8 epNumber) 
2248:.\Generated_Source\PSoC5/USBUART.c **** {
 930              		.loc 1 2248 0
ARM GAS  C:\Users\Tim\AppData\Local\Temp\ccA4EuzY.s 			page 57


 931              		.cfi_startproc
 932              		@ args = 0, pretend = 0, frame = 0
 933              		@ frame_needed = 0, uses_anonymous_args = 0
 934              		@ link register save eliminated.
 935              	.LVL69:
2249:.\Generated_Source\PSoC5/USBUART.c ****     if ((epNumber > USBUART_EP0) && (epNumber < USBUART_MAX_EP))
 936              		.loc 1 2249 0
 937 0000 431E     		subs	r3, r0, #1
 938 0002 DBB2     		uxtb	r3, r3
 939 0004 072B     		cmp	r3, #7
 940 0006 0BD8     		bhi	.L65
2250:.\Generated_Source\PSoC5/USBUART.c ****     {
2251:.\Generated_Source\PSoC5/USBUART.c ****         USBUART_EP[epNumber].apiEpState = USBUART_NO_EVENT_PENDING;
 941              		.loc 1 2251 0
 942 0008 4300     		lsls	r3, r0, #1
 943 000a 0344     		add	r3, r3, r0
 944 000c 9B00     		lsls	r3, r3, #2
 945 000e 054A     		ldr	r2, .L67
 946 0010 1344     		add	r3, r3, r2
 947 0012 0022     		movs	r2, #0
 948 0014 5A70     		strb	r2, [r3, #1]
2252:.\Generated_Source\PSoC5/USBUART.c **** 
2253:.\Generated_Source\PSoC5/USBUART.c ****         /* Enable OUT endpoint to be written by Host. */
2254:.\Generated_Source\PSoC5/USBUART.c ****         USBUART_SIE_EP_BASE.sieEp[epNumber].epCr0 = USBUART_EP[epNumber].epMode;
 949              		.loc 1 2254 0
 950 0016 5A79     		ldrb	r2, [r3, #5]	@ zero_extendqisi2
 951 0018 D2B2     		uxtb	r2, r2
 952 001a 0001     		lsls	r0, r0, #4
 953              	.LVL70:
 954 001c 024B     		ldr	r3, .L67+4
 955 001e 1A54     		strb	r2, [r3, r0]
 956              	.L65:
 957 0020 7047     		bx	lr
 958              	.L68:
 959 0022 00BF     		.align	2
 960              	.L67:
 961 0024 00000000 		.word	USBUART_EP
 962 0028 FE5F0040 		.word	1073766398
 963              		.cfi_endproc
 964              	.LFE13:
 965              		.size	USBUART_EnableOutEP, .-USBUART_EnableOutEP
 966              		.section	.text.USBUART_ReadOutEP,"ax",%progbits
 967              		.align	2
 968              		.global	USBUART_ReadOutEP
 969              		.thumb
 970              		.thumb_func
 971              		.type	USBUART_ReadOutEP, %function
 972              	USBUART_ReadOutEP:
 973              	.LFB12:
1637:.\Generated_Source\PSoC5/USBUART.c ****     if ((pData != NULL) && (epNumber > USBUART_EP0) && (epNumber < USBUART_MAX_EP))
 974              		.loc 1 1637 0
 975              		.cfi_startproc
 976              		@ args = 0, pretend = 0, frame = 0
 977              		@ frame_needed = 0, uses_anonymous_args = 0
 978              	.LVL71:
 979 0000 70B5     		push	{r4, r5, r6, lr}
 980              		.cfi_def_cfa_offset 16
ARM GAS  C:\Users\Tim\AppData\Local\Temp\ccA4EuzY.s 			page 58


 981              		.cfi_offset 4, -16
 982              		.cfi_offset 5, -12
 983              		.cfi_offset 6, -8
 984              		.cfi_offset 14, -4
1638:.\Generated_Source\PSoC5/USBUART.c ****     {
 985              		.loc 1 1638 0
 986 0002 D9B1     		cbz	r1, .L74
 987 0004 0546     		mov	r5, r0
 988 0006 1446     		mov	r4, r2
 989 0008 0E46     		mov	r6, r1
1638:.\Generated_Source\PSoC5/USBUART.c ****     {
 990              		.loc 1 1638 0 is_stmt 0 discriminator 1
 991 000a C8B1     		cbz	r0, .L75
1638:.\Generated_Source\PSoC5/USBUART.c ****     {
 992              		.loc 1 1638 0 discriminator 2
 993 000c 0828     		cmp	r0, #8
 994 000e 19D8     		bhi	.L76
1642:.\Generated_Source\PSoC5/USBUART.c ****     #endif /* (!USBUART_EP_MANAGEMENT_DMA_AUTO) */
 995              		.loc 1 1642 0 is_stmt 1
 996 0010 FFF7FEFF 		bl	USBUART_GetEPCount
 997              	.LVL72:
 998 0014 A042     		cmp	r0, r4
 999 0016 03D2     		bcs	.L71
1642:.\Generated_Source\PSoC5/USBUART.c ****     #endif /* (!USBUART_EP_MANAGEMENT_DMA_AUTO) */
 1000              		.loc 1 1642 0 is_stmt 0 discriminator 1
 1001 0018 2846     		mov	r0, r5
 1002 001a FFF7FEFF 		bl	USBUART_GetEPCount
 1003              	.LVL73:
 1004 001e 0446     		mov	r4, r0
 1005              	.L71:
 1006              	.LVL74:
 1007              	.LBB4:
1649:.\Generated_Source\PSoC5/USBUART.c ****             {
 1008              		.loc 1 1649 0 is_stmt 1 discriminator 4
 1009 0020 0023     		movs	r3, #0
 1010 0022 05E0     		b	.L72
 1011              	.LVL75:
 1012              	.L73:
1651:.\Generated_Source\PSoC5/USBUART.c ****             }
 1013              		.loc 1 1651 0 discriminator 3
 1014 0024 2901     		lsls	r1, r5, #4
 1015 0026 094A     		ldr	r2, .L78
 1016 0028 525C     		ldrb	r2, [r2, r1]	@ zero_extendqisi2
 1017 002a F254     		strb	r2, [r6, r3]
1649:.\Generated_Source\PSoC5/USBUART.c ****             {
 1018              		.loc 1 1649 0 discriminator 3
 1019 002c 0133     		adds	r3, r3, #1
 1020              	.LVL76:
 1021 002e 9BB2     		uxth	r3, r3
 1022              	.LVL77:
 1023              	.L72:
1649:.\Generated_Source\PSoC5/USBUART.c ****             {
 1024              		.loc 1 1649 0 is_stmt 0 discriminator 1
 1025 0030 A342     		cmp	r3, r4
 1026 0032 F7D3     		bcc	.L73
 1027              	.LBE4:
1656:.\Generated_Source\PSoC5/USBUART.c ****     #else
ARM GAS  C:\Users\Tim\AppData\Local\Temp\ccA4EuzY.s 			page 59


 1028              		.loc 1 1656 0 is_stmt 1
 1029 0034 2846     		mov	r0, r5
 1030 0036 FFF7FEFF 		bl	USBUART_EnableOutEP
 1031              	.LVL78:
 1032 003a 04E0     		b	.L70
 1033              	.LVL79:
 1034              	.L74:
1798:.\Generated_Source\PSoC5/USBUART.c ****     }
 1035              		.loc 1 1798 0
 1036 003c 0024     		movs	r4, #0
 1037 003e 02E0     		b	.L70
 1038              	.L75:
 1039 0040 0024     		movs	r4, #0
 1040 0042 00E0     		b	.L70
 1041              	.L76:
 1042 0044 0024     		movs	r4, #0
 1043              	.LVL80:
 1044              	.L70:
1802:.\Generated_Source\PSoC5/USBUART.c **** 
 1045              		.loc 1 1802 0
 1046 0046 2046     		mov	r0, r4
 1047 0048 70BD     		pop	{r4, r5, r6, pc}
 1048              	.LVL81:
 1049              	.L79:
 1050 004a 00BF     		.align	2
 1051              	.L78:
 1052 004c 78600040 		.word	1073766520
 1053              		.cfi_endproc
 1054              	.LFE12:
 1055              		.size	USBUART_ReadOutEP, .-USBUART_ReadOutEP
 1056              		.section	.text.USBUART_DisableOutEP,"ax",%progbits
 1057              		.align	2
 1058              		.global	USBUART_DisableOutEP
 1059              		.thumb
 1060              		.thumb_func
 1061              		.type	USBUART_DisableOutEP, %function
 1062              	USBUART_DisableOutEP:
 1063              	.LFB14:
2255:.\Generated_Source\PSoC5/USBUART.c ****         
2256:.\Generated_Source\PSoC5/USBUART.c ****     }
2257:.\Generated_Source\PSoC5/USBUART.c **** }
2258:.\Generated_Source\PSoC5/USBUART.c **** 
2259:.\Generated_Source\PSoC5/USBUART.c **** 
2260:.\Generated_Source\PSoC5/USBUART.c **** /*******************************************************************************
2261:.\Generated_Source\PSoC5/USBUART.c **** * Function Name: USBUART_DisableOutEP
2262:.\Generated_Source\PSoC5/USBUART.c **** ****************************************************************************//**
2263:.\Generated_Source\PSoC5/USBUART.c **** *
2264:.\Generated_Source\PSoC5/USBUART.c **** *  This function disables the specified USBFS OUT endpoint. Do not call this
2265:.\Generated_Source\PSoC5/USBUART.c **** *  function for IN endpoints.
2266:.\Generated_Source\PSoC5/USBUART.c **** *
2267:.\Generated_Source\PSoC5/USBUART.c **** *  \param epNumber: Contains the data endpoint number.
2268:.\Generated_Source\PSoC5/USBUART.c **** *            Valid values are between 1 and 8.
2269:.\Generated_Source\PSoC5/USBUART.c **** *
2270:.\Generated_Source\PSoC5/USBUART.c **** *******************************************************************************/
2271:.\Generated_Source\PSoC5/USBUART.c **** void USBUART_DisableOutEP(uint8 epNumber) 
2272:.\Generated_Source\PSoC5/USBUART.c **** {
 1064              		.loc 1 2272 0
ARM GAS  C:\Users\Tim\AppData\Local\Temp\ccA4EuzY.s 			page 60


 1065              		.cfi_startproc
 1066              		@ args = 0, pretend = 0, frame = 0
 1067              		@ frame_needed = 0, uses_anonymous_args = 0
 1068              		@ link register save eliminated.
 1069              	.LVL82:
2273:.\Generated_Source\PSoC5/USBUART.c ****     if ((epNumber > USBUART_EP0) && (epNumber < USBUART_MAX_EP))
 1070              		.loc 1 2273 0
 1071 0000 431E     		subs	r3, r0, #1
 1072 0002 DBB2     		uxtb	r3, r3
 1073 0004 072B     		cmp	r3, #7
 1074 0006 03D8     		bhi	.L80
2274:.\Generated_Source\PSoC5/USBUART.c ****     {
2275:.\Generated_Source\PSoC5/USBUART.c ****         /* Set NAK response for OUT endpoint. */
2276:.\Generated_Source\PSoC5/USBUART.c ****         USBUART_SIE_EP_BASE.sieEp[epNumber].epCr0 = USBUART_MODE_NAK_OUT;
 1075              		.loc 1 2276 0
 1076 0008 0001     		lsls	r0, r0, #4
 1077              	.LVL83:
 1078 000a 024B     		ldr	r3, .L82
 1079 000c 0822     		movs	r2, #8
 1080 000e 1A54     		strb	r2, [r3, r0]
 1081              	.L80:
 1082 0010 7047     		bx	lr
 1083              	.L83:
 1084 0012 00BF     		.align	2
 1085              	.L82:
 1086 0014 FE5F0040 		.word	1073766398
 1087              		.cfi_endproc
 1088              	.LFE14:
 1089              		.size	USBUART_DisableOutEP, .-USBUART_DisableOutEP
 1090              		.section	.text.USBUART_Force,"ax",%progbits
 1091              		.align	2
 1092              		.global	USBUART_Force
 1093              		.thumb
 1094              		.thumb_func
 1095              		.type	USBUART_Force, %function
 1096              	USBUART_Force:
 1097              	.LFB15:
2277:.\Generated_Source\PSoC5/USBUART.c ****     }
2278:.\Generated_Source\PSoC5/USBUART.c **** }
2279:.\Generated_Source\PSoC5/USBUART.c **** 
2280:.\Generated_Source\PSoC5/USBUART.c **** 
2281:.\Generated_Source\PSoC5/USBUART.c **** /*******************************************************************************
2282:.\Generated_Source\PSoC5/USBUART.c **** * Function Name: USBUART_Force
2283:.\Generated_Source\PSoC5/USBUART.c **** ****************************************************************************//**
2284:.\Generated_Source\PSoC5/USBUART.c **** *
2285:.\Generated_Source\PSoC5/USBUART.c **** *  This function forces a USB J, K, or SE0 state on the D+/D– lines. It provides
2286:.\Generated_Source\PSoC5/USBUART.c **** *  the necessary mechanism for a USB device application to perform a USB Remote
2287:.\Generated_Source\PSoC5/USBUART.c **** *  Wakeup. For more information, see the USB 2.0 Specification for details on
2288:.\Generated_Source\PSoC5/USBUART.c **** *  Suspend and Resume.
2289:.\Generated_Source\PSoC5/USBUART.c **** *
2290:.\Generated_Source\PSoC5/USBUART.c **** *  \param state A byte indicating which of the four bus states to enable.
2291:.\Generated_Source\PSoC5/USBUART.c **** *        Symbolic names  and their associated values are listed here:
2292:.\Generated_Source\PSoC5/USBUART.c **** *    State                      |Description
2293:.\Generated_Source\PSoC5/USBUART.c **** *    ---------------------------|----------------------------------------------
2294:.\Generated_Source\PSoC5/USBUART.c **** *    USBUART_FORCE_J   | Force a J State onto the D+/D– lines
2295:.\Generated_Source\PSoC5/USBUART.c **** *    USBUART_FORCE_K   | Force a K State onto the D+/D– lines
2296:.\Generated_Source\PSoC5/USBUART.c **** *    USBUART_FORCE_SE0 | Force a Single Ended 0 onto the D+/D– lines
ARM GAS  C:\Users\Tim\AppData\Local\Temp\ccA4EuzY.s 			page 61


2297:.\Generated_Source\PSoC5/USBUART.c **** *    USBUART_FORCE_NONE| Return bus to SIE control
2298:.\Generated_Source\PSoC5/USBUART.c **** *
2299:.\Generated_Source\PSoC5/USBUART.c **** *
2300:.\Generated_Source\PSoC5/USBUART.c **** *******************************************************************************/
2301:.\Generated_Source\PSoC5/USBUART.c **** void USBUART_Force(uint8 bState) 
2302:.\Generated_Source\PSoC5/USBUART.c **** {
 1098              		.loc 1 2302 0
 1099              		.cfi_startproc
 1100              		@ args = 0, pretend = 0, frame = 0
 1101              		@ frame_needed = 0, uses_anonymous_args = 0
 1102              		@ link register save eliminated.
 1103              	.LVL84:
2303:.\Generated_Source\PSoC5/USBUART.c ****     /* This registers is used only for manual control of SIE (no masking is
2304:.\Generated_Source\PSoC5/USBUART.c ****     * needed before write into it).
2305:.\Generated_Source\PSoC5/USBUART.c ****     */
2306:.\Generated_Source\PSoC5/USBUART.c ****     USBUART_USBIO_CR0_REG = bState;
 1104              		.loc 1 2306 0
 1105 0000 014B     		ldr	r3, .L85
 1106 0002 1870     		strb	r0, [r3]
 1107 0004 7047     		bx	lr
 1108              	.L86:
 1109 0006 00BF     		.align	2
 1110              	.L85:
 1111 0008 10600040 		.word	1073766416
 1112              		.cfi_endproc
 1113              	.LFE15:
 1114              		.size	USBUART_Force, .-USBUART_Force
 1115              		.section	.text.USBUART_GetEPAckState,"ax",%progbits
 1116              		.align	2
 1117              		.global	USBUART_GetEPAckState
 1118              		.thumb
 1119              		.thumb_func
 1120              		.type	USBUART_GetEPAckState, %function
 1121              	USBUART_GetEPAckState:
 1122              	.LFB16:
2307:.\Generated_Source\PSoC5/USBUART.c **** }
2308:.\Generated_Source\PSoC5/USBUART.c **** 
2309:.\Generated_Source\PSoC5/USBUART.c **** 
2310:.\Generated_Source\PSoC5/USBUART.c **** /*******************************************************************************
2311:.\Generated_Source\PSoC5/USBUART.c **** * Function Name: USBUART_GetEPAckState
2312:.\Generated_Source\PSoC5/USBUART.c **** ****************************************************************************//**
2313:.\Generated_Source\PSoC5/USBUART.c **** *
2314:.\Generated_Source\PSoC5/USBUART.c **** *  This function determines whether an ACK transaction occurred on this endpoint
2315:.\Generated_Source\PSoC5/USBUART.c **** *  by reading the ACK bit in the control register of the endpoint. It does not
2316:.\Generated_Source\PSoC5/USBUART.c **** *  clear the ACK bit.
2317:.\Generated_Source\PSoC5/USBUART.c **** *
2318:.\Generated_Source\PSoC5/USBUART.c **** *  \param epNumber Contains the data endpoint number.
2319:.\Generated_Source\PSoC5/USBUART.c **** *            Valid values are between 1 and 8.
2320:.\Generated_Source\PSoC5/USBUART.c **** *
2321:.\Generated_Source\PSoC5/USBUART.c **** *  \return
2322:.\Generated_Source\PSoC5/USBUART.c **** *  If an ACKed transaction occurred, this function returns a non-zero value.
2323:.\Generated_Source\PSoC5/USBUART.c **** *  Otherwise, it returns zero.
2324:.\Generated_Source\PSoC5/USBUART.c **** *
2325:.\Generated_Source\PSoC5/USBUART.c **** *******************************************************************************/
2326:.\Generated_Source\PSoC5/USBUART.c **** uint8 USBUART_GetEPAckState(uint8 epNumber) 
2327:.\Generated_Source\PSoC5/USBUART.c **** {
 1123              		.loc 1 2327 0
ARM GAS  C:\Users\Tim\AppData\Local\Temp\ccA4EuzY.s 			page 62


 1124              		.cfi_startproc
 1125              		@ args = 0, pretend = 0, frame = 0
 1126              		@ frame_needed = 0, uses_anonymous_args = 0
 1127              		@ link register save eliminated.
 1128              	.LVL85:
2328:.\Generated_Source\PSoC5/USBUART.c ****     uint8 cr = 0u;
2329:.\Generated_Source\PSoC5/USBUART.c **** 
2330:.\Generated_Source\PSoC5/USBUART.c ****     if ((epNumber > USBUART_EP0) && (epNumber < USBUART_MAX_EP))
 1129              		.loc 1 2330 0
 1130 0000 431E     		subs	r3, r0, #1
 1131 0002 DBB2     		uxtb	r3, r3
 1132 0004 072B     		cmp	r3, #7
 1133 0006 06D8     		bhi	.L89
2331:.\Generated_Source\PSoC5/USBUART.c ****     {
2332:.\Generated_Source\PSoC5/USBUART.c ****         cr = USBUART_SIE_EP_BASE.sieEp[epNumber].epCr0 & USBUART_MODE_ACKD;
 1134              		.loc 1 2332 0
 1135 0008 0001     		lsls	r0, r0, #4
 1136              	.LVL86:
 1137 000a 044B     		ldr	r3, .L90
 1138 000c 185C     		ldrb	r0, [r3, r0]	@ zero_extendqisi2
 1139 000e 00F01000 		and	r0, r0, #16
 1140 0012 C0B2     		uxtb	r0, r0
 1141              	.LVL87:
 1142 0014 7047     		bx	lr
 1143              	.LVL88:
 1144              	.L89:
2328:.\Generated_Source\PSoC5/USBUART.c ****     uint8 cr = 0u;
 1145              		.loc 1 2328 0
 1146 0016 0020     		movs	r0, #0
 1147              	.LVL89:
2333:.\Generated_Source\PSoC5/USBUART.c ****     }
2334:.\Generated_Source\PSoC5/USBUART.c **** 
2335:.\Generated_Source\PSoC5/USBUART.c ****     return ((uint8) cr);
2336:.\Generated_Source\PSoC5/USBUART.c **** }
 1148              		.loc 1 2336 0
 1149 0018 7047     		bx	lr
 1150              	.L91:
 1151 001a 00BF     		.align	2
 1152              	.L90:
 1153 001c FE5F0040 		.word	1073766398
 1154              		.cfi_endproc
 1155              	.LFE16:
 1156              		.size	USBUART_GetEPAckState, .-USBUART_GetEPAckState
 1157              		.section	.text.USBUART_SetPowerStatus,"ax",%progbits
 1158              		.align	2
 1159              		.global	USBUART_SetPowerStatus
 1160              		.thumb
 1161              		.thumb_func
 1162              		.type	USBUART_SetPowerStatus, %function
 1163              	USBUART_SetPowerStatus:
 1164              	.LFB17:
2337:.\Generated_Source\PSoC5/USBUART.c **** 
2338:.\Generated_Source\PSoC5/USBUART.c **** 
2339:.\Generated_Source\PSoC5/USBUART.c **** /*******************************************************************************
2340:.\Generated_Source\PSoC5/USBUART.c **** * Function Name: USBUART_SetPowerStatus
2341:.\Generated_Source\PSoC5/USBUART.c **** ****************************************************************************//**
2342:.\Generated_Source\PSoC5/USBUART.c **** *
ARM GAS  C:\Users\Tim\AppData\Local\Temp\ccA4EuzY.s 			page 63


2343:.\Generated_Source\PSoC5/USBUART.c **** *  This function sets the current power status. The device replies to USB
2344:.\Generated_Source\PSoC5/USBUART.c **** *  GET_STATUS requests based on this value. This allows the device to properly
2345:.\Generated_Source\PSoC5/USBUART.c **** *  report its status for USB Chapter 9 compliance. Devices can change their
2346:.\Generated_Source\PSoC5/USBUART.c **** *  power source from self powered to bus powered at any time and report their
2347:.\Generated_Source\PSoC5/USBUART.c **** *  current power source as part of the device status. You should call this
2348:.\Generated_Source\PSoC5/USBUART.c **** *  function any time your device changes from self powered to bus powered or
2349:.\Generated_Source\PSoC5/USBUART.c **** *  vice versa, and set the status appropriately.
2350:.\Generated_Source\PSoC5/USBUART.c **** *
2351:.\Generated_Source\PSoC5/USBUART.c **** *  \param powerStatus: Contains the desired power status, one for self powered
2352:.\Generated_Source\PSoC5/USBUART.c **** *        or zero for bus powered. Symbolic names and their associated values are
2353:.\Generated_Source\PSoC5/USBUART.c **** *        given here:
2354:.\Generated_Source\PSoC5/USBUART.c **** *  Power Status                                |Description
2355:.\Generated_Source\PSoC5/USBUART.c **** *  --------------------------------------------|---------------------------
2356:.\Generated_Source\PSoC5/USBUART.c **** *  USBUART_DEVICE_STATUS_BUS_POWERED  | Set the device to bus powered
2357:.\Generated_Source\PSoC5/USBUART.c **** *  USBUART_DEVICE_STATUS_SELF_POWERED | Set the device to self powered
2358:.\Generated_Source\PSoC5/USBUART.c **** *
2359:.\Generated_Source\PSoC5/USBUART.c **** * \globalvars
2360:.\Generated_Source\PSoC5/USBUART.c **** *
2361:.\Generated_Source\PSoC5/USBUART.c **** *  \ref USBUART_deviceStatus - set power status
2362:.\Generated_Source\PSoC5/USBUART.c **** *
2363:.\Generated_Source\PSoC5/USBUART.c **** * \reentrant
2364:.\Generated_Source\PSoC5/USBUART.c **** *  No.
2365:.\Generated_Source\PSoC5/USBUART.c **** *
2366:.\Generated_Source\PSoC5/USBUART.c **** *******************************************************************************/
2367:.\Generated_Source\PSoC5/USBUART.c **** void USBUART_SetPowerStatus(uint8 powerStatus) 
2368:.\Generated_Source\PSoC5/USBUART.c **** {
 1165              		.loc 1 2368 0
 1166              		.cfi_startproc
 1167              		@ args = 0, pretend = 0, frame = 0
 1168              		@ frame_needed = 0, uses_anonymous_args = 0
 1169              		@ link register save eliminated.
 1170              	.LVL90:
2369:.\Generated_Source\PSoC5/USBUART.c ****     if (powerStatus != USBUART_DEVICE_STATUS_BUS_POWERED)
 1171              		.loc 1 2369 0
 1172 0000 28B1     		cbz	r0, .L93
2370:.\Generated_Source\PSoC5/USBUART.c ****     {
2371:.\Generated_Source\PSoC5/USBUART.c ****         USBUART_deviceStatus |= (uint8)  USBUART_DEVICE_STATUS_SELF_POWERED;
 1173              		.loc 1 2371 0
 1174 0002 064A     		ldr	r2, .L95
 1175 0004 1378     		ldrb	r3, [r2]	@ zero_extendqisi2
 1176 0006 43F00103 		orr	r3, r3, #1
 1177 000a 1370     		strb	r3, [r2]
 1178 000c 7047     		bx	lr
 1179              	.L93:
2372:.\Generated_Source\PSoC5/USBUART.c ****     }
2373:.\Generated_Source\PSoC5/USBUART.c ****     else
2374:.\Generated_Source\PSoC5/USBUART.c ****     {
2375:.\Generated_Source\PSoC5/USBUART.c ****         USBUART_deviceStatus &= (uint8) ~USBUART_DEVICE_STATUS_SELF_POWERED;
 1180              		.loc 1 2375 0
 1181 000e 034A     		ldr	r2, .L95
 1182 0010 1378     		ldrb	r3, [r2]	@ zero_extendqisi2
 1183 0012 03F0FE03 		and	r3, r3, #254
 1184 0016 1370     		strb	r3, [r2]
 1185 0018 7047     		bx	lr
 1186              	.L96:
 1187 001a 00BF     		.align	2
 1188              	.L95:
ARM GAS  C:\Users\Tim\AppData\Local\Temp\ccA4EuzY.s 			page 64


 1189 001c 00000000 		.word	USBUART_deviceStatus
 1190              		.cfi_endproc
 1191              	.LFE17:
 1192              		.size	USBUART_SetPowerStatus, .-USBUART_SetPowerStatus
 1193              		.section	.text.USBUART_RWUEnabled,"ax",%progbits
 1194              		.align	2
 1195              		.global	USBUART_RWUEnabled
 1196              		.thumb
 1197              		.thumb_func
 1198              		.type	USBUART_RWUEnabled, %function
 1199              	USBUART_RWUEnabled:
 1200              	.LFB18:
2376:.\Generated_Source\PSoC5/USBUART.c ****     }
2377:.\Generated_Source\PSoC5/USBUART.c **** }
2378:.\Generated_Source\PSoC5/USBUART.c **** 
2379:.\Generated_Source\PSoC5/USBUART.c **** 
2380:.\Generated_Source\PSoC5/USBUART.c **** #if (USBUART_VBUS_MONITORING_ENABLE)
2381:.\Generated_Source\PSoC5/USBUART.c ****     /***************************************************************************
2382:.\Generated_Source\PSoC5/USBUART.c ****     * Function Name: USBUART_VBusPresent
2383:.\Generated_Source\PSoC5/USBUART.c ****     ************************************************************************//**
2384:.\Generated_Source\PSoC5/USBUART.c ****     *
2385:.\Generated_Source\PSoC5/USBUART.c ****     *  Determines VBUS presence for self-powered devices. This function is
2386:.\Generated_Source\PSoC5/USBUART.c ****     *  available when the VBUS Monitoring option is enabled in the Advanced tab.
2387:.\Generated_Source\PSoC5/USBUART.c ****     *
2388:.\Generated_Source\PSoC5/USBUART.c ****     * \return
2389:.\Generated_Source\PSoC5/USBUART.c ****     *  The return value can be the following:
2390:.\Generated_Source\PSoC5/USBUART.c ****     *  Return Value | Description
2391:.\Generated_Source\PSoC5/USBUART.c ****     *  -------------|-----------------
2392:.\Generated_Source\PSoC5/USBUART.c ****     *  1            | VBUS is present
2393:.\Generated_Source\PSoC5/USBUART.c ****     *  0            | VBUS is absent
2394:.\Generated_Source\PSoC5/USBUART.c ****     *
2395:.\Generated_Source\PSoC5/USBUART.c ****     *
2396:.\Generated_Source\PSoC5/USBUART.c ****     ***************************************************************************/
2397:.\Generated_Source\PSoC5/USBUART.c ****     uint8 USBUART_VBusPresent(void) 
2398:.\Generated_Source\PSoC5/USBUART.c ****     {
2399:.\Generated_Source\PSoC5/USBUART.c ****         return ((0u != (USBUART_VBUS_STATUS_REG & USBUART_VBUS_VALID)) ? (uint8) 1u : (uint8) 0u);
2400:.\Generated_Source\PSoC5/USBUART.c ****     }
2401:.\Generated_Source\PSoC5/USBUART.c **** #endif /* (USBUART_VBUS_MONITORING_ENABLE) */
2402:.\Generated_Source\PSoC5/USBUART.c **** 
2403:.\Generated_Source\PSoC5/USBUART.c **** 
2404:.\Generated_Source\PSoC5/USBUART.c **** /*******************************************************************************
2405:.\Generated_Source\PSoC5/USBUART.c **** * Function Name: USBUART_RWUEnabled
2406:.\Generated_Source\PSoC5/USBUART.c **** ****************************************************************************//**
2407:.\Generated_Source\PSoC5/USBUART.c **** *
2408:.\Generated_Source\PSoC5/USBUART.c **** *  This function returns the current remote wakeup status.
2409:.\Generated_Source\PSoC5/USBUART.c **** *  If the device supports remote wakeup, the application should use this
2410:.\Generated_Source\PSoC5/USBUART.c **** *  function to determine if remote wakeup was enabled by the host. When the
2411:.\Generated_Source\PSoC5/USBUART.c **** *  device is suspended and it determines the conditions to initiate a remote
2412:.\Generated_Source\PSoC5/USBUART.c **** *  wakeup are met, the application should use the USBFS_Force() function to
2413:.\Generated_Source\PSoC5/USBUART.c **** *  force the appropriate J and K states onto the USB bus, signaling a remote
2414:.\Generated_Source\PSoC5/USBUART.c **** *  wakeup.
2415:.\Generated_Source\PSoC5/USBUART.c **** *
2416:.\Generated_Source\PSoC5/USBUART.c **** *
2417:.\Generated_Source\PSoC5/USBUART.c **** * \return
2418:.\Generated_Source\PSoC5/USBUART.c **** *  Returns non-zero value if remote wakeup is enabled and zero otherwise.
2419:.\Generated_Source\PSoC5/USBUART.c **** *
2420:.\Generated_Source\PSoC5/USBUART.c **** * \globalvars
ARM GAS  C:\Users\Tim\AppData\Local\Temp\ccA4EuzY.s 			page 65


2421:.\Generated_Source\PSoC5/USBUART.c **** *  USBUART_deviceStatus - checked to determine remote status
2422:.\Generated_Source\PSoC5/USBUART.c **** *
2423:.\Generated_Source\PSoC5/USBUART.c **** *******************************************************************************/
2424:.\Generated_Source\PSoC5/USBUART.c **** uint8 USBUART_RWUEnabled(void) 
2425:.\Generated_Source\PSoC5/USBUART.c **** {
 1201              		.loc 1 2425 0
 1202              		.cfi_startproc
 1203              		@ args = 0, pretend = 0, frame = 0
 1204              		@ frame_needed = 0, uses_anonymous_args = 0
 1205              		@ link register save eliminated.
 1206              	.LVL91:
2426:.\Generated_Source\PSoC5/USBUART.c ****     uint8 result = USBUART_FALSE;
2427:.\Generated_Source\PSoC5/USBUART.c **** 
2428:.\Generated_Source\PSoC5/USBUART.c ****     if (0u != (USBUART_deviceStatus & USBUART_DEVICE_STATUS_REMOTE_WAKEUP))
 1207              		.loc 1 2428 0
 1208 0000 044B     		ldr	r3, .L100
 1209 0002 1B78     		ldrb	r3, [r3]	@ zero_extendqisi2
 1210 0004 13F0020F 		tst	r3, #2
 1211 0008 01D1     		bne	.L99
2426:.\Generated_Source\PSoC5/USBUART.c ****     uint8 result = USBUART_FALSE;
 1212              		.loc 1 2426 0
 1213 000a 0020     		movs	r0, #0
 1214 000c 7047     		bx	lr
 1215              	.L99:
2429:.\Generated_Source\PSoC5/USBUART.c ****     {
2430:.\Generated_Source\PSoC5/USBUART.c ****         result = USBUART_TRUE;
 1216              		.loc 1 2430 0
 1217 000e 0120     		movs	r0, #1
 1218              	.LVL92:
2431:.\Generated_Source\PSoC5/USBUART.c ****     }
2432:.\Generated_Source\PSoC5/USBUART.c **** 
2433:.\Generated_Source\PSoC5/USBUART.c ****     return (result);
2434:.\Generated_Source\PSoC5/USBUART.c **** }
 1219              		.loc 1 2434 0
 1220 0010 7047     		bx	lr
 1221              	.L101:
 1222 0012 00BF     		.align	2
 1223              	.L100:
 1224 0014 00000000 		.word	USBUART_deviceStatus
 1225              		.cfi_endproc
 1226              	.LFE18:
 1227              		.size	USBUART_RWUEnabled, .-USBUART_RWUEnabled
 1228              		.section	.text.USBUART_GetDeviceAddress,"ax",%progbits
 1229              		.align	2
 1230              		.global	USBUART_GetDeviceAddress
 1231              		.thumb
 1232              		.thumb_func
 1233              		.type	USBUART_GetDeviceAddress, %function
 1234              	USBUART_GetDeviceAddress:
 1235              	.LFB19:
2435:.\Generated_Source\PSoC5/USBUART.c **** 
2436:.\Generated_Source\PSoC5/USBUART.c **** 
2437:.\Generated_Source\PSoC5/USBUART.c **** /*******************************************************************************
2438:.\Generated_Source\PSoC5/USBUART.c **** * Function Name: USBUART_GetDeviceAddress
2439:.\Generated_Source\PSoC5/USBUART.c **** ****************************************************************************//**
2440:.\Generated_Source\PSoC5/USBUART.c **** *
2441:.\Generated_Source\PSoC5/USBUART.c **** *  This function returns the currently assigned address for the USB device.
ARM GAS  C:\Users\Tim\AppData\Local\Temp\ccA4EuzY.s 			page 66


2442:.\Generated_Source\PSoC5/USBUART.c **** *
2443:.\Generated_Source\PSoC5/USBUART.c **** * \return
2444:.\Generated_Source\PSoC5/USBUART.c **** *  Returns the currently assigned address.
2445:.\Generated_Source\PSoC5/USBUART.c **** *  Returns 0 if the device has not yet been assigned an address.
2446:.\Generated_Source\PSoC5/USBUART.c **** *
2447:.\Generated_Source\PSoC5/USBUART.c **** *******************************************************************************/
2448:.\Generated_Source\PSoC5/USBUART.c **** uint8 USBUART_GetDeviceAddress(void) 
2449:.\Generated_Source\PSoC5/USBUART.c **** {
 1236              		.loc 1 2449 0
 1237              		.cfi_startproc
 1238              		@ args = 0, pretend = 0, frame = 0
 1239              		@ frame_needed = 0, uses_anonymous_args = 0
 1240              		@ link register save eliminated.
2450:.\Generated_Source\PSoC5/USBUART.c ****     return (uint8)(USBUART_CR0_REG & USBUART_CR0_DEVICE_ADDRESS_MASK);
 1241              		.loc 1 2450 0
 1242 0000 024B     		ldr	r3, .L103
 1243 0002 1878     		ldrb	r0, [r3]	@ zero_extendqisi2
2451:.\Generated_Source\PSoC5/USBUART.c **** }
 1244              		.loc 1 2451 0
 1245 0004 00F07F00 		and	r0, r0, #127
 1246 0008 7047     		bx	lr
 1247              	.L104:
 1248 000a 00BF     		.align	2
 1249              	.L103:
 1250 000c 08600040 		.word	1073766408
 1251              		.cfi_endproc
 1252              	.LFE19:
 1253              		.size	USBUART_GetDeviceAddress, .-USBUART_GetDeviceAddress
 1254              		.section	.text.USBUART_EnableSofInt,"ax",%progbits
 1255              		.align	2
 1256              		.global	USBUART_EnableSofInt
 1257              		.thumb
 1258              		.thumb_func
 1259              		.type	USBUART_EnableSofInt, %function
 1260              	USBUART_EnableSofInt:
 1261              	.LFB20:
2452:.\Generated_Source\PSoC5/USBUART.c **** 
2453:.\Generated_Source\PSoC5/USBUART.c **** 
2454:.\Generated_Source\PSoC5/USBUART.c **** /*******************************************************************************
2455:.\Generated_Source\PSoC5/USBUART.c **** * Function Name: USBUART_EnableSofInt
2456:.\Generated_Source\PSoC5/USBUART.c **** ****************************************************************************//**
2457:.\Generated_Source\PSoC5/USBUART.c **** *
2458:.\Generated_Source\PSoC5/USBUART.c **** *  This function enables interrupt generation when a Start-of-Frame (SOF)
2459:.\Generated_Source\PSoC5/USBUART.c **** *  packet is received from the host.
2460:.\Generated_Source\PSoC5/USBUART.c **** *
2461:.\Generated_Source\PSoC5/USBUART.c **** *******************************************************************************/
2462:.\Generated_Source\PSoC5/USBUART.c **** void USBUART_EnableSofInt(void) 
2463:.\Generated_Source\PSoC5/USBUART.c **** {
 1262              		.loc 1 2463 0
 1263              		.cfi_startproc
 1264              		@ args = 0, pretend = 0, frame = 0
 1265              		@ frame_needed = 0, uses_anonymous_args = 0
 1266              		@ link register save eliminated.
2464:.\Generated_Source\PSoC5/USBUART.c **** #if (CY_PSOC4)
2465:.\Generated_Source\PSoC5/USBUART.c ****     /* Enable SOF interrupt interrupt source. */
2466:.\Generated_Source\PSoC5/USBUART.c ****     USBUART_INTR_SIE_MASK_REG |= (uint32) USBUART_INTR_SIE_SOF_INTR;
2467:.\Generated_Source\PSoC5/USBUART.c **** #else
ARM GAS  C:\Users\Tim\AppData\Local\Temp\ccA4EuzY.s 			page 67


2468:.\Generated_Source\PSoC5/USBUART.c ****     /* Enable SOF interrupt if it is present. */
2469:.\Generated_Source\PSoC5/USBUART.c ****     #if (USBUART_SOF_ISR_ACTIVE)
2470:.\Generated_Source\PSoC5/USBUART.c ****         CyIntEnable(USBUART_SOF_VECT_NUM);
 1267              		.loc 1 2470 0
 1268 0000 4FF40012 		mov	r2, #2097152
 1269 0004 014B     		ldr	r3, .L106
 1270 0006 1A60     		str	r2, [r3]
 1271 0008 7047     		bx	lr
 1272              	.L107:
 1273 000a 00BF     		.align	2
 1274              	.L106:
 1275 000c 00E100E0 		.word	-536813312
 1276              		.cfi_endproc
 1277              	.LFE20:
 1278              		.size	USBUART_EnableSofInt, .-USBUART_EnableSofInt
 1279              		.section	.text.USBUART_DisableSofInt,"ax",%progbits
 1280              		.align	2
 1281              		.global	USBUART_DisableSofInt
 1282              		.thumb
 1283              		.thumb_func
 1284              		.type	USBUART_DisableSofInt, %function
 1285              	USBUART_DisableSofInt:
 1286              	.LFB21:
2471:.\Generated_Source\PSoC5/USBUART.c ****     #endif /* (USBUART_SOF_ISR_ACTIVE) */
2472:.\Generated_Source\PSoC5/USBUART.c **** #endif /* (CY_PSOC4) */
2473:.\Generated_Source\PSoC5/USBUART.c **** }
2474:.\Generated_Source\PSoC5/USBUART.c **** 
2475:.\Generated_Source\PSoC5/USBUART.c **** 
2476:.\Generated_Source\PSoC5/USBUART.c **** /*******************************************************************************
2477:.\Generated_Source\PSoC5/USBUART.c **** * Function Name: USBUART_DisableSofInt
2478:.\Generated_Source\PSoC5/USBUART.c **** ****************************************************************************//**
2479:.\Generated_Source\PSoC5/USBUART.c **** *
2480:.\Generated_Source\PSoC5/USBUART.c **** *  This function disables interrupt generation when a Start-of-Frame (SOF)
2481:.\Generated_Source\PSoC5/USBUART.c **** *  packet is received from the host.
2482:.\Generated_Source\PSoC5/USBUART.c **** *
2483:.\Generated_Source\PSoC5/USBUART.c **** *******************************************************************************/
2484:.\Generated_Source\PSoC5/USBUART.c **** void USBUART_DisableSofInt(void) 
2485:.\Generated_Source\PSoC5/USBUART.c **** {
 1287              		.loc 1 2485 0
 1288              		.cfi_startproc
 1289              		@ args = 0, pretend = 0, frame = 0
 1290              		@ frame_needed = 0, uses_anonymous_args = 0
 1291              		@ link register save eliminated.
2486:.\Generated_Source\PSoC5/USBUART.c **** #if (CY_PSOC4)
2487:.\Generated_Source\PSoC5/USBUART.c ****     /* Disable SOF interrupt interrupt source. */
2488:.\Generated_Source\PSoC5/USBUART.c ****     USBUART_INTR_SIE_MASK_REG &= (uint32) ~USBUART_INTR_SIE_SOF_INTR;
2489:.\Generated_Source\PSoC5/USBUART.c **** #else
2490:.\Generated_Source\PSoC5/USBUART.c ****     /* Disable SOF interrupt if it is present. */
2491:.\Generated_Source\PSoC5/USBUART.c ****     #if (USBUART_SOF_ISR_ACTIVE)
2492:.\Generated_Source\PSoC5/USBUART.c ****         CyIntDisable(USBUART_SOF_VECT_NUM);
 1292              		.loc 1 2492 0
 1293 0000 4FF40012 		mov	r2, #2097152
 1294 0004 014B     		ldr	r3, .L109
 1295 0006 1A60     		str	r2, [r3]
 1296 0008 7047     		bx	lr
 1297              	.L110:
 1298 000a 00BF     		.align	2
ARM GAS  C:\Users\Tim\AppData\Local\Temp\ccA4EuzY.s 			page 68


 1299              	.L109:
 1300 000c 80E100E0 		.word	-536813184
 1301              		.cfi_endproc
 1302              	.LFE21:
 1303              		.size	USBUART_DisableSofInt, .-USBUART_DisableSofInt
 1304              		.global	USBUART_initVar
 1305              		.bss
 1306              		.set	.LANCHOR0,. + 0
 1307              		.type	USBUART_initVar, %object
 1308              		.size	USBUART_initVar, 1
 1309              	USBUART_initVar:
 1310 0000 00       		.space	1
 1311              		.text
 1312              	.Letext0:
 1313              		.file 2 ".\\Generated_Source\\PSoC5\\cytypes.h"
 1314              		.file 3 ".\\Generated_Source\\PSoC5\\USBUART.h"
 1315              		.file 4 ".\\Generated_Source\\PSoC5\\USBUART_pvt.h"
 1316              		.file 5 ".\\Generated_Source\\PSoC5\\CyLib.h"
 1317              		.section	.debug_info,"",%progbits
 1318              	.Ldebug_info0:
 1319 0000 D8090000 		.4byte	0x9d8
 1320 0004 0400     		.2byte	0x4
 1321 0006 00000000 		.4byte	.Ldebug_abbrev0
 1322 000a 04       		.byte	0x4
 1323 000b 01       		.uleb128 0x1
 1324 000c 0A050000 		.4byte	.LASF96
 1325 0010 01       		.byte	0x1
 1326 0011 49030000 		.4byte	.LASF97
 1327 0015 D1030000 		.4byte	.LASF98
 1328 0019 18000000 		.4byte	.Ldebug_ranges0+0x18
 1329 001d 00000000 		.4byte	0
 1330 0021 00000000 		.4byte	.Ldebug_line0
 1331 0025 02       		.uleb128 0x2
 1332 0026 01       		.byte	0x1
 1333 0027 06       		.byte	0x6
 1334 0028 F1000000 		.4byte	.LASF0
 1335 002c 02       		.uleb128 0x2
 1336 002d 01       		.byte	0x1
 1337 002e 08       		.byte	0x8
 1338 002f 21040000 		.4byte	.LASF1
 1339 0033 02       		.uleb128 0x2
 1340 0034 02       		.byte	0x2
 1341 0035 05       		.byte	0x5
 1342 0036 2F040000 		.4byte	.LASF2
 1343 003a 02       		.uleb128 0x2
 1344 003b 02       		.byte	0x2
 1345 003c 07       		.byte	0x7
 1346 003d 78020000 		.4byte	.LASF3
 1347 0041 02       		.uleb128 0x2
 1348 0042 04       		.byte	0x4
 1349 0043 05       		.byte	0x5
 1350 0044 59010000 		.4byte	.LASF4
 1351 0048 02       		.uleb128 0x2
 1352 0049 04       		.byte	0x4
 1353 004a 07       		.byte	0x7
 1354 004b 4F020000 		.4byte	.LASF5
 1355 004f 02       		.uleb128 0x2
ARM GAS  C:\Users\Tim\AppData\Local\Temp\ccA4EuzY.s 			page 69


 1356 0050 08       		.byte	0x8
 1357 0051 05       		.byte	0x5
 1358 0052 E3000000 		.4byte	.LASF6
 1359 0056 02       		.uleb128 0x2
 1360 0057 08       		.byte	0x8
 1361 0058 07       		.byte	0x7
 1362 0059 8D000000 		.4byte	.LASF7
 1363 005d 03       		.uleb128 0x3
 1364 005e 04       		.byte	0x4
 1365 005f 05       		.byte	0x5
 1366 0060 696E7400 		.ascii	"int\000"
 1367 0064 02       		.uleb128 0x2
 1368 0065 04       		.byte	0x4
 1369 0066 07       		.byte	0x7
 1370 0067 42020000 		.4byte	.LASF8
 1371 006b 04       		.uleb128 0x4
 1372 006c 62010000 		.4byte	.LASF9
 1373 0070 02       		.byte	0x2
 1374 0071 3801     		.2byte	0x138
 1375 0073 2C000000 		.4byte	0x2c
 1376 0077 04       		.uleb128 0x4
 1377 0078 00000000 		.4byte	.LASF10
 1378 007c 02       		.byte	0x2
 1379 007d 3901     		.2byte	0x139
 1380 007f 3A000000 		.4byte	0x3a
 1381 0083 04       		.uleb128 0x4
 1382 0084 01020000 		.4byte	.LASF11
 1383 0088 02       		.byte	0x2
 1384 0089 3A01     		.2byte	0x13a
 1385 008b 48000000 		.4byte	0x48
 1386 008f 02       		.uleb128 0x2
 1387 0090 04       		.byte	0x4
 1388 0091 04       		.byte	0x4
 1389 0092 A0030000 		.4byte	.LASF12
 1390 0096 02       		.uleb128 0x2
 1391 0097 08       		.byte	0x8
 1392 0098 04       		.byte	0x4
 1393 0099 94010000 		.4byte	.LASF13
 1394 009d 02       		.uleb128 0x2
 1395 009e 01       		.byte	0x1
 1396 009f 08       		.byte	0x8
 1397 00a0 92040000 		.4byte	.LASF14
 1398 00a4 04       		.uleb128 0x4
 1399 00a5 03040000 		.4byte	.LASF15
 1400 00a9 02       		.byte	0x2
 1401 00aa E201     		.2byte	0x1e2
 1402 00ac B0000000 		.4byte	0xb0
 1403 00b0 05       		.uleb128 0x5
 1404 00b1 6B000000 		.4byte	0x6b
 1405 00b5 04       		.uleb128 0x4
 1406 00b6 D9020000 		.4byte	.LASF16
 1407 00ba 02       		.byte	0x2
 1408 00bb E401     		.2byte	0x1e4
 1409 00bd C1000000 		.4byte	0xc1
 1410 00c1 05       		.uleb128 0x5
 1411 00c2 83000000 		.4byte	0x83
 1412 00c6 04       		.uleb128 0x4
ARM GAS  C:\Users\Tim\AppData\Local\Temp\ccA4EuzY.s 			page 70


 1413 00c7 9C040000 		.4byte	.LASF17
 1414 00cb 02       		.byte	0x2
 1415 00cc F401     		.2byte	0x1f4
 1416 00ce D2000000 		.4byte	0xd2
 1417 00d2 06       		.uleb128 0x6
 1418 00d3 04       		.byte	0x4
 1419 00d4 D8000000 		.4byte	0xd8
 1420 00d8 07       		.uleb128 0x7
 1421 00d9 02       		.uleb128 0x2
 1422 00da 04       		.byte	0x4
 1423 00db 07       		.byte	0x7
 1424 00dc 2C030000 		.4byte	.LASF18
 1425 00e0 08       		.uleb128 0x8
 1426 00e1 0C       		.byte	0xc
 1427 00e2 03       		.byte	0x3
 1428 00e3 91       		.byte	0x91
 1429 00e4 55010000 		.4byte	0x155
 1430 00e8 09       		.uleb128 0x9
 1431 00e9 6C030000 		.4byte	.LASF19
 1432 00ed 03       		.byte	0x3
 1433 00ee 93       		.byte	0x93
 1434 00ef 6B000000 		.4byte	0x6b
 1435 00f3 00       		.byte	0
 1436 00f4 09       		.uleb128 0x9
 1437 00f5 B8030000 		.4byte	.LASF20
 1438 00f9 03       		.byte	0x3
 1439 00fa 94       		.byte	0x94
 1440 00fb 6B000000 		.4byte	0x6b
 1441 00ff 01       		.byte	0x1
 1442 0100 09       		.uleb128 0x9
 1443 0101 0B030000 		.4byte	.LASF21
 1444 0105 03       		.byte	0x3
 1445 0106 95       		.byte	0x95
 1446 0107 6B000000 		.4byte	0x6b
 1447 010b 02       		.byte	0x2
 1448 010c 09       		.uleb128 0x9
 1449 010d 68010000 		.4byte	.LASF22
 1450 0111 03       		.byte	0x3
 1451 0112 96       		.byte	0x96
 1452 0113 6B000000 		.4byte	0x6b
 1453 0117 03       		.byte	0x3
 1454 0118 09       		.uleb128 0x9
 1455 0119 A4000000 		.4byte	.LASF23
 1456 011d 03       		.byte	0x3
 1457 011e 97       		.byte	0x97
 1458 011f 6B000000 		.4byte	0x6b
 1459 0123 04       		.byte	0x4
 1460 0124 09       		.uleb128 0x9
 1461 0125 1D020000 		.4byte	.LASF24
 1462 0129 03       		.byte	0x3
 1463 012a 98       		.byte	0x98
 1464 012b 6B000000 		.4byte	0x6b
 1465 012f 05       		.byte	0x5
 1466 0130 09       		.uleb128 0x9
 1467 0131 CB040000 		.4byte	.LASF25
 1468 0135 03       		.byte	0x3
 1469 0136 99       		.byte	0x99
ARM GAS  C:\Users\Tim\AppData\Local\Temp\ccA4EuzY.s 			page 71


 1470 0137 77000000 		.4byte	0x77
 1471 013b 06       		.byte	0x6
 1472 013c 09       		.uleb128 0x9
 1473 013d A9040000 		.4byte	.LASF26
 1474 0141 03       		.byte	0x3
 1475 0142 9A       		.byte	0x9a
 1476 0143 77000000 		.4byte	0x77
 1477 0147 08       		.byte	0x8
 1478 0148 09       		.uleb128 0x9
 1479 0149 C8020000 		.4byte	.LASF27
 1480 014d 03       		.byte	0x3
 1481 014e 9B       		.byte	0x9b
 1482 014f 6B000000 		.4byte	0x6b
 1483 0153 0A       		.byte	0xa
 1484 0154 00       		.byte	0
 1485 0155 0A       		.uleb128 0xa
 1486 0156 B4040000 		.4byte	.LASF28
 1487 015a 03       		.byte	0x3
 1488 015b 9C       		.byte	0x9c
 1489 015c E0000000 		.4byte	0xe0
 1490 0160 08       		.uleb128 0x8
 1491 0161 10       		.byte	0x10
 1492 0162 03       		.byte	0x3
 1493 0163 D8       		.byte	0xd8
 1494 0164 99010000 		.4byte	0x199
 1495 0168 09       		.uleb128 0x9
 1496 0169 7B030000 		.4byte	.LASF29
 1497 016d 03       		.byte	0x3
 1498 016e DA       		.byte	0xda
 1499 016f 6B000000 		.4byte	0x6b
 1500 0173 00       		.byte	0
 1501 0174 09       		.uleb128 0x9
 1502 0175 82030000 		.4byte	.LASF30
 1503 0179 03       		.byte	0x3
 1504 017a DB       		.byte	0xdb
 1505 017b 6B000000 		.4byte	0x6b
 1506 017f 01       		.byte	0x1
 1507 0180 09       		.uleb128 0x9
 1508 0181 9A030000 		.4byte	.LASF31
 1509 0185 03       		.byte	0x3
 1510 0186 DC       		.byte	0xdc
 1511 0187 6B000000 		.4byte	0x6b
 1512 018b 02       		.byte	0x2
 1513 018c 0B       		.uleb128 0xb
 1514 018d 67617000 		.ascii	"gap\000"
 1515 0191 03       		.byte	0x3
 1516 0192 DD       		.byte	0xdd
 1517 0193 99010000 		.4byte	0x199
 1518 0197 03       		.byte	0x3
 1519 0198 00       		.byte	0
 1520 0199 0C       		.uleb128 0xc
 1521 019a 6B000000 		.4byte	0x6b
 1522 019e A9010000 		.4byte	0x1a9
 1523 01a2 0D       		.uleb128 0xd
 1524 01a3 D9000000 		.4byte	0xd9
 1525 01a7 0C       		.byte	0xc
 1526 01a8 00       		.byte	0
ARM GAS  C:\Users\Tim\AppData\Local\Temp\ccA4EuzY.s 			page 72


 1527 01a9 0A       		.uleb128 0xa
 1528 01aa 6E040000 		.4byte	.LASF32
 1529 01ae 03       		.byte	0x3
 1530 01af DE       		.byte	0xde
 1531 01b0 60010000 		.4byte	0x160
 1532 01b4 08       		.uleb128 0x8
 1533 01b5 10       		.byte	0x10
 1534 01b6 03       		.byte	0x3
 1535 01b7 EA       		.byte	0xea
 1536 01b8 35020000 		.4byte	0x235
 1537 01bc 09       		.uleb128 0x9
 1538 01bd A9000000 		.4byte	.LASF33
 1539 01c1 03       		.byte	0x3
 1540 01c2 EC       		.byte	0xec
 1541 01c3 6B000000 		.4byte	0x6b
 1542 01c7 00       		.byte	0
 1543 01c8 09       		.uleb128 0x9
 1544 01c9 E8050000 		.4byte	.LASF34
 1545 01cd 03       		.byte	0x3
 1546 01ce ED       		.byte	0xed
 1547 01cf 6B000000 		.4byte	0x6b
 1548 01d3 01       		.byte	0x1
 1549 01d4 09       		.uleb128 0x9
 1550 01d5 D4010000 		.4byte	.LASF35
 1551 01d9 03       		.byte	0x3
 1552 01da EE       		.byte	0xee
 1553 01db 6B000000 		.4byte	0x6b
 1554 01df 02       		.byte	0x2
 1555 01e0 09       		.uleb128 0x9
 1556 01e1 24020000 		.4byte	.LASF36
 1557 01e5 03       		.byte	0x3
 1558 01e6 EF       		.byte	0xef
 1559 01e7 6B000000 		.4byte	0x6b
 1560 01eb 03       		.byte	0x3
 1561 01ec 09       		.uleb128 0x9
 1562 01ed 85010000 		.4byte	.LASF37
 1563 01f1 03       		.byte	0x3
 1564 01f2 F0       		.byte	0xf0
 1565 01f3 6B000000 		.4byte	0x6b
 1566 01f7 04       		.byte	0x4
 1567 01f8 09       		.uleb128 0x9
 1568 01f9 66040000 		.4byte	.LASF38
 1569 01fd 03       		.byte	0x3
 1570 01fe F1       		.byte	0xf1
 1571 01ff 6B000000 		.4byte	0x6b
 1572 0203 05       		.byte	0x5
 1573 0204 09       		.uleb128 0x9
 1574 0205 4C040000 		.4byte	.LASF39
 1575 0209 03       		.byte	0x3
 1576 020a F2       		.byte	0xf2
 1577 020b 6B000000 		.4byte	0x6b
 1578 020f 06       		.byte	0x6
 1579 0210 09       		.uleb128 0x9
 1580 0211 73030000 		.4byte	.LASF40
 1581 0215 03       		.byte	0x3
 1582 0216 F3       		.byte	0xf3
 1583 0217 6B000000 		.4byte	0x6b
ARM GAS  C:\Users\Tim\AppData\Local\Temp\ccA4EuzY.s 			page 73


 1584 021b 07       		.byte	0x7
 1585 021c 09       		.uleb128 0x9
 1586 021d 98050000 		.4byte	.LASF41
 1587 0221 03       		.byte	0x3
 1588 0222 F4       		.byte	0xf4
 1589 0223 6B000000 		.4byte	0x6b
 1590 0227 08       		.byte	0x8
 1591 0228 0B       		.uleb128 0xb
 1592 0229 67617000 		.ascii	"gap\000"
 1593 022d 03       		.byte	0x3
 1594 022e F5       		.byte	0xf5
 1595 022f 35020000 		.4byte	0x235
 1596 0233 09       		.byte	0x9
 1597 0234 00       		.byte	0
 1598 0235 0C       		.uleb128 0xc
 1599 0236 6B000000 		.4byte	0x6b
 1600 023a 45020000 		.4byte	0x245
 1601 023e 0D       		.uleb128 0xd
 1602 023f D9000000 		.4byte	0xd9
 1603 0243 06       		.byte	0x6
 1604 0244 00       		.byte	0
 1605 0245 0A       		.uleb128 0xa
 1606 0246 F5020000 		.4byte	.LASF42
 1607 024a 03       		.byte	0x3
 1608 024b F6       		.byte	0xf6
 1609 024c B4010000 		.4byte	0x1b4
 1610 0250 0E       		.uleb128 0xe
 1611 0251 90       		.byte	0x90
 1612 0252 03       		.byte	0x3
 1613 0253 1201     		.2byte	0x112
 1614 0255 67020000 		.4byte	0x267
 1615 0259 0F       		.uleb128 0xf
 1616 025a 35030000 		.4byte	.LASF43
 1617 025e 03       		.byte	0x3
 1618 025f 1401     		.2byte	0x114
 1619 0261 67020000 		.4byte	0x267
 1620 0265 00       		.byte	0
 1621 0266 00       		.byte	0
 1622 0267 0C       		.uleb128 0xc
 1623 0268 A9010000 		.4byte	0x1a9
 1624 026c 77020000 		.4byte	0x277
 1625 0270 0D       		.uleb128 0xd
 1626 0271 D9000000 		.4byte	0xd9
 1627 0275 08       		.byte	0x8
 1628 0276 00       		.byte	0
 1629 0277 04       		.uleb128 0x4
 1630 0278 2C010000 		.4byte	.LASF44
 1631 027c 03       		.byte	0x3
 1632 027d 1501     		.2byte	0x115
 1633 027f 50020000 		.4byte	0x250
 1634 0283 0E       		.uleb128 0xe
 1635 0284 90       		.byte	0x90
 1636 0285 03       		.byte	0x3
 1637 0286 1801     		.2byte	0x118
 1638 0288 9A020000 		.4byte	0x29a
 1639 028c 0F       		.uleb128 0xf
 1640 028d C2020000 		.4byte	.LASF45
ARM GAS  C:\Users\Tim\AppData\Local\Temp\ccA4EuzY.s 			page 74


 1641 0291 03       		.byte	0x3
 1642 0292 1A01     		.2byte	0x11a
 1643 0294 9A020000 		.4byte	0x29a
 1644 0298 00       		.byte	0
 1645 0299 00       		.byte	0
 1646 029a 0C       		.uleb128 0xc
 1647 029b 45020000 		.4byte	0x245
 1648 029f AA020000 		.4byte	0x2aa
 1649 02a3 0D       		.uleb128 0xd
 1650 02a4 D9000000 		.4byte	0xd9
 1651 02a8 08       		.byte	0x8
 1652 02a9 00       		.byte	0
 1653 02aa 04       		.uleb128 0x4
 1654 02ab 15030000 		.4byte	.LASF46
 1655 02af 03       		.byte	0x3
 1656 02b0 1B01     		.2byte	0x11b
 1657 02b2 83020000 		.4byte	0x283
 1658 02b6 10       		.uleb128 0x10
 1659 02b7 B5020000 		.4byte	.LASF47
 1660 02bb 01       		.byte	0x1
 1661 02bc D2       		.byte	0xd2
 1662 02bd 00000000 		.4byte	.LFB1
 1663 02c1 40010000 		.4byte	.LFE1-.LFB1
 1664 02c5 01       		.uleb128 0x1
 1665 02c6 9C       		.byte	0x9c
 1666 02c7 70040000 		.4byte	0x470
 1667 02cb 11       		.uleb128 0x11
 1668 02cc F9040000 		.4byte	.LASF51
 1669 02d0 01       		.byte	0x1
 1670 02d1 F9       		.byte	0xf9
 1671 02d2 6B000000 		.4byte	0x6b
 1672 02d6 00000000 		.4byte	.LLST0
 1673 02da 12       		.uleb128 0x12
 1674 02db 06000000 		.4byte	.LVL0
 1675 02df 71090000 		.4byte	0x971
 1676 02e3 13       		.uleb128 0x13
 1677 02e4 3C000000 		.4byte	.LVL2
 1678 02e8 7C090000 		.4byte	0x97c
 1679 02ec F6020000 		.4byte	0x2f6
 1680 02f0 14       		.uleb128 0x14
 1681 02f1 01       		.uleb128 0x1
 1682 02f2 50       		.byte	0x50
 1683 02f3 01       		.uleb128 0x1
 1684 02f4 30       		.byte	0x30
 1685 02f5 00       		.byte	0
 1686 02f6 13       		.uleb128 0x13
 1687 02f7 5C000000 		.4byte	.LVL3
 1688 02fb 7C090000 		.4byte	0x97c
 1689 02ff 0A030000 		.4byte	0x30a
 1690 0303 14       		.uleb128 0x14
 1691 0304 01       		.uleb128 0x1
 1692 0305 50       		.byte	0x50
 1693 0306 02       		.uleb128 0x2
 1694 0307 77       		.byte	0x77
 1695 0308 00       		.sleb128 0
 1696 0309 00       		.byte	0
 1697 030a 13       		.uleb128 0x13
ARM GAS  C:\Users\Tim\AppData\Local\Temp\ccA4EuzY.s 			page 75


 1698 030b 62000000 		.4byte	.LVL4
 1699 030f 7C090000 		.4byte	0x97c
 1700 0313 1E030000 		.4byte	0x31e
 1701 0317 14       		.uleb128 0x14
 1702 0318 01       		.uleb128 0x1
 1703 0319 50       		.byte	0x50
 1704 031a 02       		.uleb128 0x2
 1705 031b 08       		.byte	0x8
 1706 031c 28       		.byte	0x28
 1707 031d 00       		.byte	0
 1708 031e 13       		.uleb128 0x13
 1709 031f 80000000 		.4byte	.LVL5
 1710 0323 7C090000 		.4byte	0x97c
 1711 0327 32030000 		.4byte	0x332
 1712 032b 14       		.uleb128 0x14
 1713 032c 01       		.uleb128 0x1
 1714 032d 50       		.byte	0x50
 1715 032e 02       		.uleb128 0x2
 1716 032f 76       		.byte	0x76
 1717 0330 00       		.sleb128 0
 1718 0331 00       		.byte	0
 1719 0332 13       		.uleb128 0x13
 1720 0333 98000000 		.4byte	.LVL6
 1721 0337 8D090000 		.4byte	0x98d
 1722 033b 46030000 		.4byte	0x346
 1723 033f 14       		.uleb128 0x14
 1724 0340 01       		.uleb128 0x1
 1725 0341 50       		.byte	0x50
 1726 0342 02       		.uleb128 0x2
 1727 0343 75       		.byte	0x75
 1728 0344 00       		.sleb128 0
 1729 0345 00       		.byte	0
 1730 0346 13       		.uleb128 0x13
 1731 0347 A0000000 		.4byte	.LVL7
 1732 034b 9E090000 		.4byte	0x99e
 1733 034f 5E030000 		.4byte	0x35e
 1734 0353 14       		.uleb128 0x14
 1735 0354 01       		.uleb128 0x1
 1736 0355 51       		.byte	0x51
 1737 0356 01       		.uleb128 0x1
 1738 0357 37       		.byte	0x37
 1739 0358 14       		.uleb128 0x14
 1740 0359 01       		.uleb128 0x1
 1741 035a 50       		.byte	0x50
 1742 035b 01       		.uleb128 0x1
 1743 035c 47       		.byte	0x47
 1744 035d 00       		.byte	0
 1745 035e 13       		.uleb128 0x13
 1746 035f A8000000 		.4byte	.LVL8
 1747 0363 B4090000 		.4byte	0x9b4
 1748 0367 71030000 		.4byte	0x371
 1749 036b 14       		.uleb128 0x14
 1750 036c 01       		.uleb128 0x1
 1751 036d 50       		.byte	0x50
 1752 036e 01       		.uleb128 0x1
 1753 036f 47       		.byte	0x47
 1754 0370 00       		.byte	0
ARM GAS  C:\Users\Tim\AppData\Local\Temp\ccA4EuzY.s 			page 76


 1755 0371 13       		.uleb128 0x13
 1756 0372 B0000000 		.4byte	.LVL9
 1757 0376 9E090000 		.4byte	0x99e
 1758 037a 89030000 		.4byte	0x389
 1759 037e 14       		.uleb128 0x14
 1760 037f 01       		.uleb128 0x1
 1761 0380 51       		.byte	0x51
 1762 0381 01       		.uleb128 0x1
 1763 0382 37       		.byte	0x37
 1764 0383 14       		.uleb128 0x14
 1765 0384 01       		.uleb128 0x1
 1766 0385 50       		.byte	0x50
 1767 0386 01       		.uleb128 0x1
 1768 0387 48       		.byte	0x48
 1769 0388 00       		.byte	0
 1770 0389 13       		.uleb128 0x13
 1771 038a B8000000 		.4byte	.LVL10
 1772 038e B4090000 		.4byte	0x9b4
 1773 0392 9C030000 		.4byte	0x39c
 1774 0396 14       		.uleb128 0x14
 1775 0397 01       		.uleb128 0x1
 1776 0398 50       		.byte	0x50
 1777 0399 01       		.uleb128 0x1
 1778 039a 48       		.byte	0x48
 1779 039b 00       		.byte	0
 1780 039c 13       		.uleb128 0x13
 1781 039d C0000000 		.4byte	.LVL11
 1782 03a1 9E090000 		.4byte	0x99e
 1783 03a5 B4030000 		.4byte	0x3b4
 1784 03a9 14       		.uleb128 0x14
 1785 03aa 01       		.uleb128 0x1
 1786 03ab 51       		.byte	0x51
 1787 03ac 01       		.uleb128 0x1
 1788 03ad 37       		.byte	0x37
 1789 03ae 14       		.uleb128 0x14
 1790 03af 01       		.uleb128 0x1
 1791 03b0 50       		.byte	0x50
 1792 03b1 01       		.uleb128 0x1
 1793 03b2 45       		.byte	0x45
 1794 03b3 00       		.byte	0
 1795 03b4 13       		.uleb128 0x13
 1796 03b5 C8000000 		.4byte	.LVL12
 1797 03b9 B4090000 		.4byte	0x9b4
 1798 03bd C7030000 		.4byte	0x3c7
 1799 03c1 14       		.uleb128 0x14
 1800 03c2 01       		.uleb128 0x1
 1801 03c3 50       		.byte	0x50
 1802 03c4 01       		.uleb128 0x1
 1803 03c5 45       		.byte	0x45
 1804 03c6 00       		.byte	0
 1805 03c7 13       		.uleb128 0x13
 1806 03c8 D0000000 		.4byte	.LVL13
 1807 03cc 9E090000 		.4byte	0x99e
 1808 03d0 DF030000 		.4byte	0x3df
 1809 03d4 14       		.uleb128 0x14
 1810 03d5 01       		.uleb128 0x1
 1811 03d6 51       		.byte	0x51
ARM GAS  C:\Users\Tim\AppData\Local\Temp\ccA4EuzY.s 			page 77


 1812 03d7 01       		.uleb128 0x1
 1813 03d8 37       		.byte	0x37
 1814 03d9 14       		.uleb128 0x14
 1815 03da 01       		.uleb128 0x1
 1816 03db 50       		.byte	0x50
 1817 03dc 01       		.uleb128 0x1
 1818 03dd 3A       		.byte	0x3a
 1819 03de 00       		.byte	0
 1820 03df 13       		.uleb128 0x13
 1821 03e0 D8000000 		.4byte	.LVL14
 1822 03e4 B4090000 		.4byte	0x9b4
 1823 03e8 F2030000 		.4byte	0x3f2
 1824 03ec 14       		.uleb128 0x14
 1825 03ed 01       		.uleb128 0x1
 1826 03ee 50       		.byte	0x50
 1827 03ef 01       		.uleb128 0x1
 1828 03f0 3A       		.byte	0x3a
 1829 03f1 00       		.byte	0
 1830 03f2 13       		.uleb128 0x13
 1831 03f3 E0000000 		.4byte	.LVL15
 1832 03f7 9E090000 		.4byte	0x99e
 1833 03fb 0A040000 		.4byte	0x40a
 1834 03ff 14       		.uleb128 0x14
 1835 0400 01       		.uleb128 0x1
 1836 0401 51       		.byte	0x51
 1837 0402 01       		.uleb128 0x1
 1838 0403 37       		.byte	0x37
 1839 0404 14       		.uleb128 0x14
 1840 0405 01       		.uleb128 0x1
 1841 0406 50       		.byte	0x50
 1842 0407 01       		.uleb128 0x1
 1843 0408 3B       		.byte	0x3b
 1844 0409 00       		.byte	0
 1845 040a 13       		.uleb128 0x13
 1846 040b E8000000 		.4byte	.LVL16
 1847 040f B4090000 		.4byte	0x9b4
 1848 0413 1D040000 		.4byte	0x41d
 1849 0417 14       		.uleb128 0x14
 1850 0418 01       		.uleb128 0x1
 1851 0419 50       		.byte	0x50
 1852 041a 01       		.uleb128 0x1
 1853 041b 3B       		.byte	0x3b
 1854 041c 00       		.byte	0
 1855 041d 13       		.uleb128 0x13
 1856 041e F0000000 		.4byte	.LVL17
 1857 0422 9E090000 		.4byte	0x99e
 1858 0426 35040000 		.4byte	0x435
 1859 042a 14       		.uleb128 0x14
 1860 042b 01       		.uleb128 0x1
 1861 042c 51       		.byte	0x51
 1862 042d 01       		.uleb128 0x1
 1863 042e 37       		.byte	0x37
 1864 042f 14       		.uleb128 0x14
 1865 0430 01       		.uleb128 0x1
 1866 0431 50       		.byte	0x50
 1867 0432 01       		.uleb128 0x1
 1868 0433 3D       		.byte	0x3d
ARM GAS  C:\Users\Tim\AppData\Local\Temp\ccA4EuzY.s 			page 78


 1869 0434 00       		.byte	0
 1870 0435 13       		.uleb128 0x13
 1871 0436 F8000000 		.4byte	.LVL18
 1872 043a B4090000 		.4byte	0x9b4
 1873 043e 48040000 		.4byte	0x448
 1874 0442 14       		.uleb128 0x14
 1875 0443 01       		.uleb128 0x1
 1876 0444 50       		.byte	0x50
 1877 0445 01       		.uleb128 0x1
 1878 0446 3D       		.byte	0x3d
 1879 0447 00       		.byte	0
 1880 0448 13       		.uleb128 0x13
 1881 0449 00010000 		.4byte	.LVL19
 1882 044d 9E090000 		.4byte	0x99e
 1883 0451 60040000 		.4byte	0x460
 1884 0455 14       		.uleb128 0x14
 1885 0456 01       		.uleb128 0x1
 1886 0457 51       		.byte	0x51
 1887 0458 01       		.uleb128 0x1
 1888 0459 37       		.byte	0x37
 1889 045a 14       		.uleb128 0x14
 1890 045b 01       		.uleb128 0x1
 1891 045c 50       		.byte	0x50
 1892 045d 01       		.uleb128 0x1
 1893 045e 3C       		.byte	0x3c
 1894 045f 00       		.byte	0
 1895 0460 15       		.uleb128 0x15
 1896 0461 08010000 		.4byte	.LVL20
 1897 0465 B4090000 		.4byte	0x9b4
 1898 0469 14       		.uleb128 0x14
 1899 046a 01       		.uleb128 0x1
 1900 046b 50       		.byte	0x50
 1901 046c 01       		.uleb128 0x1
 1902 046d 3C       		.byte	0x3c
 1903 046e 00       		.byte	0
 1904 046f 00       		.byte	0
 1905 0470 16       		.uleb128 0x16
 1906 0471 9D050000 		.4byte	.LASF48
 1907 0475 01       		.byte	0x1
 1908 0476 CB01     		.2byte	0x1cb
 1909 0478 00000000 		.4byte	.LFB2
 1910 047c D4000000 		.4byte	.LFE2-.LFB2
 1911 0480 01       		.uleb128 0x1
 1912 0481 9C       		.byte	0x9c
 1913 0482 C4040000 		.4byte	0x4c4
 1914 0486 17       		.uleb128 0x17
 1915 0487 C3000000 		.4byte	.LASF49
 1916 048b 01       		.byte	0x1
 1917 048c CB01     		.2byte	0x1cb
 1918 048e 6B000000 		.4byte	0x6b
 1919 0492 13000000 		.4byte	.LLST1
 1920 0496 17       		.uleb128 0x17
 1921 0497 97040000 		.4byte	.LASF50
 1922 049b 01       		.byte	0x1
 1923 049c CB01     		.2byte	0x1cb
 1924 049e 6B000000 		.4byte	0x6b
 1925 04a2 34000000 		.4byte	.LLST2
ARM GAS  C:\Users\Tim\AppData\Local\Temp\ccA4EuzY.s 			page 79


 1926 04a6 18       		.uleb128 0x18
 1927 04a7 6900     		.ascii	"i\000"
 1928 04a9 01       		.byte	0x1
 1929 04aa D201     		.2byte	0x1d2
 1930 04ac 6B000000 		.4byte	0x6b
 1931 04b0 55000000 		.4byte	.LLST3
 1932 04b4 15       		.uleb128 0x15
 1933 04b5 98000000 		.4byte	.LVL29
 1934 04b9 CE090000 		.4byte	0x9ce
 1935 04bd 14       		.uleb128 0x14
 1936 04be 01       		.uleb128 0x1
 1937 04bf 50       		.byte	0x50
 1938 04c0 01       		.uleb128 0x1
 1939 04c1 31       		.byte	0x31
 1940 04c2 00       		.byte	0
 1941 04c3 00       		.byte	0
 1942 04c4 10       		.uleb128 0x10
 1943 04c5 8B020000 		.4byte	.LASF52
 1944 04c9 01       		.byte	0x1
 1945 04ca B9       		.byte	0xb9
 1946 04cb 00000000 		.4byte	.LFB0
 1947 04cf 24000000 		.4byte	.LFE0-.LFB0
 1948 04d3 01       		.uleb128 0x1
 1949 04d4 9C       		.byte	0x9c
 1950 04d5 17050000 		.4byte	0x517
 1951 04d9 19       		.uleb128 0x19
 1952 04da C3000000 		.4byte	.LASF49
 1953 04de 01       		.byte	0x1
 1954 04df B9       		.byte	0xb9
 1955 04e0 6B000000 		.4byte	0x6b
 1956 04e4 7F000000 		.4byte	.LLST4
 1957 04e8 19       		.uleb128 0x19
 1958 04e9 97040000 		.4byte	.LASF50
 1959 04ed 01       		.byte	0x1
 1960 04ee B9       		.byte	0xb9
 1961 04ef 6B000000 		.4byte	0x6b
 1962 04f3 A0000000 		.4byte	.LLST5
 1963 04f7 12       		.uleb128 0x12
 1964 04f8 10000000 		.4byte	.LVL31
 1965 04fc B6020000 		.4byte	0x2b6
 1966 0500 15       		.uleb128 0x15
 1967 0501 1E000000 		.4byte	.LVL32
 1968 0505 70040000 		.4byte	0x470
 1969 0509 14       		.uleb128 0x14
 1970 050a 01       		.uleb128 0x1
 1971 050b 51       		.byte	0x51
 1972 050c 02       		.uleb128 0x2
 1973 050d 74       		.byte	0x74
 1974 050e 00       		.sleb128 0
 1975 050f 14       		.uleb128 0x14
 1976 0510 01       		.uleb128 0x1
 1977 0511 50       		.byte	0x50
 1978 0512 02       		.uleb128 0x2
 1979 0513 75       		.byte	0x75
 1980 0514 00       		.sleb128 0
 1981 0515 00       		.byte	0
 1982 0516 00       		.byte	0
ARM GAS  C:\Users\Tim\AppData\Local\Temp\ccA4EuzY.s 			page 80


 1983 0517 16       		.uleb128 0x16
 1984 0518 F0050000 		.4byte	.LASF53
 1985 051c 01       		.byte	0x1
 1986 051d 9E02     		.2byte	0x29e
 1987 051f 00000000 		.4byte	.LFB3
 1988 0523 64000000 		.4byte	.LFE3-.LFB3
 1989 0527 01       		.uleb128 0x1
 1990 0528 9C       		.byte	0x9c
 1991 0529 3C050000 		.4byte	0x53c
 1992 052d 18       		.uleb128 0x18
 1993 052e 6900     		.ascii	"i\000"
 1994 0530 01       		.byte	0x1
 1995 0531 A402     		.2byte	0x2a4
 1996 0533 6B000000 		.4byte	0x6b
 1997 0537 C1000000 		.4byte	.LLST6
 1998 053b 00       		.byte	0
 1999 053c 16       		.uleb128 0x16
 2000 053d 45000000 		.4byte	.LASF54
 2001 0541 01       		.byte	0x1
 2002 0542 D802     		.2byte	0x2d8
 2003 0544 00000000 		.4byte	.LFB4
 2004 0548 98000000 		.4byte	.LFE4-.LFB4
 2005 054c 01       		.uleb128 0x1
 2006 054d 9C       		.byte	0x9c
 2007 054e 75050000 		.4byte	0x575
 2008 0552 1A       		.uleb128 0x1a
 2009 0553 F9040000 		.4byte	.LASF51
 2010 0557 01       		.byte	0x1
 2011 0558 DA02     		.2byte	0x2da
 2012 055a 6B000000 		.4byte	0x6b
 2013 055e EB000000 		.4byte	.LLST7
 2014 0562 12       		.uleb128 0x12
 2015 0563 06000000 		.4byte	.LVL38
 2016 0567 71090000 		.4byte	0x971
 2017 056b 12       		.uleb128 0x12
 2018 056c 36000000 		.4byte	.LVL39
 2019 0570 8D090000 		.4byte	0x98d
 2020 0574 00       		.byte	0
 2021 0575 1B       		.uleb128 0x1b
 2022 0576 43010000 		.4byte	.LASF56
 2023 057a 01       		.byte	0x1
 2024 057b 4303     		.2byte	0x343
 2025 057d 6B000000 		.4byte	0x6b
 2026 0581 00000000 		.4byte	.LFB5
 2027 0585 20000000 		.4byte	.LFE5-.LFB5
 2028 0589 01       		.uleb128 0x1
 2029 058a 9C       		.byte	0x9c
 2030 058b A0050000 		.4byte	0x5a0
 2031 058f 1A       		.uleb128 0x1a
 2032 0590 D2020000 		.4byte	.LASF55
 2033 0594 01       		.byte	0x1
 2034 0595 4503     		.2byte	0x345
 2035 0597 6B000000 		.4byte	0x6b
 2036 059b FE000000 		.4byte	.LLST8
 2037 059f 00       		.byte	0
 2038 05a0 1C       		.uleb128 0x1c
 2039 05a1 CA000000 		.4byte	.LASF77
ARM GAS  C:\Users\Tim\AppData\Local\Temp\ccA4EuzY.s 			page 81


 2040 05a5 01       		.byte	0x1
 2041 05a6 5A03     		.2byte	0x35a
 2042 05a8 6B000000 		.4byte	0x6b
 2043 05ac 00000000 		.4byte	.LFB6
 2044 05b0 0C000000 		.4byte	.LFE6-.LFB6
 2045 05b4 01       		.uleb128 0x1
 2046 05b5 9C       		.byte	0x9c
 2047 05b6 1B       		.uleb128 0x1b
 2048 05b7 C9050000 		.4byte	.LASF57
 2049 05bb 01       		.byte	0x1
 2050 05bc 7403     		.2byte	0x374
 2051 05be 6B000000 		.4byte	0x6b
 2052 05c2 00000000 		.4byte	.LFB7
 2053 05c6 20000000 		.4byte	.LFE7-.LFB7
 2054 05ca 01       		.uleb128 0x1
 2055 05cb 9C       		.byte	0x9c
 2056 05cc E1050000 		.4byte	0x5e1
 2057 05d0 18       		.uleb128 0x18
 2058 05d1 72657300 		.ascii	"res\000"
 2059 05d5 01       		.byte	0x1
 2060 05d6 7603     		.2byte	0x376
 2061 05d8 6B000000 		.4byte	0x6b
 2062 05dc 11010000 		.4byte	.LLST9
 2063 05e0 00       		.byte	0
 2064 05e1 1B       		.uleb128 0x1b
 2065 05e2 99020000 		.4byte	.LASF58
 2066 05e6 01       		.byte	0x1
 2067 05e7 9103     		.2byte	0x391
 2068 05e9 6B000000 		.4byte	0x6b
 2069 05ed 00000000 		.4byte	.LFB8
 2070 05f1 0C000000 		.4byte	.LFE8-.LFB8
 2071 05f5 01       		.uleb128 0x1
 2072 05f6 9C       		.byte	0x9c
 2073 05f7 0C060000 		.4byte	0x60c
 2074 05fb 17       		.uleb128 0x17
 2075 05fc D6040000 		.4byte	.LASF59
 2076 0600 01       		.byte	0x1
 2077 0601 9103     		.2byte	0x391
 2078 0603 6B000000 		.4byte	0x6b
 2079 0607 47010000 		.4byte	.LLST10
 2080 060b 00       		.byte	0
 2081 060c 1B       		.uleb128 0x1b
 2082 060d 39040000 		.4byte	.LASF60
 2083 0611 01       		.byte	0x1
 2084 0612 B103     		.2byte	0x3b1
 2085 0614 6B000000 		.4byte	0x6b
 2086 0618 00000000 		.4byte	.LFB9
 2087 061c 14000000 		.4byte	.LFE9-.LFB9
 2088 0620 01       		.uleb128 0x1
 2089 0621 9C       		.byte	0x9c
 2090 0622 37060000 		.4byte	0x637
 2091 0626 17       		.uleb128 0x17
 2092 0627 BA000000 		.4byte	.LASF61
 2093 062b 01       		.byte	0x1
 2094 062c B103     		.2byte	0x3b1
 2095 062e 6B000000 		.4byte	0x6b
 2096 0632 68010000 		.4byte	.LLST11
ARM GAS  C:\Users\Tim\AppData\Local\Temp\ccA4EuzY.s 			page 82


 2097 0636 00       		.byte	0
 2098 0637 1B       		.uleb128 0x1b
 2099 0638 E6040000 		.4byte	.LASF62
 2100 063c 01       		.byte	0x1
 2101 063d C803     		.2byte	0x3c8
 2102 063f 77000000 		.4byte	0x77
 2103 0643 00000000 		.4byte	.LFB10
 2104 0647 28000000 		.4byte	.LFE10-.LFB10
 2105 064b 01       		.uleb128 0x1
 2106 064c 9C       		.byte	0x9c
 2107 064d 72060000 		.4byte	0x672
 2108 0651 17       		.uleb128 0x17
 2109 0652 BA000000 		.4byte	.LASF61
 2110 0656 01       		.byte	0x1
 2111 0657 C803     		.2byte	0x3c8
 2112 0659 6B000000 		.4byte	0x6b
 2113 065d 89010000 		.4byte	.LLST12
 2114 0661 1A       		.uleb128 0x1a
 2115 0662 27010000 		.4byte	.LASF63
 2116 0666 01       		.byte	0x1
 2117 0667 CA03     		.2byte	0x3ca
 2118 0669 77000000 		.4byte	0x77
 2119 066d C3010000 		.4byte	.LLST13
 2120 0671 00       		.byte	0
 2121 0672 16       		.uleb128 0x16
 2122 0673 7C000000 		.4byte	.LASF64
 2123 0677 01       		.byte	0x1
 2124 0678 3005     		.2byte	0x530
 2125 067a 00000000 		.4byte	.LFB11
 2126 067e 94000000 		.4byte	.LFE11-.LFB11
 2127 0682 01       		.uleb128 0x1
 2128 0683 9C       		.byte	0x9c
 2129 0684 CB060000 		.4byte	0x6cb
 2130 0688 17       		.uleb128 0x17
 2131 0689 BA000000 		.4byte	.LASF61
 2132 068d 01       		.byte	0x1
 2133 068e 3005     		.2byte	0x530
 2134 0690 6B000000 		.4byte	0x6b
 2135 0694 11020000 		.4byte	.LLST14
 2136 0698 1D       		.uleb128 0x1d
 2137 0699 17020000 		.4byte	.LASF65
 2138 069d 01       		.byte	0x1
 2139 069e 3005     		.2byte	0x530
 2140 06a0 CB060000 		.4byte	0x6cb
 2141 06a4 01       		.uleb128 0x1
 2142 06a5 51       		.byte	0x51
 2143 06a6 17       		.uleb128 0x17
 2144 06a7 8B040000 		.4byte	.LASF66
 2145 06ab 01       		.byte	0x1
 2146 06ac 3005     		.2byte	0x530
 2147 06ae 77000000 		.4byte	0x77
 2148 06b2 32020000 		.4byte	.LLST15
 2149 06b6 1E       		.uleb128 0x1e
 2150 06b7 00000000 		.4byte	.Ldebug_ranges0+0
 2151 06bb 18       		.uleb128 0x18
 2152 06bc 6900     		.ascii	"i\000"
 2153 06be 01       		.byte	0x1
ARM GAS  C:\Users\Tim\AppData\Local\Temp\ccA4EuzY.s 			page 83


 2154 06bf 4505     		.2byte	0x545
 2155 06c1 77000000 		.4byte	0x77
 2156 06c5 5E020000 		.4byte	.LLST16
 2157 06c9 00       		.byte	0
 2158 06ca 00       		.byte	0
 2159 06cb 06       		.uleb128 0x6
 2160 06cc 04       		.byte	0x4
 2161 06cd D1060000 		.4byte	0x6d1
 2162 06d1 1F       		.uleb128 0x1f
 2163 06d2 6B000000 		.4byte	0x6b
 2164 06d6 16       		.uleb128 0x16
 2165 06d7 FD000000 		.4byte	.LASF67
 2166 06db 01       		.byte	0x1
 2167 06dc C708     		.2byte	0x8c7
 2168 06de 00000000 		.4byte	.LFB13
 2169 06e2 2C000000 		.4byte	.LFE13-.LFB13
 2170 06e6 01       		.uleb128 0x1
 2171 06e7 9C       		.byte	0x9c
 2172 06e8 FD060000 		.4byte	0x6fd
 2173 06ec 17       		.uleb128 0x17
 2174 06ed BA000000 		.4byte	.LASF61
 2175 06f1 01       		.byte	0x1
 2176 06f2 C708     		.2byte	0x8c7
 2177 06f4 6B000000 		.4byte	0x6b
 2178 06f8 87020000 		.4byte	.LLST17
 2179 06fc 00       		.byte	0
 2180 06fd 1B       		.uleb128 0x1b
 2181 06fe A6030000 		.4byte	.LASF68
 2182 0702 01       		.byte	0x1
 2183 0703 6306     		.2byte	0x663
 2184 0705 77000000 		.4byte	0x77
 2185 0709 00000000 		.4byte	.LFB12
 2186 070d 50000000 		.4byte	.LFE12-.LFB12
 2187 0711 01       		.uleb128 0x1
 2188 0712 9C       		.byte	0x9c
 2189 0713 9C070000 		.4byte	0x79c
 2190 0717 17       		.uleb128 0x17
 2191 0718 BA000000 		.4byte	.LASF61
 2192 071c 01       		.byte	0x1
 2193 071d 6306     		.2byte	0x663
 2194 071f 6B000000 		.4byte	0x6b
 2195 0723 A8020000 		.4byte	.LLST18
 2196 0727 17       		.uleb128 0x17
 2197 0728 17020000 		.4byte	.LASF65
 2198 072c 01       		.byte	0x1
 2199 072d 6306     		.2byte	0x663
 2200 072f 9C070000 		.4byte	0x79c
 2201 0733 E2020000 		.4byte	.LLST19
 2202 0737 17       		.uleb128 0x17
 2203 0738 8B040000 		.4byte	.LASF66
 2204 073c 01       		.byte	0x1
 2205 073d 6306     		.2byte	0x663
 2206 073f 77000000 		.4byte	0x77
 2207 0743 19030000 		.4byte	.LLST20
 2208 0747 20       		.uleb128 0x20
 2209 0748 20000000 		.4byte	.LBB4
 2210 074c 14000000 		.4byte	.LBE4-.LBB4
ARM GAS  C:\Users\Tim\AppData\Local\Temp\ccA4EuzY.s 			page 84


 2211 0750 63070000 		.4byte	0x763
 2212 0754 18       		.uleb128 0x18
 2213 0755 6900     		.ascii	"i\000"
 2214 0757 01       		.byte	0x1
 2215 0758 7006     		.2byte	0x670
 2216 075a 77000000 		.4byte	0x77
 2217 075e 5B030000 		.4byte	.LLST21
 2218 0762 00       		.byte	0
 2219 0763 13       		.uleb128 0x13
 2220 0764 14000000 		.4byte	.LVL72
 2221 0768 37060000 		.4byte	0x637
 2222 076c 77070000 		.4byte	0x777
 2223 0770 14       		.uleb128 0x14
 2224 0771 01       		.uleb128 0x1
 2225 0772 50       		.byte	0x50
 2226 0773 02       		.uleb128 0x2
 2227 0774 75       		.byte	0x75
 2228 0775 00       		.sleb128 0
 2229 0776 00       		.byte	0
 2230 0777 13       		.uleb128 0x13
 2231 0778 1E000000 		.4byte	.LVL73
 2232 077c 37060000 		.4byte	0x637
 2233 0780 8B070000 		.4byte	0x78b
 2234 0784 14       		.uleb128 0x14
 2235 0785 01       		.uleb128 0x1
 2236 0786 50       		.byte	0x50
 2237 0787 02       		.uleb128 0x2
 2238 0788 75       		.byte	0x75
 2239 0789 00       		.sleb128 0
 2240 078a 00       		.byte	0
 2241 078b 15       		.uleb128 0x15
 2242 078c 3A000000 		.4byte	.LVL78
 2243 0790 D6060000 		.4byte	0x6d6
 2244 0794 14       		.uleb128 0x14
 2245 0795 01       		.uleb128 0x1
 2246 0796 50       		.byte	0x50
 2247 0797 02       		.uleb128 0x2
 2248 0798 75       		.byte	0x75
 2249 0799 00       		.sleb128 0
 2250 079a 00       		.byte	0
 2251 079b 00       		.byte	0
 2252 079c 06       		.uleb128 0x6
 2253 079d 04       		.byte	0x4
 2254 079e 6B000000 		.4byte	0x6b
 2255 07a2 16       		.uleb128 0x16
 2256 07a3 51040000 		.4byte	.LASF69
 2257 07a7 01       		.byte	0x1
 2258 07a8 DF08     		.2byte	0x8df
 2259 07aa 00000000 		.4byte	.LFB14
 2260 07ae 18000000 		.4byte	.LFE14-.LFB14
 2261 07b2 01       		.uleb128 0x1
 2262 07b3 9C       		.byte	0x9c
 2263 07b4 C9070000 		.4byte	0x7c9
 2264 07b8 17       		.uleb128 0x17
 2265 07b9 BA000000 		.4byte	.LASF61
 2266 07bd 01       		.byte	0x1
 2267 07be DF08     		.2byte	0x8df
ARM GAS  C:\Users\Tim\AppData\Local\Temp\ccA4EuzY.s 			page 85


 2268 07c0 6B000000 		.4byte	0x6b
 2269 07c4 85030000 		.4byte	.LLST22
 2270 07c8 00       		.byte	0
 2271 07c9 16       		.uleb128 0x16
 2272 07ca 3B030000 		.4byte	.LASF70
 2273 07ce 01       		.byte	0x1
 2274 07cf FD08     		.2byte	0x8fd
 2275 07d1 00000000 		.4byte	.LFB15
 2276 07d5 0C000000 		.4byte	.LFE15-.LFB15
 2277 07d9 01       		.uleb128 0x1
 2278 07da 9C       		.byte	0x9c
 2279 07db EE070000 		.4byte	0x7ee
 2280 07df 1D       		.uleb128 0x1d
 2281 07e0 84040000 		.4byte	.LASF71
 2282 07e4 01       		.byte	0x1
 2283 07e5 FD08     		.2byte	0x8fd
 2284 07e7 6B000000 		.4byte	0x6b
 2285 07eb 01       		.uleb128 0x1
 2286 07ec 50       		.byte	0x50
 2287 07ed 00       		.byte	0
 2288 07ee 1B       		.uleb128 0x1b
 2289 07ef 11010000 		.4byte	.LASF72
 2290 07f3 01       		.byte	0x1
 2291 07f4 1609     		.2byte	0x916
 2292 07f6 6B000000 		.4byte	0x6b
 2293 07fa 00000000 		.4byte	.LFB16
 2294 07fe 20000000 		.4byte	.LFE16-.LFB16
 2295 0802 01       		.uleb128 0x1
 2296 0803 9C       		.byte	0x9c
 2297 0804 28080000 		.4byte	0x828
 2298 0808 17       		.uleb128 0x17
 2299 0809 BA000000 		.4byte	.LASF61
 2300 080d 01       		.byte	0x1
 2301 080e 1609     		.2byte	0x916
 2302 0810 6B000000 		.4byte	0x6b
 2303 0814 A6030000 		.4byte	.LLST23
 2304 0818 18       		.uleb128 0x18
 2305 0819 637200   		.ascii	"cr\000"
 2306 081c 01       		.byte	0x1
 2307 081d 1809     		.2byte	0x918
 2308 081f 6B000000 		.4byte	0x6b
 2309 0823 E0030000 		.4byte	.LLST24
 2310 0827 00       		.byte	0
 2311 0828 16       		.uleb128 0x16
 2312 0829 BD010000 		.4byte	.LASF73
 2313 082d 01       		.byte	0x1
 2314 082e 3F09     		.2byte	0x93f
 2315 0830 00000000 		.4byte	.LFB17
 2316 0834 20000000 		.4byte	.LFE17-.LFB17
 2317 0838 01       		.uleb128 0x1
 2318 0839 9C       		.byte	0x9c
 2319 083a 4D080000 		.4byte	0x84d
 2320 083e 1D       		.uleb128 0x1d
 2321 083f 9B010000 		.4byte	.LASF74
 2322 0843 01       		.byte	0x1
 2323 0844 3F09     		.2byte	0x93f
 2324 0846 6B000000 		.4byte	0x6b
ARM GAS  C:\Users\Tim\AppData\Local\Temp\ccA4EuzY.s 			page 86


 2325 084a 01       		.uleb128 0x1
 2326 084b 50       		.byte	0x50
 2327 084c 00       		.byte	0
 2328 084d 1B       		.uleb128 0x1b
 2329 084e 52000000 		.4byte	.LASF75
 2330 0852 01       		.byte	0x1
 2331 0853 7809     		.2byte	0x978
 2332 0855 6B000000 		.4byte	0x6b
 2333 0859 00000000 		.4byte	.LFB18
 2334 085d 18000000 		.4byte	.LFE18-.LFB18
 2335 0861 01       		.uleb128 0x1
 2336 0862 9C       		.byte	0x9c
 2337 0863 78080000 		.4byte	0x878
 2338 0867 1A       		.uleb128 0x1a
 2339 0868 50060000 		.4byte	.LASF76
 2340 086c 01       		.byte	0x1
 2341 086d 7A09     		.2byte	0x97a
 2342 086f 6B000000 		.4byte	0x6b
 2343 0873 16040000 		.4byte	.LLST25
 2344 0877 00       		.byte	0
 2345 0878 1C       		.uleb128 0x1c
 2346 0879 2C000000 		.4byte	.LASF78
 2347 087d 01       		.byte	0x1
 2348 087e 9009     		.2byte	0x990
 2349 0880 6B000000 		.4byte	0x6b
 2350 0884 00000000 		.4byte	.LFB19
 2351 0888 10000000 		.4byte	.LFE19-.LFB19
 2352 088c 01       		.uleb128 0x1
 2353 088d 9C       		.byte	0x9c
 2354 088e 21       		.uleb128 0x21
 2355 088f 1E060000 		.4byte	.LASF79
 2356 0893 01       		.byte	0x1
 2357 0894 9E09     		.2byte	0x99e
 2358 0896 00000000 		.4byte	.LFB20
 2359 089a 10000000 		.4byte	.LFE20-.LFB20
 2360 089e 01       		.uleb128 0x1
 2361 089f 9C       		.byte	0x9c
 2362 08a0 21       		.uleb128 0x21
 2363 08a1 A7010000 		.4byte	.LASF80
 2364 08a5 01       		.byte	0x1
 2365 08a6 B409     		.2byte	0x9b4
 2366 08a8 00000000 		.4byte	.LFB21
 2367 08ac 10000000 		.4byte	.LFE21-.LFB21
 2368 08b0 01       		.uleb128 0x1
 2369 08b1 9C       		.byte	0x9c
 2370 08b2 22       		.uleb128 0x22
 2371 08b3 D9010000 		.4byte	.LASF81
 2372 08b7 01       		.byte	0x1
 2373 08b8 27       		.byte	0x27
 2374 08b9 6B000000 		.4byte	0x6b
 2375 08bd 05       		.uleb128 0x5
 2376 08be 03       		.byte	0x3
 2377 08bf 00000000 		.4byte	USBUART_initVar
 2378 08c3 23       		.uleb128 0x23
 2379 08c4 07000000 		.4byte	.LASF82
 2380 08c8 03       		.byte	0x3
 2381 08c9 D602     		.2byte	0x2d6
ARM GAS  C:\Users\Tim\AppData\Local\Temp\ccA4EuzY.s 			page 87


 2382 08cb B0000000 		.4byte	0xb0
 2383 08cf 23       		.uleb128 0x23
 2384 08d0 08060000 		.4byte	.LASF83
 2385 08d4 03       		.byte	0x3
 2386 08d5 D702     		.2byte	0x2d7
 2387 08d7 B0000000 		.4byte	0xb0
 2388 08db 23       		.uleb128 0x23
 2389 08dc B3050000 		.4byte	.LASF84
 2390 08e0 03       		.byte	0x3
 2391 08e1 D802     		.2byte	0x2d8
 2392 08e3 B0000000 		.4byte	0xb0
 2393 08e7 23       		.uleb128 0x23
 2394 08e8 33060000 		.4byte	.LASF85
 2395 08ec 03       		.byte	0x3
 2396 08ed D902     		.2byte	0x2d9
 2397 08ef B0000000 		.4byte	0xb0
 2398 08f3 23       		.uleb128 0x23
 2399 08f4 2D020000 		.4byte	.LASF86
 2400 08f8 03       		.byte	0x3
 2401 08f9 DA02     		.2byte	0x2da
 2402 08fb B0000000 		.4byte	0xb0
 2403 08ff 0C       		.uleb128 0xc
 2404 0900 6B000000 		.4byte	0x6b
 2405 0904 0F090000 		.4byte	0x90f
 2406 0908 0D       		.uleb128 0xd
 2407 0909 D9000000 		.4byte	0xd9
 2408 090d 01       		.byte	0x1
 2409 090e 00       		.byte	0
 2410 090f 23       		.uleb128 0x23
 2411 0910 71010000 		.4byte	.LASF87
 2412 0914 03       		.byte	0x3
 2413 0915 E302     		.2byte	0x2e3
 2414 0917 1B090000 		.4byte	0x91b
 2415 091b 05       		.uleb128 0x5
 2416 091c FF080000 		.4byte	0x8ff
 2417 0920 24       		.uleb128 0x24
 2418 0921 E9010000 		.4byte	.LASF88
 2419 0925 04       		.byte	0x4
 2420 0926 73       		.byte	0x73
 2421 0927 B0000000 		.4byte	0xb0
 2422 092b 24       		.uleb128 0x24
 2423 092c 08040000 		.4byte	.LASF89
 2424 0930 04       		.byte	0x4
 2425 0931 74       		.byte	0x74
 2426 0932 36090000 		.4byte	0x936
 2427 0936 05       		.uleb128 0x5
 2428 0937 FF080000 		.4byte	0x8ff
 2429 093b 24       		.uleb128 0x24
 2430 093c DF020000 		.4byte	.LASF90
 2431 0940 04       		.byte	0x4
 2432 0941 76       		.byte	0x76
 2433 0942 B0000000 		.4byte	0xb0
 2434 0946 0C       		.uleb128 0xc
 2435 0947 55010000 		.4byte	0x155
 2436 094b 56090000 		.4byte	0x956
 2437 094f 0D       		.uleb128 0xd
 2438 0950 D9000000 		.4byte	0xd9
ARM GAS  C:\Users\Tim\AppData\Local\Temp\ccA4EuzY.s 			page 88


 2439 0954 08       		.byte	0x8
 2440 0955 00       		.byte	0
 2441 0956 24       		.uleb128 0x24
 2442 0957 AF000000 		.4byte	.LASF91
 2443 095b 04       		.byte	0x4
 2444 095c 7A       		.byte	0x7a
 2445 095d 61090000 		.4byte	0x961
 2446 0961 05       		.uleb128 0x5
 2447 0962 46090000 		.4byte	0x946
 2448 0966 24       		.uleb128 0x24
 2449 0967 65000000 		.4byte	.LASF92
 2450 096b 04       		.byte	0x4
 2451 096c 9C       		.byte	0x9c
 2452 096d B0000000 		.4byte	0xb0
 2453 0971 25       		.uleb128 0x25
 2454 0972 61020000 		.4byte	.LASF99
 2455 0976 05       		.byte	0x5
 2456 0977 7E       		.byte	0x7e
 2457 0978 6B000000 		.4byte	0x6b
 2458 097c 26       		.uleb128 0x26
 2459 097d 8A010000 		.4byte	.LASF93
 2460 0981 05       		.byte	0x5
 2461 0982 78       		.byte	0x78
 2462 0983 8D090000 		.4byte	0x98d
 2463 0987 27       		.uleb128 0x27
 2464 0988 77000000 		.4byte	0x77
 2465 098c 00       		.byte	0
 2466 098d 26       		.uleb128 0x26
 2467 098e 16000000 		.4byte	.LASF94
 2468 0992 05       		.byte	0x5
 2469 0993 7F       		.byte	0x7f
 2470 0994 9E090000 		.4byte	0x99e
 2471 0998 27       		.uleb128 0x27
 2472 0999 6B000000 		.4byte	0x6b
 2473 099d 00       		.byte	0
 2474 099e 26       		.uleb128 0x26
 2475 099f 89030000 		.4byte	.LASF95
 2476 09a3 05       		.byte	0x5
 2477 09a4 8C       		.byte	0x8c
 2478 09a5 B4090000 		.4byte	0x9b4
 2479 09a9 27       		.uleb128 0x27
 2480 09aa 6B000000 		.4byte	0x6b
 2481 09ae 27       		.uleb128 0x27
 2482 09af 6B000000 		.4byte	0x6b
 2483 09b3 00       		.byte	0
 2484 09b4 28       		.uleb128 0x28
 2485 09b5 08020000 		.4byte	.LASF100
 2486 09b9 05       		.byte	0x5
 2487 09ba 89       		.byte	0x89
 2488 09bb C6000000 		.4byte	0xc6
 2489 09bf CE090000 		.4byte	0x9ce
 2490 09c3 27       		.uleb128 0x27
 2491 09c4 6B000000 		.4byte	0x6b
 2492 09c8 27       		.uleb128 0x27
 2493 09c9 C6000000 		.4byte	0xc6
 2494 09cd 00       		.byte	0
 2495 09ce 29       		.uleb128 0x29
ARM GAS  C:\Users\Tim\AppData\Local\Temp\ccA4EuzY.s 			page 89


 2496 09cf C3030000 		.4byte	.LASF101
 2497 09d3 05       		.byte	0x5
 2498 09d4 7A       		.byte	0x7a
 2499 09d5 27       		.uleb128 0x27
 2500 09d6 83000000 		.4byte	0x83
 2501 09da 00       		.byte	0
 2502 09db 00       		.byte	0
 2503              		.section	.debug_abbrev,"",%progbits
 2504              	.Ldebug_abbrev0:
 2505 0000 01       		.uleb128 0x1
 2506 0001 11       		.uleb128 0x11
 2507 0002 01       		.byte	0x1
 2508 0003 25       		.uleb128 0x25
 2509 0004 0E       		.uleb128 0xe
 2510 0005 13       		.uleb128 0x13
 2511 0006 0B       		.uleb128 0xb
 2512 0007 03       		.uleb128 0x3
 2513 0008 0E       		.uleb128 0xe
 2514 0009 1B       		.uleb128 0x1b
 2515 000a 0E       		.uleb128 0xe
 2516 000b 55       		.uleb128 0x55
 2517 000c 17       		.uleb128 0x17
 2518 000d 11       		.uleb128 0x11
 2519 000e 01       		.uleb128 0x1
 2520 000f 10       		.uleb128 0x10
 2521 0010 17       		.uleb128 0x17
 2522 0011 00       		.byte	0
 2523 0012 00       		.byte	0
 2524 0013 02       		.uleb128 0x2
 2525 0014 24       		.uleb128 0x24
 2526 0015 00       		.byte	0
 2527 0016 0B       		.uleb128 0xb
 2528 0017 0B       		.uleb128 0xb
 2529 0018 3E       		.uleb128 0x3e
 2530 0019 0B       		.uleb128 0xb
 2531 001a 03       		.uleb128 0x3
 2532 001b 0E       		.uleb128 0xe
 2533 001c 00       		.byte	0
 2534 001d 00       		.byte	0
 2535 001e 03       		.uleb128 0x3
 2536 001f 24       		.uleb128 0x24
 2537 0020 00       		.byte	0
 2538 0021 0B       		.uleb128 0xb
 2539 0022 0B       		.uleb128 0xb
 2540 0023 3E       		.uleb128 0x3e
 2541 0024 0B       		.uleb128 0xb
 2542 0025 03       		.uleb128 0x3
 2543 0026 08       		.uleb128 0x8
 2544 0027 00       		.byte	0
 2545 0028 00       		.byte	0
 2546 0029 04       		.uleb128 0x4
 2547 002a 16       		.uleb128 0x16
 2548 002b 00       		.byte	0
 2549 002c 03       		.uleb128 0x3
 2550 002d 0E       		.uleb128 0xe
 2551 002e 3A       		.uleb128 0x3a
 2552 002f 0B       		.uleb128 0xb
ARM GAS  C:\Users\Tim\AppData\Local\Temp\ccA4EuzY.s 			page 90


 2553 0030 3B       		.uleb128 0x3b
 2554 0031 05       		.uleb128 0x5
 2555 0032 49       		.uleb128 0x49
 2556 0033 13       		.uleb128 0x13
 2557 0034 00       		.byte	0
 2558 0035 00       		.byte	0
 2559 0036 05       		.uleb128 0x5
 2560 0037 35       		.uleb128 0x35
 2561 0038 00       		.byte	0
 2562 0039 49       		.uleb128 0x49
 2563 003a 13       		.uleb128 0x13
 2564 003b 00       		.byte	0
 2565 003c 00       		.byte	0
 2566 003d 06       		.uleb128 0x6
 2567 003e 0F       		.uleb128 0xf
 2568 003f 00       		.byte	0
 2569 0040 0B       		.uleb128 0xb
 2570 0041 0B       		.uleb128 0xb
 2571 0042 49       		.uleb128 0x49
 2572 0043 13       		.uleb128 0x13
 2573 0044 00       		.byte	0
 2574 0045 00       		.byte	0
 2575 0046 07       		.uleb128 0x7
 2576 0047 15       		.uleb128 0x15
 2577 0048 00       		.byte	0
 2578 0049 27       		.uleb128 0x27
 2579 004a 19       		.uleb128 0x19
 2580 004b 00       		.byte	0
 2581 004c 00       		.byte	0
 2582 004d 08       		.uleb128 0x8
 2583 004e 13       		.uleb128 0x13
 2584 004f 01       		.byte	0x1
 2585 0050 0B       		.uleb128 0xb
 2586 0051 0B       		.uleb128 0xb
 2587 0052 3A       		.uleb128 0x3a
 2588 0053 0B       		.uleb128 0xb
 2589 0054 3B       		.uleb128 0x3b
 2590 0055 0B       		.uleb128 0xb
 2591 0056 01       		.uleb128 0x1
 2592 0057 13       		.uleb128 0x13
 2593 0058 00       		.byte	0
 2594 0059 00       		.byte	0
 2595 005a 09       		.uleb128 0x9
 2596 005b 0D       		.uleb128 0xd
 2597 005c 00       		.byte	0
 2598 005d 03       		.uleb128 0x3
 2599 005e 0E       		.uleb128 0xe
 2600 005f 3A       		.uleb128 0x3a
 2601 0060 0B       		.uleb128 0xb
 2602 0061 3B       		.uleb128 0x3b
 2603 0062 0B       		.uleb128 0xb
 2604 0063 49       		.uleb128 0x49
 2605 0064 13       		.uleb128 0x13
 2606 0065 38       		.uleb128 0x38
 2607 0066 0B       		.uleb128 0xb
 2608 0067 00       		.byte	0
 2609 0068 00       		.byte	0
ARM GAS  C:\Users\Tim\AppData\Local\Temp\ccA4EuzY.s 			page 91


 2610 0069 0A       		.uleb128 0xa
 2611 006a 16       		.uleb128 0x16
 2612 006b 00       		.byte	0
 2613 006c 03       		.uleb128 0x3
 2614 006d 0E       		.uleb128 0xe
 2615 006e 3A       		.uleb128 0x3a
 2616 006f 0B       		.uleb128 0xb
 2617 0070 3B       		.uleb128 0x3b
 2618 0071 0B       		.uleb128 0xb
 2619 0072 49       		.uleb128 0x49
 2620 0073 13       		.uleb128 0x13
 2621 0074 00       		.byte	0
 2622 0075 00       		.byte	0
 2623 0076 0B       		.uleb128 0xb
 2624 0077 0D       		.uleb128 0xd
 2625 0078 00       		.byte	0
 2626 0079 03       		.uleb128 0x3
 2627 007a 08       		.uleb128 0x8
 2628 007b 3A       		.uleb128 0x3a
 2629 007c 0B       		.uleb128 0xb
 2630 007d 3B       		.uleb128 0x3b
 2631 007e 0B       		.uleb128 0xb
 2632 007f 49       		.uleb128 0x49
 2633 0080 13       		.uleb128 0x13
 2634 0081 38       		.uleb128 0x38
 2635 0082 0B       		.uleb128 0xb
 2636 0083 00       		.byte	0
 2637 0084 00       		.byte	0
 2638 0085 0C       		.uleb128 0xc
 2639 0086 01       		.uleb128 0x1
 2640 0087 01       		.byte	0x1
 2641 0088 49       		.uleb128 0x49
 2642 0089 13       		.uleb128 0x13
 2643 008a 01       		.uleb128 0x1
 2644 008b 13       		.uleb128 0x13
 2645 008c 00       		.byte	0
 2646 008d 00       		.byte	0
 2647 008e 0D       		.uleb128 0xd
 2648 008f 21       		.uleb128 0x21
 2649 0090 00       		.byte	0
 2650 0091 49       		.uleb128 0x49
 2651 0092 13       		.uleb128 0x13
 2652 0093 2F       		.uleb128 0x2f
 2653 0094 0B       		.uleb128 0xb
 2654 0095 00       		.byte	0
 2655 0096 00       		.byte	0
 2656 0097 0E       		.uleb128 0xe
 2657 0098 13       		.uleb128 0x13
 2658 0099 01       		.byte	0x1
 2659 009a 0B       		.uleb128 0xb
 2660 009b 0B       		.uleb128 0xb
 2661 009c 3A       		.uleb128 0x3a
 2662 009d 0B       		.uleb128 0xb
 2663 009e 3B       		.uleb128 0x3b
 2664 009f 05       		.uleb128 0x5
 2665 00a0 01       		.uleb128 0x1
 2666 00a1 13       		.uleb128 0x13
ARM GAS  C:\Users\Tim\AppData\Local\Temp\ccA4EuzY.s 			page 92


 2667 00a2 00       		.byte	0
 2668 00a3 00       		.byte	0
 2669 00a4 0F       		.uleb128 0xf
 2670 00a5 0D       		.uleb128 0xd
 2671 00a6 00       		.byte	0
 2672 00a7 03       		.uleb128 0x3
 2673 00a8 0E       		.uleb128 0xe
 2674 00a9 3A       		.uleb128 0x3a
 2675 00aa 0B       		.uleb128 0xb
 2676 00ab 3B       		.uleb128 0x3b
 2677 00ac 05       		.uleb128 0x5
 2678 00ad 49       		.uleb128 0x49
 2679 00ae 13       		.uleb128 0x13
 2680 00af 38       		.uleb128 0x38
 2681 00b0 0B       		.uleb128 0xb
 2682 00b1 00       		.byte	0
 2683 00b2 00       		.byte	0
 2684 00b3 10       		.uleb128 0x10
 2685 00b4 2E       		.uleb128 0x2e
 2686 00b5 01       		.byte	0x1
 2687 00b6 3F       		.uleb128 0x3f
 2688 00b7 19       		.uleb128 0x19
 2689 00b8 03       		.uleb128 0x3
 2690 00b9 0E       		.uleb128 0xe
 2691 00ba 3A       		.uleb128 0x3a
 2692 00bb 0B       		.uleb128 0xb
 2693 00bc 3B       		.uleb128 0x3b
 2694 00bd 0B       		.uleb128 0xb
 2695 00be 27       		.uleb128 0x27
 2696 00bf 19       		.uleb128 0x19
 2697 00c0 11       		.uleb128 0x11
 2698 00c1 01       		.uleb128 0x1
 2699 00c2 12       		.uleb128 0x12
 2700 00c3 06       		.uleb128 0x6
 2701 00c4 40       		.uleb128 0x40
 2702 00c5 18       		.uleb128 0x18
 2703 00c6 9742     		.uleb128 0x2117
 2704 00c8 19       		.uleb128 0x19
 2705 00c9 01       		.uleb128 0x1
 2706 00ca 13       		.uleb128 0x13
 2707 00cb 00       		.byte	0
 2708 00cc 00       		.byte	0
 2709 00cd 11       		.uleb128 0x11
 2710 00ce 34       		.uleb128 0x34
 2711 00cf 00       		.byte	0
 2712 00d0 03       		.uleb128 0x3
 2713 00d1 0E       		.uleb128 0xe
 2714 00d2 3A       		.uleb128 0x3a
 2715 00d3 0B       		.uleb128 0xb
 2716 00d4 3B       		.uleb128 0x3b
 2717 00d5 0B       		.uleb128 0xb
 2718 00d6 49       		.uleb128 0x49
 2719 00d7 13       		.uleb128 0x13
 2720 00d8 02       		.uleb128 0x2
 2721 00d9 17       		.uleb128 0x17
 2722 00da 00       		.byte	0
 2723 00db 00       		.byte	0
ARM GAS  C:\Users\Tim\AppData\Local\Temp\ccA4EuzY.s 			page 93


 2724 00dc 12       		.uleb128 0x12
 2725 00dd 898201   		.uleb128 0x4109
 2726 00e0 00       		.byte	0
 2727 00e1 11       		.uleb128 0x11
 2728 00e2 01       		.uleb128 0x1
 2729 00e3 31       		.uleb128 0x31
 2730 00e4 13       		.uleb128 0x13
 2731 00e5 00       		.byte	0
 2732 00e6 00       		.byte	0
 2733 00e7 13       		.uleb128 0x13
 2734 00e8 898201   		.uleb128 0x4109
 2735 00eb 01       		.byte	0x1
 2736 00ec 11       		.uleb128 0x11
 2737 00ed 01       		.uleb128 0x1
 2738 00ee 31       		.uleb128 0x31
 2739 00ef 13       		.uleb128 0x13
 2740 00f0 01       		.uleb128 0x1
 2741 00f1 13       		.uleb128 0x13
 2742 00f2 00       		.byte	0
 2743 00f3 00       		.byte	0
 2744 00f4 14       		.uleb128 0x14
 2745 00f5 8A8201   		.uleb128 0x410a
 2746 00f8 00       		.byte	0
 2747 00f9 02       		.uleb128 0x2
 2748 00fa 18       		.uleb128 0x18
 2749 00fb 9142     		.uleb128 0x2111
 2750 00fd 18       		.uleb128 0x18
 2751 00fe 00       		.byte	0
 2752 00ff 00       		.byte	0
 2753 0100 15       		.uleb128 0x15
 2754 0101 898201   		.uleb128 0x4109
 2755 0104 01       		.byte	0x1
 2756 0105 11       		.uleb128 0x11
 2757 0106 01       		.uleb128 0x1
 2758 0107 31       		.uleb128 0x31
 2759 0108 13       		.uleb128 0x13
 2760 0109 00       		.byte	0
 2761 010a 00       		.byte	0
 2762 010b 16       		.uleb128 0x16
 2763 010c 2E       		.uleb128 0x2e
 2764 010d 01       		.byte	0x1
 2765 010e 3F       		.uleb128 0x3f
 2766 010f 19       		.uleb128 0x19
 2767 0110 03       		.uleb128 0x3
 2768 0111 0E       		.uleb128 0xe
 2769 0112 3A       		.uleb128 0x3a
 2770 0113 0B       		.uleb128 0xb
 2771 0114 3B       		.uleb128 0x3b
 2772 0115 05       		.uleb128 0x5
 2773 0116 27       		.uleb128 0x27
 2774 0117 19       		.uleb128 0x19
 2775 0118 11       		.uleb128 0x11
 2776 0119 01       		.uleb128 0x1
 2777 011a 12       		.uleb128 0x12
 2778 011b 06       		.uleb128 0x6
 2779 011c 40       		.uleb128 0x40
 2780 011d 18       		.uleb128 0x18
ARM GAS  C:\Users\Tim\AppData\Local\Temp\ccA4EuzY.s 			page 94


 2781 011e 9742     		.uleb128 0x2117
 2782 0120 19       		.uleb128 0x19
 2783 0121 01       		.uleb128 0x1
 2784 0122 13       		.uleb128 0x13
 2785 0123 00       		.byte	0
 2786 0124 00       		.byte	0
 2787 0125 17       		.uleb128 0x17
 2788 0126 05       		.uleb128 0x5
 2789 0127 00       		.byte	0
 2790 0128 03       		.uleb128 0x3
 2791 0129 0E       		.uleb128 0xe
 2792 012a 3A       		.uleb128 0x3a
 2793 012b 0B       		.uleb128 0xb
 2794 012c 3B       		.uleb128 0x3b
 2795 012d 05       		.uleb128 0x5
 2796 012e 49       		.uleb128 0x49
 2797 012f 13       		.uleb128 0x13
 2798 0130 02       		.uleb128 0x2
 2799 0131 17       		.uleb128 0x17
 2800 0132 00       		.byte	0
 2801 0133 00       		.byte	0
 2802 0134 18       		.uleb128 0x18
 2803 0135 34       		.uleb128 0x34
 2804 0136 00       		.byte	0
 2805 0137 03       		.uleb128 0x3
 2806 0138 08       		.uleb128 0x8
 2807 0139 3A       		.uleb128 0x3a
 2808 013a 0B       		.uleb128 0xb
 2809 013b 3B       		.uleb128 0x3b
 2810 013c 05       		.uleb128 0x5
 2811 013d 49       		.uleb128 0x49
 2812 013e 13       		.uleb128 0x13
 2813 013f 02       		.uleb128 0x2
 2814 0140 17       		.uleb128 0x17
 2815 0141 00       		.byte	0
 2816 0142 00       		.byte	0
 2817 0143 19       		.uleb128 0x19
 2818 0144 05       		.uleb128 0x5
 2819 0145 00       		.byte	0
 2820 0146 03       		.uleb128 0x3
 2821 0147 0E       		.uleb128 0xe
 2822 0148 3A       		.uleb128 0x3a
 2823 0149 0B       		.uleb128 0xb
 2824 014a 3B       		.uleb128 0x3b
 2825 014b 0B       		.uleb128 0xb
 2826 014c 49       		.uleb128 0x49
 2827 014d 13       		.uleb128 0x13
 2828 014e 02       		.uleb128 0x2
 2829 014f 17       		.uleb128 0x17
 2830 0150 00       		.byte	0
 2831 0151 00       		.byte	0
 2832 0152 1A       		.uleb128 0x1a
 2833 0153 34       		.uleb128 0x34
 2834 0154 00       		.byte	0
 2835 0155 03       		.uleb128 0x3
 2836 0156 0E       		.uleb128 0xe
 2837 0157 3A       		.uleb128 0x3a
ARM GAS  C:\Users\Tim\AppData\Local\Temp\ccA4EuzY.s 			page 95


 2838 0158 0B       		.uleb128 0xb
 2839 0159 3B       		.uleb128 0x3b
 2840 015a 05       		.uleb128 0x5
 2841 015b 49       		.uleb128 0x49
 2842 015c 13       		.uleb128 0x13
 2843 015d 02       		.uleb128 0x2
 2844 015e 17       		.uleb128 0x17
 2845 015f 00       		.byte	0
 2846 0160 00       		.byte	0
 2847 0161 1B       		.uleb128 0x1b
 2848 0162 2E       		.uleb128 0x2e
 2849 0163 01       		.byte	0x1
 2850 0164 3F       		.uleb128 0x3f
 2851 0165 19       		.uleb128 0x19
 2852 0166 03       		.uleb128 0x3
 2853 0167 0E       		.uleb128 0xe
 2854 0168 3A       		.uleb128 0x3a
 2855 0169 0B       		.uleb128 0xb
 2856 016a 3B       		.uleb128 0x3b
 2857 016b 05       		.uleb128 0x5
 2858 016c 27       		.uleb128 0x27
 2859 016d 19       		.uleb128 0x19
 2860 016e 49       		.uleb128 0x49
 2861 016f 13       		.uleb128 0x13
 2862 0170 11       		.uleb128 0x11
 2863 0171 01       		.uleb128 0x1
 2864 0172 12       		.uleb128 0x12
 2865 0173 06       		.uleb128 0x6
 2866 0174 40       		.uleb128 0x40
 2867 0175 18       		.uleb128 0x18
 2868 0176 9742     		.uleb128 0x2117
 2869 0178 19       		.uleb128 0x19
 2870 0179 01       		.uleb128 0x1
 2871 017a 13       		.uleb128 0x13
 2872 017b 00       		.byte	0
 2873 017c 00       		.byte	0
 2874 017d 1C       		.uleb128 0x1c
 2875 017e 2E       		.uleb128 0x2e
 2876 017f 00       		.byte	0
 2877 0180 3F       		.uleb128 0x3f
 2878 0181 19       		.uleb128 0x19
 2879 0182 03       		.uleb128 0x3
 2880 0183 0E       		.uleb128 0xe
 2881 0184 3A       		.uleb128 0x3a
 2882 0185 0B       		.uleb128 0xb
 2883 0186 3B       		.uleb128 0x3b
 2884 0187 05       		.uleb128 0x5
 2885 0188 27       		.uleb128 0x27
 2886 0189 19       		.uleb128 0x19
 2887 018a 49       		.uleb128 0x49
 2888 018b 13       		.uleb128 0x13
 2889 018c 11       		.uleb128 0x11
 2890 018d 01       		.uleb128 0x1
 2891 018e 12       		.uleb128 0x12
 2892 018f 06       		.uleb128 0x6
 2893 0190 40       		.uleb128 0x40
 2894 0191 18       		.uleb128 0x18
ARM GAS  C:\Users\Tim\AppData\Local\Temp\ccA4EuzY.s 			page 96


 2895 0192 9742     		.uleb128 0x2117
 2896 0194 19       		.uleb128 0x19
 2897 0195 00       		.byte	0
 2898 0196 00       		.byte	0
 2899 0197 1D       		.uleb128 0x1d
 2900 0198 05       		.uleb128 0x5
 2901 0199 00       		.byte	0
 2902 019a 03       		.uleb128 0x3
 2903 019b 0E       		.uleb128 0xe
 2904 019c 3A       		.uleb128 0x3a
 2905 019d 0B       		.uleb128 0xb
 2906 019e 3B       		.uleb128 0x3b
 2907 019f 05       		.uleb128 0x5
 2908 01a0 49       		.uleb128 0x49
 2909 01a1 13       		.uleb128 0x13
 2910 01a2 02       		.uleb128 0x2
 2911 01a3 18       		.uleb128 0x18
 2912 01a4 00       		.byte	0
 2913 01a5 00       		.byte	0
 2914 01a6 1E       		.uleb128 0x1e
 2915 01a7 0B       		.uleb128 0xb
 2916 01a8 01       		.byte	0x1
 2917 01a9 55       		.uleb128 0x55
 2918 01aa 17       		.uleb128 0x17
 2919 01ab 00       		.byte	0
 2920 01ac 00       		.byte	0
 2921 01ad 1F       		.uleb128 0x1f
 2922 01ae 26       		.uleb128 0x26
 2923 01af 00       		.byte	0
 2924 01b0 49       		.uleb128 0x49
 2925 01b1 13       		.uleb128 0x13
 2926 01b2 00       		.byte	0
 2927 01b3 00       		.byte	0
 2928 01b4 20       		.uleb128 0x20
 2929 01b5 0B       		.uleb128 0xb
 2930 01b6 01       		.byte	0x1
 2931 01b7 11       		.uleb128 0x11
 2932 01b8 01       		.uleb128 0x1
 2933 01b9 12       		.uleb128 0x12
 2934 01ba 06       		.uleb128 0x6
 2935 01bb 01       		.uleb128 0x1
 2936 01bc 13       		.uleb128 0x13
 2937 01bd 00       		.byte	0
 2938 01be 00       		.byte	0
 2939 01bf 21       		.uleb128 0x21
 2940 01c0 2E       		.uleb128 0x2e
 2941 01c1 00       		.byte	0
 2942 01c2 3F       		.uleb128 0x3f
 2943 01c3 19       		.uleb128 0x19
 2944 01c4 03       		.uleb128 0x3
 2945 01c5 0E       		.uleb128 0xe
 2946 01c6 3A       		.uleb128 0x3a
 2947 01c7 0B       		.uleb128 0xb
 2948 01c8 3B       		.uleb128 0x3b
 2949 01c9 05       		.uleb128 0x5
 2950 01ca 27       		.uleb128 0x27
 2951 01cb 19       		.uleb128 0x19
ARM GAS  C:\Users\Tim\AppData\Local\Temp\ccA4EuzY.s 			page 97


 2952 01cc 11       		.uleb128 0x11
 2953 01cd 01       		.uleb128 0x1
 2954 01ce 12       		.uleb128 0x12
 2955 01cf 06       		.uleb128 0x6
 2956 01d0 40       		.uleb128 0x40
 2957 01d1 18       		.uleb128 0x18
 2958 01d2 9742     		.uleb128 0x2117
 2959 01d4 19       		.uleb128 0x19
 2960 01d5 00       		.byte	0
 2961 01d6 00       		.byte	0
 2962 01d7 22       		.uleb128 0x22
 2963 01d8 34       		.uleb128 0x34
 2964 01d9 00       		.byte	0
 2965 01da 03       		.uleb128 0x3
 2966 01db 0E       		.uleb128 0xe
 2967 01dc 3A       		.uleb128 0x3a
 2968 01dd 0B       		.uleb128 0xb
 2969 01de 3B       		.uleb128 0x3b
 2970 01df 0B       		.uleb128 0xb
 2971 01e0 49       		.uleb128 0x49
 2972 01e1 13       		.uleb128 0x13
 2973 01e2 3F       		.uleb128 0x3f
 2974 01e3 19       		.uleb128 0x19
 2975 01e4 02       		.uleb128 0x2
 2976 01e5 18       		.uleb128 0x18
 2977 01e6 00       		.byte	0
 2978 01e7 00       		.byte	0
 2979 01e8 23       		.uleb128 0x23
 2980 01e9 34       		.uleb128 0x34
 2981 01ea 00       		.byte	0
 2982 01eb 03       		.uleb128 0x3
 2983 01ec 0E       		.uleb128 0xe
 2984 01ed 3A       		.uleb128 0x3a
 2985 01ee 0B       		.uleb128 0xb
 2986 01ef 3B       		.uleb128 0x3b
 2987 01f0 05       		.uleb128 0x5
 2988 01f1 49       		.uleb128 0x49
 2989 01f2 13       		.uleb128 0x13
 2990 01f3 3F       		.uleb128 0x3f
 2991 01f4 19       		.uleb128 0x19
 2992 01f5 3C       		.uleb128 0x3c
 2993 01f6 19       		.uleb128 0x19
 2994 01f7 00       		.byte	0
 2995 01f8 00       		.byte	0
 2996 01f9 24       		.uleb128 0x24
 2997 01fa 34       		.uleb128 0x34
 2998 01fb 00       		.byte	0
 2999 01fc 03       		.uleb128 0x3
 3000 01fd 0E       		.uleb128 0xe
 3001 01fe 3A       		.uleb128 0x3a
 3002 01ff 0B       		.uleb128 0xb
 3003 0200 3B       		.uleb128 0x3b
 3004 0201 0B       		.uleb128 0xb
 3005 0202 49       		.uleb128 0x49
 3006 0203 13       		.uleb128 0x13
 3007 0204 3F       		.uleb128 0x3f
 3008 0205 19       		.uleb128 0x19
ARM GAS  C:\Users\Tim\AppData\Local\Temp\ccA4EuzY.s 			page 98


 3009 0206 3C       		.uleb128 0x3c
 3010 0207 19       		.uleb128 0x19
 3011 0208 00       		.byte	0
 3012 0209 00       		.byte	0
 3013 020a 25       		.uleb128 0x25
 3014 020b 2E       		.uleb128 0x2e
 3015 020c 00       		.byte	0
 3016 020d 3F       		.uleb128 0x3f
 3017 020e 19       		.uleb128 0x19
 3018 020f 03       		.uleb128 0x3
 3019 0210 0E       		.uleb128 0xe
 3020 0211 3A       		.uleb128 0x3a
 3021 0212 0B       		.uleb128 0xb
 3022 0213 3B       		.uleb128 0x3b
 3023 0214 0B       		.uleb128 0xb
 3024 0215 27       		.uleb128 0x27
 3025 0216 19       		.uleb128 0x19
 3026 0217 49       		.uleb128 0x49
 3027 0218 13       		.uleb128 0x13
 3028 0219 3C       		.uleb128 0x3c
 3029 021a 19       		.uleb128 0x19
 3030 021b 00       		.byte	0
 3031 021c 00       		.byte	0
 3032 021d 26       		.uleb128 0x26
 3033 021e 2E       		.uleb128 0x2e
 3034 021f 01       		.byte	0x1
 3035 0220 3F       		.uleb128 0x3f
 3036 0221 19       		.uleb128 0x19
 3037 0222 03       		.uleb128 0x3
 3038 0223 0E       		.uleb128 0xe
 3039 0224 3A       		.uleb128 0x3a
 3040 0225 0B       		.uleb128 0xb
 3041 0226 3B       		.uleb128 0x3b
 3042 0227 0B       		.uleb128 0xb
 3043 0228 27       		.uleb128 0x27
 3044 0229 19       		.uleb128 0x19
 3045 022a 3C       		.uleb128 0x3c
 3046 022b 19       		.uleb128 0x19
 3047 022c 01       		.uleb128 0x1
 3048 022d 13       		.uleb128 0x13
 3049 022e 00       		.byte	0
 3050 022f 00       		.byte	0
 3051 0230 27       		.uleb128 0x27
 3052 0231 05       		.uleb128 0x5
 3053 0232 00       		.byte	0
 3054 0233 49       		.uleb128 0x49
 3055 0234 13       		.uleb128 0x13
 3056 0235 00       		.byte	0
 3057 0236 00       		.byte	0
 3058 0237 28       		.uleb128 0x28
 3059 0238 2E       		.uleb128 0x2e
 3060 0239 01       		.byte	0x1
 3061 023a 3F       		.uleb128 0x3f
 3062 023b 19       		.uleb128 0x19
 3063 023c 03       		.uleb128 0x3
 3064 023d 0E       		.uleb128 0xe
 3065 023e 3A       		.uleb128 0x3a
ARM GAS  C:\Users\Tim\AppData\Local\Temp\ccA4EuzY.s 			page 99


 3066 023f 0B       		.uleb128 0xb
 3067 0240 3B       		.uleb128 0x3b
 3068 0241 0B       		.uleb128 0xb
 3069 0242 27       		.uleb128 0x27
 3070 0243 19       		.uleb128 0x19
 3071 0244 49       		.uleb128 0x49
 3072 0245 13       		.uleb128 0x13
 3073 0246 3C       		.uleb128 0x3c
 3074 0247 19       		.uleb128 0x19
 3075 0248 01       		.uleb128 0x1
 3076 0249 13       		.uleb128 0x13
 3077 024a 00       		.byte	0
 3078 024b 00       		.byte	0
 3079 024c 29       		.uleb128 0x29
 3080 024d 2E       		.uleb128 0x2e
 3081 024e 01       		.byte	0x1
 3082 024f 3F       		.uleb128 0x3f
 3083 0250 19       		.uleb128 0x19
 3084 0251 03       		.uleb128 0x3
 3085 0252 0E       		.uleb128 0xe
 3086 0253 3A       		.uleb128 0x3a
 3087 0254 0B       		.uleb128 0xb
 3088 0255 3B       		.uleb128 0x3b
 3089 0256 0B       		.uleb128 0xb
 3090 0257 27       		.uleb128 0x27
 3091 0258 19       		.uleb128 0x19
 3092 0259 3C       		.uleb128 0x3c
 3093 025a 19       		.uleb128 0x19
 3094 025b 00       		.byte	0
 3095 025c 00       		.byte	0
 3096 025d 00       		.byte	0
 3097              		.section	.debug_loc,"",%progbits
 3098              	.Ldebug_loc0:
 3099              	.LLST0:
 3100 0000 08000000 		.4byte	.LVL1
 3101 0004 0A010000 		.4byte	.LVL21
 3102 0008 0100     		.2byte	0x1
 3103 000a 55       		.byte	0x55
 3104 000b 00000000 		.4byte	0
 3105 000f 00000000 		.4byte	0
 3106              	.LLST1:
 3107 0013 00000000 		.4byte	.LVL22
 3108 0017 94000000 		.4byte	.LVL28
 3109 001b 0100     		.2byte	0x1
 3110 001d 50       		.byte	0x50
 3111 001e 94000000 		.4byte	.LVL28
 3112 0022 D4000000 		.4byte	.LFE2
 3113 0026 0400     		.2byte	0x4
 3114 0028 F3       		.byte	0xf3
 3115 0029 01       		.uleb128 0x1
 3116 002a 50       		.byte	0x50
 3117 002b 9F       		.byte	0x9f
 3118 002c 00000000 		.4byte	0
 3119 0030 00000000 		.4byte	0
 3120              	.LLST2:
 3121 0034 00000000 		.4byte	.LVL22
 3122 0038 97000000 		.4byte	.LVL29-1
ARM GAS  C:\Users\Tim\AppData\Local\Temp\ccA4EuzY.s 			page 100


 3123 003c 0100     		.2byte	0x1
 3124 003e 51       		.byte	0x51
 3125 003f 97000000 		.4byte	.LVL29-1
 3126 0043 D4000000 		.4byte	.LFE2
 3127 0047 0400     		.2byte	0x4
 3128 0049 F3       		.byte	0xf3
 3129 004a 01       		.uleb128 0x1
 3130 004b 51       		.byte	0x51
 3131 004c 9F       		.byte	0x9f
 3132 004d 00000000 		.4byte	0
 3133 0051 00000000 		.4byte	0
 3134              	.LLST3:
 3135 0055 02000000 		.4byte	.LVL23
 3136 0059 06000000 		.4byte	.LVL24
 3137 005d 0200     		.2byte	0x2
 3138 005f 30       		.byte	0x30
 3139 0060 9F       		.byte	0x9f
 3140 0061 06000000 		.4byte	.LVL24
 3141 0065 0E000000 		.4byte	.LVL25
 3142 0069 0100     		.2byte	0x1
 3143 006b 53       		.byte	0x53
 3144 006c 10000000 		.4byte	.LVL26
 3145 0070 16000000 		.4byte	.LVL27
 3146 0074 0100     		.2byte	0x1
 3147 0076 53       		.byte	0x53
 3148 0077 00000000 		.4byte	0
 3149 007b 00000000 		.4byte	0
 3150              	.LLST4:
 3151 007f 00000000 		.4byte	.LVL30
 3152 0083 0F000000 		.4byte	.LVL31-1
 3153 0087 0100     		.2byte	0x1
 3154 0089 50       		.byte	0x50
 3155 008a 0F000000 		.4byte	.LVL31-1
 3156 008e 24000000 		.4byte	.LFE0
 3157 0092 0400     		.2byte	0x4
 3158 0094 F3       		.byte	0xf3
 3159 0095 01       		.uleb128 0x1
 3160 0096 50       		.byte	0x50
 3161 0097 9F       		.byte	0x9f
 3162 0098 00000000 		.4byte	0
 3163 009c 00000000 		.4byte	0
 3164              	.LLST5:
 3165 00a0 00000000 		.4byte	.LVL30
 3166 00a4 0F000000 		.4byte	.LVL31-1
 3167 00a8 0100     		.2byte	0x1
 3168 00aa 51       		.byte	0x51
 3169 00ab 0F000000 		.4byte	.LVL31-1
 3170 00af 24000000 		.4byte	.LFE0
 3171 00b3 0400     		.2byte	0x4
 3172 00b5 F3       		.byte	0xf3
 3173 00b6 01       		.uleb128 0x1
 3174 00b7 51       		.byte	0x51
 3175 00b8 9F       		.byte	0x9f
 3176 00b9 00000000 		.4byte	0
 3177 00bd 00000000 		.4byte	0
 3178              	.LLST6:
 3179 00c1 00000000 		.4byte	.LVL33
ARM GAS  C:\Users\Tim\AppData\Local\Temp\ccA4EuzY.s 			page 101


 3180 00c5 04000000 		.4byte	.LVL34
 3181 00c9 0200     		.2byte	0x2
 3182 00cb 30       		.byte	0x30
 3183 00cc 9F       		.byte	0x9f
 3184 00cd 04000000 		.4byte	.LVL34
 3185 00d1 0C000000 		.4byte	.LVL35
 3186 00d5 0100     		.2byte	0x1
 3187 00d7 53       		.byte	0x53
 3188 00d8 0E000000 		.4byte	.LVL36
 3189 00dc 14000000 		.4byte	.LVL37
 3190 00e0 0100     		.2byte	0x1
 3191 00e2 53       		.byte	0x53
 3192 00e3 00000000 		.4byte	0
 3193 00e7 00000000 		.4byte	0
 3194              	.LLST7:
 3195 00eb 06000000 		.4byte	.LVL38
 3196 00ef 35000000 		.4byte	.LVL39-1
 3197 00f3 0100     		.2byte	0x1
 3198 00f5 50       		.byte	0x50
 3199 00f6 00000000 		.4byte	0
 3200 00fa 00000000 		.4byte	0
 3201              	.LLST8:
 3202 00fe 06000000 		.4byte	.LVL40
 3203 0102 10000000 		.4byte	.LVL41
 3204 0106 0100     		.2byte	0x1
 3205 0108 53       		.byte	0x53
 3206 0109 00000000 		.4byte	0
 3207 010d 00000000 		.4byte	0
 3208              	.LLST9:
 3209 0111 00000000 		.4byte	.LVL42
 3210 0115 10000000 		.4byte	.LVL43
 3211 0119 0200     		.2byte	0x2
 3212 011b 30       		.byte	0x30
 3213 011c 9F       		.byte	0x9f
 3214 011d 10000000 		.4byte	.LVL43
 3215 0121 16000000 		.4byte	.LVL44
 3216 0125 0100     		.2byte	0x1
 3217 0127 50       		.byte	0x50
 3218 0128 16000000 		.4byte	.LVL44
 3219 012c 18000000 		.4byte	.LVL45
 3220 0130 0200     		.2byte	0x2
 3221 0132 30       		.byte	0x30
 3222 0133 9F       		.byte	0x9f
 3223 0134 18000000 		.4byte	.LVL45
 3224 0138 20000000 		.4byte	.LFE7
 3225 013c 0100     		.2byte	0x1
 3226 013e 50       		.byte	0x50
 3227 013f 00000000 		.4byte	0
 3228 0143 00000000 		.4byte	0
 3229              	.LLST10:
 3230 0147 00000000 		.4byte	.LVL46
 3231 014b 04000000 		.4byte	.LVL47
 3232 014f 0100     		.2byte	0x1
 3233 0151 50       		.byte	0x50
 3234 0152 04000000 		.4byte	.LVL47
 3235 0156 0C000000 		.4byte	.LFE8
 3236 015a 0400     		.2byte	0x4
ARM GAS  C:\Users\Tim\AppData\Local\Temp\ccA4EuzY.s 			page 102


 3237 015c F3       		.byte	0xf3
 3238 015d 01       		.uleb128 0x1
 3239 015e 50       		.byte	0x50
 3240 015f 9F       		.byte	0x9f
 3241 0160 00000000 		.4byte	0
 3242 0164 00000000 		.4byte	0
 3243              	.LLST11:
 3244 0168 00000000 		.4byte	.LVL48
 3245 016c 04000000 		.4byte	.LVL49
 3246 0170 0100     		.2byte	0x1
 3247 0172 50       		.byte	0x50
 3248 0173 04000000 		.4byte	.LVL49
 3249 0177 14000000 		.4byte	.LFE9
 3250 017b 0400     		.2byte	0x4
 3251 017d F3       		.byte	0xf3
 3252 017e 01       		.uleb128 0x1
 3253 017f 50       		.byte	0x50
 3254 0180 9F       		.byte	0x9f
 3255 0181 00000000 		.4byte	0
 3256 0185 00000000 		.4byte	0
 3257              	.LLST12:
 3258 0189 00000000 		.4byte	.LVL50
 3259 018d 0C000000 		.4byte	.LVL51
 3260 0191 0100     		.2byte	0x1
 3261 0193 50       		.byte	0x50
 3262 0194 0C000000 		.4byte	.LVL51
 3263 0198 20000000 		.4byte	.LVL56
 3264 019c 0400     		.2byte	0x4
 3265 019e F3       		.byte	0xf3
 3266 019f 01       		.uleb128 0x1
 3267 01a0 50       		.byte	0x50
 3268 01a1 9F       		.byte	0x9f
 3269 01a2 20000000 		.4byte	.LVL56
 3270 01a6 22000000 		.4byte	.LVL57
 3271 01aa 0100     		.2byte	0x1
 3272 01ac 50       		.byte	0x50
 3273 01ad 22000000 		.4byte	.LVL57
 3274 01b1 28000000 		.4byte	.LFE10
 3275 01b5 0400     		.2byte	0x4
 3276 01b7 F3       		.byte	0xf3
 3277 01b8 01       		.uleb128 0x1
 3278 01b9 50       		.byte	0x50
 3279 01ba 9F       		.byte	0x9f
 3280 01bb 00000000 		.4byte	0
 3281 01bf 00000000 		.4byte	0
 3282              	.LLST13:
 3283 01c3 00000000 		.4byte	.LVL50
 3284 01c7 14000000 		.4byte	.LVL52
 3285 01cb 0200     		.2byte	0x2
 3286 01cd 30       		.byte	0x30
 3287 01ce 9F       		.byte	0x9f
 3288 01cf 14000000 		.4byte	.LVL52
 3289 01d3 1C000000 		.4byte	.LVL54
 3290 01d7 0100     		.2byte	0x1
 3291 01d9 50       		.byte	0x50
 3292 01da 1C000000 		.4byte	.LVL54
 3293 01de 1E000000 		.4byte	.LVL55
ARM GAS  C:\Users\Tim\AppData\Local\Temp\ccA4EuzY.s 			page 103


 3294 01e2 0300     		.2byte	0x3
 3295 01e4 70       		.byte	0x70
 3296 01e5 02       		.sleb128 2
 3297 01e6 9F       		.byte	0x9f
 3298 01e7 1E000000 		.4byte	.LVL55
 3299 01eb 20000000 		.4byte	.LVL56
 3300 01ef 0100     		.2byte	0x1
 3301 01f1 50       		.byte	0x50
 3302 01f2 20000000 		.4byte	.LVL56
 3303 01f6 22000000 		.4byte	.LVL57
 3304 01fa 0200     		.2byte	0x2
 3305 01fc 30       		.byte	0x30
 3306 01fd 9F       		.byte	0x9f
 3307 01fe 22000000 		.4byte	.LVL57
 3308 0202 28000000 		.4byte	.LFE10
 3309 0206 0100     		.2byte	0x1
 3310 0208 50       		.byte	0x50
 3311 0209 00000000 		.4byte	0
 3312 020d 00000000 		.4byte	0
 3313              	.LLST14:
 3314 0211 00000000 		.4byte	.LVL58
 3315 0215 7A000000 		.4byte	.LVL68
 3316 0219 0100     		.2byte	0x1
 3317 021b 50       		.byte	0x50
 3318 021c 7A000000 		.4byte	.LVL68
 3319 0220 94000000 		.4byte	.LFE11
 3320 0224 0400     		.2byte	0x4
 3321 0226 F3       		.byte	0xf3
 3322 0227 01       		.uleb128 0x1
 3323 0228 50       		.byte	0x50
 3324 0229 9F       		.byte	0x9f
 3325 022a 00000000 		.4byte	0
 3326 022e 00000000 		.4byte	0
 3327              	.LLST15:
 3328 0232 00000000 		.4byte	.LVL58
 3329 0236 2C000000 		.4byte	.LVL59
 3330 023a 0100     		.2byte	0x1
 3331 023c 52       		.byte	0x52
 3332 023d 2C000000 		.4byte	.LVL59
 3333 0241 32000000 		.4byte	.LVL60
 3334 0245 0400     		.2byte	0x4
 3335 0247 F3       		.byte	0xf3
 3336 0248 01       		.uleb128 0x1
 3337 0249 52       		.byte	0x52
 3338 024a 9F       		.byte	0x9f
 3339 024b 32000000 		.4byte	.LVL60
 3340 024f 6E000000 		.4byte	.LVL67
 3341 0253 0100     		.2byte	0x1
 3342 0255 52       		.byte	0x52
 3343 0256 00000000 		.4byte	0
 3344 025a 00000000 		.4byte	0
 3345              	.LLST16:
 3346 025e 52000000 		.4byte	.LVL61
 3347 0262 5C000000 		.4byte	.LVL62
 3348 0266 0100     		.2byte	0x1
 3349 0268 53       		.byte	0x53
 3350 0269 5E000000 		.4byte	.LVL63
ARM GAS  C:\Users\Tim\AppData\Local\Temp\ccA4EuzY.s 			page 104


 3351 026d 60000000 		.4byte	.LVL64
 3352 0271 0100     		.2byte	0x1
 3353 0273 53       		.byte	0x53
 3354 0274 62000000 		.4byte	.LVL65
 3355 0278 66000000 		.4byte	.LVL66
 3356 027c 0100     		.2byte	0x1
 3357 027e 53       		.byte	0x53
 3358 027f 00000000 		.4byte	0
 3359 0283 00000000 		.4byte	0
 3360              	.LLST17:
 3361 0287 00000000 		.4byte	.LVL69
 3362 028b 1C000000 		.4byte	.LVL70
 3363 028f 0100     		.2byte	0x1
 3364 0291 50       		.byte	0x50
 3365 0292 1C000000 		.4byte	.LVL70
 3366 0296 2C000000 		.4byte	.LFE13
 3367 029a 0400     		.2byte	0x4
 3368 029c F3       		.byte	0xf3
 3369 029d 01       		.uleb128 0x1
 3370 029e 50       		.byte	0x50
 3371 029f 9F       		.byte	0x9f
 3372 02a0 00000000 		.4byte	0
 3373 02a4 00000000 		.4byte	0
 3374              	.LLST18:
 3375 02a8 00000000 		.4byte	.LVL71
 3376 02ac 13000000 		.4byte	.LVL72-1
 3377 02b0 0100     		.2byte	0x1
 3378 02b2 50       		.byte	0x50
 3379 02b3 13000000 		.4byte	.LVL72-1
 3380 02b7 3C000000 		.4byte	.LVL79
 3381 02bb 0400     		.2byte	0x4
 3382 02bd F3       		.byte	0xf3
 3383 02be 01       		.uleb128 0x1
 3384 02bf 50       		.byte	0x50
 3385 02c0 9F       		.byte	0x9f
 3386 02c1 3C000000 		.4byte	.LVL79
 3387 02c5 46000000 		.4byte	.LVL80
 3388 02c9 0100     		.2byte	0x1
 3389 02cb 50       		.byte	0x50
 3390 02cc 46000000 		.4byte	.LVL80
 3391 02d0 50000000 		.4byte	.LFE12
 3392 02d4 0400     		.2byte	0x4
 3393 02d6 F3       		.byte	0xf3
 3394 02d7 01       		.uleb128 0x1
 3395 02d8 50       		.byte	0x50
 3396 02d9 9F       		.byte	0x9f
 3397 02da 00000000 		.4byte	0
 3398 02de 00000000 		.4byte	0
 3399              	.LLST19:
 3400 02e2 00000000 		.4byte	.LVL71
 3401 02e6 13000000 		.4byte	.LVL72-1
 3402 02ea 0100     		.2byte	0x1
 3403 02ec 51       		.byte	0x51
 3404 02ed 13000000 		.4byte	.LVL72-1
 3405 02f1 3C000000 		.4byte	.LVL79
 3406 02f5 0100     		.2byte	0x1
 3407 02f7 56       		.byte	0x56
ARM GAS  C:\Users\Tim\AppData\Local\Temp\ccA4EuzY.s 			page 105


 3408 02f8 3C000000 		.4byte	.LVL79
 3409 02fc 46000000 		.4byte	.LVL80
 3410 0300 0100     		.2byte	0x1
 3411 0302 51       		.byte	0x51
 3412 0303 46000000 		.4byte	.LVL80
 3413 0307 50000000 		.4byte	.LFE12
 3414 030b 0400     		.2byte	0x4
 3415 030d F3       		.byte	0xf3
 3416 030e 01       		.uleb128 0x1
 3417 030f 51       		.byte	0x51
 3418 0310 9F       		.byte	0x9f
 3419 0311 00000000 		.4byte	0
 3420 0315 00000000 		.4byte	0
 3421              	.LLST20:
 3422 0319 00000000 		.4byte	.LVL71
 3423 031d 13000000 		.4byte	.LVL72-1
 3424 0321 0100     		.2byte	0x1
 3425 0323 52       		.byte	0x52
 3426 0324 13000000 		.4byte	.LVL72-1
 3427 0328 20000000 		.4byte	.LVL74
 3428 032c 0400     		.2byte	0x4
 3429 032e F3       		.byte	0xf3
 3430 032f 01       		.uleb128 0x1
 3431 0330 52       		.byte	0x52
 3432 0331 9F       		.byte	0x9f
 3433 0332 20000000 		.4byte	.LVL74
 3434 0336 3C000000 		.4byte	.LVL79
 3435 033a 0100     		.2byte	0x1
 3436 033c 54       		.byte	0x54
 3437 033d 3C000000 		.4byte	.LVL79
 3438 0341 46000000 		.4byte	.LVL80
 3439 0345 0100     		.2byte	0x1
 3440 0347 52       		.byte	0x52
 3441 0348 46000000 		.4byte	.LVL80
 3442 034c 4A000000 		.4byte	.LVL81
 3443 0350 0100     		.2byte	0x1
 3444 0352 54       		.byte	0x54
 3445 0353 00000000 		.4byte	0
 3446 0357 00000000 		.4byte	0
 3447              	.LLST21:
 3448 035b 20000000 		.4byte	.LVL74
 3449 035f 24000000 		.4byte	.LVL75
 3450 0363 0200     		.2byte	0x2
 3451 0365 30       		.byte	0x30
 3452 0366 9F       		.byte	0x9f
 3453 0367 24000000 		.4byte	.LVL75
 3454 036b 2E000000 		.4byte	.LVL76
 3455 036f 0100     		.2byte	0x1
 3456 0371 53       		.byte	0x53
 3457 0372 30000000 		.4byte	.LVL77
 3458 0376 39000000 		.4byte	.LVL78-1
 3459 037a 0100     		.2byte	0x1
 3460 037c 53       		.byte	0x53
 3461 037d 00000000 		.4byte	0
 3462 0381 00000000 		.4byte	0
 3463              	.LLST22:
 3464 0385 00000000 		.4byte	.LVL82
ARM GAS  C:\Users\Tim\AppData\Local\Temp\ccA4EuzY.s 			page 106


 3465 0389 0A000000 		.4byte	.LVL83
 3466 038d 0100     		.2byte	0x1
 3467 038f 50       		.byte	0x50
 3468 0390 0A000000 		.4byte	.LVL83
 3469 0394 18000000 		.4byte	.LFE14
 3470 0398 0400     		.2byte	0x4
 3471 039a F3       		.byte	0xf3
 3472 039b 01       		.uleb128 0x1
 3473 039c 50       		.byte	0x50
 3474 039d 9F       		.byte	0x9f
 3475 039e 00000000 		.4byte	0
 3476 03a2 00000000 		.4byte	0
 3477              	.LLST23:
 3478 03a6 00000000 		.4byte	.LVL85
 3479 03aa 0A000000 		.4byte	.LVL86
 3480 03ae 0100     		.2byte	0x1
 3481 03b0 50       		.byte	0x50
 3482 03b1 0A000000 		.4byte	.LVL86
 3483 03b5 16000000 		.4byte	.LVL88
 3484 03b9 0400     		.2byte	0x4
 3485 03bb F3       		.byte	0xf3
 3486 03bc 01       		.uleb128 0x1
 3487 03bd 50       		.byte	0x50
 3488 03be 9F       		.byte	0x9f
 3489 03bf 16000000 		.4byte	.LVL88
 3490 03c3 18000000 		.4byte	.LVL89
 3491 03c7 0100     		.2byte	0x1
 3492 03c9 50       		.byte	0x50
 3493 03ca 18000000 		.4byte	.LVL89
 3494 03ce 20000000 		.4byte	.LFE16
 3495 03d2 0400     		.2byte	0x4
 3496 03d4 F3       		.byte	0xf3
 3497 03d5 01       		.uleb128 0x1
 3498 03d6 50       		.byte	0x50
 3499 03d7 9F       		.byte	0x9f
 3500 03d8 00000000 		.4byte	0
 3501 03dc 00000000 		.4byte	0
 3502              	.LLST24:
 3503 03e0 00000000 		.4byte	.LVL85
 3504 03e4 14000000 		.4byte	.LVL87
 3505 03e8 0200     		.2byte	0x2
 3506 03ea 30       		.byte	0x30
 3507 03eb 9F       		.byte	0x9f
 3508 03ec 14000000 		.4byte	.LVL87
 3509 03f0 16000000 		.4byte	.LVL88
 3510 03f4 0100     		.2byte	0x1
 3511 03f6 50       		.byte	0x50
 3512 03f7 16000000 		.4byte	.LVL88
 3513 03fb 18000000 		.4byte	.LVL89
 3514 03ff 0200     		.2byte	0x2
 3515 0401 30       		.byte	0x30
 3516 0402 9F       		.byte	0x9f
 3517 0403 18000000 		.4byte	.LVL89
 3518 0407 20000000 		.4byte	.LFE16
 3519 040b 0100     		.2byte	0x1
 3520 040d 50       		.byte	0x50
 3521 040e 00000000 		.4byte	0
ARM GAS  C:\Users\Tim\AppData\Local\Temp\ccA4EuzY.s 			page 107


 3522 0412 00000000 		.4byte	0
 3523              	.LLST25:
 3524 0416 00000000 		.4byte	.LVL91
 3525 041a 10000000 		.4byte	.LVL92
 3526 041e 0200     		.2byte	0x2
 3527 0420 30       		.byte	0x30
 3528 0421 9F       		.byte	0x9f
 3529 0422 10000000 		.4byte	.LVL92
 3530 0426 18000000 		.4byte	.LFE18
 3531 042a 0100     		.2byte	0x1
 3532 042c 50       		.byte	0x50
 3533 042d 00000000 		.4byte	0
 3534 0431 00000000 		.4byte	0
 3535              		.section	.debug_aranges,"",%progbits
 3536 0000 C4000000 		.4byte	0xc4
 3537 0004 0200     		.2byte	0x2
 3538 0006 00000000 		.4byte	.Ldebug_info0
 3539 000a 04       		.byte	0x4
 3540 000b 00       		.byte	0
 3541 000c 0000     		.2byte	0
 3542 000e 0000     		.2byte	0
 3543 0010 00000000 		.4byte	.LFB1
 3544 0014 40010000 		.4byte	.LFE1-.LFB1
 3545 0018 00000000 		.4byte	.LFB2
 3546 001c D4000000 		.4byte	.LFE2-.LFB2
 3547 0020 00000000 		.4byte	.LFB0
 3548 0024 24000000 		.4byte	.LFE0-.LFB0
 3549 0028 00000000 		.4byte	.LFB3
 3550 002c 64000000 		.4byte	.LFE3-.LFB3
 3551 0030 00000000 		.4byte	.LFB4
 3552 0034 98000000 		.4byte	.LFE4-.LFB4
 3553 0038 00000000 		.4byte	.LFB5
 3554 003c 20000000 		.4byte	.LFE5-.LFB5
 3555 0040 00000000 		.4byte	.LFB6
 3556 0044 0C000000 		.4byte	.LFE6-.LFB6
 3557 0048 00000000 		.4byte	.LFB7
 3558 004c 20000000 		.4byte	.LFE7-.LFB7
 3559 0050 00000000 		.4byte	.LFB8
 3560 0054 0C000000 		.4byte	.LFE8-.LFB8
 3561 0058 00000000 		.4byte	.LFB9
 3562 005c 14000000 		.4byte	.LFE9-.LFB9
 3563 0060 00000000 		.4byte	.LFB10
 3564 0064 28000000 		.4byte	.LFE10-.LFB10
 3565 0068 00000000 		.4byte	.LFB11
 3566 006c 94000000 		.4byte	.LFE11-.LFB11
 3567 0070 00000000 		.4byte	.LFB13
 3568 0074 2C000000 		.4byte	.LFE13-.LFB13
 3569 0078 00000000 		.4byte	.LFB12
 3570 007c 50000000 		.4byte	.LFE12-.LFB12
 3571 0080 00000000 		.4byte	.LFB14
 3572 0084 18000000 		.4byte	.LFE14-.LFB14
 3573 0088 00000000 		.4byte	.LFB15
 3574 008c 0C000000 		.4byte	.LFE15-.LFB15
 3575 0090 00000000 		.4byte	.LFB16
 3576 0094 20000000 		.4byte	.LFE16-.LFB16
 3577 0098 00000000 		.4byte	.LFB17
 3578 009c 20000000 		.4byte	.LFE17-.LFB17
ARM GAS  C:\Users\Tim\AppData\Local\Temp\ccA4EuzY.s 			page 108


 3579 00a0 00000000 		.4byte	.LFB18
 3580 00a4 18000000 		.4byte	.LFE18-.LFB18
 3581 00a8 00000000 		.4byte	.LFB19
 3582 00ac 10000000 		.4byte	.LFE19-.LFB19
 3583 00b0 00000000 		.4byte	.LFB20
 3584 00b4 10000000 		.4byte	.LFE20-.LFB20
 3585 00b8 00000000 		.4byte	.LFB21
 3586 00bc 10000000 		.4byte	.LFE21-.LFB21
 3587 00c0 00000000 		.4byte	0
 3588 00c4 00000000 		.4byte	0
 3589              		.section	.debug_ranges,"",%progbits
 3590              	.Ldebug_ranges0:
 3591 0000 50000000 		.4byte	.LBB2
 3592 0004 60000000 		.4byte	.LBE2
 3593 0008 62000000 		.4byte	.LBB3
 3594 000c 66000000 		.4byte	.LBE3
 3595 0010 00000000 		.4byte	0
 3596 0014 00000000 		.4byte	0
 3597 0018 00000000 		.4byte	.LFB1
 3598 001c 40010000 		.4byte	.LFE1
 3599 0020 00000000 		.4byte	.LFB2
 3600 0024 D4000000 		.4byte	.LFE2
 3601 0028 00000000 		.4byte	.LFB0
 3602 002c 24000000 		.4byte	.LFE0
 3603 0030 00000000 		.4byte	.LFB3
 3604 0034 64000000 		.4byte	.LFE3
 3605 0038 00000000 		.4byte	.LFB4
 3606 003c 98000000 		.4byte	.LFE4
 3607 0040 00000000 		.4byte	.LFB5
 3608 0044 20000000 		.4byte	.LFE5
 3609 0048 00000000 		.4byte	.LFB6
 3610 004c 0C000000 		.4byte	.LFE6
 3611 0050 00000000 		.4byte	.LFB7
 3612 0054 20000000 		.4byte	.LFE7
 3613 0058 00000000 		.4byte	.LFB8
 3614 005c 0C000000 		.4byte	.LFE8
 3615 0060 00000000 		.4byte	.LFB9
 3616 0064 14000000 		.4byte	.LFE9
 3617 0068 00000000 		.4byte	.LFB10
 3618 006c 28000000 		.4byte	.LFE10
 3619 0070 00000000 		.4byte	.LFB11
 3620 0074 94000000 		.4byte	.LFE11
 3621 0078 00000000 		.4byte	.LFB13
 3622 007c 2C000000 		.4byte	.LFE13
 3623 0080 00000000 		.4byte	.LFB12
 3624 0084 50000000 		.4byte	.LFE12
 3625 0088 00000000 		.4byte	.LFB14
 3626 008c 18000000 		.4byte	.LFE14
 3627 0090 00000000 		.4byte	.LFB15
 3628 0094 0C000000 		.4byte	.LFE15
 3629 0098 00000000 		.4byte	.LFB16
 3630 009c 20000000 		.4byte	.LFE16
 3631 00a0 00000000 		.4byte	.LFB17
 3632 00a4 20000000 		.4byte	.LFE17
 3633 00a8 00000000 		.4byte	.LFB18
 3634 00ac 18000000 		.4byte	.LFE18
 3635 00b0 00000000 		.4byte	.LFB19
ARM GAS  C:\Users\Tim\AppData\Local\Temp\ccA4EuzY.s 			page 109


 3636 00b4 10000000 		.4byte	.LFE19
 3637 00b8 00000000 		.4byte	.LFB20
 3638 00bc 10000000 		.4byte	.LFE20
 3639 00c0 00000000 		.4byte	.LFB21
 3640 00c4 10000000 		.4byte	.LFE21
 3641 00c8 00000000 		.4byte	0
 3642 00cc 00000000 		.4byte	0
 3643              		.section	.debug_line,"",%progbits
 3644              	.Ldebug_line0:
 3645 0000 E6020000 		.section	.debug_str,"MS",%progbits,1
 3645      02006F00 
 3645      00000201 
 3645      FB0E0D00 
 3645      01010101 
 3646              	.LASF10:
 3647 0000 75696E74 		.ascii	"uint16\000"
 3647      313600
 3648              	.LASF82:
 3649 0007 55534255 		.ascii	"USBUART_device\000"
 3649      4152545F 
 3649      64657669 
 3649      636500
 3650              	.LASF94:
 3651 0016 43794578 		.ascii	"CyExitCriticalSection\000"
 3651      69744372 
 3651      69746963 
 3651      616C5365 
 3651      6374696F 
 3652              	.LASF78:
 3653 002c 55534255 		.ascii	"USBUART_GetDeviceAddress\000"
 3653      4152545F 
 3653      47657444 
 3653      65766963 
 3653      65416464 
 3654              	.LASF54:
 3655 0045 55534255 		.ascii	"USBUART_Stop\000"
 3655      4152545F 
 3655      53746F70 
 3655      00
 3656              	.LASF75:
 3657 0052 55534255 		.ascii	"USBUART_RWUEnabled\000"
 3657      4152545F 
 3657      52575545 
 3657      6E61626C 
 3657      656400
 3658              	.LASF92:
 3659 0065 55534255 		.ascii	"USBUART_lastPacketSize\000"
 3659      4152545F 
 3659      6C617374 
 3659      5061636B 
 3659      65745369 
 3660              	.LASF64:
 3661 007c 55534255 		.ascii	"USBUART_LoadInEP\000"
 3661      4152545F 
 3661      4C6F6164 
 3661      496E4550 
 3661      00
ARM GAS  C:\Users\Tim\AppData\Local\Temp\ccA4EuzY.s 			page 110


 3662              	.LASF7:
 3663 008d 6C6F6E67 		.ascii	"long long unsigned int\000"
 3663      206C6F6E 
 3663      6720756E 
 3663      7369676E 
 3663      65642069 
 3664              	.LASF23:
 3665 00a4 61646472 		.ascii	"addr\000"
 3665      00
 3666              	.LASF33:
 3667 00a9 65704366 		.ascii	"epCfg\000"
 3667      6700
 3668              	.LASF91:
 3669 00af 55534255 		.ascii	"USBUART_EP\000"
 3669      4152545F 
 3669      455000
 3670              	.LASF61:
 3671 00ba 65704E75 		.ascii	"epNumber\000"
 3671      6D626572 
 3671      00
 3672              	.LASF49:
 3673 00c3 64657669 		.ascii	"device\000"
 3673      636500
 3674              	.LASF77:
 3675 00ca 55534255 		.ascii	"USBUART_GetConfiguration\000"
 3675      4152545F 
 3675      47657443 
 3675      6F6E6669 
 3675      67757261 
 3676              	.LASF6:
 3677 00e3 6C6F6E67 		.ascii	"long long int\000"
 3677      206C6F6E 
 3677      6720696E 
 3677      7400
 3678              	.LASF0:
 3679 00f1 7369676E 		.ascii	"signed char\000"
 3679      65642063 
 3679      68617200 
 3680              	.LASF67:
 3681 00fd 55534255 		.ascii	"USBUART_EnableOutEP\000"
 3681      4152545F 
 3681      456E6162 
 3681      6C654F75 
 3681      74455000 
 3682              	.LASF72:
 3683 0111 55534255 		.ascii	"USBUART_GetEPAckState\000"
 3683      4152545F 
 3683      47657445 
 3683      5041636B 
 3683      53746174 
 3684              	.LASF63:
 3685 0127 636E7472 		.ascii	"cntr\000"
 3685      00
 3686              	.LASF44:
 3687 012c 55534255 		.ascii	"USBUART_sie_eps_struct\000"
 3687      4152545F 
 3687      7369655F 
ARM GAS  C:\Users\Tim\AppData\Local\Temp\ccA4EuzY.s 			page 111


 3687      6570735F 
 3687      73747275 
 3688              	.LASF56:
 3689 0143 55534255 		.ascii	"USBUART_CheckActivity\000"
 3689      4152545F 
 3689      43686563 
 3689      6B416374 
 3689      69766974 
 3690              	.LASF4:
 3691 0159 6C6F6E67 		.ascii	"long int\000"
 3691      20696E74 
 3691      00
 3692              	.LASF9:
 3693 0162 75696E74 		.ascii	"uint8\000"
 3693      3800
 3694              	.LASF22:
 3695 0168 6570546F 		.ascii	"epToggle\000"
 3695      67676C65 
 3695      00
 3696              	.LASF87:
 3697 0171 55534255 		.ascii	"USBUART_hidProtocol\000"
 3697      4152545F 
 3697      68696450 
 3697      726F746F 
 3697      636F6C00 
 3698              	.LASF37:
 3699 0185 72775761 		.ascii	"rwWa\000"
 3699      00
 3700              	.LASF93:
 3701 018a 43794465 		.ascii	"CyDelayUs\000"
 3701      6C617955 
 3701      7300
 3702              	.LASF13:
 3703 0194 646F7562 		.ascii	"double\000"
 3703      6C6500
 3704              	.LASF74:
 3705 019b 706F7765 		.ascii	"powerStatus\000"
 3705      72537461 
 3705      74757300 
 3706              	.LASF80:
 3707 01a7 55534255 		.ascii	"USBUART_DisableSofInt\000"
 3707      4152545F 
 3707      44697361 
 3707      626C6553 
 3707      6F66496E 
 3708              	.LASF73:
 3709 01bd 55534255 		.ascii	"USBUART_SetPowerStatus\000"
 3709      4152545F 
 3709      53657450 
 3709      6F776572 
 3709      53746174 
 3710              	.LASF35:
 3711 01d4 65705372 		.ascii	"epSr\000"
 3711      00
 3712              	.LASF81:
 3713 01d9 55534255 		.ascii	"USBUART_initVar\000"
 3713      4152545F 
ARM GAS  C:\Users\Tim\AppData\Local\Temp\ccA4EuzY.s 			page 112


 3713      696E6974 
 3713      56617200 
 3714              	.LASF88:
 3715 01e9 55534255 		.ascii	"USBUART_interfaceNumber\000"
 3715      4152545F 
 3715      696E7465 
 3715      72666163 
 3715      654E756D 
 3716              	.LASF11:
 3717 0201 75696E74 		.ascii	"uint32\000"
 3717      333200
 3718              	.LASF100:
 3719 0208 4379496E 		.ascii	"CyIntSetVector\000"
 3719      74536574 
 3719      56656374 
 3719      6F7200
 3720              	.LASF65:
 3721 0217 70446174 		.ascii	"pData\000"
 3721      6100
 3722              	.LASF24:
 3723 021d 65704D6F 		.ascii	"epMode\000"
 3723      646500
 3724              	.LASF36:
 3725 0224 72657365 		.ascii	"reserved\000"
 3725      72766564 
 3725      00
 3726              	.LASF86:
 3727 022d 55534255 		.ascii	"USBUART_deviceStatus\000"
 3727      4152545F 
 3727      64657669 
 3727      63655374 
 3727      61747573 
 3728              	.LASF8:
 3729 0242 756E7369 		.ascii	"unsigned int\000"
 3729      676E6564 
 3729      20696E74 
 3729      00
 3730              	.LASF5:
 3731 024f 6C6F6E67 		.ascii	"long unsigned int\000"
 3731      20756E73 
 3731      69676E65 
 3731      6420696E 
 3731      7400
 3732              	.LASF99:
 3733 0261 4379456E 		.ascii	"CyEnterCriticalSection\000"
 3733      74657243 
 3733      72697469 
 3733      63616C53 
 3733      65637469 
 3734              	.LASF3:
 3735 0278 73686F72 		.ascii	"short unsigned int\000"
 3735      7420756E 
 3735      7369676E 
 3735      65642069 
 3735      6E7400
 3736              	.LASF52:
 3737 028b 55534255 		.ascii	"USBUART_Start\000"
ARM GAS  C:\Users\Tim\AppData\Local\Temp\ccA4EuzY.s 			page 113


 3737      4152545F 
 3737      53746172 
 3737      7400
 3738              	.LASF58:
 3739 0299 55534255 		.ascii	"USBUART_GetInterfaceSetting\000"
 3739      4152545F 
 3739      47657449 
 3739      6E746572 
 3739      66616365 
 3740              	.LASF47:
 3741 02b5 55534255 		.ascii	"USBUART_Init\000"
 3741      4152545F 
 3741      496E6974 
 3741      00
 3742              	.LASF45:
 3743 02c2 61726245 		.ascii	"arbEp\000"
 3743      7000
 3744              	.LASF27:
 3745 02c8 696E7465 		.ascii	"interface\000"
 3745      72666163 
 3745      6500
 3746              	.LASF55:
 3747 02d2 63723152 		.ascii	"cr1Reg\000"
 3747      656700
 3748              	.LASF16:
 3749 02d9 72656733 		.ascii	"reg32\000"
 3749      3200
 3750              	.LASF90:
 3751 02df 55534255 		.ascii	"USBUART_deviceAddress\000"
 3751      4152545F 
 3751      64657669 
 3751      63654164 
 3751      64726573 
 3752              	.LASF42:
 3753 02f5 55534255 		.ascii	"USBUART_arb_ep_struct\000"
 3753      4152545F 
 3753      6172625F 
 3753      65705F73 
 3753      74727563 
 3754              	.LASF21:
 3755 030b 68774570 		.ascii	"hwEpState\000"
 3755      53746174 
 3755      6500
 3756              	.LASF46:
 3757 0315 55534255 		.ascii	"USBUART_arb_eps_struct\000"
 3757      4152545F 
 3757      6172625F 
 3757      6570735F 
 3757      73747275 
 3758              	.LASF18:
 3759 032c 73697A65 		.ascii	"sizetype\000"
 3759      74797065 
 3759      00
 3760              	.LASF43:
 3761 0335 73696545 		.ascii	"sieEp\000"
 3761      7000
 3762              	.LASF70:
ARM GAS  C:\Users\Tim\AppData\Local\Temp\ccA4EuzY.s 			page 114


 3763 033b 55534255 		.ascii	"USBUART_Force\000"
 3763      4152545F 
 3763      466F7263 
 3763      6500
 3764              	.LASF97:
 3765 0349 2E5C4765 		.ascii	".\\Generated_Source\\PSoC5\\USBUART.c\000"
 3765      6E657261 
 3765      7465645F 
 3765      536F7572 
 3765      63655C50 
 3766              	.LASF19:
 3767 036c 61747472 		.ascii	"attrib\000"
 3767      696200
 3768              	.LASF40:
 3769 0373 72775261 		.ascii	"rwRaMsb\000"
 3769      4D736200 
 3770              	.LASF29:
 3771 037b 6570436E 		.ascii	"epCnt0\000"
 3771      743000
 3772              	.LASF30:
 3773 0382 6570436E 		.ascii	"epCnt1\000"
 3773      743100
 3774              	.LASF95:
 3775 0389 4379496E 		.ascii	"CyIntSetPriority\000"
 3775      74536574 
 3775      5072696F 
 3775      72697479 
 3775      00
 3776              	.LASF31:
 3777 039a 65704372 		.ascii	"epCr0\000"
 3777      3000
 3778              	.LASF12:
 3779 03a0 666C6F61 		.ascii	"float\000"
 3779      7400
 3780              	.LASF68:
 3781 03a6 55534255 		.ascii	"USBUART_ReadOutEP\000"
 3781      4152545F 
 3781      52656164 
 3781      4F757445 
 3781      5000
 3782              	.LASF20:
 3783 03b8 61706945 		.ascii	"apiEpState\000"
 3783      70537461 
 3783      746500
 3784              	.LASF101:
 3785 03c3 43794465 		.ascii	"CyDelayCycles\000"
 3785      6C617943 
 3785      79636C65 
 3785      7300
 3786              	.LASF98:
 3787 03d1 443A5C70 		.ascii	"D:\\projects\\ArloBot\\arlobot_freesoc\\freesoc.cyd"
 3787      726F6A65 
 3787      6374735C 
 3787      41726C6F 
 3787      426F745C 
 3788 0400 736E00   		.ascii	"sn\000"
 3789              	.LASF15:
ARM GAS  C:\Users\Tim\AppData\Local\Temp\ccA4EuzY.s 			page 115


 3790 0403 72656738 		.ascii	"reg8\000"
 3790      00
 3791              	.LASF89:
 3792 0408 55534255 		.ascii	"USBUART_interfaceSetting\000"
 3792      4152545F 
 3792      696E7465 
 3792      72666163 
 3792      65536574 
 3793              	.LASF1:
 3794 0421 756E7369 		.ascii	"unsigned char\000"
 3794      676E6564 
 3794      20636861 
 3794      7200
 3795              	.LASF2:
 3796 042f 73686F72 		.ascii	"short int\000"
 3796      7420696E 
 3796      7400
 3797              	.LASF60:
 3798 0439 55534255 		.ascii	"USBUART_GetEPState\000"
 3798      4152545F 
 3798      47657445 
 3798      50537461 
 3798      746500
 3799              	.LASF39:
 3800 044c 72775261 		.ascii	"rwRa\000"
 3800      00
 3801              	.LASF69:
 3802 0451 55534255 		.ascii	"USBUART_DisableOutEP\000"
 3802      4152545F 
 3802      44697361 
 3802      626C654F 
 3802      75744550 
 3803              	.LASF38:
 3804 0466 72775761 		.ascii	"rwWaMsb\000"
 3804      4D736200 
 3805              	.LASF32:
 3806 046e 55534255 		.ascii	"USBUART_sie_ep_struct\000"
 3806      4152545F 
 3806      7369655F 
 3806      65705F73 
 3806      74727563 
 3807              	.LASF71:
 3808 0484 62537461 		.ascii	"bState\000"
 3808      746500
 3809              	.LASF66:
 3810 048b 6C656E67 		.ascii	"length\000"
 3810      746800
 3811              	.LASF14:
 3812 0492 63686172 		.ascii	"char\000"
 3812      00
 3813              	.LASF50:
 3814 0497 6D6F6465 		.ascii	"mode\000"
 3814      00
 3815              	.LASF17:
 3816 049c 63796973 		.ascii	"cyisraddress\000"
 3816      72616464 
 3816      72657373 
ARM GAS  C:\Users\Tim\AppData\Local\Temp\ccA4EuzY.s 			page 116


 3816      00
 3817              	.LASF26:
 3818 04a9 62756666 		.ascii	"bufferSize\000"
 3818      65725369 
 3818      7A6500
 3819              	.LASF28:
 3820 04b4 545F5553 		.ascii	"T_USBUART_EP_CTL_BLOCK\000"
 3820      42554152 
 3820      545F4550 
 3820      5F43544C 
 3820      5F424C4F 
 3821              	.LASF25:
 3822 04cb 62756666 		.ascii	"buffOffset\000"
 3822      4F666673 
 3822      657400
 3823              	.LASF59:
 3824 04d6 696E7465 		.ascii	"interfaceNumber\000"
 3824      72666163 
 3824      654E756D 
 3824      62657200 
 3825              	.LASF62:
 3826 04e6 55534255 		.ascii	"USBUART_GetEPCount\000"
 3826      4152545F 
 3826      47657445 
 3826      50436F75 
 3826      6E7400
 3827              	.LASF51:
 3828 04f9 656E6162 		.ascii	"enableInterrupts\000"
 3828      6C65496E 
 3828      74657272 
 3828      75707473 
 3828      00
 3829              	.LASF96:
 3830 050a 474E5520 		.ascii	"GNU C 4.9.3 20150303 (release) [ARM/embedded-4_9-br"
 3830      4320342E 
 3830      392E3320 
 3830      32303135 
 3830      30333033 
 3831 053d 616E6368 		.ascii	"anch revision 221220] -mcpu=cortex-m3 -mthumb -g -O"
 3831      20726576 
 3831      6973696F 
 3831      6E203232 
 3831      31323230 
 3832 0570 67202D66 		.ascii	"g -ffunction-sections -ffat-lto-objects\000"
 3832      66756E63 
 3832      74696F6E 
 3832      2D736563 
 3832      74696F6E 
 3833              	.LASF41:
 3834 0598 72774472 		.ascii	"rwDr\000"
 3834      00
 3835              	.LASF48:
 3836 059d 55534255 		.ascii	"USBUART_InitComponent\000"
 3836      4152545F 
 3836      496E6974 
 3836      436F6D70 
 3836      6F6E656E 
ARM GAS  C:\Users\Tim\AppData\Local\Temp\ccA4EuzY.s 			page 117


 3837              	.LASF84:
 3838 05b3 55534255 		.ascii	"USBUART_configuration\000"
 3838      4152545F 
 3838      636F6E66 
 3838      69677572 
 3838      6174696F 
 3839              	.LASF57:
 3840 05c9 55534255 		.ascii	"USBUART_IsConfigurationChanged\000"
 3840      4152545F 
 3840      4973436F 
 3840      6E666967 
 3840      75726174 
 3841              	.LASF34:
 3842 05e8 6570496E 		.ascii	"epIntEn\000"
 3842      74456E00 
 3843              	.LASF53:
 3844 05f0 55534255 		.ascii	"USBUART_ReInitComponent\000"
 3844      4152545F 
 3844      5265496E 
 3844      6974436F 
 3844      6D706F6E 
 3845              	.LASF83:
 3846 0608 55534255 		.ascii	"USBUART_transferState\000"
 3846      4152545F 
 3846      7472616E 
 3846      73666572 
 3846      53746174 
 3847              	.LASF79:
 3848 061e 55534255 		.ascii	"USBUART_EnableSofInt\000"
 3848      4152545F 
 3848      456E6162 
 3848      6C65536F 
 3848      66496E74 
 3849              	.LASF85:
 3850 0633 55534255 		.ascii	"USBUART_configurationChanged\000"
 3850      4152545F 
 3850      636F6E66 
 3850      69677572 
 3850      6174696F 
 3851              	.LASF76:
 3852 0650 72657375 		.ascii	"result\000"
 3852      6C7400
 3853              		.ident	"GCC: (GNU Tools for ARM Embedded Processors) 4.9.3 20150303 (release) [ARM/embedded-4_9-br
