ARM GAS  C:\Users\Tim\AppData\Local\Temp\ccXkHNbb.s 			page 1


   1              		.syntax unified
   2              		.cpu cortex-m3
   3              		.fpu softvfp
   4              		.eabi_attribute 20, 1
   5              		.eabi_attribute 21, 1
   6              		.eabi_attribute 23, 3
   7              		.eabi_attribute 24, 1
   8              		.eabi_attribute 25, 1
   9              		.eabi_attribute 26, 1
  10              		.eabi_attribute 30, 1
  11              		.eabi_attribute 34, 1
  12              		.eabi_attribute 18, 4
  13              		.thumb
  14              		.file	"USBUART_hid.c"
  15              		.text
  16              	.Ltext0:
  17              		.cfi_sections	.debug_frame
  18              		.section	.text.USBUART_UpdateHIDTimer,"ax",%progbits
  19              		.align	2
  20              		.global	USBUART_UpdateHIDTimer
  21              		.thumb
  22              		.thumb_func
  23              		.type	USBUART_UpdateHIDTimer, %function
  24              	USBUART_UpdateHIDTimer:
  25              	.LFB0:
  26              		.file 1 ".\\Generated_Source\\PSoC5\\USBUART_hid.c"
   1:.\Generated_Source\PSoC5/USBUART_hid.c **** /***************************************************************************//**
   2:.\Generated_Source\PSoC5/USBUART_hid.c **** * \file USBUART_hid.c
   3:.\Generated_Source\PSoC5/USBUART_hid.c **** * \version 3.0
   4:.\Generated_Source\PSoC5/USBUART_hid.c **** *
   5:.\Generated_Source\PSoC5/USBUART_hid.c **** * \brief
   6:.\Generated_Source\PSoC5/USBUART_hid.c **** *  This file contains the USB HID Class request handler. 
   7:.\Generated_Source\PSoC5/USBUART_hid.c **** *
   8:.\Generated_Source\PSoC5/USBUART_hid.c **** * Related Document:
   9:.\Generated_Source\PSoC5/USBUART_hid.c **** *  Device Class Definition for Human Interface Devices (HID) Version 1.11
  10:.\Generated_Source\PSoC5/USBUART_hid.c **** *
  11:.\Generated_Source\PSoC5/USBUART_hid.c **** ********************************************************************************
  12:.\Generated_Source\PSoC5/USBUART_hid.c **** * \copyright
  13:.\Generated_Source\PSoC5/USBUART_hid.c **** * Copyright 2008-2015, Cypress Semiconductor Corporation.  All rights reserved.
  14:.\Generated_Source\PSoC5/USBUART_hid.c **** * You may use this file only in accordance with the license, terms, conditions,
  15:.\Generated_Source\PSoC5/USBUART_hid.c **** * disclaimers, and limitations in the end user license agreement accompanying
  16:.\Generated_Source\PSoC5/USBUART_hid.c **** * the software package with which this file was provided.
  17:.\Generated_Source\PSoC5/USBUART_hid.c **** *******************************************************************************/
  18:.\Generated_Source\PSoC5/USBUART_hid.c **** 
  19:.\Generated_Source\PSoC5/USBUART_hid.c **** #include "USBUART_hid.h"
  20:.\Generated_Source\PSoC5/USBUART_hid.c **** #include "USBUART_pvt.h"
  21:.\Generated_Source\PSoC5/USBUART_hid.c **** #include "cyapicallbacks.h"
  22:.\Generated_Source\PSoC5/USBUART_hid.c **** 
  23:.\Generated_Source\PSoC5/USBUART_hid.c **** 
  24:.\Generated_Source\PSoC5/USBUART_hid.c **** #if defined(USBUART_ENABLE_HID_CLASS)
  25:.\Generated_Source\PSoC5/USBUART_hid.c **** 
  26:.\Generated_Source\PSoC5/USBUART_hid.c **** /***************************************
  27:.\Generated_Source\PSoC5/USBUART_hid.c **** *    HID Variables
  28:.\Generated_Source\PSoC5/USBUART_hid.c **** ***************************************/
  29:.\Generated_Source\PSoC5/USBUART_hid.c **** /** This variable is initialized in the USBFS_InitComponent() API to the 
  30:.\Generated_Source\PSoC5/USBUART_hid.c ****  * PROTOCOL_REPORT value. It is controlled by the host using the 
  31:.\Generated_Source\PSoC5/USBUART_hid.c ****  * HID_SET_PROTOCOL request. The value is returned to the user code by the 
ARM GAS  C:\Users\Tim\AppData\Local\Temp\ccXkHNbb.s 			page 2


  32:.\Generated_Source\PSoC5/USBUART_hid.c ****  * USBFS_GetProtocol() API.*/
  33:.\Generated_Source\PSoC5/USBUART_hid.c **** volatile uint8 USBUART_hidProtocol[USBUART_MAX_INTERFACES_NUMBER];
  34:.\Generated_Source\PSoC5/USBUART_hid.c **** 
  35:.\Generated_Source\PSoC5/USBUART_hid.c **** /** This variable controls the HID report rate. It is controlled by the host 
  36:.\Generated_Source\PSoC5/USBUART_hid.c ****  * using the HID_SET_IDLE request and used by the USBFS_UpdateHIDTimer() API to 
  37:.\Generated_Source\PSoC5/USBUART_hid.c ****  * reload timer.*/
  38:.\Generated_Source\PSoC5/USBUART_hid.c **** volatile uint8 USBUART_hidIdleRate[USBUART_MAX_INTERFACES_NUMBER];
  39:.\Generated_Source\PSoC5/USBUART_hid.c **** 
  40:.\Generated_Source\PSoC5/USBUART_hid.c **** /** This variable contains the timer counter, which is decremented and reloaded 
  41:.\Generated_Source\PSoC5/USBUART_hid.c ****  * by the USBFS_UpdateHIDTimer() API.*/
  42:.\Generated_Source\PSoC5/USBUART_hid.c **** volatile uint8 USBUART_hidIdleTimer[USBUART_MAX_INTERFACES_NUMBER]; /* HID device idle rate value *
  43:.\Generated_Source\PSoC5/USBUART_hid.c **** 
  44:.\Generated_Source\PSoC5/USBUART_hid.c **** 
  45:.\Generated_Source\PSoC5/USBUART_hid.c **** /***************************************
  46:.\Generated_Source\PSoC5/USBUART_hid.c **** * Custom Declarations
  47:.\Generated_Source\PSoC5/USBUART_hid.c **** ***************************************/
  48:.\Generated_Source\PSoC5/USBUART_hid.c **** 
  49:.\Generated_Source\PSoC5/USBUART_hid.c **** /* `#START HID_CUSTOM_DECLARATIONS` Place your declaration here */
  50:.\Generated_Source\PSoC5/USBUART_hid.c **** 
  51:.\Generated_Source\PSoC5/USBUART_hid.c **** /* `#END` */
  52:.\Generated_Source\PSoC5/USBUART_hid.c **** 
  53:.\Generated_Source\PSoC5/USBUART_hid.c **** 
  54:.\Generated_Source\PSoC5/USBUART_hid.c **** /*******************************************************************************
  55:.\Generated_Source\PSoC5/USBUART_hid.c **** * Function Name: USBUART_UpdateHIDTimer
  56:.\Generated_Source\PSoC5/USBUART_hid.c **** ****************************************************************************//**
  57:.\Generated_Source\PSoC5/USBUART_hid.c **** *
  58:.\Generated_Source\PSoC5/USBUART_hid.c **** *  This function updates the HID Report idle timer and returns the status and 
  59:.\Generated_Source\PSoC5/USBUART_hid.c **** *  reloads the timer if it expires.
  60:.\Generated_Source\PSoC5/USBUART_hid.c **** *
  61:.\Generated_Source\PSoC5/USBUART_hid.c **** *  \param interface Contains the interface number.
  62:.\Generated_Source\PSoC5/USBUART_hid.c **** *
  63:.\Generated_Source\PSoC5/USBUART_hid.c **** * \return
  64:.\Generated_Source\PSoC5/USBUART_hid.c **** *  Returns the state of the HID timer. Symbolic names and their associated values are given here:
  65:.\Generated_Source\PSoC5/USBUART_hid.c **** *  Return Value               |Notes
  66:.\Generated_Source\PSoC5/USBUART_hid.c **** *  ---------------------------|------------------------------------------------
  67:.\Generated_Source\PSoC5/USBUART_hid.c **** *  USBFS_IDLE_TIMER_EXPIRED   | The timer expired.
  68:.\Generated_Source\PSoC5/USBUART_hid.c **** *  USBFS_IDLE_TIMER_RUNNING   | The timer is running.
  69:.\Generated_Source\PSoC5/USBUART_hid.c **** *  USBFS_IDLE_TIMER_IDEFINITE | The report is sent when data or state changes.
  70:.\Generated_Source\PSoC5/USBUART_hid.c **** *
  71:.\Generated_Source\PSoC5/USBUART_hid.c **** *
  72:.\Generated_Source\PSoC5/USBUART_hid.c **** * \reentrant
  73:.\Generated_Source\PSoC5/USBUART_hid.c **** *  No.
  74:.\Generated_Source\PSoC5/USBUART_hid.c **** *
  75:.\Generated_Source\PSoC5/USBUART_hid.c **** *******************************************************************************/
  76:.\Generated_Source\PSoC5/USBUART_hid.c **** uint8 USBUART_UpdateHIDTimer(uint8 interface) 
  77:.\Generated_Source\PSoC5/USBUART_hid.c **** {
  27              		.loc 1 77 0
  28              		.cfi_startproc
  29              		@ args = 0, pretend = 0, frame = 0
  30              		@ frame_needed = 0, uses_anonymous_args = 0
  31              		@ link register save eliminated.
  32              	.LVL0:
  78:.\Generated_Source\PSoC5/USBUART_hid.c ****     uint8 stat = USBUART_IDLE_TIMER_INDEFINITE;
  79:.\Generated_Source\PSoC5/USBUART_hid.c **** 
  80:.\Generated_Source\PSoC5/USBUART_hid.c ****     if(USBUART_hidIdleRate[interface] != 0u)
  33              		.loc 1 80 0
  34 0000 0C4B     		ldr	r3, .L5
ARM GAS  C:\Users\Tim\AppData\Local\Temp\ccXkHNbb.s 			page 3


  35 0002 1B5C     		ldrb	r3, [r3, r0]	@ zero_extendqisi2
  36 0004 13F0FF0F 		tst	r3, #255
  37 0008 12D0     		beq	.L4
  81:.\Generated_Source\PSoC5/USBUART_hid.c ****     {
  82:.\Generated_Source\PSoC5/USBUART_hid.c ****         if(USBUART_hidIdleTimer[interface] > 0u)
  38              		.loc 1 82 0
  39 000a 0B4B     		ldr	r3, .L5+4
  40 000c 1B5C     		ldrb	r3, [r3, r0]	@ zero_extendqisi2
  41 000e 13F0FF0F 		tst	r3, #255
  42 0012 06D0     		beq	.L3
  83:.\Generated_Source\PSoC5/USBUART_hid.c ****         {
  84:.\Generated_Source\PSoC5/USBUART_hid.c ****             USBUART_hidIdleTimer[interface]--;
  43              		.loc 1 84 0
  44 0014 084A     		ldr	r2, .L5+4
  45 0016 135C     		ldrb	r3, [r2, r0]	@ zero_extendqisi2
  46 0018 013B     		subs	r3, r3, #1
  47 001a DBB2     		uxtb	r3, r3
  48 001c 1354     		strb	r3, [r2, r0]
  49              	.LVL1:
  85:.\Generated_Source\PSoC5/USBUART_hid.c ****             stat = USBUART_IDLE_TIMER_RUNNING;
  50              		.loc 1 85 0
  51 001e 0220     		movs	r0, #2
  52              	.LVL2:
  53 0020 7047     		bx	lr
  54              	.LVL3:
  55              	.L3:
  86:.\Generated_Source\PSoC5/USBUART_hid.c ****         }
  87:.\Generated_Source\PSoC5/USBUART_hid.c ****         else
  88:.\Generated_Source\PSoC5/USBUART_hid.c ****         {
  89:.\Generated_Source\PSoC5/USBUART_hid.c ****             USBUART_hidIdleTimer[interface] = USBUART_hidIdleRate[interface];
  56              		.loc 1 89 0
  57 0022 044B     		ldr	r3, .L5
  58 0024 1B5C     		ldrb	r3, [r3, r0]	@ zero_extendqisi2
  59 0026 DBB2     		uxtb	r3, r3
  60 0028 034A     		ldr	r2, .L5+4
  61 002a 1354     		strb	r3, [r2, r0]
  62              	.LVL4:
  90:.\Generated_Source\PSoC5/USBUART_hid.c ****             stat = USBUART_IDLE_TIMER_EXPIRED;
  63              		.loc 1 90 0
  64 002c 0120     		movs	r0, #1
  65              	.LVL5:
  66 002e 7047     		bx	lr
  67              	.LVL6:
  68              	.L4:
  78:.\Generated_Source\PSoC5/USBUART_hid.c **** 
  69              		.loc 1 78 0
  70 0030 0020     		movs	r0, #0
  71              	.LVL7:
  91:.\Generated_Source\PSoC5/USBUART_hid.c ****         }
  92:.\Generated_Source\PSoC5/USBUART_hid.c ****     }
  93:.\Generated_Source\PSoC5/USBUART_hid.c **** 
  94:.\Generated_Source\PSoC5/USBUART_hid.c ****     return((uint8)stat);
  95:.\Generated_Source\PSoC5/USBUART_hid.c **** }
  72              		.loc 1 95 0
  73 0032 7047     		bx	lr
  74              	.L6:
  75              		.align	2
ARM GAS  C:\Users\Tim\AppData\Local\Temp\ccXkHNbb.s 			page 4


  76              	.L5:
  77 0034 00000000 		.word	USBUART_hidIdleRate
  78 0038 00000000 		.word	USBUART_hidIdleTimer
  79              		.cfi_endproc
  80              	.LFE0:
  81              		.size	USBUART_UpdateHIDTimer, .-USBUART_UpdateHIDTimer
  82              		.section	.text.USBUART_GetProtocol,"ax",%progbits
  83              		.align	2
  84              		.global	USBUART_GetProtocol
  85              		.thumb
  86              		.thumb_func
  87              		.type	USBUART_GetProtocol, %function
  88              	USBUART_GetProtocol:
  89              	.LFB1:
  96:.\Generated_Source\PSoC5/USBUART_hid.c **** 
  97:.\Generated_Source\PSoC5/USBUART_hid.c **** 
  98:.\Generated_Source\PSoC5/USBUART_hid.c **** /*******************************************************************************
  99:.\Generated_Source\PSoC5/USBUART_hid.c **** * Function Name: USBUART_GetProtocol
 100:.\Generated_Source\PSoC5/USBUART_hid.c **** ****************************************************************************//**
 101:.\Generated_Source\PSoC5/USBUART_hid.c **** *
 102:.\Generated_Source\PSoC5/USBUART_hid.c **** *  This function returns the HID protocol value for the selected interface.
 103:.\Generated_Source\PSoC5/USBUART_hid.c **** *
 104:.\Generated_Source\PSoC5/USBUART_hid.c **** *  \param interface:  Contains the interface number.
 105:.\Generated_Source\PSoC5/USBUART_hid.c **** *
 106:.\Generated_Source\PSoC5/USBUART_hid.c **** *  \return
 107:.\Generated_Source\PSoC5/USBUART_hid.c **** *  Returns the protocol value. 
 108:.\Generated_Source\PSoC5/USBUART_hid.c **** *
 109:.\Generated_Source\PSoC5/USBUART_hid.c **** *******************************************************************************/
 110:.\Generated_Source\PSoC5/USBUART_hid.c **** uint8 USBUART_GetProtocol(uint8 interface) 
 111:.\Generated_Source\PSoC5/USBUART_hid.c **** {
  90              		.loc 1 111 0
  91              		.cfi_startproc
  92              		@ args = 0, pretend = 0, frame = 0
  93              		@ frame_needed = 0, uses_anonymous_args = 0
  94              		@ link register save eliminated.
  95              	.LVL8:
 112:.\Generated_Source\PSoC5/USBUART_hid.c ****     return(USBUART_hidProtocol[interface]);
  96              		.loc 1 112 0
  97 0000 014B     		ldr	r3, .L8
  98 0002 185C     		ldrb	r0, [r3, r0]	@ zero_extendqisi2
  99              	.LVL9:
 113:.\Generated_Source\PSoC5/USBUART_hid.c **** }
 100              		.loc 1 113 0
 101 0004 7047     		bx	lr
 102              	.L9:
 103 0006 00BF     		.align	2
 104              	.L8:
 105 0008 00000000 		.word	USBUART_hidProtocol
 106              		.cfi_endproc
 107              	.LFE1:
 108              		.size	USBUART_GetProtocol, .-USBUART_GetProtocol
 109              		.section	.text.USBUART_FindHidClassDecriptor,"ax",%progbits
 110              		.align	2
 111              		.global	USBUART_FindHidClassDecriptor
 112              		.thumb
 113              		.thumb_func
 114              		.type	USBUART_FindHidClassDecriptor, %function
ARM GAS  C:\Users\Tim\AppData\Local\Temp\ccXkHNbb.s 			page 5


 115              	USBUART_FindHidClassDecriptor:
 116              	.LFB3:
 114:.\Generated_Source\PSoC5/USBUART_hid.c **** 
 115:.\Generated_Source\PSoC5/USBUART_hid.c **** 
 116:.\Generated_Source\PSoC5/USBUART_hid.c **** /*******************************************************************************
 117:.\Generated_Source\PSoC5/USBUART_hid.c **** * Function Name: USBUART_DispatchHIDClassRqst
 118:.\Generated_Source\PSoC5/USBUART_hid.c **** ****************************************************************************//**
 119:.\Generated_Source\PSoC5/USBUART_hid.c **** *
 120:.\Generated_Source\PSoC5/USBUART_hid.c **** *  This routine dispatches class requests
 121:.\Generated_Source\PSoC5/USBUART_hid.c **** *
 122:.\Generated_Source\PSoC5/USBUART_hid.c **** * \return
 123:.\Generated_Source\PSoC5/USBUART_hid.c **** *  Results of HID Class request handling: 
 124:.\Generated_Source\PSoC5/USBUART_hid.c **** *  - USBUART_TRUE  - request was handled without errors
 125:.\Generated_Source\PSoC5/USBUART_hid.c **** *  - USBUART_FALSE - error occurs during handling of request  
 126:.\Generated_Source\PSoC5/USBUART_hid.c **** *
 127:.\Generated_Source\PSoC5/USBUART_hid.c **** * \reentrant
 128:.\Generated_Source\PSoC5/USBUART_hid.c **** *  No.
 129:.\Generated_Source\PSoC5/USBUART_hid.c **** *
 130:.\Generated_Source\PSoC5/USBUART_hid.c **** *******************************************************************************/
 131:.\Generated_Source\PSoC5/USBUART_hid.c **** uint8 USBUART_DispatchHIDClassRqst(void) 
 132:.\Generated_Source\PSoC5/USBUART_hid.c **** {
 133:.\Generated_Source\PSoC5/USBUART_hid.c ****     uint8 requestHandled = USBUART_FALSE;
 134:.\Generated_Source\PSoC5/USBUART_hid.c **** 
 135:.\Generated_Source\PSoC5/USBUART_hid.c ****     uint8 interfaceNumber = (uint8) USBUART_wIndexLoReg;
 136:.\Generated_Source\PSoC5/USBUART_hid.c ****     
 137:.\Generated_Source\PSoC5/USBUART_hid.c ****     /* Check request direction: D2H or H2D. */
 138:.\Generated_Source\PSoC5/USBUART_hid.c ****     if (0u != (USBUART_bmRequestTypeReg & USBUART_RQST_DIR_D2H))
 139:.\Generated_Source\PSoC5/USBUART_hid.c ****     {
 140:.\Generated_Source\PSoC5/USBUART_hid.c ****         /* Handle direction from device to host. */
 141:.\Generated_Source\PSoC5/USBUART_hid.c ****         
 142:.\Generated_Source\PSoC5/USBUART_hid.c ****         switch (USBUART_bRequestReg)
 143:.\Generated_Source\PSoC5/USBUART_hid.c ****         {
 144:.\Generated_Source\PSoC5/USBUART_hid.c ****             case USBUART_GET_DESCRIPTOR:
 145:.\Generated_Source\PSoC5/USBUART_hid.c ****                 if (USBUART_wValueHiReg == USBUART_DESCR_HID_CLASS)
 146:.\Generated_Source\PSoC5/USBUART_hid.c ****                 {
 147:.\Generated_Source\PSoC5/USBUART_hid.c ****                     USBUART_FindHidClassDecriptor();
 148:.\Generated_Source\PSoC5/USBUART_hid.c ****                     if (USBUART_currentTD.count != 0u)
 149:.\Generated_Source\PSoC5/USBUART_hid.c ****                     {
 150:.\Generated_Source\PSoC5/USBUART_hid.c ****                         requestHandled = USBUART_InitControlRead();
 151:.\Generated_Source\PSoC5/USBUART_hid.c ****                     }
 152:.\Generated_Source\PSoC5/USBUART_hid.c ****                 }
 153:.\Generated_Source\PSoC5/USBUART_hid.c ****                 else if (USBUART_wValueHiReg == USBUART_DESCR_HID_REPORT)
 154:.\Generated_Source\PSoC5/USBUART_hid.c ****                 {
 155:.\Generated_Source\PSoC5/USBUART_hid.c ****                     USBUART_FindReportDescriptor();
 156:.\Generated_Source\PSoC5/USBUART_hid.c ****                     if (USBUART_currentTD.count != 0u)
 157:.\Generated_Source\PSoC5/USBUART_hid.c ****                     {
 158:.\Generated_Source\PSoC5/USBUART_hid.c ****                         requestHandled = USBUART_InitControlRead();
 159:.\Generated_Source\PSoC5/USBUART_hid.c ****                     }
 160:.\Generated_Source\PSoC5/USBUART_hid.c ****                 }
 161:.\Generated_Source\PSoC5/USBUART_hid.c ****                 else
 162:.\Generated_Source\PSoC5/USBUART_hid.c ****                 {   
 163:.\Generated_Source\PSoC5/USBUART_hid.c ****                     /* Do not handle this request. */
 164:.\Generated_Source\PSoC5/USBUART_hid.c ****                 }
 165:.\Generated_Source\PSoC5/USBUART_hid.c ****                 break;
 166:.\Generated_Source\PSoC5/USBUART_hid.c ****                 
 167:.\Generated_Source\PSoC5/USBUART_hid.c ****             case USBUART_HID_GET_REPORT:
 168:.\Generated_Source\PSoC5/USBUART_hid.c ****                 USBUART_FindReport();
ARM GAS  C:\Users\Tim\AppData\Local\Temp\ccXkHNbb.s 			page 6


 169:.\Generated_Source\PSoC5/USBUART_hid.c ****                 if (USBUART_currentTD.count != 0u)
 170:.\Generated_Source\PSoC5/USBUART_hid.c ****                 {
 171:.\Generated_Source\PSoC5/USBUART_hid.c ****                     requestHandled = USBUART_InitControlRead();
 172:.\Generated_Source\PSoC5/USBUART_hid.c ****                 }
 173:.\Generated_Source\PSoC5/USBUART_hid.c ****                 break;
 174:.\Generated_Source\PSoC5/USBUART_hid.c **** 
 175:.\Generated_Source\PSoC5/USBUART_hid.c ****             case USBUART_HID_GET_IDLE:
 176:.\Generated_Source\PSoC5/USBUART_hid.c ****                 /* This function does not support multiple reports per interface*/
 177:.\Generated_Source\PSoC5/USBUART_hid.c ****                 /* Validate interfaceNumber and Report ID (should be 0): Do not support Idle per Re
 178:.\Generated_Source\PSoC5/USBUART_hid.c ****                 if ((interfaceNumber < USBUART_MAX_INTERFACES_NUMBER) && (USBUART_wValueLoReg == 0u
 179:.\Generated_Source\PSoC5/USBUART_hid.c ****                 {
 180:.\Generated_Source\PSoC5/USBUART_hid.c ****                     USBUART_currentTD.count = 1u;
 181:.\Generated_Source\PSoC5/USBUART_hid.c ****                     USBUART_currentTD.pData = &USBUART_hidIdleRate[interfaceNumber];
 182:.\Generated_Source\PSoC5/USBUART_hid.c ****                     requestHandled  = USBUART_InitControlRead();
 183:.\Generated_Source\PSoC5/USBUART_hid.c ****                 }
 184:.\Generated_Source\PSoC5/USBUART_hid.c ****                 break;
 185:.\Generated_Source\PSoC5/USBUART_hid.c ****                 
 186:.\Generated_Source\PSoC5/USBUART_hid.c ****             case USBUART_HID_GET_PROTOCOL:
 187:.\Generated_Source\PSoC5/USBUART_hid.c ****                 /* Validate interfaceNumber */
 188:.\Generated_Source\PSoC5/USBUART_hid.c ****                 if( interfaceNumber < USBUART_MAX_INTERFACES_NUMBER)
 189:.\Generated_Source\PSoC5/USBUART_hid.c ****                 {
 190:.\Generated_Source\PSoC5/USBUART_hid.c ****                     USBUART_currentTD.count = 1u;
 191:.\Generated_Source\PSoC5/USBUART_hid.c ****                     USBUART_currentTD.pData = &USBUART_hidProtocol[interfaceNumber];
 192:.\Generated_Source\PSoC5/USBUART_hid.c ****                     requestHandled  = USBUART_InitControlRead();
 193:.\Generated_Source\PSoC5/USBUART_hid.c ****                 }
 194:.\Generated_Source\PSoC5/USBUART_hid.c ****                 break;
 195:.\Generated_Source\PSoC5/USBUART_hid.c ****                 
 196:.\Generated_Source\PSoC5/USBUART_hid.c ****             default:    /* requestHandled is initialized as FALSE by default */
 197:.\Generated_Source\PSoC5/USBUART_hid.c ****                 break;
 198:.\Generated_Source\PSoC5/USBUART_hid.c ****         }
 199:.\Generated_Source\PSoC5/USBUART_hid.c ****     }
 200:.\Generated_Source\PSoC5/USBUART_hid.c ****     else
 201:.\Generated_Source\PSoC5/USBUART_hid.c ****     {   
 202:.\Generated_Source\PSoC5/USBUART_hid.c ****         /* Handle direction from host to device. */
 203:.\Generated_Source\PSoC5/USBUART_hid.c ****         
 204:.\Generated_Source\PSoC5/USBUART_hid.c ****         switch (USBUART_bRequestReg)
 205:.\Generated_Source\PSoC5/USBUART_hid.c ****         {
 206:.\Generated_Source\PSoC5/USBUART_hid.c ****             case USBUART_HID_SET_REPORT:
 207:.\Generated_Source\PSoC5/USBUART_hid.c ****                 USBUART_FindReport();
 208:.\Generated_Source\PSoC5/USBUART_hid.c ****                 if (USBUART_currentTD.count != 0u)
 209:.\Generated_Source\PSoC5/USBUART_hid.c ****                 {
 210:.\Generated_Source\PSoC5/USBUART_hid.c ****                     requestHandled = USBUART_InitControlWrite();
 211:.\Generated_Source\PSoC5/USBUART_hid.c ****                 }
 212:.\Generated_Source\PSoC5/USBUART_hid.c ****                 break;
 213:.\Generated_Source\PSoC5/USBUART_hid.c ****                 
 214:.\Generated_Source\PSoC5/USBUART_hid.c ****             case USBUART_HID_SET_IDLE:
 215:.\Generated_Source\PSoC5/USBUART_hid.c ****                 /* This function does not support multiple reports per interface */
 216:.\Generated_Source\PSoC5/USBUART_hid.c ****                 /* Validate interfaceNumber and Report ID (should be 0): Do not support Idle per Re
 217:.\Generated_Source\PSoC5/USBUART_hid.c ****                 if ((interfaceNumber < USBUART_MAX_INTERFACES_NUMBER) && (USBUART_wValueLoReg == 0u
 218:.\Generated_Source\PSoC5/USBUART_hid.c ****                 {
 219:.\Generated_Source\PSoC5/USBUART_hid.c ****                     USBUART_hidIdleRate[interfaceNumber] = (uint8)USBUART_wValueHiReg;
 220:.\Generated_Source\PSoC5/USBUART_hid.c ****                     /* With regards to HID spec: "7.2.4 Set_Idle Request"
 221:.\Generated_Source\PSoC5/USBUART_hid.c ****                     *  Latency. If the current period has gone past the
 222:.\Generated_Source\PSoC5/USBUART_hid.c ****                     *  newly proscribed time duration, then a report
 223:.\Generated_Source\PSoC5/USBUART_hid.c ****                     *  will be generated immediately.
 224:.\Generated_Source\PSoC5/USBUART_hid.c ****                     */
 225:.\Generated_Source\PSoC5/USBUART_hid.c ****                     if(USBUART_hidIdleRate[interfaceNumber] <
ARM GAS  C:\Users\Tim\AppData\Local\Temp\ccXkHNbb.s 			page 7


 226:.\Generated_Source\PSoC5/USBUART_hid.c ****                        USBUART_hidIdleTimer[interfaceNumber])
 227:.\Generated_Source\PSoC5/USBUART_hid.c ****                     {
 228:.\Generated_Source\PSoC5/USBUART_hid.c ****                         /* Set the timer to zero and let the UpdateHIDTimer() API return IDLE_TIMER
 229:.\Generated_Source\PSoC5/USBUART_hid.c ****                         USBUART_hidIdleTimer[interfaceNumber] = 0u;
 230:.\Generated_Source\PSoC5/USBUART_hid.c ****                     }
 231:.\Generated_Source\PSoC5/USBUART_hid.c ****                     /* If the new request is received within 4 milliseconds
 232:.\Generated_Source\PSoC5/USBUART_hid.c ****                     *  (1 count) of the end of the current period, then the
 233:.\Generated_Source\PSoC5/USBUART_hid.c ****                     *  new request will have no effect until after the report.
 234:.\Generated_Source\PSoC5/USBUART_hid.c ****                     */
 235:.\Generated_Source\PSoC5/USBUART_hid.c ****                     else if(USBUART_hidIdleTimer[interfaceNumber] <= 1u)
 236:.\Generated_Source\PSoC5/USBUART_hid.c ****                     {
 237:.\Generated_Source\PSoC5/USBUART_hid.c ****                         /* Do nothing.
 238:.\Generated_Source\PSoC5/USBUART_hid.c ****                         *  Let the UpdateHIDTimer() API continue to work and
 239:.\Generated_Source\PSoC5/USBUART_hid.c ****                         *  return IDLE_TIMER_EXPIRED status
 240:.\Generated_Source\PSoC5/USBUART_hid.c ****                         */
 241:.\Generated_Source\PSoC5/USBUART_hid.c ****                     }
 242:.\Generated_Source\PSoC5/USBUART_hid.c ****                     else
 243:.\Generated_Source\PSoC5/USBUART_hid.c ****                     {   /* Reload the timer*/
 244:.\Generated_Source\PSoC5/USBUART_hid.c ****                         USBUART_hidIdleTimer[interfaceNumber] =
 245:.\Generated_Source\PSoC5/USBUART_hid.c ****                         USBUART_hidIdleRate[interfaceNumber];
 246:.\Generated_Source\PSoC5/USBUART_hid.c ****                     }
 247:.\Generated_Source\PSoC5/USBUART_hid.c ****                     requestHandled = USBUART_InitNoDataControlTransfer();
 248:.\Generated_Source\PSoC5/USBUART_hid.c ****                 }
 249:.\Generated_Source\PSoC5/USBUART_hid.c ****                 break;
 250:.\Generated_Source\PSoC5/USBUART_hid.c **** 
 251:.\Generated_Source\PSoC5/USBUART_hid.c ****             case USBUART_HID_SET_PROTOCOL:
 252:.\Generated_Source\PSoC5/USBUART_hid.c ****                 /* Validate interfaceNumber and protocol (must be 0 or 1) */
 253:.\Generated_Source\PSoC5/USBUART_hid.c ****                 if ((interfaceNumber < USBUART_MAX_INTERFACES_NUMBER) && (USBUART_wValueLoReg <= 1u
 254:.\Generated_Source\PSoC5/USBUART_hid.c ****                 {
 255:.\Generated_Source\PSoC5/USBUART_hid.c ****                     USBUART_hidProtocol[interfaceNumber] = (uint8)USBUART_wValueLoReg;
 256:.\Generated_Source\PSoC5/USBUART_hid.c ****                     requestHandled = USBUART_InitNoDataControlTransfer();
 257:.\Generated_Source\PSoC5/USBUART_hid.c ****                 }
 258:.\Generated_Source\PSoC5/USBUART_hid.c ****                 break;
 259:.\Generated_Source\PSoC5/USBUART_hid.c ****             
 260:.\Generated_Source\PSoC5/USBUART_hid.c ****             default:    
 261:.\Generated_Source\PSoC5/USBUART_hid.c ****                 /* Unknown class request is not handled. */
 262:.\Generated_Source\PSoC5/USBUART_hid.c ****                 break;
 263:.\Generated_Source\PSoC5/USBUART_hid.c ****         }
 264:.\Generated_Source\PSoC5/USBUART_hid.c ****     }
 265:.\Generated_Source\PSoC5/USBUART_hid.c **** 
 266:.\Generated_Source\PSoC5/USBUART_hid.c ****     return (requestHandled);
 267:.\Generated_Source\PSoC5/USBUART_hid.c **** }
 268:.\Generated_Source\PSoC5/USBUART_hid.c **** 
 269:.\Generated_Source\PSoC5/USBUART_hid.c **** 
 270:.\Generated_Source\PSoC5/USBUART_hid.c **** /*******************************************************************************
 271:.\Generated_Source\PSoC5/USBUART_hid.c **** * Function Name: USB_FindHidClassDescriptor
 272:.\Generated_Source\PSoC5/USBUART_hid.c **** ****************************************************************************//**
 273:.\Generated_Source\PSoC5/USBUART_hid.c **** *
 274:.\Generated_Source\PSoC5/USBUART_hid.c **** *  This routine find Hid Class Descriptor pointer based on the Interface number
 275:.\Generated_Source\PSoC5/USBUART_hid.c **** *  and Alternate setting then loads the currentTD structure with the address of
 276:.\Generated_Source\PSoC5/USBUART_hid.c **** *  the buffer and the size.
 277:.\Generated_Source\PSoC5/USBUART_hid.c **** *  The HID Class Descriptor resides inside the config descriptor.
 278:.\Generated_Source\PSoC5/USBUART_hid.c **** *
 279:.\Generated_Source\PSoC5/USBUART_hid.c **** * \return
 280:.\Generated_Source\PSoC5/USBUART_hid.c **** *  currentTD
 281:.\Generated_Source\PSoC5/USBUART_hid.c **** *
 282:.\Generated_Source\PSoC5/USBUART_hid.c **** * \reentrant
ARM GAS  C:\Users\Tim\AppData\Local\Temp\ccXkHNbb.s 			page 8


 283:.\Generated_Source\PSoC5/USBUART_hid.c **** *  No.
 284:.\Generated_Source\PSoC5/USBUART_hid.c **** *
 285:.\Generated_Source\PSoC5/USBUART_hid.c **** *******************************************************************************/
 286:.\Generated_Source\PSoC5/USBUART_hid.c **** void USBUART_FindHidClassDecriptor(void) 
 287:.\Generated_Source\PSoC5/USBUART_hid.c **** {
 117              		.loc 1 287 0
 118              		.cfi_startproc
 119              		@ args = 0, pretend = 0, frame = 0
 120              		@ frame_needed = 0, uses_anonymous_args = 0
 121 0000 08B5     		push	{r3, lr}
 122              		.cfi_def_cfa_offset 8
 123              		.cfi_offset 3, -8
 124              		.cfi_offset 14, -4
 288:.\Generated_Source\PSoC5/USBUART_hid.c ****     const T_USBUART_LUT CYCODE *pTmp;
 289:.\Generated_Source\PSoC5/USBUART_hid.c ****     volatile uint8 *pDescr;
 290:.\Generated_Source\PSoC5/USBUART_hid.c ****     uint8 interfaceN;
 291:.\Generated_Source\PSoC5/USBUART_hid.c **** 
 292:.\Generated_Source\PSoC5/USBUART_hid.c ****     pTmp = USBUART_GetConfigTablePtr(USBUART_configuration - 1u);
 125              		.loc 1 292 0
 126 0002 0B4B     		ldr	r3, .L12
 127 0004 1878     		ldrb	r0, [r3]	@ zero_extendqisi2
 128 0006 0138     		subs	r0, r0, #1
 129 0008 C0B2     		uxtb	r0, r0
 130 000a FFF7FEFF 		bl	USBUART_GetConfigTablePtr
 131              	.LVL10:
 293:.\Generated_Source\PSoC5/USBUART_hid.c ****     
 294:.\Generated_Source\PSoC5/USBUART_hid.c ****     interfaceN = (uint8) USBUART_wIndexLoReg;
 132              		.loc 1 294 0
 133 000e 094B     		ldr	r3, .L12+4
 134 0010 1B79     		ldrb	r3, [r3, #4]	@ zero_extendqisi2
 135 0012 DBB2     		uxtb	r3, r3
 136              	.LVL11:
 295:.\Generated_Source\PSoC5/USBUART_hid.c ****     /* Third entry in the LUT starts the Interface Table pointers */
 296:.\Generated_Source\PSoC5/USBUART_hid.c ****     /* Now use the request interface number*/
 297:.\Generated_Source\PSoC5/USBUART_hid.c ****     pTmp = &pTmp[interfaceN + 2u];
 137              		.loc 1 297 0
 138 0014 00EBC300 		add	r0, r0, r3, lsl #3
 139              	.LVL12:
 298:.\Generated_Source\PSoC5/USBUART_hid.c ****     
 299:.\Generated_Source\PSoC5/USBUART_hid.c ****     /* USB_DEVICEx_CONFIGURATIONy_INTERFACEz_TABLE */
 300:.\Generated_Source\PSoC5/USBUART_hid.c ****     pTmp = (const T_USBUART_LUT CYCODE *) pTmp->p_list;
 140              		.loc 1 300 0
 141 0018 4269     		ldr	r2, [r0, #20]
 142              	.LVL13:
 301:.\Generated_Source\PSoC5/USBUART_hid.c ****     
 302:.\Generated_Source\PSoC5/USBUART_hid.c ****     /* Now use Alternate setting number */
 303:.\Generated_Source\PSoC5/USBUART_hid.c ****     pTmp = &pTmp[USBUART_interfaceSetting[interfaceN]];
 143              		.loc 1 303 0
 144 001a 0749     		ldr	r1, .L12+8
 145 001c CB5C     		ldrb	r3, [r1, r3]	@ zero_extendqisi2
 146              	.LVL14:
 147 001e 02EBC303 		add	r3, r2, r3, lsl #3
 148              	.LVL15:
 304:.\Generated_Source\PSoC5/USBUART_hid.c ****     
 305:.\Generated_Source\PSoC5/USBUART_hid.c ****     /* USB_DEVICEx_CONFIGURATIONy_INTERFACEz_ALTERNATEi_HID_TABLE */
 306:.\Generated_Source\PSoC5/USBUART_hid.c ****     pTmp = (const T_USBUART_LUT CYCODE *) pTmp->p_list;
 149              		.loc 1 306 0
ARM GAS  C:\Users\Tim\AppData\Local\Temp\ccXkHNbb.s 			page 9


 150 0022 5B68     		ldr	r3, [r3, #4]
 151              	.LVL16:
 307:.\Generated_Source\PSoC5/USBUART_hid.c ****     
 308:.\Generated_Source\PSoC5/USBUART_hid.c ****     /* Fifth entry in the LUT points to Hid Class Descriptor in Configuration Descriptor */
 309:.\Generated_Source\PSoC5/USBUART_hid.c ****     pTmp = &pTmp[4u];
 310:.\Generated_Source\PSoC5/USBUART_hid.c ****     pDescr = (volatile uint8 *)pTmp->p_list;
 152              		.loc 1 310 0
 153 0024 596A     		ldr	r1, [r3, #36]
 154              	.LVL17:
 311:.\Generated_Source\PSoC5/USBUART_hid.c ****     
 312:.\Generated_Source\PSoC5/USBUART_hid.c ****     /* The first byte contains the descriptor length */
 313:.\Generated_Source\PSoC5/USBUART_hid.c ****     USBUART_currentTD.count = *pDescr;
 155              		.loc 1 313 0
 156 0026 0B78     		ldrb	r3, [r1]	@ zero_extendqisi2
 157              	.LVL18:
 158 0028 044A     		ldr	r2, .L12+12
 159 002a 1380     		strh	r3, [r2]	@ movhi
 314:.\Generated_Source\PSoC5/USBUART_hid.c ****     USBUART_currentTD.pData = pDescr;
 160              		.loc 1 314 0
 161 002c 5160     		str	r1, [r2, #4]
 162 002e 08BD     		pop	{r3, pc}
 163              	.L13:
 164              		.align	2
 165              	.L12:
 166 0030 00000000 		.word	USBUART_configuration
 167 0034 00600040 		.word	1073766400
 168 0038 00000000 		.word	USBUART_interfaceSetting
 169 003c 00000000 		.word	USBUART_currentTD
 170              		.cfi_endproc
 171              	.LFE3:
 172              		.size	USBUART_FindHidClassDecriptor, .-USBUART_FindHidClassDecriptor
 173              		.section	.text.USBUART_FindReportDescriptor,"ax",%progbits
 174              		.align	2
 175              		.global	USBUART_FindReportDescriptor
 176              		.thumb
 177              		.thumb_func
 178              		.type	USBUART_FindReportDescriptor, %function
 179              	USBUART_FindReportDescriptor:
 180              	.LFB4:
 315:.\Generated_Source\PSoC5/USBUART_hid.c **** }
 316:.\Generated_Source\PSoC5/USBUART_hid.c **** 
 317:.\Generated_Source\PSoC5/USBUART_hid.c **** 
 318:.\Generated_Source\PSoC5/USBUART_hid.c **** /*******************************************************************************
 319:.\Generated_Source\PSoC5/USBUART_hid.c **** * Function Name: USB_FindReportDescriptor
 320:.\Generated_Source\PSoC5/USBUART_hid.c **** ****************************************************************************//**
 321:.\Generated_Source\PSoC5/USBUART_hid.c **** *
 322:.\Generated_Source\PSoC5/USBUART_hid.c **** *  This routine find Hid Report Descriptor pointer based on the Interface
 323:.\Generated_Source\PSoC5/USBUART_hid.c **** *  number, then loads the currentTD structure with the address of the buffer
 324:.\Generated_Source\PSoC5/USBUART_hid.c **** *  and the size.
 325:.\Generated_Source\PSoC5/USBUART_hid.c **** *  Hid Report Descriptor is located after IN/OUT/FEATURE reports.
 326:.\Generated_Source\PSoC5/USBUART_hid.c **** *
 327:.\Generated_Source\PSoC5/USBUART_hid.c **** * \return
 328:.\Generated_Source\PSoC5/USBUART_hid.c **** *  currentTD
 329:.\Generated_Source\PSoC5/USBUART_hid.c **** *
 330:.\Generated_Source\PSoC5/USBUART_hid.c **** * \reentrant
 331:.\Generated_Source\PSoC5/USBUART_hid.c **** *  No.
 332:.\Generated_Source\PSoC5/USBUART_hid.c **** *
ARM GAS  C:\Users\Tim\AppData\Local\Temp\ccXkHNbb.s 			page 10


 333:.\Generated_Source\PSoC5/USBUART_hid.c **** *******************************************************************************/
 334:.\Generated_Source\PSoC5/USBUART_hid.c **** void USBUART_FindReportDescriptor(void) 
 335:.\Generated_Source\PSoC5/USBUART_hid.c **** {
 181              		.loc 1 335 0
 182              		.cfi_startproc
 183              		@ args = 0, pretend = 0, frame = 0
 184              		@ frame_needed = 0, uses_anonymous_args = 0
 185 0000 08B5     		push	{r3, lr}
 186              		.cfi_def_cfa_offset 8
 187              		.cfi_offset 3, -8
 188              		.cfi_offset 14, -4
 336:.\Generated_Source\PSoC5/USBUART_hid.c ****     const T_USBUART_LUT CYCODE *pTmp;
 337:.\Generated_Source\PSoC5/USBUART_hid.c ****     volatile uint8 *pDescr;
 338:.\Generated_Source\PSoC5/USBUART_hid.c ****     uint8 interfaceN;
 339:.\Generated_Source\PSoC5/USBUART_hid.c **** 
 340:.\Generated_Source\PSoC5/USBUART_hid.c ****     pTmp = USBUART_GetConfigTablePtr(USBUART_configuration - 1u);
 189              		.loc 1 340 0
 190 0002 0D4B     		ldr	r3, .L16
 191 0004 1878     		ldrb	r0, [r3]	@ zero_extendqisi2
 192 0006 0138     		subs	r0, r0, #1
 193 0008 C0B2     		uxtb	r0, r0
 194 000a FFF7FEFF 		bl	USBUART_GetConfigTablePtr
 195              	.LVL19:
 341:.\Generated_Source\PSoC5/USBUART_hid.c ****     interfaceN = (uint8) USBUART_wIndexLoReg;
 196              		.loc 1 341 0
 197 000e 0B4B     		ldr	r3, .L16+4
 198 0010 1B79     		ldrb	r3, [r3, #4]	@ zero_extendqisi2
 199 0012 DBB2     		uxtb	r3, r3
 200              	.LVL20:
 342:.\Generated_Source\PSoC5/USBUART_hid.c ****     
 343:.\Generated_Source\PSoC5/USBUART_hid.c ****     /* Third entry in the LUT starts the Interface Table pointers */
 344:.\Generated_Source\PSoC5/USBUART_hid.c ****     /* Now use the request interface number */
 345:.\Generated_Source\PSoC5/USBUART_hid.c ****     pTmp = &pTmp[interfaceN + 2u];
 201              		.loc 1 345 0
 202 0014 00EBC300 		add	r0, r0, r3, lsl #3
 203              	.LVL21:
 346:.\Generated_Source\PSoC5/USBUART_hid.c ****     
 347:.\Generated_Source\PSoC5/USBUART_hid.c ****     /* USB_DEVICEx_CONFIGURATIONy_INTERFACEz_TABLE */
 348:.\Generated_Source\PSoC5/USBUART_hid.c ****     pTmp = (const T_USBUART_LUT CYCODE *) pTmp->p_list;
 204              		.loc 1 348 0
 205 0018 4269     		ldr	r2, [r0, #20]
 206              	.LVL22:
 349:.\Generated_Source\PSoC5/USBUART_hid.c ****     
 350:.\Generated_Source\PSoC5/USBUART_hid.c ****     /* Now use Alternate setting number */
 351:.\Generated_Source\PSoC5/USBUART_hid.c ****     pTmp = &pTmp[USBUART_interfaceSetting[interfaceN]];
 207              		.loc 1 351 0
 208 001a 0949     		ldr	r1, .L16+8
 209 001c CB5C     		ldrb	r3, [r1, r3]	@ zero_extendqisi2
 210              	.LVL23:
 211 001e 02EBC303 		add	r3, r2, r3, lsl #3
 212              	.LVL24:
 352:.\Generated_Source\PSoC5/USBUART_hid.c ****     
 353:.\Generated_Source\PSoC5/USBUART_hid.c ****     /* USB_DEVICEx_CONFIGURATIONy_INTERFACEz_ALTERNATEi_HID_TABLE */
 354:.\Generated_Source\PSoC5/USBUART_hid.c ****     pTmp = (const T_USBUART_LUT CYCODE *) pTmp->p_list;
 213              		.loc 1 354 0
 214 0022 5B68     		ldr	r3, [r3, #4]
 215              	.LVL25:
ARM GAS  C:\Users\Tim\AppData\Local\Temp\ccXkHNbb.s 			page 11


 355:.\Generated_Source\PSoC5/USBUART_hid.c ****     
 356:.\Generated_Source\PSoC5/USBUART_hid.c ****     /* Fourth entry in the LUT starts the Hid Report Descriptor */
 357:.\Generated_Source\PSoC5/USBUART_hid.c ****     pTmp = &pTmp[3u];
 358:.\Generated_Source\PSoC5/USBUART_hid.c ****     pDescr = (volatile uint8 *)pTmp->p_list;
 216              		.loc 1 358 0
 217 0024 DB69     		ldr	r3, [r3, #28]
 218              	.LVL26:
 359:.\Generated_Source\PSoC5/USBUART_hid.c ****     
 360:.\Generated_Source\PSoC5/USBUART_hid.c ****     /* The 1st and 2nd bytes of descriptor contain its length. LSB is 1st. */
 361:.\Generated_Source\PSoC5/USBUART_hid.c ****     USBUART_currentTD.count =  ((uint16)((uint16) pDescr[1u] << 8u) | pDescr[0u]);
 219              		.loc 1 361 0
 220 0026 5978     		ldrb	r1, [r3, #1]	@ zero_extendqisi2
 221 0028 13F8022B 		ldrb	r2, [r3], #2	@ zero_extendqisi2
 222              	.LVL27:
 223 002c 42EA0122 		orr	r2, r2, r1, lsl #8
 224 0030 0449     		ldr	r1, .L16+12
 225 0032 0A80     		strh	r2, [r1]	@ movhi
 362:.\Generated_Source\PSoC5/USBUART_hid.c ****     USBUART_currentTD.pData = &pDescr[2u];
 226              		.loc 1 362 0
 227 0034 4B60     		str	r3, [r1, #4]
 228 0036 08BD     		pop	{r3, pc}
 229              	.LVL28:
 230              	.L17:
 231              		.align	2
 232              	.L16:
 233 0038 00000000 		.word	USBUART_configuration
 234 003c 00600040 		.word	1073766400
 235 0040 00000000 		.word	USBUART_interfaceSetting
 236 0044 00000000 		.word	USBUART_currentTD
 237              		.cfi_endproc
 238              	.LFE4:
 239              		.size	USBUART_FindReportDescriptor, .-USBUART_FindReportDescriptor
 240              		.section	.text.USBUART_FindReport,"ax",%progbits
 241              		.align	2
 242              		.global	USBUART_FindReport
 243              		.thumb
 244              		.thumb_func
 245              		.type	USBUART_FindReport, %function
 246              	USBUART_FindReport:
 247              	.LFB5:
 363:.\Generated_Source\PSoC5/USBUART_hid.c **** }
 364:.\Generated_Source\PSoC5/USBUART_hid.c **** 
 365:.\Generated_Source\PSoC5/USBUART_hid.c **** 
 366:.\Generated_Source\PSoC5/USBUART_hid.c **** /*******************************************************************************
 367:.\Generated_Source\PSoC5/USBUART_hid.c **** * Function Name: USBUART_FindReport
 368:.\Generated_Source\PSoC5/USBUART_hid.c **** ****************************************************************************//**
 369:.\Generated_Source\PSoC5/USBUART_hid.c **** *
 370:.\Generated_Source\PSoC5/USBUART_hid.c **** *  This routine sets up a transfer based on the Interface number, Report Type
 371:.\Generated_Source\PSoC5/USBUART_hid.c **** *  and Report ID, then loads the currentTD structure with the address of the
 372:.\Generated_Source\PSoC5/USBUART_hid.c **** *  buffer and the size.  The caller has to decide if it is a control read or
 373:.\Generated_Source\PSoC5/USBUART_hid.c **** *  control write.
 374:.\Generated_Source\PSoC5/USBUART_hid.c **** *
 375:.\Generated_Source\PSoC5/USBUART_hid.c **** * \return
 376:.\Generated_Source\PSoC5/USBUART_hid.c **** *  currentTD
 377:.\Generated_Source\PSoC5/USBUART_hid.c **** *
 378:.\Generated_Source\PSoC5/USBUART_hid.c **** * \reentrant
 379:.\Generated_Source\PSoC5/USBUART_hid.c **** *  No.
ARM GAS  C:\Users\Tim\AppData\Local\Temp\ccXkHNbb.s 			page 12


 380:.\Generated_Source\PSoC5/USBUART_hid.c **** *
 381:.\Generated_Source\PSoC5/USBUART_hid.c **** *******************************************************************************/
 382:.\Generated_Source\PSoC5/USBUART_hid.c **** void USBUART_FindReport(void) 
 383:.\Generated_Source\PSoC5/USBUART_hid.c **** {
 248              		.loc 1 383 0
 249              		.cfi_startproc
 250              		@ args = 0, pretend = 0, frame = 0
 251              		@ frame_needed = 0, uses_anonymous_args = 0
 252 0000 10B5     		push	{r4, lr}
 253              		.cfi_def_cfa_offset 8
 254              		.cfi_offset 4, -8
 255              		.cfi_offset 14, -4
 384:.\Generated_Source\PSoC5/USBUART_hid.c ****     const T_USBUART_LUT CYCODE *pTmp;
 385:.\Generated_Source\PSoC5/USBUART_hid.c ****     T_USBUART_TD *pTD;
 386:.\Generated_Source\PSoC5/USBUART_hid.c ****     uint8 reportType;
 387:.\Generated_Source\PSoC5/USBUART_hid.c ****     uint8 interfaceN;
 388:.\Generated_Source\PSoC5/USBUART_hid.c ****  
 389:.\Generated_Source\PSoC5/USBUART_hid.c ****     /* `#START HID_FINDREPORT` Place custom handling here */
 390:.\Generated_Source\PSoC5/USBUART_hid.c **** 
 391:.\Generated_Source\PSoC5/USBUART_hid.c ****     /* `#END` */
 392:.\Generated_Source\PSoC5/USBUART_hid.c ****     
 393:.\Generated_Source\PSoC5/USBUART_hid.c **** #ifdef USBUART_FIND_REPORT_CALLBACK
 394:.\Generated_Source\PSoC5/USBUART_hid.c ****     USBUART_FindReport_Callback();
 395:.\Generated_Source\PSoC5/USBUART_hid.c **** #endif /* (USBUART_FIND_REPORT_CALLBACK) */
 396:.\Generated_Source\PSoC5/USBUART_hid.c ****     
 397:.\Generated_Source\PSoC5/USBUART_hid.c ****     USBUART_currentTD.count = 0u;   /* Init not supported condition */
 256              		.loc 1 397 0
 257 0002 0022     		movs	r2, #0
 258 0004 194B     		ldr	r3, .L21
 259 0006 1A80     		strh	r2, [r3]	@ movhi
 398:.\Generated_Source\PSoC5/USBUART_hid.c ****     pTmp = USBUART_GetConfigTablePtr(USBUART_configuration - 1u);
 260              		.loc 1 398 0
 261 0008 194B     		ldr	r3, .L21+4
 262 000a 1878     		ldrb	r0, [r3]	@ zero_extendqisi2
 263 000c 0138     		subs	r0, r0, #1
 264 000e C0B2     		uxtb	r0, r0
 265 0010 FFF7FEFF 		bl	USBUART_GetConfigTablePtr
 266              	.LVL29:
 399:.\Generated_Source\PSoC5/USBUART_hid.c ****     reportType = (uint8) USBUART_wValueHiReg;
 267              		.loc 1 399 0
 268 0014 1749     		ldr	r1, .L21+8
 269 0016 CB78     		ldrb	r3, [r1, #3]	@ zero_extendqisi2
 270 0018 DAB2     		uxtb	r2, r3
 271              	.LVL30:
 400:.\Generated_Source\PSoC5/USBUART_hid.c ****     interfaceN = (uint8) USBUART_wIndexLoReg;
 272              		.loc 1 400 0
 273 001a 0B79     		ldrb	r3, [r1, #4]	@ zero_extendqisi2
 274 001c DBB2     		uxtb	r3, r3
 275              	.LVL31:
 401:.\Generated_Source\PSoC5/USBUART_hid.c ****     
 402:.\Generated_Source\PSoC5/USBUART_hid.c ****     /* Third entry in the LUT Configuration Table starts the Interface Table pointers */
 403:.\Generated_Source\PSoC5/USBUART_hid.c ****     /* Now use the request interface number */
 404:.\Generated_Source\PSoC5/USBUART_hid.c ****     pTmp = &pTmp[interfaceN + 2u];
 276              		.loc 1 404 0
 277 001e 00EBC300 		add	r0, r0, r3, lsl #3
 278              	.LVL32:
 405:.\Generated_Source\PSoC5/USBUART_hid.c ****     
ARM GAS  C:\Users\Tim\AppData\Local\Temp\ccXkHNbb.s 			page 13


 406:.\Generated_Source\PSoC5/USBUART_hid.c ****     /* USB_DEVICEx_CONFIGURATIONy_INTERFACEz_TABLE */
 407:.\Generated_Source\PSoC5/USBUART_hid.c ****     pTmp = (const T_USBUART_LUT CYCODE *) pTmp->p_list;
 279              		.loc 1 407 0
 280 0022 4169     		ldr	r1, [r0, #20]
 281              	.LVL33:
 408:.\Generated_Source\PSoC5/USBUART_hid.c ****     if (interfaceN < USBUART_MAX_INTERFACES_NUMBER)
 282              		.loc 1 408 0
 283 0024 012B     		cmp	r3, #1
 284 0026 20D8     		bhi	.L18
 409:.\Generated_Source\PSoC5/USBUART_hid.c ****     {
 410:.\Generated_Source\PSoC5/USBUART_hid.c ****         /* Now use Alternate setting number */
 411:.\Generated_Source\PSoC5/USBUART_hid.c ****         pTmp = &pTmp[USBUART_interfaceSetting[interfaceN]];
 285              		.loc 1 411 0
 286 0028 1348     		ldr	r0, .L21+12
 287 002a C35C     		ldrb	r3, [r0, r3]	@ zero_extendqisi2
 288              	.LVL34:
 289 002c 01EBC301 		add	r1, r1, r3, lsl #3
 290              	.LVL35:
 412:.\Generated_Source\PSoC5/USBUART_hid.c ****         
 413:.\Generated_Source\PSoC5/USBUART_hid.c ****         /* USB_DEVICEx_CONFIGURATIONy_INTERFACEz_ALTERNATEi_HID_TABLE */
 414:.\Generated_Source\PSoC5/USBUART_hid.c ****         pTmp = (const T_USBUART_LUT CYCODE *) pTmp->p_list;
 291              		.loc 1 414 0
 292 0030 4968     		ldr	r1, [r1, #4]
 293              	.LVL36:
 415:.\Generated_Source\PSoC5/USBUART_hid.c ****         
 416:.\Generated_Source\PSoC5/USBUART_hid.c ****         /* Validate reportType to comply with "7.2.1 Get_Report Request" */
 417:.\Generated_Source\PSoC5/USBUART_hid.c ****         if ((reportType >= USBUART_HID_GET_REPORT_INPUT) &&
 294              		.loc 1 417 0
 295 0032 531E     		subs	r3, r2, #1
 296 0034 DBB2     		uxtb	r3, r3
 297 0036 022B     		cmp	r3, #2
 298 0038 17D8     		bhi	.L18
 418:.\Generated_Source\PSoC5/USBUART_hid.c ****             (reportType <= USBUART_HID_GET_REPORT_FEATURE))
 419:.\Generated_Source\PSoC5/USBUART_hid.c ****         {
 420:.\Generated_Source\PSoC5/USBUART_hid.c ****             /* Get the entry proper TD (IN, OUT or Feature Report Table)*/
 421:.\Generated_Source\PSoC5/USBUART_hid.c ****             pTmp = &pTmp[reportType - 1u];
 299              		.loc 1 421 0
 300 003a 02F10053 		add	r3, r2, #536870912
 301 003e 013B     		subs	r3, r3, #1
 302 0040 01EBC300 		add	r0, r1, r3, lsl #3
 303              	.LVL37:
 422:.\Generated_Source\PSoC5/USBUART_hid.c ****             
 423:.\Generated_Source\PSoC5/USBUART_hid.c ****             /* Get reportID */
 424:.\Generated_Source\PSoC5/USBUART_hid.c ****             reportType = (uint8) USBUART_wValueLoReg;
 304              		.loc 1 424 0
 305 0044 0B4A     		ldr	r2, .L21+8
 306              	.LVL38:
 307 0046 9278     		ldrb	r2, [r2, #2]	@ zero_extendqisi2
 308 0048 D2B2     		uxtb	r2, r2
 309              	.LVL39:
 425:.\Generated_Source\PSoC5/USBUART_hid.c ****             
 426:.\Generated_Source\PSoC5/USBUART_hid.c ****             /* Validate table support by the HID descriptor, compare table count with reportID */
 427:.\Generated_Source\PSoC5/USBUART_hid.c ****             if (pTmp->c >= reportType)
 310              		.loc 1 427 0
 311 004a 11F83330 		ldrb	r3, [r1, r3, lsl #3]	@ zero_extendqisi2
 312 004e 9342     		cmp	r3, r2
 313 0050 0BD3     		bcc	.L18
ARM GAS  C:\Users\Tim\AppData\Local\Temp\ccXkHNbb.s 			page 14


 428:.\Generated_Source\PSoC5/USBUART_hid.c ****             {
 429:.\Generated_Source\PSoC5/USBUART_hid.c ****                 pTD = (T_USBUART_TD *) pTmp->p_list;
 314              		.loc 1 429 0
 315 0052 4068     		ldr	r0, [r0, #4]
 316              	.LVL40:
 430:.\Generated_Source\PSoC5/USBUART_hid.c ****                 pTD = &pTD[reportType];                          /* select entry depend on report I
 317              		.loc 1 430 0
 318 0054 02EB4202 		add	r2, r2, r2, lsl #1
 319              	.LVL41:
 320 0058 9200     		lsls	r2, r2, #2
 321 005a 8118     		adds	r1, r0, r2
 322              	.LVL42:
 431:.\Generated_Source\PSoC5/USBUART_hid.c ****                 USBUART_currentTD.pData = pTD->pData;   /* Buffer pointer */
 323              		.loc 1 431 0
 324 005c 4C68     		ldr	r4, [r1, #4]
 325 005e 034B     		ldr	r3, .L21
 326 0060 5C60     		str	r4, [r3, #4]
 432:.\Generated_Source\PSoC5/USBUART_hid.c ****                 USBUART_currentTD.count = pTD->count;   /* Buffer Size */
 327              		.loc 1 432 0
 328 0062 825A     		ldrh	r2, [r0, r2]
 329 0064 1A80     		strh	r2, [r3]	@ movhi
 433:.\Generated_Source\PSoC5/USBUART_hid.c ****                 USBUART_currentTD.pStatusBlock = pTD->pStatusBlock;
 330              		.loc 1 433 0
 331 0066 8A68     		ldr	r2, [r1, #8]
 332 0068 9A60     		str	r2, [r3, #8]
 333              	.LVL43:
 334              	.L18:
 335 006a 10BD     		pop	{r4, pc}
 336              	.L22:
 337              		.align	2
 338              	.L21:
 339 006c 00000000 		.word	USBUART_currentTD
 340 0070 00000000 		.word	USBUART_configuration
 341 0074 00600040 		.word	1073766400
 342 0078 00000000 		.word	USBUART_interfaceSetting
 343              		.cfi_endproc
 344              	.LFE5:
 345              		.size	USBUART_FindReport, .-USBUART_FindReport
 346              		.section	.text.USBUART_DispatchHIDClassRqst,"ax",%progbits
 347              		.align	2
 348              		.global	USBUART_DispatchHIDClassRqst
 349              		.thumb
 350              		.thumb_func
 351              		.type	USBUART_DispatchHIDClassRqst, %function
 352              	USBUART_DispatchHIDClassRqst:
 353              	.LFB2:
 132:.\Generated_Source\PSoC5/USBUART_hid.c ****     uint8 requestHandled = USBUART_FALSE;
 354              		.loc 1 132 0
 355              		.cfi_startproc
 356              		@ args = 0, pretend = 0, frame = 0
 357              		@ frame_needed = 0, uses_anonymous_args = 0
 358 0000 08B5     		push	{r3, lr}
 359              		.cfi_def_cfa_offset 8
 360              		.cfi_offset 3, -8
 361              		.cfi_offset 14, -4
 362              	.LVL44:
 135:.\Generated_Source\PSoC5/USBUART_hid.c ****     
ARM GAS  C:\Users\Tim\AppData\Local\Temp\ccXkHNbb.s 			page 15


 363              		.loc 1 135 0
 364 0002 5B4B     		ldr	r3, .L53
 365 0004 1A79     		ldrb	r2, [r3, #4]	@ zero_extendqisi2
 366 0006 D2B2     		uxtb	r2, r2
 367              	.LVL45:
 138:.\Generated_Source\PSoC5/USBUART_hid.c ****     {
 368              		.loc 1 138 0
 369 0008 1B78     		ldrb	r3, [r3]	@ zero_extendqisi2
 370 000a 13F0800F 		tst	r3, #128
 371 000e 4DD0     		beq	.L24
 142:.\Generated_Source\PSoC5/USBUART_hid.c ****         {
 372              		.loc 1 142 0
 373 0010 574B     		ldr	r3, .L53
 374 0012 5B78     		ldrb	r3, [r3, #1]	@ zero_extendqisi2
 375 0014 013B     		subs	r3, r3, #1
 376 0016 052B     		cmp	r3, #5
 377 0018 00F28D80 		bhi	.L37
 378 001c DFE803F0 		tbb	[pc, r3]
 379              	.L27:
 380 0020 21       		.byte	(.L26-.L27)/2
 381 0021 2B       		.byte	(.L28-.L27)/2
 382 0022 3B       		.byte	(.L29-.L27)/2
 383 0023 8B       		.byte	(.L37-.L27)/2
 384 0024 8B       		.byte	(.L37-.L27)/2
 385 0025 03       		.byte	(.L30-.L27)/2
 386              		.p2align 1
 387              	.L30:
 145:.\Generated_Source\PSoC5/USBUART_hid.c ****                 {
 388              		.loc 1 145 0
 389 0026 524B     		ldr	r3, .L53
 390 0028 DB78     		ldrb	r3, [r3, #3]	@ zero_extendqisi2
 391 002a DBB2     		uxtb	r3, r3
 392 002c 212B     		cmp	r3, #33
 393 002e 09D1     		bne	.L31
 147:.\Generated_Source\PSoC5/USBUART_hid.c ****                     if (USBUART_currentTD.count != 0u)
 394              		.loc 1 147 0
 395 0030 FFF7FEFF 		bl	USBUART_FindHidClassDecriptor
 396              	.LVL46:
 148:.\Generated_Source\PSoC5/USBUART_hid.c ****                     {
 397              		.loc 1 148 0
 398 0034 4F4B     		ldr	r3, .L53+4
 399 0036 1B88     		ldrh	r3, [r3]
 400 0038 9BB2     		uxth	r3, r3
 401 003a 002B     		cmp	r3, #0
 402 003c 7DD0     		beq	.L38
 150:.\Generated_Source\PSoC5/USBUART_hid.c ****                     }
 403              		.loc 1 150 0
 404 003e FFF7FEFF 		bl	USBUART_InitControlRead
 405              	.LVL47:
 406 0042 08BD     		pop	{r3, pc}
 407              	.LVL48:
 408              	.L31:
 153:.\Generated_Source\PSoC5/USBUART_hid.c ****                 {
 409              		.loc 1 153 0
 410 0044 4A4B     		ldr	r3, .L53
 411 0046 DB78     		ldrb	r3, [r3, #3]	@ zero_extendqisi2
 412 0048 DBB2     		uxtb	r3, r3
ARM GAS  C:\Users\Tim\AppData\Local\Temp\ccXkHNbb.s 			page 16


 413 004a 222B     		cmp	r3, #34
 414 004c 77D1     		bne	.L39
 155:.\Generated_Source\PSoC5/USBUART_hid.c ****                     if (USBUART_currentTD.count != 0u)
 415              		.loc 1 155 0
 416 004e FFF7FEFF 		bl	USBUART_FindReportDescriptor
 417              	.LVL49:
 156:.\Generated_Source\PSoC5/USBUART_hid.c ****                     {
 418              		.loc 1 156 0
 419 0052 484B     		ldr	r3, .L53+4
 420 0054 1B88     		ldrh	r3, [r3]
 421 0056 9BB2     		uxth	r3, r3
 422 0058 002B     		cmp	r3, #0
 423 005a 72D0     		beq	.L40
 158:.\Generated_Source\PSoC5/USBUART_hid.c ****                     }
 424              		.loc 1 158 0
 425 005c FFF7FEFF 		bl	USBUART_InitControlRead
 426              	.LVL50:
 427 0060 08BD     		pop	{r3, pc}
 428              	.LVL51:
 429              	.L26:
 168:.\Generated_Source\PSoC5/USBUART_hid.c ****                 if (USBUART_currentTD.count != 0u)
 430              		.loc 1 168 0
 431 0062 FFF7FEFF 		bl	USBUART_FindReport
 432              	.LVL52:
 169:.\Generated_Source\PSoC5/USBUART_hid.c ****                 {
 433              		.loc 1 169 0
 434 0066 434B     		ldr	r3, .L53+4
 435 0068 1B88     		ldrh	r3, [r3]
 436 006a 9BB2     		uxth	r3, r3
 437 006c 002B     		cmp	r3, #0
 438 006e 6AD0     		beq	.L41
 171:.\Generated_Source\PSoC5/USBUART_hid.c ****                 }
 439              		.loc 1 171 0
 440 0070 FFF7FEFF 		bl	USBUART_InitControlRead
 441              	.LVL53:
 442 0074 08BD     		pop	{r3, pc}
 443              	.LVL54:
 444              	.L28:
 178:.\Generated_Source\PSoC5/USBUART_hid.c ****                 {
 445              		.loc 1 178 0
 446 0076 012A     		cmp	r2, #1
 447 0078 67D8     		bhi	.L42
 178:.\Generated_Source\PSoC5/USBUART_hid.c ****                 {
 448              		.loc 1 178 0 is_stmt 0 discriminator 1
 449 007a 3D4B     		ldr	r3, .L53
 450 007c 9B78     		ldrb	r3, [r3, #2]	@ zero_extendqisi2
 451 007e 13F0FF0F 		tst	r3, #255
 452 0082 64D1     		bne	.L43
 180:.\Generated_Source\PSoC5/USBUART_hid.c ****                     USBUART_currentTD.pData = &USBUART_hidIdleRate[interfaceNumber];
 453              		.loc 1 180 0 is_stmt 1
 454 0084 3B49     		ldr	r1, .L53+4
 455 0086 0123     		movs	r3, #1
 456 0088 0B80     		strh	r3, [r1]	@ movhi
 181:.\Generated_Source\PSoC5/USBUART_hid.c ****                     requestHandled  = USBUART_InitControlRead();
 457              		.loc 1 181 0
 458 008a 3B4B     		ldr	r3, .L53+8
 459 008c 1A44     		add	r2, r2, r3
ARM GAS  C:\Users\Tim\AppData\Local\Temp\ccXkHNbb.s 			page 17


 460              	.LVL55:
 461 008e 4A60     		str	r2, [r1, #4]
 182:.\Generated_Source\PSoC5/USBUART_hid.c ****                 }
 462              		.loc 1 182 0
 463 0090 FFF7FEFF 		bl	USBUART_InitControlRead
 464              	.LVL56:
 465 0094 08BD     		pop	{r3, pc}
 466              	.LVL57:
 467              	.L29:
 188:.\Generated_Source\PSoC5/USBUART_hid.c ****                 {
 468              		.loc 1 188 0
 469 0096 012A     		cmp	r2, #1
 470 0098 5BD8     		bhi	.L44
 190:.\Generated_Source\PSoC5/USBUART_hid.c ****                     USBUART_currentTD.pData = &USBUART_hidProtocol[interfaceNumber];
 471              		.loc 1 190 0
 472 009a 3649     		ldr	r1, .L53+4
 473 009c 0123     		movs	r3, #1
 474 009e 0B80     		strh	r3, [r1]	@ movhi
 191:.\Generated_Source\PSoC5/USBUART_hid.c ****                     requestHandled  = USBUART_InitControlRead();
 475              		.loc 1 191 0
 476 00a0 364B     		ldr	r3, .L53+12
 477 00a2 1A44     		add	r2, r2, r3
 478              	.LVL58:
 479 00a4 4A60     		str	r2, [r1, #4]
 192:.\Generated_Source\PSoC5/USBUART_hid.c ****                 }
 480              		.loc 1 192 0
 481 00a6 FFF7FEFF 		bl	USBUART_InitControlRead
 482              	.LVL59:
 483 00aa 08BD     		pop	{r3, pc}
 484              	.LVL60:
 485              	.L24:
 204:.\Generated_Source\PSoC5/USBUART_hid.c ****         {
 486              		.loc 1 204 0
 487 00ac 304B     		ldr	r3, .L53
 488 00ae 5B78     		ldrb	r3, [r3, #1]	@ zero_extendqisi2
 489 00b0 DBB2     		uxtb	r3, r3
 490 00b2 0A2B     		cmp	r3, #10
 491 00b4 0DD0     		beq	.L32
 492 00b6 0B2B     		cmp	r3, #11
 493 00b8 2ED0     		beq	.L33
 494 00ba 092B     		cmp	r3, #9
 495 00bc 4BD1     		bne	.L51
 207:.\Generated_Source\PSoC5/USBUART_hid.c ****                 if (USBUART_currentTD.count != 0u)
 496              		.loc 1 207 0
 497 00be FFF7FEFF 		bl	USBUART_FindReport
 498              	.LVL61:
 208:.\Generated_Source\PSoC5/USBUART_hid.c ****                 {
 499              		.loc 1 208 0
 500 00c2 2C4B     		ldr	r3, .L53+4
 501 00c4 1B88     		ldrh	r3, [r3]
 502 00c6 9BB2     		uxth	r3, r3
 503 00c8 002B     		cmp	r3, #0
 504 00ca 46D0     		beq	.L46
 210:.\Generated_Source\PSoC5/USBUART_hid.c ****                 }
 505              		.loc 1 210 0
 506 00cc FFF7FEFF 		bl	USBUART_InitControlWrite
 507              	.LVL62:
ARM GAS  C:\Users\Tim\AppData\Local\Temp\ccXkHNbb.s 			page 18


 508 00d0 08BD     		pop	{r3, pc}
 509              	.LVL63:
 510              	.L32:
 217:.\Generated_Source\PSoC5/USBUART_hid.c ****                 {
 511              		.loc 1 217 0
 512 00d2 012A     		cmp	r2, #1
 513 00d4 43D8     		bhi	.L47
 217:.\Generated_Source\PSoC5/USBUART_hid.c ****                 {
 514              		.loc 1 217 0 is_stmt 0 discriminator 1
 515 00d6 264B     		ldr	r3, .L53
 516 00d8 9B78     		ldrb	r3, [r3, #2]	@ zero_extendqisi2
 517 00da 13F0FF0F 		tst	r3, #255
 518 00de 40D1     		bne	.L48
 219:.\Generated_Source\PSoC5/USBUART_hid.c ****                     /* With regards to HID spec: "7.2.4 Set_Idle Request"
 519              		.loc 1 219 0 is_stmt 1
 520 00e0 234B     		ldr	r3, .L53
 521 00e2 DB78     		ldrb	r3, [r3, #3]	@ zero_extendqisi2
 522 00e4 DBB2     		uxtb	r3, r3
 523 00e6 2449     		ldr	r1, .L53+8
 524 00e8 8B54     		strb	r3, [r1, r2]
 225:.\Generated_Source\PSoC5/USBUART_hid.c ****                        USBUART_hidIdleTimer[interfaceNumber])
 525              		.loc 1 225 0
 526 00ea 8B5C     		ldrb	r3, [r1, r2]	@ zero_extendqisi2
 226:.\Generated_Source\PSoC5/USBUART_hid.c ****                     {
 527              		.loc 1 226 0
 528 00ec 2449     		ldr	r1, .L53+16
 529 00ee 895C     		ldrb	r1, [r1, r2]	@ zero_extendqisi2
 530 00f0 DBB2     		uxtb	r3, r3
 225:.\Generated_Source\PSoC5/USBUART_hid.c ****                        USBUART_hidIdleTimer[interfaceNumber])
 531              		.loc 1 225 0
 532 00f2 8B42     		cmp	r3, r1
 533 00f4 03D2     		bcs	.L35
 229:.\Generated_Source\PSoC5/USBUART_hid.c ****                     }
 534              		.loc 1 229 0
 535 00f6 0021     		movs	r1, #0
 536 00f8 214B     		ldr	r3, .L53+16
 537 00fa 9954     		strb	r1, [r3, r2]
 538 00fc 09E0     		b	.L36
 539              	.L35:
 235:.\Generated_Source\PSoC5/USBUART_hid.c ****                     {
 540              		.loc 1 235 0
 541 00fe 204B     		ldr	r3, .L53+16
 542 0100 9B5C     		ldrb	r3, [r3, r2]	@ zero_extendqisi2
 543 0102 DBB2     		uxtb	r3, r3
 544 0104 012B     		cmp	r3, #1
 545 0106 04D9     		bls	.L36
 245:.\Generated_Source\PSoC5/USBUART_hid.c ****                     }
 546              		.loc 1 245 0
 547 0108 1B4B     		ldr	r3, .L53+8
 548 010a 9B5C     		ldrb	r3, [r3, r2]	@ zero_extendqisi2
 549 010c DBB2     		uxtb	r3, r3
 244:.\Generated_Source\PSoC5/USBUART_hid.c ****                         USBUART_hidIdleRate[interfaceNumber];
 550              		.loc 1 244 0
 551 010e 1C49     		ldr	r1, .L53+16
 552 0110 8B54     		strb	r3, [r1, r2]
 553              	.L36:
 247:.\Generated_Source\PSoC5/USBUART_hid.c ****                 }
ARM GAS  C:\Users\Tim\AppData\Local\Temp\ccXkHNbb.s 			page 19


 554              		.loc 1 247 0
 555 0112 FFF7FEFF 		bl	USBUART_InitNoDataControlTransfer
 556              	.LVL64:
 557 0116 08BD     		pop	{r3, pc}
 558              	.LVL65:
 559              	.L33:
 253:.\Generated_Source\PSoC5/USBUART_hid.c ****                 {
 560              		.loc 1 253 0
 561 0118 012A     		cmp	r2, #1
 562 011a 24D8     		bhi	.L49
 253:.\Generated_Source\PSoC5/USBUART_hid.c ****                 {
 563              		.loc 1 253 0 is_stmt 0 discriminator 1
 564 011c 144B     		ldr	r3, .L53
 565 011e 9B78     		ldrb	r3, [r3, #2]	@ zero_extendqisi2
 566 0120 DBB2     		uxtb	r3, r3
 567 0122 012B     		cmp	r3, #1
 568 0124 21D8     		bhi	.L50
 255:.\Generated_Source\PSoC5/USBUART_hid.c ****                     requestHandled = USBUART_InitNoDataControlTransfer();
 569              		.loc 1 255 0 is_stmt 1
 570 0126 124B     		ldr	r3, .L53
 571 0128 9B78     		ldrb	r3, [r3, #2]	@ zero_extendqisi2
 572 012a DBB2     		uxtb	r3, r3
 573 012c 1349     		ldr	r1, .L53+12
 574 012e 8B54     		strb	r3, [r1, r2]
 256:.\Generated_Source\PSoC5/USBUART_hid.c ****                 }
 575              		.loc 1 256 0
 576 0130 FFF7FEFF 		bl	USBUART_InitNoDataControlTransfer
 577              	.LVL66:
 578 0134 08BD     		pop	{r3, pc}
 579              	.LVL67:
 580              	.L37:
 133:.\Generated_Source\PSoC5/USBUART_hid.c **** 
 581              		.loc 1 133 0
 582 0136 0020     		movs	r0, #0
 583 0138 08BD     		pop	{r3, pc}
 584              	.LVL68:
 585              	.L38:
 586 013a 0020     		movs	r0, #0
 587 013c 08BD     		pop	{r3, pc}
 588              	.LVL69:
 589              	.L39:
 590 013e 0020     		movs	r0, #0
 591 0140 08BD     		pop	{r3, pc}
 592              	.LVL70:
 593              	.L40:
 594 0142 0020     		movs	r0, #0
 595 0144 08BD     		pop	{r3, pc}
 596              	.L41:
 597 0146 0020     		movs	r0, #0
 598 0148 08BD     		pop	{r3, pc}
 599              	.LVL71:
 600              	.L42:
 601 014a 0020     		movs	r0, #0
 602 014c 08BD     		pop	{r3, pc}
 603              	.L43:
 604 014e 0020     		movs	r0, #0
 605 0150 08BD     		pop	{r3, pc}
ARM GAS  C:\Users\Tim\AppData\Local\Temp\ccXkHNbb.s 			page 20


 606              	.L44:
 607 0152 0020     		movs	r0, #0
 608 0154 08BD     		pop	{r3, pc}
 609              	.L51:
 610 0156 0020     		movs	r0, #0
 611 0158 08BD     		pop	{r3, pc}
 612              	.LVL72:
 613              	.L46:
 614 015a 0020     		movs	r0, #0
 615 015c 08BD     		pop	{r3, pc}
 616              	.LVL73:
 617              	.L47:
 618 015e 0020     		movs	r0, #0
 619 0160 08BD     		pop	{r3, pc}
 620              	.L48:
 621 0162 0020     		movs	r0, #0
 622 0164 08BD     		pop	{r3, pc}
 623              	.L49:
 624 0166 0020     		movs	r0, #0
 625 0168 08BD     		pop	{r3, pc}
 626              	.L50:
 627 016a 0020     		movs	r0, #0
 628              	.LVL74:
 267:.\Generated_Source\PSoC5/USBUART_hid.c **** 
 629              		.loc 1 267 0
 630 016c 08BD     		pop	{r3, pc}
 631              	.L54:
 632 016e 00BF     		.align	2
 633              	.L53:
 634 0170 00600040 		.word	1073766400
 635 0174 00000000 		.word	USBUART_currentTD
 636 0178 00000000 		.word	USBUART_hidIdleRate
 637 017c 00000000 		.word	USBUART_hidProtocol
 638 0180 00000000 		.word	USBUART_hidIdleTimer
 639              		.cfi_endproc
 640              	.LFE2:
 641              		.size	USBUART_DispatchHIDClassRqst, .-USBUART_DispatchHIDClassRqst
 642              		.comm	USBUART_hidIdleTimer,2,4
 643              		.comm	USBUART_hidIdleRate,2,4
 644              		.comm	USBUART_hidProtocol,2,4
 645              		.text
 646              	.Letext0:
 647              		.file 2 ".\\Generated_Source\\PSoC5\\cytypes.h"
 648              		.file 3 ".\\Generated_Source\\PSoC5\\USBUART.h"
 649              		.file 4 ".\\Generated_Source\\PSoC5\\USBUART_pvt.h"