ARM GAS  C:\Users\tslator\AppData\Local\Temp\ccaiGs8S.s 			page 1


   1              		.syntax unified
   2              		.cpu cortex-m3
   3              		.fpu softvfp
   4              		.eabi_attribute 20, 1
   5              		.eabi_attribute 21, 1
   6              		.eabi_attribute 23, 3
   7              		.eabi_attribute 24, 1
   8              		.eabi_attribute 25, 1
   9              		.eabi_attribute 26, 1
  10              		.eabi_attribute 30, 1
  11              		.eabi_attribute 34, 1
  12              		.eabi_attribute 18, 4
  13              		.thumb
  14              		.file	"utils.c"
  15              		.text
  16              	.Ltext0:
  17              		.cfi_sections	.debug_frame
  18              		.section	.text.insert_zeros,"ax",%progbits
  19              		.align	2
  20              		.thumb
  21              		.thumb_func
  22              		.type	insert_zeros, %function
  23              	insert_zeros:
  24              	.LFB74:
  25              		.file 1 "..\\source\\utils.c"
   1:..\source/utils.c **** /* ========================================
   2:..\source/utils.c ****  *
   3:..\source/utils.c ****  * Copyright YOUR COMPANY, THE YEAR
   4:..\source/utils.c ****  * All Rights Reserved
   5:..\source/utils.c ****  * UNPUBLISHED, LICENSED SOFTWARE.
   6:..\source/utils.c ****  *
   7:..\source/utils.c ****  * CONFIDENTIAL AND PROPRIETARY INFORMATION
   8:..\source/utils.c ****  * WHICH IS THE PROPERTY OF your company.
   9:..\source/utils.c ****  *
  10:..\source/utils.c ****  * ========================================
  11:..\source/utils.c **** */
  12:..\source/utils.c **** 
  13:..\source/utils.c **** #include <stdio.h>
  14:..\source/utils.c **** #include <stdlib.h>
  15:..\source/utils.c **** #include <math.h>
  16:..\source/utils.c **** #include "utils.h"
  17:..\source/utils.c **** #include "config.h"
  18:..\source/utils.c **** 
  19:..\source/utils.c **** int32 MovingAverage(MOVING_AVERAGE_TYPE* ma, int32 value)
  20:..\source/utils.c **** /*
  21:..\source/utils.c **** MA*[i]= MA*[i-1] +X[i] - MA*[i-1]/N
  22:..\source/utils.c **** 
  23:..\source/utils.c **** where MA* is the moving average*N. 
  24:..\source/utils.c **** 
  25:..\source/utils.c **** MA[i]= MA*[i]/N
  26:..\source/utils.c **** */
  27:..\source/utils.c **** {
  28:..\source/utils.c ****     int32 ma_curr;
  29:..\source/utils.c ****     
  30:..\source/utils.c ****     ma_curr = ma->last + value - ma->last/ma->n;
  31:..\source/utils.c ****     ma->last = ma_curr;
  32:..\source/utils.c ****     
ARM GAS  C:\Users\tslator\AppData\Local\Temp\ccaiGs8S.s 			page 2


  33:..\source/utils.c ****     return ma_curr/ma->n;
  34:..\source/utils.c **** }
  35:..\source/utils.c **** 
  36:..\source/utils.c **** float MovingAverageFloat(MOVING_AVERAGE_FLOAT_TYPE* ma, float value)
  37:..\source/utils.c **** /*
  38:..\source/utils.c **** MA*[i]= MA*[i-1] +X[i] - MA*[i-1]/N
  39:..\source/utils.c **** 
  40:..\source/utils.c **** where MA* is the moving average*N. 
  41:..\source/utils.c **** 
  42:..\source/utils.c **** MA[i]= MA*[i]/N
  43:..\source/utils.c **** */
  44:..\source/utils.c **** {
  45:..\source/utils.c ****     float ma_curr;
  46:..\source/utils.c ****     
  47:..\source/utils.c ****     ma_curr = ma->last + value - ma->last/ma->n;
  48:..\source/utils.c ****     ma->last = ma_curr;
  49:..\source/utils.c ****     
  50:..\source/utils.c ****     return ma_curr/ma->n;
  51:..\source/utils.c **** }
  52:..\source/utils.c **** 
  53:..\source/utils.c **** void Uint16ToTwoBytes(uint16 value, uint8* bytes)
  54:..\source/utils.c **** {
  55:..\source/utils.c ****     bytes[0] = (uint8) ((value & 0xFF00) >> 8);
  56:..\source/utils.c ****     bytes[1] = (uint8) (value & 0x00FF);
  57:..\source/utils.c **** }
  58:..\source/utils.c **** 
  59:..\source/utils.c **** void Uint32ToFourBytes(uint32 value, uint8* bytes)
  60:..\source/utils.c **** {
  61:..\source/utils.c ****     bytes[0] = (uint8) ((value & 0xFF000000) >> 24);
  62:..\source/utils.c ****     bytes[1] = (uint8) ((value & 0x00FF0000) >> 16);
  63:..\source/utils.c ****     bytes[2] = (uint8) ((value & 0x0000FF00) >> 8);
  64:..\source/utils.c ****     bytes[3] = (uint8) (value & 0x000000FF);
  65:..\source/utils.c **** }
  66:..\source/utils.c **** 
  67:..\source/utils.c **** void Int32ToFourBytes(int32 value, uint8* bytes)
  68:..\source/utils.c **** {
  69:..\source/utils.c ****     Uint32ToFourBytes((uint32)value, bytes);
  70:..\source/utils.c **** }
  71:..\source/utils.c **** 
  72:..\source/utils.c **** void FloatToFourBytes(float value, uint8* bytes)
  73:..\source/utils.c **** {
  74:..\source/utils.c ****     uint8 *p_bytes = (uint8 *) &value;
  75:..\source/utils.c ****     
  76:..\source/utils.c ****     bytes[0] = p_bytes[0];
  77:..\source/utils.c ****     bytes[1] = p_bytes[1];
  78:..\source/utils.c ****     bytes[2] = p_bytes[2];
  79:..\source/utils.c ****     bytes[3] = p_bytes[3];
  80:..\source/utils.c **** }
  81:..\source/utils.c **** 
  82:..\source/utils.c **** uint16 TwoBytesToUint16(uint8* bytes)
  83:..\source/utils.c **** {
  84:..\source/utils.c ****     uint16 upper = bytes[0] << 8;
  85:..\source/utils.c ****     uint16 lower = bytes[1];
  86:..\source/utils.c ****     return upper + lower;
  87:..\source/utils.c **** }
  88:..\source/utils.c **** 
  89:..\source/utils.c **** int16 TwoBytesInt16(uint8* bytes)
ARM GAS  C:\Users\tslator\AppData\Local\Temp\ccaiGs8S.s 			page 3


  90:..\source/utils.c **** {
  91:..\source/utils.c ****     return (int16) TwoBytesToUint16(bytes);
  92:..\source/utils.c **** }
  93:..\source/utils.c **** 
  94:..\source/utils.c **** uint32 FourBytesToUint32(uint8* bytes)
  95:..\source/utils.c **** {
  96:..\source/utils.c ****     return (uint32) ( (bytes[0] << 24) + (bytes[1] << 16) + (bytes[2] << 8) + bytes[3] );
  97:..\source/utils.c **** }
  98:..\source/utils.c **** 
  99:..\source/utils.c **** int32 FourBytesToInt32(uint8* bytes)
 100:..\source/utils.c **** {
 101:..\source/utils.c ****     return (int32) FourBytesToUint32(bytes);
 102:..\source/utils.c **** }
 103:..\source/utils.c **** 
 104:..\source/utils.c **** float FourBytesToFloat(uint8 *bytes)
 105:..\source/utils.c **** {   
 106:..\source/utils.c ****     float value = *((float *) bytes);    
 107:..\source/utils.c ****     return value;
 108:..\source/utils.c **** }
 109:..\source/utils.c **** 
 110:..\source/utils.c **** #ifdef USE_FTOA
 111:..\source/utils.c **** static int insert_zeros(int value, char *str, int offset, int precision)
 112:..\source/utils.c **** {
  26              		.loc 1 112 0
  27              		.cfi_startproc
  28              		@ args = 0, pretend = 0, frame = 0
  29              		@ frame_needed = 0, uses_anonymous_args = 0
  30              	.LVL0:
  31 0000 30B5     		push	{r4, r5, lr}
  32              		.cfi_def_cfa_offset 12
  33              		.cfi_offset 4, -12
  34              		.cfi_offset 5, -8
  35              		.cfi_offset 14, -4
  36              	.LVL1:
 113:..\source/utils.c ****     int num_digits = 0;
  37              		.loc 1 113 0
  38 0002 0024     		movs	r4, #0
 114:..\source/utils.c ****     
 115:..\source/utils.c ****     // Count digits in number
 116:..\source/utils.c ****     while (value)
  39              		.loc 1 116 0
  40 0004 06E0     		b	.L2
  41              	.LVL2:
  42              	.L3:
 117:..\source/utils.c ****     {
 118:..\source/utils.c ****         value /= 10;
  43              		.loc 1 118 0
  44 0006 094D     		ldr	r5, .L7
  45 0008 85FB00E5 		smull	lr, r5, r5, r0
  46 000c C017     		asrs	r0, r0, #31
  47              	.LVL3:
  48 000e C0EBA500 		rsb	r0, r0, r5, asr #2
  49              	.LVL4:
 119:..\source/utils.c ****         num_digits++;
  50              		.loc 1 119 0
  51 0012 0134     		adds	r4, r4, #1
  52              	.LVL5:
ARM GAS  C:\Users\tslator\AppData\Local\Temp\ccaiGs8S.s 			page 4


  53              	.L2:
 116:..\source/utils.c ****     {
  54              		.loc 1 116 0
  55 0014 0028     		cmp	r0, #0
  56 0016 F6D1     		bne	.L3
  57 0018 03E0     		b	.L4
  58              	.LVL6:
  59              	.L5:
 120:..\source/utils.c ****     }
 121:..\source/utils.c ****     
 122:..\source/utils.c ****     // If num_digits is less than precision then insert zeros
 123:..\source/utils.c ****     while (num_digits < precision)
 124:..\source/utils.c ****     {
 125:..\source/utils.c ****         str[offset] = '0';
  60              		.loc 1 125 0
  61 001a 3020     		movs	r0, #48
  62 001c 8854     		strb	r0, [r1, r2]
 126:..\source/utils.c ****         offset++;
  63              		.loc 1 126 0
  64 001e 0132     		adds	r2, r2, #1
  65              	.LVL7:
 127:..\source/utils.c ****         num_digits++;
  66              		.loc 1 127 0
  67 0020 0134     		adds	r4, r4, #1
  68              	.LVL8:
  69              	.L4:
 123:..\source/utils.c ****     {
  70              		.loc 1 123 0
  71 0022 9C42     		cmp	r4, r3
  72 0024 F9DB     		blt	.L5
 128:..\source/utils.c ****     }
 129:..\source/utils.c ****         
 130:..\source/utils.c ****     return offset;
 131:..\source/utils.c **** }
  73              		.loc 1 131 0
  74 0026 1046     		mov	r0, r2
  75 0028 30BD     		pop	{r4, r5, pc}
  76              	.LVL9:
  77              	.L8:
  78 002a 00BF     		.align	2
  79              	.L7:
  80 002c 67666666 		.word	1717986919
  81              		.cfi_endproc
  82              	.LFE74:
  83              		.size	insert_zeros, .-insert_zeros
  84              		.section	.text.MovingAverage,"ax",%progbits
  85              		.align	2
  86              		.global	MovingAverage
  87              		.thumb
  88              		.thumb_func
  89              		.type	MovingAverage, %function
  90              	MovingAverage:
  91              	.LFB63:
  27:..\source/utils.c ****     int32 ma_curr;
  92              		.loc 1 27 0
  93              		.cfi_startproc
  94              		@ args = 0, pretend = 0, frame = 0
ARM GAS  C:\Users\tslator\AppData\Local\Temp\ccaiGs8S.s 			page 5


  95              		@ frame_needed = 0, uses_anonymous_args = 0
  96              		@ link register save eliminated.
  97              	.LVL10:
  30:..\source/utils.c ****     ma->last = ma_curr;
  98              		.loc 1 30 0
  99 0000 4368     		ldr	r3, [r0, #4]
 100 0002 1944     		add	r1, r1, r3
 101              	.LVL11:
 102 0004 0268     		ldr	r2, [r0]
 103 0006 93FBF2F3 		sdiv	r3, r3, r2
 104 000a C91A     		subs	r1, r1, r3
 105              	.LVL12:
  31:..\source/utils.c ****     
 106              		.loc 1 31 0
 107 000c 4160     		str	r1, [r0, #4]
  34:..\source/utils.c **** 
 108              		.loc 1 34 0
 109 000e 91FBF2F0 		sdiv	r0, r1, r2
 110              	.LVL13:
 111 0012 7047     		bx	lr
 112              		.cfi_endproc
 113              	.LFE63:
 114              		.size	MovingAverage, .-MovingAverage
 115              		.global	__aeabi_fadd
 116              		.global	__aeabi_fdiv
 117              		.global	__aeabi_fsub
 118              		.section	.text.MovingAverageFloat,"ax",%progbits
 119              		.align	2
 120              		.global	MovingAverageFloat
 121              		.thumb
 122              		.thumb_func
 123              		.type	MovingAverageFloat, %function
 124              	MovingAverageFloat:
 125              	.LFB64:
  44:..\source/utils.c ****     float ma_curr;
 126              		.loc 1 44 0
 127              		.cfi_startproc
 128              		@ args = 0, pretend = 0, frame = 0
 129              		@ frame_needed = 0, uses_anonymous_args = 0
 130              	.LVL14:
 131 0000 F8B5     		push	{r3, r4, r5, r6, r7, lr}
 132              		.cfi_def_cfa_offset 24
 133              		.cfi_offset 3, -24
 134              		.cfi_offset 4, -20
 135              		.cfi_offset 5, -16
 136              		.cfi_offset 6, -12
 137              		.cfi_offset 7, -8
 138              		.cfi_offset 14, -4
 139 0002 0446     		mov	r4, r0
  47:..\source/utils.c ****     ma->last = ma_curr;
 140              		.loc 1 47 0
 141 0004 4668     		ldr	r6, [r0, #4]	@ float
 142 0006 3046     		mov	r0, r6
 143              	.LVL15:
 144 0008 FFF7FEFF 		bl	__aeabi_fadd
 145              	.LVL16:
 146 000c 0746     		mov	r7, r0
ARM GAS  C:\Users\tslator\AppData\Local\Temp\ccaiGs8S.s 			page 6


 147 000e 2568     		ldr	r5, [r4]	@ float
 148 0010 3046     		mov	r0, r6
 149 0012 2946     		mov	r1, r5
 150 0014 FFF7FEFF 		bl	__aeabi_fdiv
 151              	.LVL17:
 152 0018 0146     		mov	r1, r0
 153 001a 3846     		mov	r0, r7
 154 001c FFF7FEFF 		bl	__aeabi_fsub
 155              	.LVL18:
  48:..\source/utils.c ****     
 156              		.loc 1 48 0
 157 0020 6060     		str	r0, [r4, #4]	@ float
  50:..\source/utils.c **** }
 158              		.loc 1 50 0
 159 0022 2946     		mov	r1, r5
 160 0024 FFF7FEFF 		bl	__aeabi_fdiv
 161              	.LVL19:
  51:..\source/utils.c **** 
 162              		.loc 1 51 0
 163 0028 F8BD     		pop	{r3, r4, r5, r6, r7, pc}
 164              		.cfi_endproc
 165              	.LFE64:
 166              		.size	MovingAverageFloat, .-MovingAverageFloat
 167 002a 00BF     		.section	.text.Uint16ToTwoBytes,"ax",%progbits
 168              		.align	2
 169              		.global	Uint16ToTwoBytes
 170              		.thumb
 171              		.thumb_func
 172              		.type	Uint16ToTwoBytes, %function
 173              	Uint16ToTwoBytes:
 174              	.LFB65:
  54:..\source/utils.c ****     bytes[0] = (uint8) ((value & 0xFF00) >> 8);
 175              		.loc 1 54 0
 176              		.cfi_startproc
 177              		@ args = 0, pretend = 0, frame = 0
 178              		@ frame_needed = 0, uses_anonymous_args = 0
 179              		@ link register save eliminated.
 180              	.LVL20:
  55:..\source/utils.c ****     bytes[1] = (uint8) (value & 0x00FF);
 181              		.loc 1 55 0
 182 0000 030A     		lsrs	r3, r0, #8
 183 0002 0B70     		strb	r3, [r1]
  56:..\source/utils.c **** }
 184              		.loc 1 56 0
 185 0004 4870     		strb	r0, [r1, #1]
 186 0006 7047     		bx	lr
 187              		.cfi_endproc
 188              	.LFE65:
 189              		.size	Uint16ToTwoBytes, .-Uint16ToTwoBytes
 190              		.section	.text.Uint32ToFourBytes,"ax",%progbits
 191              		.align	2
 192              		.global	Uint32ToFourBytes
 193              		.thumb
 194              		.thumb_func
 195              		.type	Uint32ToFourBytes, %function
 196              	Uint32ToFourBytes:
 197              	.LFB66:
ARM GAS  C:\Users\tslator\AppData\Local\Temp\ccaiGs8S.s 			page 7


  60:..\source/utils.c ****     bytes[0] = (uint8) ((value & 0xFF000000) >> 24);
 198              		.loc 1 60 0
 199              		.cfi_startproc
 200              		@ args = 0, pretend = 0, frame = 0
 201              		@ frame_needed = 0, uses_anonymous_args = 0
 202              		@ link register save eliminated.
 203              	.LVL21:
  61:..\source/utils.c ****     bytes[1] = (uint8) ((value & 0x00FF0000) >> 16);
 204              		.loc 1 61 0
 205 0000 030E     		lsrs	r3, r0, #24
 206 0002 0B70     		strb	r3, [r1]
  62:..\source/utils.c ****     bytes[2] = (uint8) ((value & 0x0000FF00) >> 8);
 207              		.loc 1 62 0
 208 0004 C0F30743 		ubfx	r3, r0, #16, #8
 209 0008 4B70     		strb	r3, [r1, #1]
  63:..\source/utils.c ****     bytes[3] = (uint8) (value & 0x000000FF);
 210              		.loc 1 63 0
 211 000a C0F30723 		ubfx	r3, r0, #8, #8
 212 000e 8B70     		strb	r3, [r1, #2]
  64:..\source/utils.c **** }
 213              		.loc 1 64 0
 214 0010 C870     		strb	r0, [r1, #3]
 215 0012 7047     		bx	lr
 216              		.cfi_endproc
 217              	.LFE66:
 218              		.size	Uint32ToFourBytes, .-Uint32ToFourBytes
 219              		.section	.text.Int32ToFourBytes,"ax",%progbits
 220              		.align	2
 221              		.global	Int32ToFourBytes
 222              		.thumb
 223              		.thumb_func
 224              		.type	Int32ToFourBytes, %function
 225              	Int32ToFourBytes:
 226              	.LFB67:
  68:..\source/utils.c ****     Uint32ToFourBytes((uint32)value, bytes);
 227              		.loc 1 68 0
 228              		.cfi_startproc
 229              		@ args = 0, pretend = 0, frame = 0
 230              		@ frame_needed = 0, uses_anonymous_args = 0
 231              	.LVL22:
 232 0000 08B5     		push	{r3, lr}
 233              		.cfi_def_cfa_offset 8
 234              		.cfi_offset 3, -8
 235              		.cfi_offset 14, -4
  69:..\source/utils.c **** }
 236              		.loc 1 69 0
 237 0002 FFF7FEFF 		bl	Uint32ToFourBytes
 238              	.LVL23:
 239 0006 08BD     		pop	{r3, pc}
 240              		.cfi_endproc
 241              	.LFE67:
 242              		.size	Int32ToFourBytes, .-Int32ToFourBytes
 243              		.section	.text.FloatToFourBytes,"ax",%progbits
 244              		.align	2
 245              		.global	FloatToFourBytes
 246              		.thumb
 247              		.thumb_func
ARM GAS  C:\Users\tslator\AppData\Local\Temp\ccaiGs8S.s 			page 8


 248              		.type	FloatToFourBytes, %function
 249              	FloatToFourBytes:
 250              	.LFB68:
  73:..\source/utils.c ****     uint8 *p_bytes = (uint8 *) &value;
 251              		.loc 1 73 0
 252              		.cfi_startproc
 253              		@ args = 0, pretend = 0, frame = 8
 254              		@ frame_needed = 0, uses_anonymous_args = 0
 255              		@ link register save eliminated.
 256              	.LVL24:
 257 0000 82B0     		sub	sp, sp, #8
 258              		.cfi_def_cfa_offset 8
 259 0002 0190     		str	r0, [sp, #4]	@ float
 260              	.LVL25:
  76:..\source/utils.c ****     bytes[1] = p_bytes[1];
 261              		.loc 1 76 0
 262 0004 9DF80430 		ldrb	r3, [sp, #4]	@ zero_extendqisi2
 263 0008 0B70     		strb	r3, [r1]
  77:..\source/utils.c ****     bytes[2] = p_bytes[2];
 264              		.loc 1 77 0
 265 000a 9DF80530 		ldrb	r3, [sp, #5]	@ zero_extendqisi2
 266 000e 4B70     		strb	r3, [r1, #1]
  78:..\source/utils.c ****     bytes[3] = p_bytes[3];
 267              		.loc 1 78 0
 268 0010 9DF80630 		ldrb	r3, [sp, #6]	@ zero_extendqisi2
 269 0014 8B70     		strb	r3, [r1, #2]
  79:..\source/utils.c **** }
 270              		.loc 1 79 0
 271 0016 9DF80730 		ldrb	r3, [sp, #7]	@ zero_extendqisi2
 272 001a CB70     		strb	r3, [r1, #3]
  80:..\source/utils.c **** 
 273              		.loc 1 80 0
 274 001c 02B0     		add	sp, sp, #8
 275              		.cfi_def_cfa_offset 0
 276              	.LVL26:
 277              		@ sp needed
 278 001e 7047     		bx	lr
 279              		.cfi_endproc
 280              	.LFE68:
 281              		.size	FloatToFourBytes, .-FloatToFourBytes
 282              		.section	.text.TwoBytesToUint16,"ax",%progbits
 283              		.align	2
 284              		.global	TwoBytesToUint16
 285              		.thumb
 286              		.thumb_func
 287              		.type	TwoBytesToUint16, %function
 288              	TwoBytesToUint16:
 289              	.LFB69:
  83:..\source/utils.c ****     uint16 upper = bytes[0] << 8;
 290              		.loc 1 83 0
 291              		.cfi_startproc
 292              		@ args = 0, pretend = 0, frame = 0
 293              		@ frame_needed = 0, uses_anonymous_args = 0
 294              		@ link register save eliminated.
 295              	.LVL27:
  84:..\source/utils.c ****     uint16 lower = bytes[1];
 296              		.loc 1 84 0
ARM GAS  C:\Users\tslator\AppData\Local\Temp\ccaiGs8S.s 			page 9


 297 0000 0278     		ldrb	r2, [r0]	@ zero_extendqisi2
 298              	.LVL28:
  85:..\source/utils.c ****     return upper + lower;
 299              		.loc 1 85 0
 300 0002 4378     		ldrb	r3, [r0, #1]	@ zero_extendqisi2
 301              	.LVL29:
  86:..\source/utils.c **** }
 302              		.loc 1 86 0
 303 0004 03EB0220 		add	r0, r3, r2, lsl #8
 304              	.LVL30:
  87:..\source/utils.c **** 
 305              		.loc 1 87 0
 306 0008 80B2     		uxth	r0, r0
 307 000a 7047     		bx	lr
 308              		.cfi_endproc
 309              	.LFE69:
 310              		.size	TwoBytesToUint16, .-TwoBytesToUint16
 311              		.section	.text.TwoBytesInt16,"ax",%progbits
 312              		.align	2
 313              		.global	TwoBytesInt16
 314              		.thumb
 315              		.thumb_func
 316              		.type	TwoBytesInt16, %function
 317              	TwoBytesInt16:
 318              	.LFB70:
  90:..\source/utils.c ****     return (int16) TwoBytesToUint16(bytes);
 319              		.loc 1 90 0
 320              		.cfi_startproc
 321              		@ args = 0, pretend = 0, frame = 0
 322              		@ frame_needed = 0, uses_anonymous_args = 0
 323              	.LVL31:
 324 0000 08B5     		push	{r3, lr}
 325              		.cfi_def_cfa_offset 8
 326              		.cfi_offset 3, -8
 327              		.cfi_offset 14, -4
  91:..\source/utils.c **** }
 328              		.loc 1 91 0
 329 0002 FFF7FEFF 		bl	TwoBytesToUint16
 330              	.LVL32:
  92:..\source/utils.c **** 
 331              		.loc 1 92 0
 332 0006 00B2     		sxth	r0, r0
 333 0008 08BD     		pop	{r3, pc}
 334              		.cfi_endproc
 335              	.LFE70:
 336              		.size	TwoBytesInt16, .-TwoBytesInt16
 337 000a 00BF     		.section	.text.FourBytesToUint32,"ax",%progbits
 338              		.align	2
 339              		.global	FourBytesToUint32
 340              		.thumb
 341              		.thumb_func
 342              		.type	FourBytesToUint32, %function
 343              	FourBytesToUint32:
 344              	.LFB71:
  95:..\source/utils.c ****     return (uint32) ( (bytes[0] << 24) + (bytes[1] << 16) + (bytes[2] << 8) + bytes[3] );
 345              		.loc 1 95 0
 346              		.cfi_startproc
ARM GAS  C:\Users\tslator\AppData\Local\Temp\ccaiGs8S.s 			page 10


 347              		@ args = 0, pretend = 0, frame = 0
 348              		@ frame_needed = 0, uses_anonymous_args = 0
 349              		@ link register save eliminated.
 350              	.LVL33:
  96:..\source/utils.c **** }
 351              		.loc 1 96 0
 352 0000 0278     		ldrb	r2, [r0]	@ zero_extendqisi2
 353 0002 4378     		ldrb	r3, [r0, #1]	@ zero_extendqisi2
 354 0004 1B04     		lsls	r3, r3, #16
 355 0006 03EB0263 		add	r3, r3, r2, lsl #24
 356 000a 8278     		ldrb	r2, [r0, #2]	@ zero_extendqisi2
 357 000c 03EB0223 		add	r3, r3, r2, lsl #8
 358 0010 C078     		ldrb	r0, [r0, #3]	@ zero_extendqisi2
 359              	.LVL34:
  97:..\source/utils.c **** 
 360              		.loc 1 97 0
 361 0012 1844     		add	r0, r0, r3
 362 0014 7047     		bx	lr
 363              		.cfi_endproc
 364              	.LFE71:
 365              		.size	FourBytesToUint32, .-FourBytesToUint32
 366 0016 00BF     		.section	.text.FourBytesToInt32,"ax",%progbits
 367              		.align	2
 368              		.global	FourBytesToInt32
 369              		.thumb
 370              		.thumb_func
 371              		.type	FourBytesToInt32, %function
 372              	FourBytesToInt32:
 373              	.LFB72:
 100:..\source/utils.c ****     return (int32) FourBytesToUint32(bytes);
 374              		.loc 1 100 0
 375              		.cfi_startproc
 376              		@ args = 0, pretend = 0, frame = 0
 377              		@ frame_needed = 0, uses_anonymous_args = 0
 378              	.LVL35:
 379 0000 08B5     		push	{r3, lr}
 380              		.cfi_def_cfa_offset 8
 381              		.cfi_offset 3, -8
 382              		.cfi_offset 14, -4
 101:..\source/utils.c **** }
 383              		.loc 1 101 0
 384 0002 FFF7FEFF 		bl	FourBytesToUint32
 385              	.LVL36:
 102:..\source/utils.c **** 
 386              		.loc 1 102 0
 387 0006 08BD     		pop	{r3, pc}
 388              		.cfi_endproc
 389              	.LFE72:
 390              		.size	FourBytesToInt32, .-FourBytesToInt32
 391              		.section	.text.FourBytesToFloat,"ax",%progbits
 392              		.align	2
 393              		.global	FourBytesToFloat
 394              		.thumb
 395              		.thumb_func
 396              		.type	FourBytesToFloat, %function
 397              	FourBytesToFloat:
 398              	.LFB73:
ARM GAS  C:\Users\tslator\AppData\Local\Temp\ccaiGs8S.s 			page 11


 105:..\source/utils.c ****     float value = *((float *) bytes);    
 399              		.loc 1 105 0
 400              		.cfi_startproc
 401              		@ args = 0, pretend = 0, frame = 0
 402              		@ frame_needed = 0, uses_anonymous_args = 0
 403              		@ link register save eliminated.
 404              	.LVL37:
 108:..\source/utils.c **** 
 405              		.loc 1 108 0
 406 0000 0068     		ldr	r0, [r0]	@ float
 407              	.LVL38:
 408 0002 7047     		bx	lr
 409              		.cfi_endproc
 410              	.LFE73:
 411              		.size	FourBytesToFloat, .-FourBytesToFloat
 412              		.global	__aeabi_fcmplt
 413              		.global	__aeabi_f2iz
 414              		.global	__aeabi_i2f
 415              		.global	__aeabi_i2d
 416              		.global	__aeabi_f2d
 417              		.global	__aeabi_dmul
 418              		.global	__aeabi_d2iz
 419              		.section	.text.ftoa,"ax",%progbits
 420              		.align	2
 421              		.global	ftoa
 422              		.thumb
 423              		.thumb_func
 424              		.type	ftoa, %function
 425              	ftoa:
 426              	.LFB75:
 132:..\source/utils.c **** 
 133:..\source/utils.c **** // Converts a floating point number to string.
 134:..\source/utils.c **** void ftoa(float n, char *str, int precision)
 135:..\source/utils.c **** {   
 427              		.loc 1 135 0
 428              		.cfi_startproc
 429              		@ args = 0, pretend = 0, frame = 0
 430              		@ frame_needed = 0, uses_anonymous_args = 0
 431              	.LVL39:
 432 0000 2DE9F843 		push	{r3, r4, r5, r6, r7, r8, r9, lr}
 433              		.cfi_def_cfa_offset 32
 434              		.cfi_offset 3, -32
 435              		.cfi_offset 4, -28
 436              		.cfi_offset 5, -24
 437              		.cfi_offset 6, -20
 438              		.cfi_offset 7, -16
 439              		.cfi_offset 8, -12
 440              		.cfi_offset 9, -8
 441              		.cfi_offset 14, -4
 442 0004 0646     		mov	r6, r0
 443 0006 0D46     		mov	r5, r1
 444 0008 9046     		mov	r8, r2
 445              	.LVL40:
 136:..\source/utils.c ****     int i = 0;
 137:..\source/utils.c ****     
 138:..\source/utils.c ****     if (n < 0)
 446              		.loc 1 138 0
ARM GAS  C:\Users\tslator\AppData\Local\Temp\ccaiGs8S.s 			page 12


 447 000a 0021     		movs	r1, #0
 448              	.LVL41:
 449 000c FFF7FEFF 		bl	__aeabi_fcmplt
 450              	.LVL42:
 451 0010 50B1     		cbz	r0, .L34
 139:..\source/utils.c ****     {
 140:..\source/utils.c ****         str[i] = '-';
 452              		.loc 1 140 0
 453 0012 2D23     		movs	r3, #45
 454 0014 2B70     		strb	r3, [r5]
 455              	.LVL43:
 141:..\source/utils.c ****         i++;
 142:..\source/utils.c ****         n = abs(n);
 456              		.loc 1 142 0
 457 0016 3046     		mov	r0, r6
 458 0018 0021     		movs	r1, #0
 459 001a FFF7FEFF 		bl	__aeabi_fcmplt
 460              	.LVL44:
 461 001e 08B1     		cbz	r0, .L28
 462              		.loc 1 142 0 is_stmt 0 discriminator 1
 463 0020 06F10046 		add	r6, r6, #-2147483648
 464              	.LVL45:
 465              	.L28:
 141:..\source/utils.c ****         i++;
 466              		.loc 1 141 0 is_stmt 1 discriminator 4
 467 0024 0124     		movs	r4, #1
 468 0026 00E0     		b	.L26
 469              	.LVL46:
 470              	.L34:
 136:..\source/utils.c ****     
 471              		.loc 1 136 0
 472 0028 0024     		movs	r4, #0
 473              	.LVL47:
 474              	.L26:
 143:..\source/utils.c ****     }
 144:..\source/utils.c ****     
 145:..\source/utils.c ****     // Extract integer part
 146:..\source/utils.c ****     int ipart = (int)n;
 475              		.loc 1 146 0
 476 002a 3046     		mov	r0, r6
 477 002c FFF7FEFF 		bl	__aeabi_f2iz
 478              	.LVL48:
 479 0030 0746     		mov	r7, r0
 480              	.LVL49:
 147:..\source/utils.c **** 
 148:..\source/utils.c ****     // convert integer part to string
 149:..\source/utils.c ****     i += strlen(itoa(ipart, &str[i], 10));
 481              		.loc 1 149 0
 482 0032 2919     		adds	r1, r5, r4
 483 0034 0A22     		movs	r2, #10
 484 0036 FFF7FEFF 		bl	itoa
 485              	.LVL50:
 486 003a FFF7FEFF 		bl	strlen
 487              	.LVL51:
 488 003e 2044     		add	r0, r0, r4
 489              	.LVL52:
 150:..\source/utils.c ****     
ARM GAS  C:\Users\tslator\AppData\Local\Temp\ccaiGs8S.s 			page 13


 151:..\source/utils.c ****     // check for display option after point
 152:..\source/utils.c ****     if (precision > 0)
 490              		.loc 1 152 0
 491 0040 B8F1000F 		cmp	r8, #0
 492 0044 29DD     		ble	.L25
 493              	.LBB2:
 153:..\source/utils.c ****     {
 154:..\source/utils.c ****         str[i] = '.';  // add dot
 494              		.loc 1 154 0
 495 0046 2E23     		movs	r3, #46
 496 0048 2B54     		strb	r3, [r5, r0]
 155:..\source/utils.c ****         i++;
 497              		.loc 1 155 0
 498 004a 441C     		adds	r4, r0, #1
 499              	.LVL53:
 156:..\source/utils.c ****  
 157:..\source/utils.c ****         int fpart = (int) ( (n - (float)ipart) * pow(10, precision) );
 500              		.loc 1 157 0
 501 004c 3846     		mov	r0, r7
 502 004e FFF7FEFF 		bl	__aeabi_i2f
 503              	.LVL54:
 504 0052 0146     		mov	r1, r0
 505 0054 3046     		mov	r0, r6
 506 0056 FFF7FEFF 		bl	__aeabi_fsub
 507              	.LVL55:
 508 005a 8146     		mov	r9, r0
 509 005c 4046     		mov	r0, r8
 510 005e FFF7FEFF 		bl	__aeabi_i2d
 511              	.LVL56:
 512 0062 0246     		mov	r2, r0
 513 0064 0B46     		mov	r3, r1
 514 0066 0020     		movs	r0, #0
 515 0068 0D49     		ldr	r1, .L36
 516 006a FFF7FEFF 		bl	pow
 517              	.LVL57:
 518 006e 0646     		mov	r6, r0
 519              	.LVL58:
 520 0070 0F46     		mov	r7, r1
 521              	.LVL59:
 522 0072 4846     		mov	r0, r9
 523 0074 FFF7FEFF 		bl	__aeabi_f2d
 524              	.LVL60:
 525 0078 3246     		mov	r2, r6
 526 007a 3B46     		mov	r3, r7
 527 007c FFF7FEFF 		bl	__aeabi_dmul
 528              	.LVL61:
 529 0080 FFF7FEFF 		bl	__aeabi_d2iz
 530              	.LVL62:
 531 0084 0646     		mov	r6, r0
 532              	.LVL63:
 158:..\source/utils.c ****         
 159:..\source/utils.c ****         i = insert_zeros(fpart, str, i, precision);
 533              		.loc 1 159 0
 534 0086 2946     		mov	r1, r5
 535 0088 2246     		mov	r2, r4
 536 008a 4346     		mov	r3, r8
 537 008c FFF7FEFF 		bl	insert_zeros
ARM GAS  C:\Users\tslator\AppData\Local\Temp\ccaiGs8S.s 			page 14


 538              	.LVL64:
 160:..\source/utils.c ****         
 161:..\source/utils.c ****         itoa( (int)fpart, &str[i], 10);
 539              		.loc 1 161 0
 540 0090 2918     		adds	r1, r5, r0
 541 0092 3046     		mov	r0, r6
 542              	.LVL65:
 543 0094 0A22     		movs	r2, #10
 544 0096 FFF7FEFF 		bl	itoa
 545              	.LVL66:
 546              	.L25:
 547 009a BDE8F883 		pop	{r3, r4, r5, r6, r7, r8, r9, pc}
 548              	.LVL67:
 549              	.L37:
 550 009e 00BF     		.align	2
 551              	.L36:
 552 00a0 00002440 		.word	1076101120
 553              	.LBE2:
 554              		.cfi_endproc
 555              	.LFE75:
 556              		.size	ftoa, .-ftoa
 557              		.section	.text.BinaryRangeSearch,"ax",%progbits
 558              		.align	2
 559              		.global	BinaryRangeSearch
 560              		.thumb
 561              		.thumb_func
 562              		.type	BinaryRangeSearch, %function
 563              	BinaryRangeSearch:
 564              	.LFB76:
 162:..\source/utils.c ****     }
 163:..\source/utils.c **** }
 164:..\source/utils.c **** #endif
 165:..\source/utils.c **** 
 166:..\source/utils.c **** void BinaryRangeSearch(int32 search, int32 *data_points, uint8 num_points, uint8 *lower_index, uint
 167:..\source/utils.c **** /*
 168:..\source/utils.c ****     This is a binary search modified to return a range, e.g., lower and upper, when searching for a
 169:..\source/utils.c **** 
 170:..\source/utils.c ****     Performance:
 171:..\source/utils.c ****     Array Size      log2N
 172:..\source/utils.c ****         10            4
 173:..\source/utils.c ****         50            6
 174:..\source/utils.c ****        100            7
 175:..\source/utils.c ****        500            9
 176:..\source/utils.c **** 
 177:..\source/utils.c **** */
 178:..\source/utils.c **** {
 565              		.loc 1 178 0
 566              		.cfi_startproc
 567              		@ args = 4, pretend = 0, frame = 0
 568              		@ frame_needed = 0, uses_anonymous_args = 0
 569              		@ link register save eliminated.
 570              	.LVL68:
 571 0000 F0B4     		push	{r4, r5, r6, r7}
 572              		.cfi_def_cfa_offset 16
 573              		.cfi_offset 4, -16
 574              		.cfi_offset 5, -12
 575              		.cfi_offset 6, -8
ARM GAS  C:\Users\tslator\AppData\Local\Temp\ccaiGs8S.s 			page 15


 576              		.cfi_offset 7, -4
 577 0002 049F     		ldr	r7, [sp, #16]
 578              	.LVL69:
 179:..\source/utils.c ****     uint8 first = 0;
 180:..\source/utils.c ****     uint8 last = num_points - 1;
 579              		.loc 1 180 0
 580 0004 013A     		subs	r2, r2, #1
 581              	.LVL70:
 582 0006 D2B2     		uxtb	r2, r2
 583              	.LVL71:
 181:..\source/utils.c ****     uint8 middle = (first+last)/2;
 584              		.loc 1 181 0
 585 0008 5408     		lsrs	r4, r2, #1
 586              	.LVL72:
 182:..\source/utils.c ****     
 183:..\source/utils.c ****     *lower_index = 0;
 587              		.loc 1 183 0
 588 000a 0025     		movs	r5, #0
 589 000c 1D70     		strb	r5, [r3]
 184:..\source/utils.c ****     *upper_index = 0;
 590              		.loc 1 184 0
 591 000e 3D70     		strb	r5, [r7]
 185:..\source/utils.c **** 
 186:..\source/utils.c ****     while (first <= last) {
 592              		.loc 1 186 0
 593 0010 19E0     		b	.L39
 594              	.LVL73:
 595              	.L44:
 187:..\source/utils.c ****         if (data_points[middle] < search)
 596              		.loc 1 187 0
 597 0012 51F82460 		ldr	r6, [r1, r4, lsl #2]
 598 0016 8642     		cmp	r6, r0
 599 0018 03DA     		bge	.L40
 188:..\source/utils.c ****         {
 189:..\source/utils.c ****             first = middle + 1;
 600              		.loc 1 189 0
 601 001a 651C     		adds	r5, r4, #1
 602              	.LVL74:
 603 001c EDB2     		uxtb	r5, r5
 604              	.LVL75:
 190:..\source/utils.c ****             *lower_index = middle;
 605              		.loc 1 190 0
 606 001e 1C70     		strb	r4, [r3]
 607 0020 0CE0     		b	.L41
 608              	.L40:
 191:..\source/utils.c ****         }
 192:..\source/utils.c ****         else if (data_points[middle] == search) 
 609              		.loc 1 192 0
 610 0022 8642     		cmp	r6, r0
 611 0024 02D1     		bne	.L42
 193:..\source/utils.c ****         {
 194:..\source/utils.c ****             *lower_index = middle;
 612              		.loc 1 194 0
 613 0026 1C70     		strb	r4, [r3]
 195:..\source/utils.c ****             *upper_index = middle;
 614              		.loc 1 195 0
 615 0028 3C70     		strb	r4, [r7]
ARM GAS  C:\Users\tslator\AppData\Local\Temp\ccaiGs8S.s 			page 16


 196:..\source/utils.c ****             break;
 616              		.loc 1 196 0
 617 002a 0EE0     		b	.L38
 618              	.L42:
 197:..\source/utils.c ****         }
 198:..\source/utils.c ****         else if (data_points[middle] > search)
 619              		.loc 1 198 0
 620 002c 8642     		cmp	r6, r0
 621 002e 05DD     		ble	.L41
 199:..\source/utils.c ****         {            
 200:..\source/utils.c ****             *upper_index = middle;
 622              		.loc 1 200 0
 623 0030 3C70     		strb	r4, [r7]
 624              	.LVL76:
 201:..\source/utils.c ****             last = middle;
 202:..\source/utils.c ****             
 203:..\source/utils.c ****             if (*upper_index - *lower_index == 1)
 625              		.loc 1 203 0
 626 0032 1A78     		ldrb	r2, [r3]	@ zero_extendqisi2
 627 0034 A21A     		subs	r2, r4, r2
 628 0036 012A     		cmp	r2, #1
 629 0038 07D0     		beq	.L38
 630              	.LVL77:
 201:..\source/utils.c ****             last = middle;
 631              		.loc 1 201 0
 632 003a 2246     		mov	r2, r4
 633              	.LVL78:
 634              	.L41:
 204:..\source/utils.c ****             {
 205:..\source/utils.c ****                 break;
 206:..\source/utils.c ****             }
 207:..\source/utils.c ****         }
 208:..\source/utils.c ****         else
 209:..\source/utils.c ****         {
 210:..\source/utils.c ****             // There are no other possibilities :-)
 211:..\source/utils.c ****         }
 212:..\source/utils.c ****  
 213:..\source/utils.c ****         middle = (first + last)/2;
 635              		.loc 1 213 0
 636 003c AC18     		adds	r4, r5, r2
 637              	.LVL79:
 638 003e 04EBD474 		add	r4, r4, r4, lsr #31
 639 0042 C4F34704 		ubfx	r4, r4, #1, #8
 640              	.LVL80:
 641              	.L39:
 186:..\source/utils.c ****         if (data_points[middle] < search)
 642              		.loc 1 186 0
 643 0046 9542     		cmp	r5, r2
 644 0048 E3D9     		bls	.L44
 645              	.LVL81:
 646              	.L38:
 214:..\source/utils.c ****    }
 215:..\source/utils.c **** }
 647              		.loc 1 215 0
 648 004a F0BC     		pop	{r4, r5, r6, r7}
 649              		.cfi_restore 7
 650              		.cfi_restore 6
ARM GAS  C:\Users\tslator\AppData\Local\Temp\ccaiGs8S.s 			page 17


 651              		.cfi_restore 5
 652              		.cfi_restore 4
 653              		.cfi_def_cfa_offset 0
 654              	.LVL82:
 655 004c 7047     		bx	lr
 656              		.cfi_endproc
 657              	.LFE76:
 658              		.size	BinaryRangeSearch, .-BinaryRangeSearch
 659              		.global	__aeabi_dsub
 660              		.global	__aeabi_ddiv
 661              		.global	__aeabi_d2f
 662              		.global	__aeabi_dadd
 663 004e 00BF     		.section	.text.UniToDiff,"ax",%progbits
 664              		.align	2
 665              		.global	UniToDiff
 666              		.thumb
 667              		.thumb_func
 668              		.type	UniToDiff, %function
 669              	UniToDiff:
 670              	.LFB77:
 216:..\source/utils.c **** 
 217:..\source/utils.c **** void UniToDiff(float linear, float angular, float *left, float *right)
 218:..\source/utils.c **** /*
 219:..\source/utils.c ****     Vr = (2*V + W*L)/(2*R)
 220:..\source/utils.c ****     Vl = (2*V + W*L)/(2*R)
 221:..\source/utils.c ****     where 
 222:..\source/utils.c ****         Vr - the velocity of the right wheel
 223:..\source/utils.c ****         Vl - the velocity of the left wheel
 224:..\source/utils.c ****         V - the linear velocity
 225:..\source/utils.c ****         W - the angular velocity
 226:..\source/utils.c ****         L - the separation of the left and right wheels
 227:..\source/utils.c ****         R - the radius of the wheel
 228:..\source/utils.c **** */
 229:..\source/utils.c **** {
 671              		.loc 1 229 0
 672              		.cfi_startproc
 673              		@ args = 0, pretend = 0, frame = 0
 674              		@ frame_needed = 0, uses_anonymous_args = 0
 675              	.LVL83:
 676 0000 2DE9F843 		push	{r3, r4, r5, r6, r7, r8, r9, lr}
 677              		.cfi_def_cfa_offset 32
 678              		.cfi_offset 3, -32
 679              		.cfi_offset 4, -28
 680              		.cfi_offset 5, -24
 681              		.cfi_offset 6, -20
 682              		.cfi_offset 7, -16
 683              		.cfi_offset 8, -12
 684              		.cfi_offset 9, -8
 685              		.cfi_offset 14, -4
 686 0004 0C46     		mov	r4, r1
 687 0006 9146     		mov	r9, r2
 688 0008 9846     		mov	r8, r3
 230:..\source/utils.c ****     /*
 231:..\source/utils.c ****     *left_cmd_velocity = linear - (angular * TRACK_WIDTH)/2;
 232:..\source/utils.c ****     *right_cmd_velocity = linear + (angular * TRACK_WIDTH)/2;
 233:..\source/utils.c ****     */
 234:..\source/utils.c ****     *left = (2*linear - angular*TRACK_WIDTH)/WHEEL_DIAMETER;
ARM GAS  C:\Users\tslator\AppData\Local\Temp\ccaiGs8S.s 			page 18


 689              		.loc 1 234 0
 690 000a 0146     		mov	r1, r0
 691              	.LVL84:
 692 000c FFF7FEFF 		bl	__aeabi_fadd
 693              	.LVL85:
 694 0010 FFF7FEFF 		bl	__aeabi_f2d
 695              	.LVL86:
 696 0014 0646     		mov	r6, r0
 697 0016 0F46     		mov	r7, r1
 698 0018 2046     		mov	r0, r4
 699 001a FFF7FEFF 		bl	__aeabi_f2d
 700              	.LVL87:
 701 001e 14A3     		adr	r3, .L48
 702 0020 D3E90023 		ldrd	r2, [r3]
 703 0024 FFF7FEFF 		bl	__aeabi_dmul
 704              	.LVL88:
 705 0028 0446     		mov	r4, r0
 706              	.LVL89:
 707 002a 0D46     		mov	r5, r1
 708 002c 3046     		mov	r0, r6
 709 002e 3946     		mov	r1, r7
 710 0030 2246     		mov	r2, r4
 711 0032 2B46     		mov	r3, r5
 712 0034 FFF7FEFF 		bl	__aeabi_dsub
 713              	.LVL90:
 714 0038 0FA3     		adr	r3, .L48+8
 715 003a D3E90023 		ldrd	r2, [r3]
 716 003e FFF7FEFF 		bl	__aeabi_ddiv
 717              	.LVL91:
 718 0042 FFF7FEFF 		bl	__aeabi_d2f
 719              	.LVL92:
 720 0046 C9F80000 		str	r0, [r9]	@ float
 235:..\source/utils.c ****     *right = (2*linear + angular*TRACK_WIDTH)/WHEEL_DIAMETER;
 721              		.loc 1 235 0
 722 004a 3046     		mov	r0, r6
 723 004c 3946     		mov	r1, r7
 724 004e 2246     		mov	r2, r4
 725 0050 2B46     		mov	r3, r5
 726 0052 FFF7FEFF 		bl	__aeabi_dadd
 727              	.LVL93:
 728 0056 08A3     		adr	r3, .L48+8
 729 0058 D3E90023 		ldrd	r2, [r3]
 730 005c FFF7FEFF 		bl	__aeabi_ddiv
 731              	.LVL94:
 732 0060 FFF7FEFF 		bl	__aeabi_d2f
 733              	.LVL95:
 734 0064 C8F80000 		str	r0, [r8]	@ float
 735 0068 BDE8F883 		pop	{r3, r4, r5, r6, r7, r8, r9, pc}
 736              	.LVL96:
 737              	.L49:
 738 006c AFF30080 		.align	3
 739              	.L48:
 740 0070 986E1283 		.word	-2095944040
 741 0074 C0CAD93F 		.word	1071237824
 742 0078 FD87F4DB 		.word	-604731395
 743 007c D781C33F 		.word	1069777367
 744              		.cfi_endproc
ARM GAS  C:\Users\tslator\AppData\Local\Temp\ccaiGs8S.s 			page 19


 745              	.LFE77:
 746              		.size	UniToDiff, .-UniToDiff
 747              		.section	.text.DiffToUni,"ax",%progbits
 748              		.align	2
 749              		.global	DiffToUni
 750              		.thumb
 751              		.thumb_func
 752              		.type	DiffToUni, %function
 753              	DiffToUni:
 754              	.LFB78:
 236:..\source/utils.c **** }
 237:..\source/utils.c **** 
 238:..\source/utils.c **** void DiffToUni(float left, float right, float *linear, float *angular)
 239:..\source/utils.c **** /*
 240:..\source/utils.c ****     V = R/2 * (Vr + Vl)
 241:..\source/utils.c ****     W = R/L * (Vr - Vl)
 242:..\source/utils.c ****     where
 243:..\source/utils.c ****         V - the linear velocity
 244:..\source/utils.c ****         W - the angular velocity
 245:..\source/utils.c ****         L - the separation of the left and right wheels
 246:..\source/utils.c ****         R - the radius of the wheel
 247:..\source/utils.c ****         Vr - the velocity of the right wheel
 248:..\source/utils.c ****         Vl - the velocity of the left wheel
 249:..\source/utils.c **** */
 250:..\source/utils.c **** {
 755              		.loc 1 250 0
 756              		.cfi_startproc
 757              		@ args = 0, pretend = 0, frame = 0
 758              		@ frame_needed = 0, uses_anonymous_args = 0
 759              	.LVL97:
 760 0000 F8B5     		push	{r3, r4, r5, r6, r7, lr}
 761              		.cfi_def_cfa_offset 24
 762              		.cfi_offset 3, -24
 763              		.cfi_offset 4, -20
 764              		.cfi_offset 5, -16
 765              		.cfi_offset 6, -12
 766              		.cfi_offset 7, -8
 767              		.cfi_offset 14, -4
 768 0002 0446     		mov	r4, r0
 769 0004 0D46     		mov	r5, r1
 770 0006 1746     		mov	r7, r2
 771 0008 1E46     		mov	r6, r3
 251:..\source/utils.c ****     *linear = WHEEL_RADIUS * (right + left) / 2;
 772              		.loc 1 251 0
 773 000a 0846     		mov	r0, r1
 774              	.LVL98:
 775 000c 2146     		mov	r1, r4
 776              	.LVL99:
 777 000e FFF7FEFF 		bl	__aeabi_fadd
 778              	.LVL100:
 779 0012 FFF7FEFF 		bl	__aeabi_f2d
 780              	.LVL101:
 781 0016 10A3     		adr	r3, .L52
 782 0018 D3E90023 		ldrd	r2, [r3]
 783 001c FFF7FEFF 		bl	__aeabi_dmul
 784              	.LVL102:
 785 0020 0022     		movs	r2, #0
ARM GAS  C:\Users\tslator\AppData\Local\Temp\ccaiGs8S.s 			page 20


 786 0022 114B     		ldr	r3, .L52+16
 787 0024 FFF7FEFF 		bl	__aeabi_dmul
 788              	.LVL103:
 789 0028 FFF7FEFF 		bl	__aeabi_d2f
 790              	.LVL104:
 791 002c 3860     		str	r0, [r7]	@ float
 252:..\source/utils.c ****     *angular = WHEEL_RADIUS * (right - left) / TRACK_WIDTH;
 792              		.loc 1 252 0
 793 002e 2846     		mov	r0, r5
 794 0030 2146     		mov	r1, r4
 795 0032 FFF7FEFF 		bl	__aeabi_fsub
 796              	.LVL105:
 797 0036 FFF7FEFF 		bl	__aeabi_f2d
 798              	.LVL106:
 799 003a 07A3     		adr	r3, .L52
 800 003c D3E90023 		ldrd	r2, [r3]
 801 0040 FFF7FEFF 		bl	__aeabi_dmul
 802              	.LVL107:
 803 0044 06A3     		adr	r3, .L52+8
 804 0046 D3E90023 		ldrd	r2, [r3]
 805 004a FFF7FEFF 		bl	__aeabi_ddiv
 806              	.LVL108:
 807 004e FFF7FEFF 		bl	__aeabi_d2f
 808              	.LVL109:
 809 0052 3060     		str	r0, [r6]	@ float
 810 0054 F8BD     		pop	{r3, r4, r5, r6, r7, pc}
 811              	.LVL110:
 812              	.L53:
 813 0056 00BF     		.align	3
 814              	.L52:
 815 0058 FD87F4DB 		.word	-604731395
 816 005c D781B33F 		.word	1068728791
 817 0060 986E1283 		.word	-2095944040
 818 0064 C0CAD93F 		.word	1071237824
 819 0068 0000E03F 		.word	1071644672
 820              		.cfi_endproc
 821              	.LFE78:
 822              		.size	DiffToUni, .-DiffToUni
 823 006c AFF30080 		.section	.text.Interpolate,"ax",%progbits
 824              		.align	2
 825              		.global	Interpolate
 826              		.thumb
 827              		.thumb_func
 828              		.type	Interpolate, %function
 829              	Interpolate:
 830              	.LFB79:
 253:..\source/utils.c ****     
 254:..\source/utils.c **** }
 255:..\source/utils.c **** 
 256:..\source/utils.c **** int16 Interpolate(int16 x, int16 x1, int16 x2, uint16 y1, uint16 y2)
 257:..\source/utils.c **** {
 831              		.loc 1 257 0
 832              		.cfi_startproc
 833              		@ args = 4, pretend = 0, frame = 0
 834              		@ frame_needed = 0, uses_anonymous_args = 0
 835              		@ link register save eliminated.
 836              	.LVL111:
ARM GAS  C:\Users\tslator\AppData\Local\Temp\ccaiGs8S.s 			page 21


 837 0000 30B4     		push	{r4, r5}
 838              		.cfi_def_cfa_offset 8
 839              		.cfi_offset 4, -8
 840              		.cfi_offset 5, -4
 841 0002 BDF80840 		ldrh	r4, [sp, #8]
 258:..\source/utils.c ****     /* Y = ( ( X - X1 )( Y2 - Y1) / ( X2 - X1) ) + Y1 */
 259:..\source/utils.c **** 
 260:..\source/utils.c ****     /* We are not guaranteed to not have duplicates in the array.
 261:..\source/utils.c ****        Handle the cases where the values may be equal so we don't divide by zero and so we return a
 262:..\source/utils.c ****      */
 263:..\source/utils.c ****     if (x1 == x2)
 842              		.loc 1 263 0
 843 0006 9142     		cmp	r1, r2
 844 0008 0AD1     		bne	.L55
 264:..\source/utils.c ****     {
 265:..\source/utils.c ****         if (y2 == y1)
 845              		.loc 1 265 0
 846 000a 9C42     		cmp	r4, r3
 847 000c 01D1     		bne	.L56
 266:..\source/utils.c ****         {
 267:..\source/utils.c ****             return y1;
 848              		.loc 1 267 0
 849 000e 98B2     		uxth	r0, r3
 850              	.LVL112:
 851 0010 11E0     		b	.L57
 852              	.LVL113:
 853              	.L56:
 268:..\source/utils.c ****         }
 269:..\source/utils.c ****         else
 270:..\source/utils.c ****         {
 271:..\source/utils.c ****             return (y2 - y1)/2 + y1;
 854              		.loc 1 271 0
 855 0012 E41A     		subs	r4, r4, r3
 856 0014 04EBD474 		add	r4, r4, r4, lsr #31
 857 0018 03EB6400 		add	r0, r3, r4, asr #1
 858              	.LVL114:
 859 001c 80B2     		uxth	r0, r0
 860 001e 0AE0     		b	.L57
 861              	.LVL115:
 862              	.L55:
 272:..\source/utils.c ****         }
 273:..\source/utils.c ****     }
 274:..\source/utils.c ****     
 275:..\source/utils.c ****     return ((x - x1)*((int16) y2 - (int16) y1))/(x2 - x1) + (int16) y1;
 863              		.loc 1 275 0
 864 0020 401A     		subs	r0, r0, r1
 865              	.LVL116:
 866 0022 25B2     		sxth	r5, r4
 867 0024 1CB2     		sxth	r4, r3
 868 0026 2C1B     		subs	r4, r5, r4
 869 0028 04FB00F4 		mul	r4, r4, r0
 870 002c 521A     		subs	r2, r2, r1
 871              	.LVL117:
 872 002e 94FBF2F2 		sdiv	r2, r4, r2
 873 0032 9818     		adds	r0, r3, r2
 874 0034 80B2     		uxth	r0, r0
 875              	.L57:
ARM GAS  C:\Users\tslator\AppData\Local\Temp\ccaiGs8S.s 			page 22


 276:..\source/utils.c **** }
 876              		.loc 1 276 0
 877 0036 00B2     		sxth	r0, r0
 878 0038 30BC     		pop	{r4, r5}
 879              		.cfi_restore 5
 880              		.cfi_restore 4
 881              		.cfi_def_cfa_offset 0
 882              	.LVL118:
 883 003a 7047     		bx	lr
 884              		.cfi_endproc
 885              	.LFE79:
 886              		.size	Interpolate, .-Interpolate
 887              		.text
 888              	.Letext0:
 889              		.file 2 "c:\\program files (x86)\\cypress\\psoc creator\\3.3\\psoc creator\\import\\gnu\\arm\\4.9.
 890              		.file 3 "c:\\program files (x86)\\cypress\\psoc creator\\3.3\\psoc creator\\import\\gnu\\arm\\4.9.
 891              		.file 4 "c:\\program files (x86)\\cypress\\psoc creator\\3.3\\psoc creator\\import\\gnu\\arm\\4.9.
 892              		.file 5 "Generated_Source\\PSoC5/cytypes.h"
 893              		.file 6 "..\\source\\utils.h"
 894              		.file 7 "Generated_Source\\PSoC5/core_cm3.h"
 895              		.file 8 "c:\\program files (x86)\\cypress\\psoc creator\\3.3\\psoc creator\\import\\gnu\\arm\\4.9.
 896              		.file 9 "c:\\program files (x86)\\cypress\\psoc creator\\3.3\\psoc creator\\import\\gnu\\arm\\4.9.
 897              		.file 10 "c:\\program files (x86)\\cypress\\psoc creator\\3.3\\psoc creator\\import\\gnu\\arm\\4.9