ARM GAS  C:\Users\Tim\AppData\Local\Temp\ccT43KiB.s 			page 1


   1              		.syntax unified
   2              		.cpu cortex-m3
   3              		.fpu softvfp
   4              		.eabi_attribute 20, 1
   5              		.eabi_attribute 21, 1
   6              		.eabi_attribute 23, 3
   7              		.eabi_attribute 24, 1
   8              		.eabi_attribute 25, 1
   9              		.eabi_attribute 26, 1
  10              		.eabi_attribute 30, 1
  11              		.eabi_attribute 34, 1
  12              		.eabi_attribute 18, 4
  13              		.thumb
  14              		.file	"EZI2C_Slave.c"
  15              		.text
  16              	.Ltext0:
  17              		.cfi_sections	.debug_frame
  18              		.section	.text.EZI2C_Slave_Init,"ax",%progbits
  19              		.align	2
  20              		.global	EZI2C_Slave_Init
  21              		.thumb
  22              		.thumb_func
  23              		.type	EZI2C_Slave_Init, %function
  24              	EZI2C_Slave_Init:
  25              	.LFB0:
  26              		.file 1 ".\\Generated_Source\\PSoC5\\EZI2C_Slave.c"
   1:.\Generated_Source\PSoC5/EZI2C_Slave.c **** /*******************************************************************************
   2:.\Generated_Source\PSoC5/EZI2C_Slave.c **** * File Name: EZI2C_Slave.c
   3:.\Generated_Source\PSoC5/EZI2C_Slave.c **** * Version 2.0
   4:.\Generated_Source\PSoC5/EZI2C_Slave.c **** *
   5:.\Generated_Source\PSoC5/EZI2C_Slave.c **** * Description:
   6:.\Generated_Source\PSoC5/EZI2C_Slave.c **** *  This file contains the setup, control and status commands for the EZI2C
   7:.\Generated_Source\PSoC5/EZI2C_Slave.c **** *  component. The actual protocol and operation code resides in the interrupt
   8:.\Generated_Source\PSoC5/EZI2C_Slave.c **** *  service routine file.
   9:.\Generated_Source\PSoC5/EZI2C_Slave.c **** *
  10:.\Generated_Source\PSoC5/EZI2C_Slave.c **** ********************************************************************************
  11:.\Generated_Source\PSoC5/EZI2C_Slave.c **** * Copyright 2008-2015, Cypress Semiconductor Corporation.  All rights reserved.
  12:.\Generated_Source\PSoC5/EZI2C_Slave.c **** * You may use this file only in accordance with the license, terms, conditions,
  13:.\Generated_Source\PSoC5/EZI2C_Slave.c **** * disclaimers, and limitations in the end user license agreement accompanying
  14:.\Generated_Source\PSoC5/EZI2C_Slave.c **** * the software package with which this file was provided.
  15:.\Generated_Source\PSoC5/EZI2C_Slave.c **** *******************************************************************************/
  16:.\Generated_Source\PSoC5/EZI2C_Slave.c **** 
  17:.\Generated_Source\PSoC5/EZI2C_Slave.c **** #include "EZI2C_Slave_PVT.h"
  18:.\Generated_Source\PSoC5/EZI2C_Slave.c **** 
  19:.\Generated_Source\PSoC5/EZI2C_Slave.c **** /**********************************
  20:.\Generated_Source\PSoC5/EZI2C_Slave.c **** *      System variables
  21:.\Generated_Source\PSoC5/EZI2C_Slave.c **** **********************************/
  22:.\Generated_Source\PSoC5/EZI2C_Slave.c **** 
  23:.\Generated_Source\PSoC5/EZI2C_Slave.c **** uint8 EZI2C_Slave_initVar = 0u; /* Defines if component was initialized */
  24:.\Generated_Source\PSoC5/EZI2C_Slave.c **** 
  25:.\Generated_Source\PSoC5/EZI2C_Slave.c **** /* Status and state variables */
  26:.\Generated_Source\PSoC5/EZI2C_Slave.c **** volatile uint8 EZI2C_Slave_curStatus; /* Current status of the component */
  27:.\Generated_Source\PSoC5/EZI2C_Slave.c **** volatile uint8 EZI2C_Slave_curState;  /* Current state of state machine */
  28:.\Generated_Source\PSoC5/EZI2C_Slave.c **** 
  29:.\Generated_Source\PSoC5/EZI2C_Slave.c **** /* Primary slave address variables */
  30:.\Generated_Source\PSoC5/EZI2C_Slave.c **** volatile uint8* EZI2C_Slave_dataPtrS1; /* Pointer to data buffer 1 */
  31:.\Generated_Source\PSoC5/EZI2C_Slave.c **** volatile uint16 EZI2C_Slave_bufSizeS1; /* Size of buffer 1 in bytes */
ARM GAS  C:\Users\Tim\AppData\Local\Temp\ccT43KiB.s 			page 2


  32:.\Generated_Source\PSoC5/EZI2C_Slave.c **** volatile uint16 EZI2C_Slave_wrProtectS1; /* Start index of write protected area in buffer 1 */
  33:.\Generated_Source\PSoC5/EZI2C_Slave.c **** volatile uint8  EZI2C_Slave_rwOffsetS1; /* Current offset within buffer 1 */
  34:.\Generated_Source\PSoC5/EZI2C_Slave.c **** volatile uint8  EZI2C_Slave_rwIndexS1;  /* Current index within buffer 1 */
  35:.\Generated_Source\PSoC5/EZI2C_Slave.c **** 
  36:.\Generated_Source\PSoC5/EZI2C_Slave.c **** /* Secondary slave address variables */
  37:.\Generated_Source\PSoC5/EZI2C_Slave.c **** #if(EZI2C_Slave_ADDRESSES == EZI2C_Slave_TWO_ADDRESSES)
  38:.\Generated_Source\PSoC5/EZI2C_Slave.c ****     volatile uint8  EZI2C_Slave_addrS1; /* Primary slave address: software comparison */
  39:.\Generated_Source\PSoC5/EZI2C_Slave.c ****     volatile uint8  EZI2C_Slave_addrS2; /* Secondary slave address: software comparison */
  40:.\Generated_Source\PSoC5/EZI2C_Slave.c ****     volatile uint8* EZI2C_Slave_dataPtrS2; /* Pointer to data buffer 1 */
  41:.\Generated_Source\PSoC5/EZI2C_Slave.c ****     volatile uint16 EZI2C_Slave_bufSizeS2; /* Size of buffer 2 in bytes */
  42:.\Generated_Source\PSoC5/EZI2C_Slave.c ****     volatile uint16 EZI2C_Slave_wrProtectS2; /* Start index of write protected area in buffer 2 */
  43:.\Generated_Source\PSoC5/EZI2C_Slave.c ****     volatile uint8 EZI2C_Slave_rwOffsetS2; /* Current offset within buffer 2 */
  44:.\Generated_Source\PSoC5/EZI2C_Slave.c ****     volatile uint8 EZI2C_Slave_rwIndexS2;  /* Current index within buffer 2 */
  45:.\Generated_Source\PSoC5/EZI2C_Slave.c **** #endif  /* (EZI2C_Slave_ADDRESSES == EZI2C_Slave_TWO_ADDRESSES) */
  46:.\Generated_Source\PSoC5/EZI2C_Slave.c **** 
  47:.\Generated_Source\PSoC5/EZI2C_Slave.c **** 
  48:.\Generated_Source\PSoC5/EZI2C_Slave.c **** /*******************************************************************************
  49:.\Generated_Source\PSoC5/EZI2C_Slave.c **** * Function Name: EZI2C_Slave_Init
  50:.\Generated_Source\PSoC5/EZI2C_Slave.c **** ********************************************************************************
  51:.\Generated_Source\PSoC5/EZI2C_Slave.c **** *
  52:.\Generated_Source\PSoC5/EZI2C_Slave.c **** * Summary:
  53:.\Generated_Source\PSoC5/EZI2C_Slave.c **** *  Initializes or restores the component according to the Configure dialog
  54:.\Generated_Source\PSoC5/EZI2C_Slave.c **** *  settings. It is not necessary to call EZI2C_Init() because the EZI2C_Start()
  55:.\Generated_Source\PSoC5/EZI2C_Slave.c **** *  API calls this function, which is the preferred method to begin component
  56:.\Generated_Source\PSoC5/EZI2C_Slave.c **** *  operation.
  57:.\Generated_Source\PSoC5/EZI2C_Slave.c **** *
  58:.\Generated_Source\PSoC5/EZI2C_Slave.c **** * Parameters:
  59:.\Generated_Source\PSoC5/EZI2C_Slave.c **** *  None.
  60:.\Generated_Source\PSoC5/EZI2C_Slave.c **** *
  61:.\Generated_Source\PSoC5/EZI2C_Slave.c **** * Return:
  62:.\Generated_Source\PSoC5/EZI2C_Slave.c **** *  None.
  63:.\Generated_Source\PSoC5/EZI2C_Slave.c **** *
  64:.\Generated_Source\PSoC5/EZI2C_Slave.c **** * Global variables:
  65:.\Generated_Source\PSoC5/EZI2C_Slave.c **** *  EZI2C_Slave_initVar - It is used to indicate the initial configuration
  66:.\Generated_Source\PSoC5/EZI2C_Slave.c **** *  of this component.  The variable is initialized to zero and set to 1
  67:.\Generated_Source\PSoC5/EZI2C_Slave.c **** *  the first time EZI2C_Slave_Start() is called. This allows component  !
  68:.\Generated_Source\PSoC5/EZI2C_Slave.c **** *  initialization without re-initialization in all subsequent calls
  69:.\Generated_Source\PSoC5/EZI2C_Slave.c **** *  to the EZI2C_Slave_Start() routine.
  70:.\Generated_Source\PSoC5/EZI2C_Slave.c **** *
  71:.\Generated_Source\PSoC5/EZI2C_Slave.c **** *  EZI2C_Slave_curStatus - Stores the current status of the component.
  72:.\Generated_Source\PSoC5/EZI2C_Slave.c **** *
  73:.\Generated_Source\PSoC5/EZI2C_Slave.c **** *  EZI2C_Slave_curState- Stores the current state of an I2C state machine.
  74:.\Generated_Source\PSoC5/EZI2C_Slave.c **** *
  75:.\Generated_Source\PSoC5/EZI2C_Slave.c **** *  EZI2C_Slave_rwOffsetS1 - The global variable which stores an offset for read
  76:.\Generated_Source\PSoC5/EZI2C_Slave.c **** *  and write operations, is set at each write sequence of the first slave
  77:.\Generated_Source\PSoC5/EZI2C_Slave.c **** *  address is reset if EZI2C_Slave_initVar is 0, by
  78:.\Generated_Source\PSoC5/EZI2C_Slave.c **** *  EZI2C_Slave_initVar function call.
  79:.\Generated_Source\PSoC5/EZI2C_Slave.c **** *
  80:.\Generated_Source\PSoC5/EZI2C_Slave.c **** *  EZI2C_Slave_rwIndexS1 - The global variable which stores a pointer to the
  81:.\Generated_Source\PSoC5/EZI2C_Slave.c **** *  next value to be read or written for the first slave address is reset if
  82:.\Generated_Source\PSoC5/EZI2C_Slave.c **** *  EZI2C_Slave_initVar is 0, by EZI2C_Slave_initVar function call.
  83:.\Generated_Source\PSoC5/EZI2C_Slave.c **** *
  84:.\Generated_Source\PSoC5/EZI2C_Slave.c **** * EZI2C_Slave_wrProtectS1 - The global variable which stores an offset where data
  85:.\Generated_Source\PSoC5/EZI2C_Slave.c **** *  is read only for the first slave address is reset if
  86:.\Generated_Source\PSoC5/EZI2C_Slave.c **** *  EZI2C_Slave_initVar is 0, by EZI2C_Slave_initVar function call.
  87:.\Generated_Source\PSoC5/EZI2C_Slave.c **** *
  88:.\Generated_Source\PSoC5/EZI2C_Slave.c **** *  EZI2C_Slave_rwOffsetS2 - The global variable, which stores an offset for read
ARM GAS  C:\Users\Tim\AppData\Local\Temp\ccT43KiB.s 			page 3


  89:.\Generated_Source\PSoC5/EZI2C_Slave.c **** *  and write operations, is set at each write sequence of the second slave
  90:.\Generated_Source\PSoC5/EZI2C_Slave.c **** *  device is reset if EZI2C_Slave_initVar is 0, by EZI2C_Slave_initVar
  91:.\Generated_Source\PSoC5/EZI2C_Slave.c **** *  function call.
  92:.\Generated_Source\PSoC5/EZI2C_Slave.c **** *
  93:.\Generated_Source\PSoC5/EZI2C_Slave.c **** *  EZI2C_Slave_rwIndexS2 - The global variable which stores a pointer to the
  94:.\Generated_Source\PSoC5/EZI2C_Slave.c **** *  next value to be read or written for the second slave address is reset if
  95:.\Generated_Source\PSoC5/EZI2C_Slave.c **** *  EZI2C_Slave_initVar is 0, by EZI2C_Slave_initVar function call.
  96:.\Generated_Source\PSoC5/EZI2C_Slave.c **** *
  97:.\Generated_Source\PSoC5/EZI2C_Slave.c **** * EZI2C_Slave_wrProtectS2 - The global variable which stores an offset where data
  98:.\Generated_Source\PSoC5/EZI2C_Slave.c **** *  is read only for the second slave address is reset if
  99:.\Generated_Source\PSoC5/EZI2C_Slave.c **** *  EZI2C_Slave_initVar is 0, by EZI2C_Slave_initVar function call.
 100:.\Generated_Source\PSoC5/EZI2C_Slave.c **** *
 101:.\Generated_Source\PSoC5/EZI2C_Slave.c **** * Reentrant:
 102:.\Generated_Source\PSoC5/EZI2C_Slave.c **** *  No.
 103:.\Generated_Source\PSoC5/EZI2C_Slave.c **** *
 104:.\Generated_Source\PSoC5/EZI2C_Slave.c **** *******************************************************************************/
 105:.\Generated_Source\PSoC5/EZI2C_Slave.c **** void EZI2C_Slave_Init(void) 
 106:.\Generated_Source\PSoC5/EZI2C_Slave.c **** {
  27              		.loc 1 106 0
  28              		.cfi_startproc
  29              		@ args = 0, pretend = 0, frame = 0
  30              		@ frame_needed = 0, uses_anonymous_args = 0
  31 0000 38B5     		push	{r3, r4, r5, lr}
  32              		.cfi_def_cfa_offset 16
  33              		.cfi_offset 3, -16
  34              		.cfi_offset 4, -12
  35              		.cfi_offset 5, -8
  36              		.cfi_offset 14, -4
 107:.\Generated_Source\PSoC5/EZI2C_Slave.c ****     /* Configure fixed function block */
 108:.\Generated_Source\PSoC5/EZI2C_Slave.c ****     EZI2C_Slave_CFG_REG  = EZI2C_Slave_DEFAULT_CFG;
  37              		.loc 1 108 0
  38 0002 0122     		movs	r2, #1
  39 0004 124B     		ldr	r3, .L3
  40 0006 1A70     		strb	r2, [r3]
 109:.\Generated_Source\PSoC5/EZI2C_Slave.c ****     EZI2C_Slave_XCFG_REG = EZI2C_Slave_DEFAULT_XCFG;
  41              		.loc 1 109 0
  42 0008 8122     		movs	r2, #129
  43 000a 0E3B     		subs	r3, r3, #14
  44 000c 1A70     		strb	r2, [r3]
 110:.\Generated_Source\PSoC5/EZI2C_Slave.c ****     EZI2C_Slave_ADDR_REG = EZI2C_Slave_DEFAULT_ADDR;
  45              		.loc 1 110 0
  46 000e 0822     		movs	r2, #8
  47 0010 0233     		adds	r3, r3, #2
  48 0012 1A70     		strb	r2, [r3]
 111:.\Generated_Source\PSoC5/EZI2C_Slave.c ****     EZI2C_Slave_CLKDIV1_REG = EZI2C_Slave_DEFAULT_CLKDIV1;
  49              		.loc 1 111 0
  50 0014 0F25     		movs	r5, #15
  51 0016 1133     		adds	r3, r3, #17
  52 0018 1D70     		strb	r5, [r3]
 112:.\Generated_Source\PSoC5/EZI2C_Slave.c ****     EZI2C_Slave_CLKDIV2_REG = EZI2C_Slave_DEFAULT_CLKDIV2;
  53              		.loc 1 112 0
  54 001a 0024     		movs	r4, #0
  55 001c 0133     		adds	r3, r3, #1
  56 001e 1C70     		strb	r4, [r3]
 113:.\Generated_Source\PSoC5/EZI2C_Slave.c **** 
 114:.\Generated_Source\PSoC5/EZI2C_Slave.c **** #if (EZI2C_Slave_TWO_ADDRESSES == EZI2C_Slave_ADDRESSES)
 115:.\Generated_Source\PSoC5/EZI2C_Slave.c ****     /* Set address variables */
ARM GAS  C:\Users\Tim\AppData\Local\Temp\ccT43KiB.s 			page 4


 116:.\Generated_Source\PSoC5/EZI2C_Slave.c ****     EZI2C_Slave_SetAddress1(EZI2C_Slave_DEFAULT_ADDR1);
 117:.\Generated_Source\PSoC5/EZI2C_Slave.c ****     EZI2C_Slave_SetAddress2(EZI2C_Slave_DEFAULT_ADDR2);
 118:.\Generated_Source\PSoC5/EZI2C_Slave.c **** #endif /* #if (EZI2C_Slave_TWO_ADDRESSES == EZI2C_Slave_ADDRESSES) */
 119:.\Generated_Source\PSoC5/EZI2C_Slave.c **** 
 120:.\Generated_Source\PSoC5/EZI2C_Slave.c ****     /* Configure interrupt */
 121:.\Generated_Source\PSoC5/EZI2C_Slave.c ****     CyIntDisable         (EZI2C_Slave_ISR_NUMBER);
  57              		.loc 1 121 0
  58 0020 4FF40042 		mov	r2, #32768
  59 0024 0B4B     		ldr	r3, .L3+4
  60 0026 1A60     		str	r2, [r3]
 122:.\Generated_Source\PSoC5/EZI2C_Slave.c ****     CyIntSetPriority     (EZI2C_Slave_ISR_NUMBER, EZI2C_Slave_ISR_PRIORITY);
  61              		.loc 1 122 0
  62 0028 2846     		mov	r0, r5
  63 002a 0721     		movs	r1, #7
  64 002c FFF7FEFF 		bl	CyIntSetPriority
  65              	.LVL0:
 123:.\Generated_Source\PSoC5/EZI2C_Slave.c ****     (void) CyIntSetVector(EZI2C_Slave_ISR_NUMBER, &EZI2C_Slave_ISR);
  66              		.loc 1 123 0
  67 0030 2846     		mov	r0, r5
  68 0032 0949     		ldr	r1, .L3+8
  69 0034 FFF7FEFF 		bl	CyIntSetVector
  70              	.LVL1:
 124:.\Generated_Source\PSoC5/EZI2C_Slave.c **** 
 125:.\Generated_Source\PSoC5/EZI2C_Slave.c ****      /* Reset state and status to default */
 126:.\Generated_Source\PSoC5/EZI2C_Slave.c ****     EZI2C_Slave_curState  = EZI2C_Slave_SM_IDLE;
  71              		.loc 1 126 0
  72 0038 084B     		ldr	r3, .L3+12
  73 003a 1C70     		strb	r4, [r3]
 127:.\Generated_Source\PSoC5/EZI2C_Slave.c ****     EZI2C_Slave_curStatus = 0u;
  74              		.loc 1 127 0
  75 003c 084B     		ldr	r3, .L3+16
  76 003e 1C70     		strb	r4, [r3]
 128:.\Generated_Source\PSoC5/EZI2C_Slave.c **** 
 129:.\Generated_Source\PSoC5/EZI2C_Slave.c ****     /* Reset all buffer 1 indexes (primary address) */
 130:.\Generated_Source\PSoC5/EZI2C_Slave.c ****     EZI2C_Slave_rwOffsetS1  = 0u;
  77              		.loc 1 130 0
  78 0040 084B     		ldr	r3, .L3+20
  79 0042 1C70     		strb	r4, [r3]
 131:.\Generated_Source\PSoC5/EZI2C_Slave.c ****     EZI2C_Slave_rwIndexS1   = 0u;
  80              		.loc 1 131 0
  81 0044 084B     		ldr	r3, .L3+24
  82 0046 1C70     		strb	r4, [r3]
 132:.\Generated_Source\PSoC5/EZI2C_Slave.c ****     EZI2C_Slave_wrProtectS1 = 0u;
  83              		.loc 1 132 0
  84 0048 084B     		ldr	r3, .L3+28
  85 004a 1C80     		strh	r4, [r3]	@ movhi
  86 004c 38BD     		pop	{r3, r4, r5, pc}
  87              	.L4:
  88 004e 00BF     		.align	2
  89              	.L3:
  90 0050 D6490040 		.word	1073760726
  91 0054 80E100E0 		.word	-536813184
  92 0058 00000000 		.word	EZI2C_Slave_ISR
  93 005c 00000000 		.word	EZI2C_Slave_curState
  94 0060 00000000 		.word	EZI2C_Slave_curStatus
  95 0064 00000000 		.word	EZI2C_Slave_rwOffsetS1
  96 0068 00000000 		.word	EZI2C_Slave_rwIndexS1
ARM GAS  C:\Users\Tim\AppData\Local\Temp\ccT43KiB.s 			page 5


  97 006c 00000000 		.word	EZI2C_Slave_wrProtectS1
  98              		.cfi_endproc
  99              	.LFE0:
 100              		.size	EZI2C_Slave_Init, .-EZI2C_Slave_Init
 101              		.section	.text.EZI2C_Slave_Enable,"ax",%progbits
 102              		.align	2
 103              		.global	EZI2C_Slave_Enable
 104              		.thumb
 105              		.thumb_func
 106              		.type	EZI2C_Slave_Enable, %function
 107              	EZI2C_Slave_Enable:
 108              	.LFB1:
 133:.\Generated_Source\PSoC5/EZI2C_Slave.c **** 
 134:.\Generated_Source\PSoC5/EZI2C_Slave.c **** #if (EZI2C_Slave_ADDRESSES == EZI2C_Slave_TWO_ADDRESSES)
 135:.\Generated_Source\PSoC5/EZI2C_Slave.c ****     /* Reset all buffer 2 indexes (secondary address) */
 136:.\Generated_Source\PSoC5/EZI2C_Slave.c ****     EZI2C_Slave_rwOffsetS2  = 0u;
 137:.\Generated_Source\PSoC5/EZI2C_Slave.c ****     EZI2C_Slave_rwIndexS2   = 0u;
 138:.\Generated_Source\PSoC5/EZI2C_Slave.c ****     EZI2C_Slave_wrProtectS2 = 0u;
 139:.\Generated_Source\PSoC5/EZI2C_Slave.c **** #endif  /* (EZI2C_Slave_ADDRESSES == EZI2C_Slave_TWO_ADDRESSES) */
 140:.\Generated_Source\PSoC5/EZI2C_Slave.c **** }
 141:.\Generated_Source\PSoC5/EZI2C_Slave.c **** 
 142:.\Generated_Source\PSoC5/EZI2C_Slave.c **** 
 143:.\Generated_Source\PSoC5/EZI2C_Slave.c **** /*******************************************************************************
 144:.\Generated_Source\PSoC5/EZI2C_Slave.c **** * Function Name: EZI2C_Slave_Enable
 145:.\Generated_Source\PSoC5/EZI2C_Slave.c **** ********************************************************************************
 146:.\Generated_Source\PSoC5/EZI2C_Slave.c **** *
 147:.\Generated_Source\PSoC5/EZI2C_Slave.c **** * Summary:
 148:.\Generated_Source\PSoC5/EZI2C_Slave.c **** *  Activates the hardware and begins component operation.Calls EZI2C_EnableInt()
 149:.\Generated_Source\PSoC5/EZI2C_Slave.c **** *  to enable the I2C component interrupt. It is not necessary to call
 150:.\Generated_Source\PSoC5/EZI2C_Slave.c **** *  EZI2C_Enable() because the EZI2C_Start() API calls this function, which is
 151:.\Generated_Source\PSoC5/EZI2C_Slave.c **** *  the preferred method to begin component operation.
 152:.\Generated_Source\PSoC5/EZI2C_Slave.c **** *
 153:.\Generated_Source\PSoC5/EZI2C_Slave.c **** * Parameters:
 154:.\Generated_Source\PSoC5/EZI2C_Slave.c **** *  None.
 155:.\Generated_Source\PSoC5/EZI2C_Slave.c **** *
 156:.\Generated_Source\PSoC5/EZI2C_Slave.c **** * Return:
 157:.\Generated_Source\PSoC5/EZI2C_Slave.c **** *  None.
 158:.\Generated_Source\PSoC5/EZI2C_Slave.c **** *
 159:.\Generated_Source\PSoC5/EZI2C_Slave.c **** *******************************************************************************/
 160:.\Generated_Source\PSoC5/EZI2C_Slave.c **** void EZI2C_Slave_Enable(void) 
 161:.\Generated_Source\PSoC5/EZI2C_Slave.c **** {
 109              		.loc 1 161 0
 110              		.cfi_startproc
 111              		@ args = 0, pretend = 0, frame = 0
 112              		@ frame_needed = 0, uses_anonymous_args = 0
 113 0000 08B5     		push	{r3, lr}
 114              		.cfi_def_cfa_offset 8
 115              		.cfi_offset 3, -8
 116              		.cfi_offset 14, -4
 162:.\Generated_Source\PSoC5/EZI2C_Slave.c ****     uint8 intState;
 163:.\Generated_Source\PSoC5/EZI2C_Slave.c **** 
 164:.\Generated_Source\PSoC5/EZI2C_Slave.c ****     /* Enable power to block */
 165:.\Generated_Source\PSoC5/EZI2C_Slave.c ****     intState = CyEnterCriticalSection();
 117              		.loc 1 165 0
 118 0002 FFF7FEFF 		bl	CyEnterCriticalSection
 119              	.LVL2:
 166:.\Generated_Source\PSoC5/EZI2C_Slave.c ****     EZI2C_Slave_PM_ACT_CFG_REG  |= EZI2C_Slave_ACT_PWR_EN;
ARM GAS  C:\Users\Tim\AppData\Local\Temp\ccT43KiB.s 			page 6


 120              		.loc 1 166 0
 121 0006 084A     		ldr	r2, .L7
 122 0008 1378     		ldrb	r3, [r2]	@ zero_extendqisi2
 123 000a 43F00403 		orr	r3, r3, #4
 124 000e 1370     		strb	r3, [r2]
 167:.\Generated_Source\PSoC5/EZI2C_Slave.c ****     EZI2C_Slave_PM_STBY_CFG_REG |= EZI2C_Slave_STBY_PWR_EN;
 125              		.loc 1 167 0
 126 0010 1032     		adds	r2, r2, #16
 127 0012 1378     		ldrb	r3, [r2]	@ zero_extendqisi2
 128 0014 43F00403 		orr	r3, r3, #4
 129 0018 1370     		strb	r3, [r2]
 168:.\Generated_Source\PSoC5/EZI2C_Slave.c ****     CyExitCriticalSection(intState);
 130              		.loc 1 168 0
 131 001a FFF7FEFF 		bl	CyExitCriticalSection
 132              	.LVL3:
 169:.\Generated_Source\PSoC5/EZI2C_Slave.c **** 
 170:.\Generated_Source\PSoC5/EZI2C_Slave.c ****     /* Enable interrupt to start operation */
 171:.\Generated_Source\PSoC5/EZI2C_Slave.c ****     EZI2C_Slave_EnableInt();
 133              		.loc 1 171 0
 134 001e 4FF40042 		mov	r2, #32768
 135 0022 024B     		ldr	r3, .L7+4
 136 0024 1A60     		str	r2, [r3]
 137 0026 08BD     		pop	{r3, pc}
 138              	.L8:
 139              		.align	2
 140              	.L7:
 141 0028 A5430040 		.word	1073759141
 142 002c 00E100E0 		.word	-536813312
 143              		.cfi_endproc
 144              	.LFE1:
 145              		.size	EZI2C_Slave_Enable, .-EZI2C_Slave_Enable
 146              		.section	.text.EZI2C_Slave_Start,"ax",%progbits
 147              		.align	2
 148              		.global	EZI2C_Slave_Start
 149              		.thumb
 150              		.thumb_func
 151              		.type	EZI2C_Slave_Start, %function
 152              	EZI2C_Slave_Start:
 153              	.LFB2:
 172:.\Generated_Source\PSoC5/EZI2C_Slave.c **** }
 173:.\Generated_Source\PSoC5/EZI2C_Slave.c **** 
 174:.\Generated_Source\PSoC5/EZI2C_Slave.c **** 
 175:.\Generated_Source\PSoC5/EZI2C_Slave.c **** /*******************************************************************************
 176:.\Generated_Source\PSoC5/EZI2C_Slave.c **** * Function Name: EZI2C_Slave_Start
 177:.\Generated_Source\PSoC5/EZI2C_Slave.c **** ********************************************************************************
 178:.\Generated_Source\PSoC5/EZI2C_Slave.c **** *
 179:.\Generated_Source\PSoC5/EZI2C_Slave.c **** * Summary:
 180:.\Generated_Source\PSoC5/EZI2C_Slave.c **** *  This is the preferred method to begin component operation. EZI2C_Start(),
 181:.\Generated_Source\PSoC5/EZI2C_Slave.c **** *  calls the EZI2C_Init() function, and then calls the EZI2C_Enable() function.
 182:.\Generated_Source\PSoC5/EZI2C_Slave.c **** *  It must be executed before I2C bus operation.
 183:.\Generated_Source\PSoC5/EZI2C_Slave.c **** *  This function enables the component interrupt because interrupt is required
 184:.\Generated_Source\PSoC5/EZI2C_Slave.c **** *  for most component operations.
 185:.\Generated_Source\PSoC5/EZI2C_Slave.c **** *
 186:.\Generated_Source\PSoC5/EZI2C_Slave.c **** * Parameters:
 187:.\Generated_Source\PSoC5/EZI2C_Slave.c **** *  None.
 188:.\Generated_Source\PSoC5/EZI2C_Slave.c **** *
 189:.\Generated_Source\PSoC5/EZI2C_Slave.c **** * Return:
ARM GAS  C:\Users\Tim\AppData\Local\Temp\ccT43KiB.s 			page 7


 190:.\Generated_Source\PSoC5/EZI2C_Slave.c **** *  None.
 191:.\Generated_Source\PSoC5/EZI2C_Slave.c **** *
 192:.\Generated_Source\PSoC5/EZI2C_Slave.c **** * Reentrant:
 193:.\Generated_Source\PSoC5/EZI2C_Slave.c **** *  No.
 194:.\Generated_Source\PSoC5/EZI2C_Slave.c **** *
 195:.\Generated_Source\PSoC5/EZI2C_Slave.c **** *******************************************************************************/
 196:.\Generated_Source\PSoC5/EZI2C_Slave.c **** void EZI2C_Slave_Start(void) 
 197:.\Generated_Source\PSoC5/EZI2C_Slave.c **** {
 154              		.loc 1 197 0
 155              		.cfi_startproc
 156              		@ args = 0, pretend = 0, frame = 0
 157              		@ frame_needed = 0, uses_anonymous_args = 0
 158 0000 08B5     		push	{r3, lr}
 159              		.cfi_def_cfa_offset 8
 160              		.cfi_offset 3, -8
 161              		.cfi_offset 14, -4
 198:.\Generated_Source\PSoC5/EZI2C_Slave.c ****     if (0u == EZI2C_Slave_initVar)
 162              		.loc 1 198 0
 163 0002 054B     		ldr	r3, .L12
 164 0004 1B78     		ldrb	r3, [r3]	@ zero_extendqisi2
 165 0006 23B9     		cbnz	r3, .L10
 199:.\Generated_Source\PSoC5/EZI2C_Slave.c ****     {
 200:.\Generated_Source\PSoC5/EZI2C_Slave.c ****         EZI2C_Slave_Init();
 166              		.loc 1 200 0
 167 0008 FFF7FEFF 		bl	EZI2C_Slave_Init
 168              	.LVL4:
 201:.\Generated_Source\PSoC5/EZI2C_Slave.c ****         EZI2C_Slave_initVar = 1u; /* Component initialized */
 169              		.loc 1 201 0
 170 000c 0122     		movs	r2, #1
 171 000e 024B     		ldr	r3, .L12
 172 0010 1A70     		strb	r2, [r3]
 173              	.L10:
 202:.\Generated_Source\PSoC5/EZI2C_Slave.c ****     }
 203:.\Generated_Source\PSoC5/EZI2C_Slave.c **** 
 204:.\Generated_Source\PSoC5/EZI2C_Slave.c ****     EZI2C_Slave_Enable();
 174              		.loc 1 204 0
 175 0012 FFF7FEFF 		bl	EZI2C_Slave_Enable
 176              	.LVL5:
 177 0016 08BD     		pop	{r3, pc}
 178              	.L13:
 179              		.align	2
 180              	.L12:
 181 0018 00000000 		.word	.LANCHOR0
 182              		.cfi_endproc
 183              	.LFE2:
 184              		.size	EZI2C_Slave_Start, .-EZI2C_Slave_Start
 185              		.section	.text.EZI2C_Slave_Stop,"ax",%progbits
 186              		.align	2
 187              		.global	EZI2C_Slave_Stop
 188              		.thumb
 189              		.thumb_func
 190              		.type	EZI2C_Slave_Stop, %function
 191              	EZI2C_Slave_Stop:
 192              	.LFB3:
 205:.\Generated_Source\PSoC5/EZI2C_Slave.c **** }
 206:.\Generated_Source\PSoC5/EZI2C_Slave.c **** 
 207:.\Generated_Source\PSoC5/EZI2C_Slave.c **** 
ARM GAS  C:\Users\Tim\AppData\Local\Temp\ccT43KiB.s 			page 8


 208:.\Generated_Source\PSoC5/EZI2C_Slave.c **** /*******************************************************************************
 209:.\Generated_Source\PSoC5/EZI2C_Slave.c **** * Function Name: EZI2C_Slave_Stop
 210:.\Generated_Source\PSoC5/EZI2C_Slave.c **** ********************************************************************************
 211:.\Generated_Source\PSoC5/EZI2C_Slave.c **** *
 212:.\Generated_Source\PSoC5/EZI2C_Slave.c **** * Summary:
 213:.\Generated_Source\PSoC5/EZI2C_Slave.c **** *  Disables I2C hardware and component interrupt. The I2C bus is released if it
 214:.\Generated_Source\PSoC5/EZI2C_Slave.c **** *  was locked up by the component.
 215:.\Generated_Source\PSoC5/EZI2C_Slave.c **** *
 216:.\Generated_Source\PSoC5/EZI2C_Slave.c **** * Parameters:
 217:.\Generated_Source\PSoC5/EZI2C_Slave.c **** *  None.
 218:.\Generated_Source\PSoC5/EZI2C_Slave.c **** *
 219:.\Generated_Source\PSoC5/EZI2C_Slave.c **** * Return:
 220:.\Generated_Source\PSoC5/EZI2C_Slave.c **** *  None.
 221:.\Generated_Source\PSoC5/EZI2C_Slave.c **** *
 222:.\Generated_Source\PSoC5/EZI2C_Slave.c **** *******************************************************************************/
 223:.\Generated_Source\PSoC5/EZI2C_Slave.c **** void EZI2C_Slave_Stop(void) 
 224:.\Generated_Source\PSoC5/EZI2C_Slave.c **** {
 193              		.loc 1 224 0
 194              		.cfi_startproc
 195              		@ args = 0, pretend = 0, frame = 0
 196              		@ frame_needed = 0, uses_anonymous_args = 0
 197 0000 2DE9F843 		push	{r3, r4, r5, r6, r7, r8, r9, lr}
 198              		.cfi_def_cfa_offset 32
 199              		.cfi_offset 3, -32
 200              		.cfi_offset 4, -28
 201              		.cfi_offset 5, -24
 202              		.cfi_offset 6, -20
 203              		.cfi_offset 7, -16
 204              		.cfi_offset 8, -12
 205              		.cfi_offset 9, -8
 206              		.cfi_offset 14, -4
 225:.\Generated_Source\PSoC5/EZI2C_Slave.c ****     uint8  intState;
 226:.\Generated_Source\PSoC5/EZI2C_Slave.c ****     uint16 blockResetCycles;
 227:.\Generated_Source\PSoC5/EZI2C_Slave.c **** 
 228:.\Generated_Source\PSoC5/EZI2C_Slave.c ****     EZI2C_Slave_DisableInt();
 207              		.loc 1 228 0
 208 0004 4FF40048 		mov	r8, #32768
 209 0008 214B     		ldr	r3, .L16
 210 000a C3F80080 		str	r8, [r3]
 229:.\Generated_Source\PSoC5/EZI2C_Slave.c **** 
 230:.\Generated_Source\PSoC5/EZI2C_Slave.c ****     /* Store registers effected by block disable */
 231:.\Generated_Source\PSoC5/EZI2C_Slave.c ****     EZI2C_Slave_backup.adr     = EZI2C_Slave_ADDR_REG;
 211              		.loc 1 231 0
 212 000e 214F     		ldr	r7, .L16+4
 213 0010 3B78     		ldrb	r3, [r7]	@ zero_extendqisi2
 214 0012 214C     		ldr	r4, .L16+8
 215 0014 A370     		strb	r3, [r4, #2]
 232:.\Generated_Source\PSoC5/EZI2C_Slave.c ****     EZI2C_Slave_backup.clkDiv1 = EZI2C_Slave_CLKDIV1_REG;
 216              		.loc 1 232 0
 217 0016 214E     		ldr	r6, .L16+12
 218 0018 3378     		ldrb	r3, [r6]	@ zero_extendqisi2
 219 001a 2371     		strb	r3, [r4, #4]
 233:.\Generated_Source\PSoC5/EZI2C_Slave.c ****     EZI2C_Slave_backup.clkDiv2 = EZI2C_Slave_CLKDIV2_REG;
 220              		.loc 1 233 0
 221 001c 204D     		ldr	r5, .L16+16
 222 001e 2B78     		ldrb	r3, [r5]	@ zero_extendqisi2
 223 0020 6371     		strb	r3, [r4, #5]
ARM GAS  C:\Users\Tim\AppData\Local\Temp\ccT43KiB.s 			page 9


 234:.\Generated_Source\PSoC5/EZI2C_Slave.c **** 
 235:.\Generated_Source\PSoC5/EZI2C_Slave.c ****     /* Calculate number of cycles to reset block */
 236:.\Generated_Source\PSoC5/EZI2C_Slave.c ****     blockResetCycles = ((uint16) ((uint16) EZI2C_Slave_CLKDIV2_REG << 8u) | EZI2C_Slave_CLKDIV1_REG
 224              		.loc 1 236 0
 225 0022 2878     		ldrb	r0, [r5]	@ zero_extendqisi2
 226 0024 3378     		ldrb	r3, [r6]	@ zero_extendqisi2
 227 0026 43EA0020 		orr	r0, r3, r0, lsl #8
 228 002a 0130     		adds	r0, r0, #1
 229              	.LVL6:
 237:.\Generated_Source\PSoC5/EZI2C_Slave.c **** 
 238:.\Generated_Source\PSoC5/EZI2C_Slave.c ****     /* Disable block */
 239:.\Generated_Source\PSoC5/EZI2C_Slave.c ****     EZI2C_Slave_CFG_REG &= (uint8) ~EZI2C_Slave_CFG_EN_SLAVE;
 230              		.loc 1 239 0
 231 002c DFF88490 		ldr	r9, .L16+36
 232 0030 99F80030 		ldrb	r3, [r9]	@ zero_extendqisi2
 233 0034 03F0FE03 		and	r3, r3, #254
 234 0038 89F80030 		strb	r3, [r9]
 240:.\Generated_Source\PSoC5/EZI2C_Slave.c ****     /* Wait for block reset before disable power */
 241:.\Generated_Source\PSoC5/EZI2C_Slave.c ****     CyDelayCycles((uint32) blockResetCycles);
 235              		.loc 1 241 0
 236 003c 80B2     		uxth	r0, r0
 237 003e FFF7FEFF 		bl	CyDelayCycles
 238              	.LVL7:
 242:.\Generated_Source\PSoC5/EZI2C_Slave.c **** 
 243:.\Generated_Source\PSoC5/EZI2C_Slave.c ****     /* Disable power to block */
 244:.\Generated_Source\PSoC5/EZI2C_Slave.c ****     intState = CyEnterCriticalSection();
 239              		.loc 1 244 0
 240 0042 FFF7FEFF 		bl	CyEnterCriticalSection
 241              	.LVL8:
 245:.\Generated_Source\PSoC5/EZI2C_Slave.c ****     EZI2C_Slave_PM_ACT_CFG_REG  &= (uint8) ~EZI2C_Slave_ACT_PWR_EN;
 242              		.loc 1 245 0
 243 0046 174A     		ldr	r2, .L16+20
 244 0048 1378     		ldrb	r3, [r2]	@ zero_extendqisi2
 245 004a 03F0FB03 		and	r3, r3, #251
 246 004e 1370     		strb	r3, [r2]
 246:.\Generated_Source\PSoC5/EZI2C_Slave.c ****     EZI2C_Slave_PM_STBY_CFG_REG &= (uint8) ~EZI2C_Slave_STBY_PWR_EN;
 247              		.loc 1 246 0
 248 0050 1032     		adds	r2, r2, #16
 249 0052 1378     		ldrb	r3, [r2]	@ zero_extendqisi2
 250 0054 03F0FB03 		and	r3, r3, #251
 251 0058 1370     		strb	r3, [r2]
 247:.\Generated_Source\PSoC5/EZI2C_Slave.c ****     CyExitCriticalSection(intState);
 252              		.loc 1 247 0
 253 005a FFF7FEFF 		bl	CyExitCriticalSection
 254              	.LVL9:
 248:.\Generated_Source\PSoC5/EZI2C_Slave.c **** 
 249:.\Generated_Source\PSoC5/EZI2C_Slave.c ****     /* Enable block */
 250:.\Generated_Source\PSoC5/EZI2C_Slave.c ****     EZI2C_Slave_CFG_REG |= (uint8) EZI2C_Slave_CFG_EN_SLAVE;
 255              		.loc 1 250 0
 256 005e 99F80030 		ldrb	r3, [r9]	@ zero_extendqisi2
 257 0062 43F00103 		orr	r3, r3, #1
 258 0066 89F80030 		strb	r3, [r9]
 251:.\Generated_Source\PSoC5/EZI2C_Slave.c **** 
 252:.\Generated_Source\PSoC5/EZI2C_Slave.c ****     /* Restore registers effected by block disable. Ticket ID#198004 */
 253:.\Generated_Source\PSoC5/EZI2C_Slave.c ****     EZI2C_Slave_ADDR_REG    = EZI2C_Slave_backup.adr;
 259              		.loc 1 253 0
 260 006a A378     		ldrb	r3, [r4, #2]	@ zero_extendqisi2
ARM GAS  C:\Users\Tim\AppData\Local\Temp\ccT43KiB.s 			page 10


 261 006c 3B70     		strb	r3, [r7]
 254:.\Generated_Source\PSoC5/EZI2C_Slave.c ****     EZI2C_Slave_ADDR_REG    = EZI2C_Slave_backup.adr;
 262              		.loc 1 254 0
 263 006e A378     		ldrb	r3, [r4, #2]	@ zero_extendqisi2
 264 0070 3B70     		strb	r3, [r7]
 255:.\Generated_Source\PSoC5/EZI2C_Slave.c ****     EZI2C_Slave_CLKDIV1_REG = EZI2C_Slave_backup.clkDiv1;
 265              		.loc 1 255 0
 266 0072 2379     		ldrb	r3, [r4, #4]	@ zero_extendqisi2
 267 0074 3370     		strb	r3, [r6]
 256:.\Generated_Source\PSoC5/EZI2C_Slave.c ****     EZI2C_Slave_CLKDIV2_REG = EZI2C_Slave_backup.clkDiv2;
 268              		.loc 1 256 0
 269 0076 6379     		ldrb	r3, [r4, #5]	@ zero_extendqisi2
 270 0078 2B70     		strb	r3, [r5]
 257:.\Generated_Source\PSoC5/EZI2C_Slave.c **** 
 258:.\Generated_Source\PSoC5/EZI2C_Slave.c ****     EZI2C_Slave_ClearPendingInt();
 271              		.loc 1 258 0
 272 007a 0B4B     		ldr	r3, .L16+24
 273 007c C3F80080 		str	r8, [r3]
 259:.\Generated_Source\PSoC5/EZI2C_Slave.c **** 
 260:.\Generated_Source\PSoC5/EZI2C_Slave.c ****     /* Reset state and status to default */
 261:.\Generated_Source\PSoC5/EZI2C_Slave.c ****     EZI2C_Slave_curState  = EZI2C_Slave_SM_IDLE;
 274              		.loc 1 261 0
 275 0080 0023     		movs	r3, #0
 276 0082 0A4A     		ldr	r2, .L16+28
 277 0084 1370     		strb	r3, [r2]
 262:.\Generated_Source\PSoC5/EZI2C_Slave.c ****     EZI2C_Slave_curStatus = 0u;
 278              		.loc 1 262 0
 279 0086 0A4A     		ldr	r2, .L16+32
 280 0088 1370     		strb	r3, [r2]
 281 008a BDE8F883 		pop	{r3, r4, r5, r6, r7, r8, r9, pc}
 282              	.L17:
 283 008e 00BF     		.align	2
 284              	.L16:
 285 0090 80E100E0 		.word	-536813184
 286 0094 CA490040 		.word	1073760714
 287 0098 00000000 		.word	EZI2C_Slave_backup
 288 009c DB490040 		.word	1073760731
 289 00a0 DC490040 		.word	1073760732
 290 00a4 A5430040 		.word	1073759141
 291 00a8 80E200E0 		.word	-536812928
 292 00ac 00000000 		.word	EZI2C_Slave_curState
 293 00b0 00000000 		.word	EZI2C_Slave_curStatus
 294 00b4 D6490040 		.word	1073760726
 295              		.cfi_endproc
 296              	.LFE3:
 297              		.size	EZI2C_Slave_Stop, .-EZI2C_Slave_Stop
 298              		.section	.text.EZI2C_Slave_SetAddress1,"ax",%progbits
 299              		.align	2
 300              		.global	EZI2C_Slave_SetAddress1
 301              		.thumb
 302              		.thumb_func
 303              		.type	EZI2C_Slave_SetAddress1, %function
 304              	EZI2C_Slave_SetAddress1:
 305              	.LFB4:
 263:.\Generated_Source\PSoC5/EZI2C_Slave.c **** }
 264:.\Generated_Source\PSoC5/EZI2C_Slave.c **** 
 265:.\Generated_Source\PSoC5/EZI2C_Slave.c **** 
ARM GAS  C:\Users\Tim\AppData\Local\Temp\ccT43KiB.s 			page 11


 266:.\Generated_Source\PSoC5/EZI2C_Slave.c **** /*******************************************************************************
 267:.\Generated_Source\PSoC5/EZI2C_Slave.c **** * Function Name: EZI2C_Slave_SetAddress1
 268:.\Generated_Source\PSoC5/EZI2C_Slave.c **** ********************************************************************************
 269:.\Generated_Source\PSoC5/EZI2C_Slave.c **** *
 270:.\Generated_Source\PSoC5/EZI2C_Slave.c **** * Summary:
 271:.\Generated_Source\PSoC5/EZI2C_Slave.c **** *  Sets the primary I2C slave address. This address is used by the master to
 272:.\Generated_Source\PSoC5/EZI2C_Slave.c **** *  access the primary data buffer.
 273:.\Generated_Source\PSoC5/EZI2C_Slave.c **** *
 274:.\Generated_Source\PSoC5/EZI2C_Slave.c **** * Parameters:
 275:.\Generated_Source\PSoC5/EZI2C_Slave.c **** *  address: Primary I2C slave address.
 276:.\Generated_Source\PSoC5/EZI2C_Slave.c **** *           This address is the 7-bit right-justified slave address and does not
 277:.\Generated_Source\PSoC5/EZI2C_Slave.c **** *           include the R/W bit.
 278:.\Generated_Source\PSoC5/EZI2C_Slave.c **** *           This value can be any address between 0 and 127 (0x00 to 0x7F).
 279:.\Generated_Source\PSoC5/EZI2C_Slave.c **** *
 280:.\Generated_Source\PSoC5/EZI2C_Slave.c **** * Return:
 281:.\Generated_Source\PSoC5/EZI2C_Slave.c **** *  None.
 282:.\Generated_Source\PSoC5/EZI2C_Slave.c **** *
 283:.\Generated_Source\PSoC5/EZI2C_Slave.c **** * Global variables:
 284:.\Generated_Source\PSoC5/EZI2C_Slave.c **** *  EZI2C_Slave_addrS1 - A new slave address for the first slave device is
 285:.\Generated_Source\PSoC5/EZI2C_Slave.c **** *  saved in it, if the component is configured to act as two slave devices.
 286:.\Generated_Source\PSoC5/EZI2C_Slave.c **** *
 287:.\Generated_Source\PSoC5/EZI2C_Slave.c **** * Reentrant:
 288:.\Generated_Source\PSoC5/EZI2C_Slave.c **** *  No, if two addresses are used.
 289:.\Generated_Source\PSoC5/EZI2C_Slave.c **** *
 290:.\Generated_Source\PSoC5/EZI2C_Slave.c **** *******************************************************************************/
 291:.\Generated_Source\PSoC5/EZI2C_Slave.c **** void EZI2C_Slave_SetAddress1(uint8 address) 
 292:.\Generated_Source\PSoC5/EZI2C_Slave.c **** {
 306              		.loc 1 292 0
 307              		.cfi_startproc
 308              		@ args = 0, pretend = 0, frame = 0
 309              		@ frame_needed = 0, uses_anonymous_args = 0
 310              		@ link register save eliminated.
 311              	.LVL10:
 293:.\Generated_Source\PSoC5/EZI2C_Slave.c **** #if (EZI2C_Slave_ONE_ADDRESS == EZI2C_Slave_ADDRESSES)
 294:.\Generated_Source\PSoC5/EZI2C_Slave.c ****     EZI2C_Slave_ADDR_REG = (address & EZI2C_Slave_SADDR_MASK);
 312              		.loc 1 294 0
 313 0000 00F07F00 		and	r0, r0, #127
 314              	.LVL11:
 315 0004 014B     		ldr	r3, .L19
 316 0006 1870     		strb	r0, [r3]
 317 0008 7047     		bx	lr
 318              	.L20:
 319 000a 00BF     		.align	2
 320              	.L19:
 321 000c CA490040 		.word	1073760714
 322              		.cfi_endproc
 323              	.LFE4:
 324              		.size	EZI2C_Slave_SetAddress1, .-EZI2C_Slave_SetAddress1
 325              		.section	.text.EZI2C_Slave_GetAddress1,"ax",%progbits
 326              		.align	2
 327              		.global	EZI2C_Slave_GetAddress1
 328              		.thumb
 329              		.thumb_func
 330              		.type	EZI2C_Slave_GetAddress1, %function
 331              	EZI2C_Slave_GetAddress1:
 332              	.LFB5:
 295:.\Generated_Source\PSoC5/EZI2C_Slave.c **** #else
ARM GAS  C:\Users\Tim\AppData\Local\Temp\ccT43KiB.s 			page 12


 296:.\Generated_Source\PSoC5/EZI2C_Slave.c ****     EZI2C_Slave_addrS1   = (address & EZI2C_Slave_SADDR_MASK);
 297:.\Generated_Source\PSoC5/EZI2C_Slave.c **** #endif /* (EZI2C_Slave_ONE_ADDRESS == EZI2C_Slave_ADDRESSES) */
 298:.\Generated_Source\PSoC5/EZI2C_Slave.c **** }
 299:.\Generated_Source\PSoC5/EZI2C_Slave.c **** 
 300:.\Generated_Source\PSoC5/EZI2C_Slave.c **** 
 301:.\Generated_Source\PSoC5/EZI2C_Slave.c **** /*******************************************************************************
 302:.\Generated_Source\PSoC5/EZI2C_Slave.c **** * Function Name: EZI2C_Slave_GetAddress1
 303:.\Generated_Source\PSoC5/EZI2C_Slave.c **** ********************************************************************************
 304:.\Generated_Source\PSoC5/EZI2C_Slave.c **** *
 305:.\Generated_Source\PSoC5/EZI2C_Slave.c **** * Summary:
 306:.\Generated_Source\PSoC5/EZI2C_Slave.c **** *  Returns the primary I2C slave address.
 307:.\Generated_Source\PSoC5/EZI2C_Slave.c **** *  This address is the 7-bit right-justified slave address and does not include
 308:.\Generated_Source\PSoC5/EZI2C_Slave.c **** *  the R/W bit.
 309:.\Generated_Source\PSoC5/EZI2C_Slave.c **** *
 310:.\Generated_Source\PSoC5/EZI2C_Slave.c **** * Parameters:
 311:.\Generated_Source\PSoC5/EZI2C_Slave.c **** *  None.
 312:.\Generated_Source\PSoC5/EZI2C_Slave.c **** *
 313:.\Generated_Source\PSoC5/EZI2C_Slave.c **** * Return:
 314:.\Generated_Source\PSoC5/EZI2C_Slave.c **** *  Primary I2C slave address.
 315:.\Generated_Source\PSoC5/EZI2C_Slave.c **** *
 316:.\Generated_Source\PSoC5/EZI2C_Slave.c **** * Global variables:
 317:.\Generated_Source\PSoC5/EZI2C_Slave.c **** *  EZI2C_Slave_addrS1 - If component is configured to has two slave
 318:.\Generated_Source\PSoC5/EZI2C_Slave.c **** *  addresses than the primary address is saved here, otherwise the address is written to
 319:.\Generated_Source\PSoC5/EZI2C_Slave.c **** *  the register.
 320:.\Generated_Source\PSoC5/EZI2C_Slave.c **** *
 321:.\Generated_Source\PSoC5/EZI2C_Slave.c **** * Reentrant:
 322:.\Generated_Source\PSoC5/EZI2C_Slave.c **** *  No.
 323:.\Generated_Source\PSoC5/EZI2C_Slave.c **** *
 324:.\Generated_Source\PSoC5/EZI2C_Slave.c **** *******************************************************************************/
 325:.\Generated_Source\PSoC5/EZI2C_Slave.c **** uint8 EZI2C_Slave_GetAddress1(void) 
 326:.\Generated_Source\PSoC5/EZI2C_Slave.c **** {
 333              		.loc 1 326 0
 334              		.cfi_startproc
 335              		@ args = 0, pretend = 0, frame = 0
 336              		@ frame_needed = 0, uses_anonymous_args = 0
 337              		@ link register save eliminated.
 327:.\Generated_Source\PSoC5/EZI2C_Slave.c **** #if (EZI2C_Slave_ONE_ADDRESS == EZI2C_Slave_ADDRESSES)
 328:.\Generated_Source\PSoC5/EZI2C_Slave.c ****     return (EZI2C_Slave_ADDR_REG);
 338              		.loc 1 328 0
 339 0000 014B     		ldr	r3, .L22
 340 0002 1878     		ldrb	r0, [r3]	@ zero_extendqisi2
 329:.\Generated_Source\PSoC5/EZI2C_Slave.c **** #else
 330:.\Generated_Source\PSoC5/EZI2C_Slave.c ****     return (EZI2C_Slave_addrS1);
 331:.\Generated_Source\PSoC5/EZI2C_Slave.c **** #endif /* (EZI2C_Slave_ONE_ADDRESS == EZI2C_Slave_ADDRESSES) */
 332:.\Generated_Source\PSoC5/EZI2C_Slave.c **** }
 341              		.loc 1 332 0
 342 0004 7047     		bx	lr
 343              	.L23:
 344 0006 00BF     		.align	2
 345              	.L22:
 346 0008 CA490040 		.word	1073760714
 347              		.cfi_endproc
 348              	.LFE5:
 349              		.size	EZI2C_Slave_GetAddress1, .-EZI2C_Slave_GetAddress1
 350              		.section	.text.EZI2C_Slave_GetActivity,"ax",%progbits
 351              		.align	2
 352              		.global	EZI2C_Slave_GetActivity
ARM GAS  C:\Users\Tim\AppData\Local\Temp\ccT43KiB.s 			page 13


 353              		.thumb
 354              		.thumb_func
 355              		.type	EZI2C_Slave_GetActivity, %function
 356              	EZI2C_Slave_GetActivity:
 357              	.LFB6:
 333:.\Generated_Source\PSoC5/EZI2C_Slave.c **** 
 334:.\Generated_Source\PSoC5/EZI2C_Slave.c **** 
 335:.\Generated_Source\PSoC5/EZI2C_Slave.c **** /*******************************************************************************
 336:.\Generated_Source\PSoC5/EZI2C_Slave.c **** * Function Name: EZI2C_Slave_GetActivity
 337:.\Generated_Source\PSoC5/EZI2C_Slave.c **** ********************************************************************************
 338:.\Generated_Source\PSoC5/EZI2C_Slave.c **** *
 339:.\Generated_Source\PSoC5/EZI2C_Slave.c **** * Summary:
 340:.\Generated_Source\PSoC5/EZI2C_Slave.c **** *  Returns a non-zero value if an I2C read or write cycle has occurred since
 341:.\Generated_Source\PSoC5/EZI2C_Slave.c **** *  the last time this function was called. The activity flag resets to zero at
 342:.\Generated_Source\PSoC5/EZI2C_Slave.c **** *  the end of this function call.
 343:.\Generated_Source\PSoC5/EZI2C_Slave.c **** *  The Read and Write busy flags are cleared when read, but the “BUSY” flag is
 344:.\Generated_Source\PSoC5/EZI2C_Slave.c **** *  only cleared when slave is free (i.e master finishes communication with
 345:.\Generated_Source\PSoC5/EZI2C_Slave.c **** *  slave generating Stop or repeated Start condition).
 346:.\Generated_Source\PSoC5/EZI2C_Slave.c **** *
 347:.\Generated_Source\PSoC5/EZI2C_Slave.c **** * Parameters:
 348:.\Generated_Source\PSoC5/EZI2C_Slave.c **** *  None
 349:.\Generated_Source\PSoC5/EZI2C_Slave.c **** *
 350:.\Generated_Source\PSoC5/EZI2C_Slave.c **** * Return:
 351:.\Generated_Source\PSoC5/EZI2C_Slave.c **** *  Status of I2C activity.
 352:.\Generated_Source\PSoC5/EZI2C_Slave.c **** *
 353:.\Generated_Source\PSoC5/EZI2C_Slave.c **** *   EZI2C_Slave_STATUS_READ1   Set if a Read sequence is detected for the first
 354:.\Generated_Source\PSoC5/EZI2C_Slave.c **** *                                   address. Cleared when the status is read.
 355:.\Generated_Source\PSoC5/EZI2C_Slave.c **** *
 356:.\Generated_Source\PSoC5/EZI2C_Slave.c **** *   EZI2C_Slave_STATUS_WRITE1  Set if a Write sequence is detected for the first
 357:.\Generated_Source\PSoC5/EZI2C_Slave.c **** *                                   address. Cleared when the status is  read.
 358:.\Generated_Source\PSoC5/EZI2C_Slave.c **** *
 359:.\Generated_Source\PSoC5/EZI2C_Slave.c **** *   EZI2C_Slave_STATUS_READ2   Set if a Read sequence is detected for the second
 360:.\Generated_Source\PSoC5/EZI2C_Slave.c **** *                                   address (if enabled). Cleared when the status
 361:.\Generated_Source\PSoC5/EZI2C_Slave.c **** *                                   read.
 362:.\Generated_Source\PSoC5/EZI2C_Slave.c **** *
 363:.\Generated_Source\PSoC5/EZI2C_Slave.c **** *   EZI2C_Slave_STATUS_WRITE2  Set if a Write sequence is detected for the second
 364:.\Generated_Source\PSoC5/EZI2C_Slave.c **** *                                   address (if enabled). Cleared when the status is
 365:.\Generated_Source\PSoC5/EZI2C_Slave.c **** *                                   read.
 366:.\Generated_Source\PSoC5/EZI2C_Slave.c **** *
 367:.\Generated_Source\PSoC5/EZI2C_Slave.c **** *   EZI2C_Slave_STATUS_BUSY    Set when the master starts communication with
 368:.\Generated_Source\PSoC5/EZI2C_Slave.c **** *                                   the slave (the slave is addressed with Start or
 369:.\Generated_Source\PSoC5/EZI2C_Slave.c **** *                                   repeated Start) and cleared when the master
 370:.\Generated_Source\PSoC5/EZI2C_Slave.c **** *                                   finishes communication (a Stop or repeated
 371:.\Generated_Source\PSoC5/EZI2C_Slave.c **** *                                   Start condition is generated).
 372:.\Generated_Source\PSoC5/EZI2C_Slave.c **** *
 373:.\Generated_Source\PSoC5/EZI2C_Slave.c **** *   EZI2C_Slave_STATUS_ERR     Set when the I2C hardware is detected, cleared
 374:.\Generated_Source\PSoC5/EZI2C_Slave.c **** *                                   when the status is read.
 375:.\Generated_Source\PSoC5/EZI2C_Slave.c **** *
 376:.\Generated_Source\PSoC5/EZI2C_Slave.c **** * Global variables:
 377:.\Generated_Source\PSoC5/EZI2C_Slave.c **** *  EZI2C_Slave_curStatus - The global variable which stores the current
 378:.\Generated_Source\PSoC5/EZI2C_Slave.c **** *  component status.
 379:.\Generated_Source\PSoC5/EZI2C_Slave.c **** *
 380:.\Generated_Source\PSoC5/EZI2C_Slave.c **** * Reentrant:
 381:.\Generated_Source\PSoC5/EZI2C_Slave.c **** *  No.
 382:.\Generated_Source\PSoC5/EZI2C_Slave.c **** *
 383:.\Generated_Source\PSoC5/EZI2C_Slave.c **** *******************************************************************************/
 384:.\Generated_Source\PSoC5/EZI2C_Slave.c **** uint8 EZI2C_Slave_GetActivity(void) 
ARM GAS  C:\Users\Tim\AppData\Local\Temp\ccT43KiB.s 			page 14


 385:.\Generated_Source\PSoC5/EZI2C_Slave.c **** {
 358              		.loc 1 385 0
 359              		.cfi_startproc
 360              		@ args = 0, pretend = 0, frame = 0
 361              		@ frame_needed = 0, uses_anonymous_args = 0
 362              		@ link register save eliminated.
 386:.\Generated_Source\PSoC5/EZI2C_Slave.c ****     uint8 tmpStatus;
 387:.\Generated_Source\PSoC5/EZI2C_Slave.c **** 
 388:.\Generated_Source\PSoC5/EZI2C_Slave.c ****     EZI2C_Slave_DisableInt(); /* Lock from component interrupt */
 363              		.loc 1 388 0
 364 0000 4FF40041 		mov	r1, #32768
 365 0004 054B     		ldr	r3, .L25
 366 0006 1960     		str	r1, [r3]
 389:.\Generated_Source\PSoC5/EZI2C_Slave.c **** 
 390:.\Generated_Source\PSoC5/EZI2C_Slave.c ****     tmpStatus = EZI2C_Slave_curStatus;
 367              		.loc 1 390 0
 368 0008 054A     		ldr	r2, .L25+4
 369 000a 1078     		ldrb	r0, [r2]	@ zero_extendqisi2
 370              	.LVL12:
 391:.\Generated_Source\PSoC5/EZI2C_Slave.c ****     /* Clear status bits. Do not touch busy status */
 392:.\Generated_Source\PSoC5/EZI2C_Slave.c ****     EZI2C_Slave_curStatus &= EZI2C_Slave_STATUS_BUSY;
 371              		.loc 1 392 0
 372 000c 1378     		ldrb	r3, [r2]	@ zero_extendqisi2
 373 000e 03F01003 		and	r3, r3, #16
 374 0012 DBB2     		uxtb	r3, r3
 375 0014 1370     		strb	r3, [r2]
 393:.\Generated_Source\PSoC5/EZI2C_Slave.c **** 
 394:.\Generated_Source\PSoC5/EZI2C_Slave.c ****     EZI2C_Slave_EnableInt(); /* Release lock */
 376              		.loc 1 394 0
 377 0016 034B     		ldr	r3, .L25+8
 378 0018 1960     		str	r1, [r3]
 395:.\Generated_Source\PSoC5/EZI2C_Slave.c **** 
 396:.\Generated_Source\PSoC5/EZI2C_Slave.c ****     return (tmpStatus);
 397:.\Generated_Source\PSoC5/EZI2C_Slave.c **** }
 379              		.loc 1 397 0
 380 001a 7047     		bx	lr
 381              	.L26:
 382              		.align	2
 383              	.L25:
 384 001c 80E100E0 		.word	-536813184
 385 0020 00000000 		.word	EZI2C_Slave_curStatus
 386 0024 00E100E0 		.word	-536813312
 387              		.cfi_endproc
 388              	.LFE6:
 389              		.size	EZI2C_Slave_GetActivity, .-EZI2C_Slave_GetActivity
 390              		.section	.text.EZI2C_Slave_SetBuffer1,"ax",%progbits
 391              		.align	2
 392              		.global	EZI2C_Slave_SetBuffer1
 393              		.thumb
 394              		.thumb_func
 395              		.type	EZI2C_Slave_SetBuffer1, %function
 396              	EZI2C_Slave_SetBuffer1:
 397              	.LFB7:
 398:.\Generated_Source\PSoC5/EZI2C_Slave.c **** 
 399:.\Generated_Source\PSoC5/EZI2C_Slave.c **** 
 400:.\Generated_Source\PSoC5/EZI2C_Slave.c **** /*******************************************************************************
 401:.\Generated_Source\PSoC5/EZI2C_Slave.c **** * Function Name: EZI2C_Slave_SetBuffer1
ARM GAS  C:\Users\Tim\AppData\Local\Temp\ccT43KiB.s 			page 15


 402:.\Generated_Source\PSoC5/EZI2C_Slave.c **** ********************************************************************************
 403:.\Generated_Source\PSoC5/EZI2C_Slave.c **** *
 404:.\Generated_Source\PSoC5/EZI2C_Slave.c **** * Summary:
 405:.\Generated_Source\PSoC5/EZI2C_Slave.c **** *  Sets up the data buffer to be exposed to the master on a primary slave
 406:.\Generated_Source\PSoC5/EZI2C_Slave.c **** *  address request.
 407:.\Generated_Source\PSoC5/EZI2C_Slave.c **** *
 408:.\Generated_Source\PSoC5/EZI2C_Slave.c **** * Parameters:
 409:.\Generated_Source\PSoC5/EZI2C_Slave.c **** *  bufSize:    Size of the buffer in bytes.
 410:.\Generated_Source\PSoC5/EZI2C_Slave.c **** *  rwBoundary: Number of data bytes starting from the beginning of the buffer
 411:.\Generated_Source\PSoC5/EZI2C_Slave.c **** *              with read and write access. Data bytes located at offset
 412:.\Generated_Source\PSoC5/EZI2C_Slave.c **** *              rwBoundary or greater are read only.
 413:.\Generated_Source\PSoC5/EZI2C_Slave.c **** *              This value must be less than or equal to the buffer size.
 414:.\Generated_Source\PSoC5/EZI2C_Slave.c **** *  dataPtr:    Pointer to the data buffer.
 415:.\Generated_Source\PSoC5/EZI2C_Slave.c **** *
 416:.\Generated_Source\PSoC5/EZI2C_Slave.c **** * Return:
 417:.\Generated_Source\PSoC5/EZI2C_Slave.c **** *  None.
 418:.\Generated_Source\PSoC5/EZI2C_Slave.c **** *
 419:.\Generated_Source\PSoC5/EZI2C_Slave.c **** * Global variables:
 420:.\Generated_Source\PSoC5/EZI2C_Slave.c **** *  EZI2C_Slave_dataPtrS1 - Stores the pointer to the data exposed to an I2C
 421:.\Generated_Source\PSoC5/EZI2C_Slave.c **** *  master for the first slave address, is modified with the the new pointer to    the    ?? no sens
 422:.\Generated_Source\PSoC5/EZI2C_Slave.c **** *  data passed by the function parameter.
 423:.\Generated_Source\PSoC5/EZI2C_Slave.c **** *
 424:.\Generated_Source\PSoC5/EZI2C_Slave.c **** *  EZI2C_Slave_rwOffsetS1 - Stores an offset for read and write operations, is
 425:.\Generated_Source\PSoC5/EZI2C_Slave.c **** *  modified at each write sequence of the first slave address is?? reset.   ?
 426:.\Generated_Source\PSoC5/EZI2C_Slave.c **** *
 427:.\Generated_Source\PSoC5/EZI2C_Slave.c **** *  EZI2C_Slave_rwIndexS1 - Stores the pointer to the next value to be read or
 428:.\Generated_Source\PSoC5/EZI2C_Slave.c **** *  written for the first slave address is?? set to 0.  ??
 429:.\Generated_Source\PSoC5/EZI2C_Slave.c **** *
 430:.\Generated_Source\PSoC5/EZI2C_Slave.c **** * Reentrant:
 431:.\Generated_Source\PSoC5/EZI2C_Slave.c **** *  No.
 432:.\Generated_Source\PSoC5/EZI2C_Slave.c **** *
 433:.\Generated_Source\PSoC5/EZI2C_Slave.c **** *******************************************************************************/
 434:.\Generated_Source\PSoC5/EZI2C_Slave.c **** void EZI2C_Slave_SetBuffer1(uint16 bufSize, uint16 rwBoundary, volatile uint8 * dataPtr) 
 435:.\Generated_Source\PSoC5/EZI2C_Slave.c **** {
 398              		.loc 1 435 0
 399              		.cfi_startproc
 400              		@ args = 0, pretend = 0, frame = 0
 401              		@ frame_needed = 0, uses_anonymous_args = 0
 402              		@ link register save eliminated.
 403              	.LVL13:
 404 0000 10B4     		push	{r4}
 405              		.cfi_def_cfa_offset 4
 406              		.cfi_offset 4, -4
 436:.\Generated_Source\PSoC5/EZI2C_Slave.c ****     EZI2C_Slave_DisableInt(); /* Lock from component interrupt */
 407              		.loc 1 436 0
 408 0002 4FF40044 		mov	r4, #32768
 409 0006 0B4B     		ldr	r3, .L30
 410 0008 1C60     		str	r4, [r3]
 437:.\Generated_Source\PSoC5/EZI2C_Slave.c **** 
 438:.\Generated_Source\PSoC5/EZI2C_Slave.c ****     if (NULL != dataPtr)
 411              		.loc 1 438 0
 412 000a 32B1     		cbz	r2, .L28
 413 000c 1346     		mov	r3, r2
 439:.\Generated_Source\PSoC5/EZI2C_Slave.c ****     {
 440:.\Generated_Source\PSoC5/EZI2C_Slave.c ****         /* Configure buffer 1 */
 441:.\Generated_Source\PSoC5/EZI2C_Slave.c ****         EZI2C_Slave_dataPtrS1   = dataPtr;
 414              		.loc 1 441 0
ARM GAS  C:\Users\Tim\AppData\Local\Temp\ccT43KiB.s 			page 16


 415 000e 0A4A     		ldr	r2, .L30+4
 416              	.LVL14:
 417 0010 1360     		str	r3, [r2]
 442:.\Generated_Source\PSoC5/EZI2C_Slave.c ****         EZI2C_Slave_bufSizeS1   = bufSize;
 418              		.loc 1 442 0
 419 0012 0A4B     		ldr	r3, .L30+8
 420              	.LVL15:
 421 0014 1880     		strh	r0, [r3]	@ movhi
 443:.\Generated_Source\PSoC5/EZI2C_Slave.c ****         EZI2C_Slave_wrProtectS1 = rwBoundary;
 422              		.loc 1 443 0
 423 0016 0A4B     		ldr	r3, .L30+12
 424 0018 1980     		strh	r1, [r3]	@ movhi
 425              	.LVL16:
 426              	.L28:
 444:.\Generated_Source\PSoC5/EZI2C_Slave.c ****     }
 445:.\Generated_Source\PSoC5/EZI2C_Slave.c **** 
 446:.\Generated_Source\PSoC5/EZI2C_Slave.c ****     /* Clear buffer offset and index */
 447:.\Generated_Source\PSoC5/EZI2C_Slave.c ****     EZI2C_Slave_rwOffsetS1 = 0u;
 427              		.loc 1 447 0
 428 001a 0023     		movs	r3, #0
 429 001c 094A     		ldr	r2, .L30+16
 430 001e 1370     		strb	r3, [r2]
 448:.\Generated_Source\PSoC5/EZI2C_Slave.c ****     EZI2C_Slave_rwIndexS1  = 0u;
 431              		.loc 1 448 0
 432 0020 094A     		ldr	r2, .L30+20
 433 0022 1370     		strb	r3, [r2]
 449:.\Generated_Source\PSoC5/EZI2C_Slave.c **** 
 450:.\Generated_Source\PSoC5/EZI2C_Slave.c ****     EZI2C_Slave_EnableInt(); /* Release lock */
 434              		.loc 1 450 0
 435 0024 4FF40042 		mov	r2, #32768
 436 0028 084B     		ldr	r3, .L30+24
 437 002a 1A60     		str	r2, [r3]
 451:.\Generated_Source\PSoC5/EZI2C_Slave.c **** }
 438              		.loc 1 451 0
 439 002c 5DF8044B 		ldr	r4, [sp], #4
 440              		.cfi_restore 4
 441              		.cfi_def_cfa_offset 0
 442 0030 7047     		bx	lr
 443              	.L31:
 444 0032 00BF     		.align	2
 445              	.L30:
 446 0034 80E100E0 		.word	-536813184
 447 0038 00000000 		.word	EZI2C_Slave_dataPtrS1
 448 003c 00000000 		.word	EZI2C_Slave_bufSizeS1
 449 0040 00000000 		.word	EZI2C_Slave_wrProtectS1
 450 0044 00000000 		.word	EZI2C_Slave_rwOffsetS1
 451 0048 00000000 		.word	EZI2C_Slave_rwIndexS1
 452 004c 00E100E0 		.word	-536813312
 453              		.cfi_endproc
 454              	.LFE7:
 455              		.size	EZI2C_Slave_SetBuffer1, .-EZI2C_Slave_SetBuffer1
 456              		.comm	EZI2C_Slave_rwIndexS1,1,1
 457              		.comm	EZI2C_Slave_rwOffsetS1,1,1
 458              		.comm	EZI2C_Slave_wrProtectS1,2,2
 459              		.comm	EZI2C_Slave_bufSizeS1,2,2
 460              		.comm	EZI2C_Slave_dataPtrS1,4,4
 461              		.comm	EZI2C_Slave_curState,1,1
ARM GAS  C:\Users\Tim\AppData\Local\Temp\ccT43KiB.s 			page 17


 462              		.comm	EZI2C_Slave_curStatus,1,1
 463              		.global	EZI2C_Slave_initVar
 464              		.bss
 465              		.set	.LANCHOR0,. + 0
 466              		.type	EZI2C_Slave_initVar, %object
 467              		.size	EZI2C_Slave_initVar, 1
 468              	EZI2C_Slave_initVar:
 469 0000 00       		.space	1
 470              		.text
 471              	.Letext0:
 472              		.file 2 ".\\Generated_Source\\PSoC5\\cytypes.h"
 473              		.file 3 ".\\Generated_Source\\PSoC5\\EZI2C_Slave.h"
 474              		.file 4 ".\\Generated_Source\\PSoC5\\EZI2C_Slave_PVT.h"
 475              		.file 5 ".\\Generated_Source\\PSoC5\\CyLib.h"