ARM GAS  C:\Users\Tim\AppData\Local\Temp\ccSSvVFd.s 			page 1


   1              		.syntax unified
   2              		.cpu cortex-m3
   3              		.fpu softvfp
   4              		.eabi_attribute 20, 1
   5              		.eabi_attribute 21, 1
   6              		.eabi_attribute 23, 3
   7              		.eabi_attribute 24, 1
   8              		.eabi_attribute 25, 1
   9              		.eabi_attribute 26, 1
  10              		.eabi_attribute 30, 1
  11              		.eabi_attribute 34, 1
  12              		.eabi_attribute 18, 4
  13              		.thumb
  14              		.file	"eepromtest.c"
  15              		.text
  16              	.Ltext0:
  17              		.cfi_sections	.debug_frame
  18              		.section	.text.EepromTest,"ax",%progbits
  19              		.align	2
  20              		.global	EepromTest
  21              		.thumb
  22              		.thumb_func
  23              		.type	EepromTest, %function
  24              	EepromTest:
  25              	.LFB63:
  26              		.file 1 ".\\eepromtest.c"
   1:.\eepromtest.c **** /* ========================================
   2:.\eepromtest.c ****  *
   3:.\eepromtest.c ****  * Copyright YOUR COMPANY, THE YEAR
   4:.\eepromtest.c ****  * All Rights Reserved
   5:.\eepromtest.c ****  * UNPUBLISHED, LICENSED SOFTWARE.
   6:.\eepromtest.c ****  *
   7:.\eepromtest.c ****  * CONFIDENTIAL AND PROPRIETARY INFORMATION
   8:.\eepromtest.c ****  * WHICH IS THE PROPERTY OF your company.
   9:.\eepromtest.c ****  *
  10:.\eepromtest.c ****  * ========================================
  11:.\eepromtest.c **** */
  12:.\eepromtest.c **** 
  13:.\eepromtest.c **** #include "eepromtest.h"
  14:.\eepromtest.c **** #include "../source/utils.h"
  15:.\eepromtest.c **** 
  16:.\eepromtest.c **** 
  17:.\eepromtest.c **** #include "../source/nvstore.h"
  18:.\eepromtest.c **** 
  19:.\eepromtest.c **** static uint8 large_num_bytes[39] = {0xFF, 0xEE, 0xDD, 0xCC, 0xBB,
  20:.\eepromtest.c ****                                     0xFF, 0xEE, 0xDD, 0xCC, 0xBB, 0xAA, 0x99, 0x88, 0x77, 0x66, 0x5
  21:.\eepromtest.c ****                                     0xFF, 0xEE, 0xDD, 0xCC, 0xBB, 0xAA, 0x99, 0x88, 0x77, 0x66, 0x5
  22:.\eepromtest.c ****                                     0xFF, 0xEE};
  23:.\eepromtest.c **** 
  24:.\eepromtest.c **** static uint8 byte_values[4];
  25:.\eepromtest.c **** static uint16 uint16_value;
  26:.\eepromtest.c **** static float float_value;
  27:.\eepromtest.c **** 
  28:.\eepromtest.c **** 
  29:.\eepromtest.c **** void EepromTest()
  30:.\eepromtest.c **** {
  27              		.loc 1 30 0
ARM GAS  C:\Users\Tim\AppData\Local\Temp\ccSSvVFd.s 			page 2


  28              		.cfi_startproc
  29              		@ args = 0, pretend = 0, frame = 0
  30              		@ frame_needed = 0, uses_anonymous_args = 0
  31 0000 70B5     		push	{r4, r5, r6, lr}
  32              		.cfi_def_cfa_offset 16
  33              		.cfi_offset 4, -16
  34              		.cfi_offset 5, -12
  35              		.cfi_offset 6, -8
  36              		.cfi_offset 14, -4
  31:.\eepromtest.c ****     EEPROM_Start();
  37              		.loc 1 31 0
  38 0002 FFF7FEFF 		bl	EEPROM_Start
  39              	.LVL0:
  32:.\eepromtest.c ****     
  33:.\eepromtest.c ****     /* Map a pointer to the EEPROM memory */
  34:.\eepromtest.c ****     volatile uint8 *p_eeprom = (volatile uint8 *) CYDEV_EE_BASE;
  35:.\eepromtest.c ****     
  36:.\eepromtest.c ****     //EEPROM_WriteByte(0x11, 0);
  37:.\eepromtest.c ****     //EEPROM_WriteByte(0x22, 1);
  38:.\eepromtest.c ****     //EEPROM_WriteByte(0x33, 2);
  39:.\eepromtest.c ****     //EEPROM_WriteByte(0x44, 3);
  40:.\eepromtest.c **** 
  41:.\eepromtest.c ****     uint16_value = TwoBytesToUint16((uint8 *) p_eeprom);
  40              		.loc 1 41 0
  41 0006 1B4E     		ldr	r6, .L4
  42 0008 3046     		mov	r0, r6
  43 000a FFF7FEFF 		bl	TwoBytesToUint16
  44              	.LVL1:
  45 000e 1A4C     		ldr	r4, .L4+4
  46 0010 2546     		mov	r5, r4
  47 0012 25F8040B 		strh	r0, [r5], #4	@ movhi
  42:.\eepromtest.c ****     Uint16ToTwoBytes(uint16_value, byte_values);
  48              		.loc 1 42 0
  49 0016 2946     		mov	r1, r5
  50 0018 FFF7FEFF 		bl	Uint16ToTwoBytes
  51              	.LVL2:
  43:.\eepromtest.c ****     
  44:.\eepromtest.c ****     float_value = 716.5322875976562;
  52              		.loc 1 44 0
  53 001c 1748     		ldr	r0, .L4+8
  54 001e A060     		str	r0, [r4, #8]	@ float
  45:.\eepromtest.c ****     FloatToFourBytes(float_value, byte_values);
  55              		.loc 1 45 0
  56 0020 2946     		mov	r1, r5
  57 0022 FFF7FEFF 		bl	FloatToFourBytes
  58              	.LVL3:
  46:.\eepromtest.c ****     float_value = FourBytesToFloat((uint8 *) p_eeprom);
  59              		.loc 1 46 0
  60 0026 3046     		mov	r0, r6
  61 0028 FFF7FEFF 		bl	FourBytesToFloat
  62              	.LVL4:
  63 002c A060     		str	r0, [r4, #8]	@ float
  47:.\eepromtest.c ****     
  48:.\eepromtest.c ****     uint16_value = 0;
  64              		.loc 1 48 0
  65 002e 0023     		movs	r3, #0
  66 0030 2380     		strh	r3, [r4]	@ movhi
ARM GAS  C:\Users\Tim\AppData\Local\Temp\ccSSvVFd.s 			page 3


  49:.\eepromtest.c ****     Nvstore_WriteUint16(0x5566, 4);
  67              		.loc 1 49 0
  68 0032 45F26650 		movw	r0, #21862
  69 0036 0421     		movs	r1, #4
  70 0038 FFF7FEFF 		bl	Nvstore_WriteUint16
  71              	.LVL5:
  50:.\eepromtest.c ****     uint16_value = TwoBytesToUint16((uint8 *) (p_eeprom + 4));
  72              		.loc 1 50 0
  73 003c 1048     		ldr	r0, .L4+12
  74 003e FFF7FEFF 		bl	TwoBytesToUint16
  75              	.LVL6:
  76 0042 2080     		strh	r0, [r4]	@ movhi
  51:.\eepromtest.c ****     Uint16ToTwoBytes(uint16_value, byte_values);
  77              		.loc 1 51 0
  78 0044 2946     		mov	r1, r5
  79 0046 FFF7FEFF 		bl	Uint16ToTwoBytes
  80              	.LVL7:
  52:.\eepromtest.c ****         
  53:.\eepromtest.c ****     float_value = 3.14;
  81              		.loc 1 53 0
  82 004a 0E48     		ldr	r0, .L4+16
  83 004c A060     		str	r0, [r4, #8]	@ float
  54:.\eepromtest.c ****     Nvstore_WriteFloat(float_value, 6);
  84              		.loc 1 54 0
  85 004e 0621     		movs	r1, #6
  86 0050 FFF7FEFF 		bl	Nvstore_WriteFloat
  87              	.LVL8:
  55:.\eepromtest.c ****     float_value = 0;
  88              		.loc 1 55 0
  89 0054 0023     		movs	r3, #0
  90 0056 A360     		str	r3, [r4, #8]	@ float
  56:.\eepromtest.c ****     float_value = FourBytesToFloat((uint8 *) (p_eeprom + 6));
  91              		.loc 1 56 0
  92 0058 0B48     		ldr	r0, .L4+20
  93 005a FFF7FEFF 		bl	FourBytesToFloat
  94              	.LVL9:
  95 005e A060     		str	r0, [r4, #8]	@ float
  57:.\eepromtest.c ****     FloatToFourBytes(float_value, byte_values);
  96              		.loc 1 57 0
  97 0060 2946     		mov	r1, r5
  98 0062 FFF7FEFF 		bl	FloatToFourBytes
  99              	.LVL10:
  58:.\eepromtest.c **** 
  59:.\eepromtest.c ****     Nvstore_WriteBytes(large_num_bytes, sizeof(large_num_bytes), 10);
 100              		.loc 1 59 0
 101 0066 0948     		ldr	r0, .L4+24
 102 0068 2721     		movs	r1, #39
 103 006a 0A22     		movs	r2, #10
 104 006c FFF7FEFF 		bl	Nvstore_WriteBytes
 105              	.LVL11:
 106              	.L2:
  60:.\eepromtest.c ****     
  61:.\eepromtest.c ****     for(;;)
  62:.\eepromtest.c ****     {
  63:.\eepromtest.c ****     }
 107              		.loc 1 63 0 discriminator 1
 108 0070 FEE7     		b	.L2
ARM GAS  C:\Users\Tim\AppData\Local\Temp\ccSSvVFd.s 			page 4


 109              	.L5:
 110 0072 00BF     		.align	2
 111              	.L4:
 112 0074 00800040 		.word	1073774592
 113 0078 00000000 		.word	.LANCHOR0
 114 007c 11223344 		.word	1144201745
 115 0080 04800040 		.word	1073774596
 116 0084 C3F54840 		.word	1078523331
 117 0088 06800040 		.word	1073774598
 118 008c 00000000 		.word	.LANCHOR1
 119              		.cfi_endproc
 120              	.LFE63:
 121              		.size	EepromTest, .-EepromTest
 122              		.data
 123              		.align	2
 124              		.set	.LANCHOR1,. + 0
 125              		.type	large_num_bytes, %object
 126              		.size	large_num_bytes, 39
 127              	large_num_bytes:
 128 0000 FF       		.byte	-1
 129 0001 EE       		.byte	-18
 130 0002 DD       		.byte	-35
 131 0003 CC       		.byte	-52
 132 0004 BB       		.byte	-69
 133 0005 FF       		.byte	-1
 134 0006 EE       		.byte	-18
 135 0007 DD       		.byte	-35
 136 0008 CC       		.byte	-52
 137 0009 BB       		.byte	-69
 138 000a AA       		.byte	-86
 139 000b 99       		.byte	-103
 140 000c 88       		.byte	-120
 141 000d 77       		.byte	119
 142 000e 66       		.byte	102
 143 000f 55       		.byte	85
 144 0010 44       		.byte	68
 145 0011 33       		.byte	51
 146 0012 22       		.byte	34
 147 0013 11       		.byte	17
 148 0014 00       		.byte	0
 149 0015 FF       		.byte	-1
 150 0016 EE       		.byte	-18
 151 0017 DD       		.byte	-35
 152 0018 CC       		.byte	-52
 153 0019 BB       		.byte	-69
 154 001a AA       		.byte	-86
 155 001b 99       		.byte	-103
 156 001c 88       		.byte	-120
 157 001d 77       		.byte	119
 158 001e 66       		.byte	102
 159 001f 55       		.byte	85
 160 0020 44       		.byte	68
 161 0021 33       		.byte	51
 162 0022 22       		.byte	34
 163 0023 11       		.byte	17
 164 0024 00       		.byte	0
 165 0025 FF       		.byte	-1
ARM GAS  C:\Users\Tim\AppData\Local\Temp\ccSSvVFd.s 			page 5


 166 0026 EE       		.byte	-18
 167 0027 00       		.bss
 168              		.align	2
 169              		.set	.LANCHOR0,. + 0
 170              		.type	uint16_value, %object
 171              		.size	uint16_value, 2
 172              	uint16_value:
 173 0000 0000     		.space	2
 174 0002 0000     		.space	2
 175              		.type	byte_values, %object
 176              		.size	byte_values, 4
 177              	byte_values:
 178 0004 00000000 		.space	4
 179              		.type	float_value, %object
 180              		.size	float_value, 4
 181              	float_value:
 182 0008 00000000 		.space	4
 183              		.text
 184              	.Letext0:
 185              		.file 2 "c:\\program files (x86)\\cypress\\psoc creator\\3.3\\psoc creator\\import\\gnu\\arm\\4.9.
 186              		.file 3 "c:\\program files (x86)\\cypress\\psoc creator\\3.3\\psoc creator\\import\\gnu\\arm\\4.9.
 187              		.file 4 "Generated_Source\\PSoC5/cytypes.h"
 188              		.file 5 ".\\../source/utils.h"
 189              		.file 6 ".\\../source/nvstore.h"
 190              		.file 7 "Generated_Source\\PSoC5/core_cm3.h"
 191              		.file 8 "Generated_Source\\PSoC5/EEPROM.h"