ARM GAS  C:\Users\Tim\AppData\Local\Temp\cccsTziN.s 			page 1


   1              		.syntax unified
   2              		.cpu cortex-m3
   3              		.fpu softvfp
   4              		.eabi_attribute 20, 1
   5              		.eabi_attribute 21, 1
   6              		.eabi_attribute 23, 3
   7              		.eabi_attribute 24, 1
   8              		.eabi_attribute 25, 1
   9              		.eabi_attribute 26, 1
  10              		.eabi_attribute 30, 1
  11              		.eabi_attribute 34, 1
  12              		.eabi_attribute 18, 4
  13              		.thumb
  14              		.file	"nvstore.c"
  15              		.text
  16              	.Ltext0:
  17              		.cfi_sections	.debug_frame
  18              		.section	.text.Nvstore_Init,"ax",%progbits
  19              		.align	2
  20              		.global	Nvstore_Init
  21              		.thumb
  22              		.thumb_func
  23              		.type	Nvstore_Init, %function
  24              	Nvstore_Init:
  25              	.LFB63:
  26              		.file 1 "..\\source\\nvstore.c"
   1:..\source/nvstore.c **** #include "nvstore.h"
   2:..\source/nvstore.c **** #include "assert.h"
   3:..\source/nvstore.c **** #include "utils.h"
   4:..\source/nvstore.c **** 
   5:..\source/nvstore.c **** 
   6:..\source/nvstore.c **** void Nvstore_Init()
   7:..\source/nvstore.c **** {
  27              		.loc 1 7 0
  28              		.cfi_startproc
  29              		@ args = 0, pretend = 0, frame = 0
  30              		@ frame_needed = 0, uses_anonymous_args = 0
  31              		@ link register save eliminated.
  32 0000 7047     		bx	lr
  33              		.cfi_endproc
  34              	.LFE63:
  35              		.size	Nvstore_Init, .-Nvstore_Init
  36 0002 00BF     		.section	.text.Nvstore_Start,"ax",%progbits
  37              		.align	2
  38              		.global	Nvstore_Start
  39              		.thumb
  40              		.thumb_func
  41              		.type	Nvstore_Start, %function
  42              	Nvstore_Start:
  43              	.LFB64:
   8:..\source/nvstore.c **** }
   9:..\source/nvstore.c **** 
  10:..\source/nvstore.c **** void Nvstore_Start()
  11:..\source/nvstore.c **** {
  44              		.loc 1 11 0
  45              		.cfi_startproc
  46              		@ args = 0, pretend = 0, frame = 0
ARM GAS  C:\Users\Tim\AppData\Local\Temp\cccsTziN.s 			page 2


  47              		@ frame_needed = 0, uses_anonymous_args = 0
  48              		.loc 1 11 0
  49 0000 08B5     		push	{r3, lr}
  50              		.cfi_def_cfa_offset 8
  51              		.cfi_offset 3, -8
  52              		.cfi_offset 14, -4
  12:..\source/nvstore.c ****     EEPROM_Start();
  53              		.loc 1 12 0
  54 0002 FFF7FEFF 		bl	EEPROM_Start
  55              	.LVL0:
  56 0006 08BD     		pop	{r3, pc}
  57              		.cfi_endproc
  58              	.LFE64:
  59              		.size	Nvstore_Start, .-Nvstore_Start
  60              		.section	.text.Nvstore_WriteBytes,"ax",%progbits
  61              		.align	2
  62              		.global	Nvstore_WriteBytes
  63              		.thumb
  64              		.thumb_func
  65              		.type	Nvstore_WriteBytes, %function
  66              	Nvstore_WriteBytes:
  67              	.LFB65:
  13:..\source/nvstore.c **** }
  14:..\source/nvstore.c **** 
  15:..\source/nvstore.c **** void Nvstore_WriteBytes(uint8 *bytes, uint16 num_bytes, uint16 offset)
  16:..\source/nvstore.c **** {
  68              		.loc 1 16 0
  69              		.cfi_startproc
  70              		@ args = 0, pretend = 0, frame = 0
  71              		@ frame_needed = 0, uses_anonymous_args = 0
  72              	.LVL1:
  73 0000 2DE9F047 		push	{r4, r5, r6, r7, r8, r9, r10, lr}
  74              		.cfi_def_cfa_offset 32
  75              		.cfi_offset 4, -32
  76              		.cfi_offset 5, -28
  77              		.cfi_offset 6, -24
  78              		.cfi_offset 7, -20
  79              		.cfi_offset 8, -16
  80              		.cfi_offset 9, -12
  81              		.cfi_offset 10, -8
  82              		.cfi_offset 14, -4
  83 0004 8046     		mov	r8, r0
  84 0006 0D46     		mov	r5, r1
  85              	.LVL2:
  17:..\source/nvstore.c ****     uint16 ii;
  18:..\source/nvstore.c ****     
  19:..\source/nvstore.c ****     // Need to calculate rowoffset from offset provided
  20:..\source/nvstore.c ****     //
  21:..\source/nvstore.c ****     //   Use EEPROM_WriteByte to write bytes that occur before the first complete row
  22:..\source/nvstore.c ****     //   Use EEPROM_Write to a full row of bytes
  23:..\source/nvstore.c ****     //   Use EEPROM_WriteByte to write remaining bytes that are less than a complete row
  24:..\source/nvstore.c ****     
  25:..\source/nvstore.c ****     uint16 index = 0;
  26:..\source/nvstore.c ****     uint16 row_offset = offset / CYDEV_EEPROM_ROW_SIZE;
  86              		.loc 1 26 0
  87 0008 1709     		lsrs	r7, r2, #4
  88              	.LVL3:
ARM GAS  C:\Users\Tim\AppData\Local\Temp\cccsTziN.s 			page 3


  27:..\source/nvstore.c ****     uint16 byte_offset = offset % CYDEV_EEPROM_ROW_SIZE;
  28:..\source/nvstore.c ****     
  29:..\source/nvstore.c ****     uint16 first_partial_row_start = byte_offset;
  30:..\source/nvstore.c ****     
  31:..\source/nvstore.c ****     if (first_partial_row_start)
  89              		.loc 1 31 0
  90 000a 12F00F02 		ands	r2, r2, #15
  91              	.LVL4:
  92 000e 1AD0     		beq	.L15
  93              	.LBB2:
  32:..\source/nvstore.c ****     {
  33:..\source/nvstore.c ****         // write all the bytes up to the next row using EEPROM_WriteByte
  34:..\source/nvstore.c ****         
  35:..\source/nvstore.c ****         uint16 partial_row_num_bytes = CYDEV_EEPROM_ROW_SIZE - first_partial_row_start;
  94              		.loc 1 35 0
  95 0010 C2F1100A 		rsb	r10, r2, #16
  96 0014 1FFA8AFA 		uxth	r10, r10
  97              	.LVL5:
  36:..\source/nvstore.c ****         uint16 start = (row_offset * CYDEV_EEPROM_ROW_SIZE) + first_partial_row_start;
  98              		.loc 1 36 0
  99 0018 02EB0712 		add	r2, r2, r7, lsl #4
 100 001c 1FFA82F9 		uxth	r9, r2
 101              	.LVL6:
 102              	.LBE2:
  25:..\source/nvstore.c ****     uint16 row_offset = offset / CYDEV_EEPROM_ROW_SIZE;
 103              		.loc 1 25 0
 104 0020 0024     		movs	r4, #0
 105              	.LBB3:
  37:..\source/nvstore.c ****         for (ii = 0; ii < partial_row_num_bytes; ++ii)
 106              		.loc 1 37 0
 107 0022 2646     		mov	r6, r4
 108 0024 0CE0     		b	.L6
 109              	.LVL7:
 110              	.L7:
  38:..\source/nvstore.c ****         {
  39:..\source/nvstore.c ****             EEPROM_WriteByte(bytes[index], start + ii);
 111              		.loc 1 39 0 discriminator 3
 112 0026 09EB0601 		add	r1, r9, r6
 113 002a 18F80400 		ldrb	r0, [r8, r4]	@ zero_extendqisi2
 114 002e 89B2     		uxth	r1, r1
 115 0030 FFF7FEFF 		bl	EEPROM_WriteByte
 116              	.LVL8:
  40:..\source/nvstore.c ****             index++;
 117              		.loc 1 40 0 discriminator 3
 118 0034 0134     		adds	r4, r4, #1
 119              	.LVL9:
 120 0036 A4B2     		uxth	r4, r4
 121              	.LVL10:
  41:..\source/nvstore.c ****             num_bytes--;
 122              		.loc 1 41 0 discriminator 3
 123 0038 013D     		subs	r5, r5, #1
 124              	.LVL11:
 125 003a ADB2     		uxth	r5, r5
 126              	.LVL12:
  37:..\source/nvstore.c ****         {
 127              		.loc 1 37 0 discriminator 3
 128 003c 0136     		adds	r6, r6, #1
ARM GAS  C:\Users\Tim\AppData\Local\Temp\cccsTziN.s 			page 4


 129              	.LVL13:
 130 003e B6B2     		uxth	r6, r6
 131              	.LVL14:
 132              	.L6:
  37:..\source/nvstore.c ****         {
 133              		.loc 1 37 0 is_stmt 0 discriminator 1
 134 0040 5645     		cmp	r6, r10
 135 0042 F0D3     		bcc	.L7
 136 0044 00E0     		b	.L5
 137              	.LVL15:
 138              	.L15:
 139              	.LBE3:
  25:..\source/nvstore.c ****     uint16 row_offset = offset / CYDEV_EEPROM_ROW_SIZE;
 140              		.loc 1 25 0 is_stmt 1
 141 0046 0024     		movs	r4, #0
 142              	.LVL16:
 143              	.L5:
  42:..\source/nvstore.c ****         }
  43:..\source/nvstore.c ****     }
  44:..\source/nvstore.c **** 
  45:..\source/nvstore.c ****     uint16 num_full_rows = num_bytes / CYDEV_EEPROM_ROW_SIZE;
 144              		.loc 1 45 0
 145 0048 C5F30F19 		ubfx	r9, r5, #4, #16
 146              	.LVL17:
  46:..\source/nvstore.c ****     
  47:..\source/nvstore.c ****     if (num_full_rows)
 147              		.loc 1 47 0
 148 004c B9F1000F 		cmp	r9, #0
 149 0050 12D0     		beq	.L8
  48:..\source/nvstore.c ****     {
  49:..\source/nvstore.c ****         row_offset++;
 150              		.loc 1 49 0
 151 0052 0137     		adds	r7, r7, #1
 152              	.LVL18:
 153 0054 BFB2     		uxth	r7, r7
 154              	.LVL19:
  50:..\source/nvstore.c ****         
  51:..\source/nvstore.c ****         // Write out all of the full rows
  52:..\source/nvstore.c ****         for (ii = 0; ii < num_full_rows; ++ii)
 155              		.loc 1 52 0
 156 0056 0026     		movs	r6, #0
 157 0058 0CE0     		b	.L9
 158              	.LVL20:
 159              	.L10:
  53:..\source/nvstore.c ****         {
  54:..\source/nvstore.c ****             EEPROM_Write(&bytes[index], row_offset);
 160              		.loc 1 54 0 discriminator 3
 161 005a 08EB0400 		add	r0, r8, r4
 162 005e F9B2     		uxtb	r1, r7
 163 0060 FFF7FEFF 		bl	EEPROM_Write
 164              	.LVL21:
  55:..\source/nvstore.c ****             index += CYDEV_EEPROM_ROW_SIZE;
 165              		.loc 1 55 0 discriminator 3
 166 0064 1034     		adds	r4, r4, #16
 167              	.LVL22:
 168 0066 A4B2     		uxth	r4, r4
 169              	.LVL23:
ARM GAS  C:\Users\Tim\AppData\Local\Temp\cccsTziN.s 			page 5


  56:..\source/nvstore.c ****             num_bytes -= CYDEV_EEPROM_ROW_SIZE;
 170              		.loc 1 56 0 discriminator 3
 171 0068 103D     		subs	r5, r5, #16
 172              	.LVL24:
 173 006a ADB2     		uxth	r5, r5
 174              	.LVL25:
  57:..\source/nvstore.c ****             row_offset++;
 175              		.loc 1 57 0 discriminator 3
 176 006c 0137     		adds	r7, r7, #1
 177              	.LVL26:
 178 006e BFB2     		uxth	r7, r7
 179              	.LVL27:
  52:..\source/nvstore.c ****         {
 180              		.loc 1 52 0 discriminator 3
 181 0070 0136     		adds	r6, r6, #1
 182              	.LVL28:
 183 0072 B6B2     		uxth	r6, r6
 184              	.LVL29:
 185              	.L9:
  52:..\source/nvstore.c ****         {
 186              		.loc 1 52 0 is_stmt 0 discriminator 1
 187 0074 4E45     		cmp	r6, r9
 188 0076 F0D3     		bcc	.L10
 189              	.LVL30:
 190              	.L8:
  58:..\source/nvstore.c ****         }        
  59:..\source/nvstore.c ****     }
  60:..\source/nvstore.c ****     
  61:..\source/nvstore.c ****     uint16 num_remaining = num_bytes;
  62:..\source/nvstore.c ****     
  63:..\source/nvstore.c ****     if (num_remaining)
 191              		.loc 1 63 0 is_stmt 1
 192 0078 ADB1     		cbz	r5, .L11
 193              	.LBB4:
  64:..\source/nvstore.c ****     {
  65:..\source/nvstore.c ****         // write all the bytes up to the next row using EEPROM_WriteByte
  66:..\source/nvstore.c ****         
  67:..\source/nvstore.c ****         uint16 start = row_offset * CYDEV_EEPROM_ROW_SIZE;
 194              		.loc 1 67 0
 195 007a 3F01     		lsls	r7, r7, #4
 196              	.LVL31:
 197 007c BFB2     		uxth	r7, r7
 198              	.LVL32:
  68:..\source/nvstore.c ****         for (ii = 0; ii < num_remaining; ++ii)
 199              		.loc 1 68 0
 200 007e A946     		mov	r9, r5
 201              	.LVL33:
 202 0080 0026     		movs	r6, #0
 203 0082 0DE0     		b	.L12
 204              	.LVL34:
 205              	.L13:
  69:..\source/nvstore.c ****         {
  70:..\source/nvstore.c ****             EEPROM_WriteByte(bytes[index], start + ii);
 206              		.loc 1 70 0 discriminator 3
 207 0084 B919     		adds	r1, r7, r6
 208 0086 18F80400 		ldrb	r0, [r8, r4]	@ zero_extendqisi2
 209 008a 89B2     		uxth	r1, r1
ARM GAS  C:\Users\Tim\AppData\Local\Temp\cccsTziN.s 			page 6


 210 008c FFF7FEFF 		bl	EEPROM_WriteByte
 211              	.LVL35:
  71:..\source/nvstore.c ****             index++;
 212              		.loc 1 71 0 discriminator 3
 213 0090 0134     		adds	r4, r4, #1
 214              	.LVL36:
 215 0092 A4B2     		uxth	r4, r4
 216              	.LVL37:
  72:..\source/nvstore.c ****             num_bytes--;
 217              		.loc 1 72 0 discriminator 3
 218 0094 09F1FF39 		add	r9, r9, #-1
 219              	.LVL38:
 220 0098 1FFA89F9 		uxth	r9, r9
 221              	.LVL39:
  68:..\source/nvstore.c ****         {
 222              		.loc 1 68 0 discriminator 3
 223 009c 0136     		adds	r6, r6, #1
 224              	.LVL40:
 225 009e B6B2     		uxth	r6, r6
 226              	.LVL41:
 227              	.L12:
  68:..\source/nvstore.c ****         {
 228              		.loc 1 68 0 is_stmt 0 discriminator 1
 229 00a0 B542     		cmp	r5, r6
 230 00a2 EFD8     		bhi	.L13
 231 00a4 4D46     		mov	r5, r9
 232              	.LVL42:
 233              	.L11:
 234              	.LBE4:
  73:..\source/nvstore.c ****             row_offset++;
  74:..\source/nvstore.c ****         }
  75:..\source/nvstore.c ****     }
  76:..\source/nvstore.c ****     
  77:..\source/nvstore.c ****     assert(num_bytes == 0);    
 235              		.loc 1 77 0 is_stmt 1
 236 00a6 2DB1     		cbz	r5, .L4
 237              		.loc 1 77 0 is_stmt 0 discriminator 1
 238 00a8 0348     		ldr	r0, .L17
 239 00aa 4D21     		movs	r1, #77
 240 00ac 034A     		ldr	r2, .L17+4
 241 00ae 044B     		ldr	r3, .L17+8
 242 00b0 FFF7FEFF 		bl	__assert_func
 243              	.LVL43:
 244              	.L4:
 245 00b4 BDE8F087 		pop	{r4, r5, r6, r7, r8, r9, r10, pc}
 246              	.LVL44:
 247              	.L18:
 248              		.align	2
 249              	.L17:
 250 00b8 00000000 		.word	.LC0
 251 00bc 00000000 		.word	.LANCHOR0
 252 00c0 14000000 		.word	.LC1
 253              		.cfi_endproc
 254              	.LFE65:
 255              		.size	Nvstore_WriteBytes, .-Nvstore_WriteBytes
 256              		.section	.text.Nvstore_WriteUint16,"ax",%progbits
 257              		.align	2
ARM GAS  C:\Users\Tim\AppData\Local\Temp\cccsTziN.s 			page 7


 258              		.global	Nvstore_WriteUint16
 259              		.thumb
 260              		.thumb_func
 261              		.type	Nvstore_WriteUint16, %function
 262              	Nvstore_WriteUint16:
 263              	.LFB66:
  78:..\source/nvstore.c **** }
  79:..\source/nvstore.c **** 
  80:..\source/nvstore.c **** void Nvstore_WriteUint16(uint16 value, uint16 offset)
  81:..\source/nvstore.c **** {
 264              		.loc 1 81 0 is_stmt 1
 265              		.cfi_startproc
 266              		@ args = 0, pretend = 0, frame = 8
 267              		@ frame_needed = 0, uses_anonymous_args = 0
 268              	.LVL45:
 269 0000 10B5     		push	{r4, lr}
 270              		.cfi_def_cfa_offset 8
 271              		.cfi_offset 4, -8
 272              		.cfi_offset 14, -4
 273 0002 82B0     		sub	sp, sp, #8
 274              		.cfi_def_cfa_offset 16
 275 0004 0C46     		mov	r4, r1
  82:..\source/nvstore.c ****     uint8 bytes[sizeof(uint16)];
  83:..\source/nvstore.c ****     
  84:..\source/nvstore.c ****     Uint16ToTwoBytes(value, bytes);
 276              		.loc 1 84 0
 277 0006 01A9     		add	r1, sp, #4
 278              	.LVL46:
 279 0008 FFF7FEFF 		bl	Uint16ToTwoBytes
 280              	.LVL47:
  85:..\source/nvstore.c ****     EEPROM_WriteByte(bytes[0], offset);
 281              		.loc 1 85 0
 282 000c 9DF80400 		ldrb	r0, [sp, #4]	@ zero_extendqisi2
 283 0010 2146     		mov	r1, r4
 284 0012 FFF7FEFF 		bl	EEPROM_WriteByte
 285              	.LVL48:
  86:..\source/nvstore.c ****     EEPROM_WriteByte(bytes[1], offset+1);
 286              		.loc 1 86 0
 287 0016 611C     		adds	r1, r4, #1
 288 0018 9DF80500 		ldrb	r0, [sp, #5]	@ zero_extendqisi2
 289 001c 89B2     		uxth	r1, r1
 290 001e FFF7FEFF 		bl	EEPROM_WriteByte
 291              	.LVL49:
  87:..\source/nvstore.c **** }
 292              		.loc 1 87 0
 293 0022 02B0     		add	sp, sp, #8
 294              		.cfi_def_cfa_offset 8
 295              		@ sp needed
 296 0024 10BD     		pop	{r4, pc}
 297              		.cfi_endproc
 298              	.LFE66:
 299              		.size	Nvstore_WriteUint16, .-Nvstore_WriteUint16
 300 0026 00BF     		.section	.text.Nvstore_WriteFloat,"ax",%progbits
 301              		.align	2
 302              		.global	Nvstore_WriteFloat
 303              		.thumb
 304              		.thumb_func
ARM GAS  C:\Users\Tim\AppData\Local\Temp\cccsTziN.s 			page 8


 305              		.type	Nvstore_WriteFloat, %function
 306              	Nvstore_WriteFloat:
 307              	.LFB67:
  88:..\source/nvstore.c **** 
  89:..\source/nvstore.c **** void Nvstore_WriteFloat(float value, uint16 offset)
  90:..\source/nvstore.c **** {
 308              		.loc 1 90 0
 309              		.cfi_startproc
 310              		@ args = 0, pretend = 0, frame = 8
 311              		@ frame_needed = 0, uses_anonymous_args = 0
 312              	.LVL50:
 313 0000 30B5     		push	{r4, r5, lr}
 314              		.cfi_def_cfa_offset 12
 315              		.cfi_offset 4, -12
 316              		.cfi_offset 5, -8
 317              		.cfi_offset 14, -4
 318 0002 83B0     		sub	sp, sp, #12
 319              		.cfi_def_cfa_offset 24
 320 0004 0D46     		mov	r5, r1
  91:..\source/nvstore.c ****     uint8 ii;
  92:..\source/nvstore.c ****     uint8 bytes[sizeof(float)];
  93:..\source/nvstore.c ****     
  94:..\source/nvstore.c ****     FloatToFourBytes(value, bytes);
 321              		.loc 1 94 0
 322 0006 01A9     		add	r1, sp, #4
 323              	.LVL51:
 324 0008 FFF7FEFF 		bl	FloatToFourBytes
 325              	.LVL52:
  95:..\source/nvstore.c ****     for (ii = 0; ii < sizeof(float); ++ii)
 326              		.loc 1 95 0
 327 000c 0024     		movs	r4, #0
 328 000e 09E0     		b	.L22
 329              	.LVL53:
 330              	.L23:
  96:..\source/nvstore.c ****     {
  97:..\source/nvstore.c ****         EEPROM_WriteByte(bytes[ii], offset + ii); 
 331              		.loc 1 97 0 discriminator 3
 332 0010 02AB     		add	r3, sp, #8
 333 0012 2344     		add	r3, r3, r4
 334 0014 2919     		adds	r1, r5, r4
 335 0016 13F8040C 		ldrb	r0, [r3, #-4]	@ zero_extendqisi2
 336 001a 89B2     		uxth	r1, r1
 337 001c FFF7FEFF 		bl	EEPROM_WriteByte
 338              	.LVL54:
  95:..\source/nvstore.c ****     for (ii = 0; ii < sizeof(float); ++ii)
 339              		.loc 1 95 0 discriminator 3
 340 0020 0134     		adds	r4, r4, #1
 341              	.LVL55:
 342 0022 E4B2     		uxtb	r4, r4
 343              	.LVL56:
 344              	.L22:
  95:..\source/nvstore.c ****     for (ii = 0; ii < sizeof(float); ++ii)
 345              		.loc 1 95 0 is_stmt 0 discriminator 1
 346 0024 032C     		cmp	r4, #3
 347 0026 F3D9     		bls	.L23
  98:..\source/nvstore.c ****     }
  99:..\source/nvstore.c **** }
ARM GAS  C:\Users\Tim\AppData\Local\Temp\cccsTziN.s 			page 9


 348              		.loc 1 99 0 is_stmt 1
 349 0028 03B0     		add	sp, sp, #12
 350              		.cfi_def_cfa_offset 12
 351              		@ sp needed
 352 002a 30BD     		pop	{r4, r5, pc}
 353              		.cfi_endproc
 354              	.LFE67:
 355              		.size	Nvstore_WriteFloat, .-Nvstore_WriteFloat
 356              		.section	.rodata
 357              		.align	2
 358              		.set	.LANCHOR0,. + 0
 359              		.type	__FUNCTION__.5535, %object
 360              		.size	__FUNCTION__.5535, 19
 361              	__FUNCTION__.5535:
 362 0000 4E767374 		.ascii	"Nvstore_WriteBytes\000"
 362      6F72655F 
 362      57726974 
 362      65427974 
 362      657300
 363 0013 00       		.section	.rodata.str1.4,"aMS",%progbits,1
 364              		.align	2
 365              	.LC0:
 366 0000 2E2E5C73 		.ascii	"..\\source\\nvstore.c\000"
 366      6F757263 
 366      655C6E76 
 366      73746F72 
 366      652E6300 
 367              	.LC1:
 368 0014 6E756D5F 		.ascii	"num_bytes == 0\000"
 368      62797465 
 368      73203D3D 
 368      203000
 369 0023 00       		.text
 370              	.Letext0:
 371              		.file 2 "c:\\program files (x86)\\cypress\\psoc creator\\3.3\\psoc creator\\import\\gnu\\arm\\4.9.
 372              		.file 3 "c:\\program files (x86)\\cypress\\psoc creator\\3.3\\psoc creator\\import\\gnu\\arm\\4.9.
 373              		.file 4 "Generated_Source\\PSoC5/cytypes.h"
 374              		.file 5 "Generated_Source\\PSoC5/EEPROM.h"
 375              		.file 6 "c:\\program files (x86)\\cypress\\psoc creator\\3.3\\psoc creator\\import\\gnu\\arm\\4.9.
 376              		.file 7 "..\\source\\utils.h"
 377              		.file 8 "Generated_Source\\PSoC5/core_cm3.h"