ARM GAS  C:\Users\Tim\AppData\Local\Temp\ccYrhjAY.s 			page 1


   1              		.syntax unified
   2              		.cpu cortex-m3
   3              		.fpu softvfp
   4              		.eabi_attribute 20, 1
   5              		.eabi_attribute 21, 1
   6              		.eabi_attribute 23, 3
   7              		.eabi_attribute 24, 1
   8              		.eabi_attribute 25, 1
   9              		.eabi_attribute 26, 1
  10              		.eabi_attribute 30, 1
  11              		.eabi_attribute 34, 1
  12              		.eabi_attribute 18, 4
  13              		.thumb
  14              		.file	"serialtest.c"
  15              		.text
  16              	.Ltext0:
  17              		.cfi_sections	.debug_frame
  18              		.section	.text.Ser_Update,"ax",%progbits
  19              		.align	2
  20              		.thumb
  21              		.thumb_func
  22              		.type	Ser_Update, %function
  23              	Ser_Update:
  24              	.LFB63:
  25              		.file 1 ".\\serialtest.c"
   1:.\serialtest.c **** /* ========================================
   2:.\serialtest.c ****  *
   3:.\serialtest.c ****  * Copyright YOUR COMPANY, THE YEAR
   4:.\serialtest.c ****  * All Rights Reserved
   5:.\serialtest.c ****  * UNPUBLISHED, LICENSED SOFTWARE.
   6:.\serialtest.c ****  *
   7:.\serialtest.c ****  * CONFIDENTIAL AND PROPRIETARY INFORMATION
   8:.\serialtest.c ****  * WHICH IS THE PROPERTY OF your company.
   9:.\serialtest.c ****  *
  10:.\serialtest.c ****  * ========================================
  11:.\serialtest.c **** */
  12:.\serialtest.c **** 
  13:.\serialtest.c **** #include "serialtest.h"
  14:.\serialtest.c **** #include <stdlib.h>
  15:.\serialtest.c **** #include <stdio.h>
  16:.\serialtest.c **** #include "../source/utils.h"
  17:.\serialtest.c **** 
  18:.\serialtest.c **** #define USBFS_DEVICE    (0u)
  19:.\serialtest.c **** 
  20:.\serialtest.c **** /* The buffer size is equal to the maximum packet size of the IN and OUT bulk
  21:.\serialtest.c **** * endpoints.
  22:.\serialtest.c **** */
  23:.\serialtest.c **** #define USBUART_BUFFER_SIZE (64u)
  24:.\serialtest.c **** 
  25:.\serialtest.c **** uint16 count;
  26:.\serialtest.c **** uint8 buffer[USBUART_BUFFER_SIZE];
  27:.\serialtest.c ****     
  28:.\serialtest.c **** 
  29:.\serialtest.c **** 
  30:.\serialtest.c **** static void Ser_Update()
  31:.\serialtest.c **** {
  26              		.loc 1 31 0
ARM GAS  C:\Users\Tim\AppData\Local\Temp\ccYrhjAY.s 			page 2


  27              		.cfi_startproc
  28              		@ args = 0, pretend = 0, frame = 0
  29              		@ frame_needed = 0, uses_anonymous_args = 0
  30 0000 08B5     		push	{r3, lr}
  31              		.cfi_def_cfa_offset 8
  32              		.cfi_offset 3, -8
  33              		.cfi_offset 14, -4
  32:.\serialtest.c ****     ///* Host can send double SET_INTERFACE request. */
  33:.\serialtest.c ****     if (0u != USBUART_IsConfigurationChanged())
  34              		.loc 1 33 0
  35 0002 FFF7FEFF 		bl	USBUART_IsConfigurationChanged
  36              	.LVL0:
  37 0006 20B1     		cbz	r0, .L1
  34:.\serialtest.c ****     {
  35:.\serialtest.c ****         /* Initialize IN endpoints when device is configured. */
  36:.\serialtest.c ****         if (0u != USBUART_GetConfiguration())
  38              		.loc 1 36 0
  39 0008 FFF7FEFF 		bl	USBUART_GetConfiguration
  40              	.LVL1:
  41 000c 08B1     		cbz	r0, .L1
  37:.\serialtest.c ****         {
  38:.\serialtest.c ****             /* Enumeration is done, enable OUT endpoint to receive data 
  39:.\serialtest.c ****              * from host. */
  40:.\serialtest.c ****             USBUART_CDC_Init();
  42              		.loc 1 40 0
  43 000e FFF7FEFF 		bl	USBUART_CDC_Init
  44              	.LVL2:
  45              	.L1:
  46 0012 08BD     		pop	{r3, pc}
  47              		.cfi_endproc
  48              	.LFE63:
  49              		.size	Ser_Update, .-Ser_Update
  50              		.section	.text.Ser_ReadByte,"ax",%progbits
  51              		.align	2
  52              		.thumb
  53              		.thumb_func
  54              		.type	Ser_ReadByte, %function
  55              	Ser_ReadByte:
  56              	.LFB64:
  41:.\serialtest.c ****         }
  42:.\serialtest.c ****     }
  43:.\serialtest.c **** }
  44:.\serialtest.c **** 
  45:.\serialtest.c **** static uint8 Ser_ReadByte()
  46:.\serialtest.c **** {
  57              		.loc 1 46 0
  58              		.cfi_startproc
  59              		@ args = 0, pretend = 0, frame = 0
  60              		@ frame_needed = 0, uses_anonymous_args = 0
  61 0000 08B5     		push	{r3, lr}
  62              		.cfi_def_cfa_offset 8
  63              		.cfi_offset 3, -8
  64              		.cfi_offset 14, -4
  47:.\serialtest.c ****     /* Service USB CDC when device is configured. */
  48:.\serialtest.c ****     if (0u != USBUART_GetConfiguration())
  65              		.loc 1 48 0
  66 0002 FFF7FEFF 		bl	USBUART_GetConfiguration
ARM GAS  C:\Users\Tim\AppData\Local\Temp\ccYrhjAY.s 			page 3


  67              	.LVL3:
  68 0006 0346     		mov	r3, r0
  69 0008 30B1     		cbz	r0, .L5
  49:.\serialtest.c ****     {
  50:.\serialtest.c ****         /* Check for input data from host. */
  51:.\serialtest.c ****         if (0u != USBUART_DataIsReady())
  70              		.loc 1 51 0
  71 000a FFF7FEFF 		bl	USBUART_DataIsReady
  72              	.LVL4:
  73 000e 0346     		mov	r3, r0
  74 0010 10B1     		cbz	r0, .L5
  52:.\serialtest.c ****         {
  53:.\serialtest.c ****             /* Read received data and re-enable OUT endpoint. */
  54:.\serialtest.c ****             return USBUART_GetChar();
  75              		.loc 1 54 0
  76 0012 FFF7FEFF 		bl	USBUART_GetChar
  77              	.LVL5:
  78 0016 0346     		mov	r3, r0
  79              	.L5:
  55:.\serialtest.c ****         }
  56:.\serialtest.c ****     }
  57:.\serialtest.c ****     return 0;
  58:.\serialtest.c **** }
  80              		.loc 1 58 0
  81 0018 1846     		mov	r0, r3
  82 001a 08BD     		pop	{r3, pc}
  83              		.cfi_endproc
  84              	.LFE64:
  85              		.size	Ser_ReadByte, .-Ser_ReadByte
  86              		.section	.text.Ser_WriteByte,"ax",%progbits
  87              		.align	2
  88              		.thumb
  89              		.thumb_func
  90              		.type	Ser_WriteByte, %function
  91              	Ser_WriteByte:
  92              	.LFB66:
  59:.\serialtest.c **** 
  60:.\serialtest.c **** static uint16 Ser_ReadBytes(uint8 *bytes, uint16 num_bytes)
  61:.\serialtest.c **** {
  62:.\serialtest.c ****     uint16 count;
  63:.\serialtest.c ****     
  64:.\serialtest.c ****     if (0u != USBUART_GetConfiguration())
  65:.\serialtest.c ****     {
  66:.\serialtest.c ****         /* Check for input data from host. */
  67:.\serialtest.c ****         if (0u != USBUART_DataIsReady())
  68:.\serialtest.c ****         {            
  69:.\serialtest.c ****             while ((count = USBUART_GetCount()) < num_bytes)
  70:.\serialtest.c ****             {
  71:.\serialtest.c ****                 ;
  72:.\serialtest.c ****             }
  73:.\serialtest.c ****             
  74:.\serialtest.c ****             /* Read received data and re-enable OUT endpoint. */
  75:.\serialtest.c ****             //count = USBUART_GetAll(bytes);
  76:.\serialtest.c ****             count = USBUART_GetData(bytes, num_bytes);
  77:.\serialtest.c ****         }
  78:.\serialtest.c ****     }
  79:.\serialtest.c ****     
ARM GAS  C:\Users\Tim\AppData\Local\Temp\ccYrhjAY.s 			page 4


  80:.\serialtest.c ****     return count;
  81:.\serialtest.c **** }
  82:.\serialtest.c **** 
  83:.\serialtest.c **** static void Ser_WriteByte(uint8 value)
  84:.\serialtest.c **** {
  93              		.loc 1 84 0
  94              		.cfi_startproc
  95              		@ args = 0, pretend = 0, frame = 0
  96              		@ frame_needed = 0, uses_anonymous_args = 0
  97              	.LVL6:
  98 0000 10B5     		push	{r4, lr}
  99              		.cfi_def_cfa_offset 8
 100              		.cfi_offset 4, -8
 101              		.cfi_offset 14, -4
 102 0002 0446     		mov	r4, r0
  85:.\serialtest.c ****     if (0u != USBUART_GetConfiguration())
 103              		.loc 1 85 0
 104 0004 FFF7FEFF 		bl	USBUART_GetConfiguration
 105              	.LVL7:
 106 0008 30B1     		cbz	r0, .L7
 107              	.L9:
  86:.\serialtest.c ****     {
  87:.\serialtest.c ****         while (0u == USBUART_CDCIsReady())
 108              		.loc 1 87 0 discriminator 1
 109 000a FFF7FEFF 		bl	USBUART_CDCIsReady
 110              	.LVL8:
 111 000e 0028     		cmp	r0, #0
 112 0010 FBD0     		beq	.L9
  88:.\serialtest.c ****         {
  89:.\serialtest.c ****         }
  90:.\serialtest.c ****         
  91:.\serialtest.c ****         USBUART_PutChar(value);
 113              		.loc 1 91 0
 114 0012 2046     		mov	r0, r4
 115 0014 FFF7FEFF 		bl	USBUART_PutChar
 116              	.LVL9:
 117              	.L7:
 118 0018 10BD     		pop	{r4, pc}
 119              		.cfi_endproc
 120              	.LFE66:
 121              		.size	Ser_WriteByte, .-Ser_WriteByte
 122 001a 00BF     		.section	.text.GetCommand,"ax",%progbits
 123              		.align	2
 124              		.thumb
 125              		.thumb_func
 126              		.type	GetCommand, %function
 127              	GetCommand:
 128              	.LFB73:
  92:.\serialtest.c ****     }
  93:.\serialtest.c **** }
  94:.\serialtest.c **** 
  95:.\serialtest.c **** static void Ser_WriteBytes(uint8 *bytes, uint8 num_bytes)
  96:.\serialtest.c **** {
  97:.\serialtest.c ****     if (0u != USBUART_GetConfiguration())
  98:.\serialtest.c ****     {
  99:.\serialtest.c ****         while (0u == USBUART_CDCIsReady())
 100:.\serialtest.c ****         {
ARM GAS  C:\Users\Tim\AppData\Local\Temp\ccYrhjAY.s 			page 5


 101:.\serialtest.c ****         }
 102:.\serialtest.c ****         
 103:.\serialtest.c ****         USBUART_PutData(bytes, num_bytes);
 104:.\serialtest.c ****     }
 105:.\serialtest.c **** }
 106:.\serialtest.c **** 
 107:.\serialtest.c **** static void Ser_PutString(char *str)
 108:.\serialtest.c **** {
 109:.\serialtest.c ****     if (0u != USBUART_GetConfiguration())
 110:.\serialtest.c ****     {
 111:.\serialtest.c ****         while (0u == USBUART_CDCIsReady())
 112:.\serialtest.c ****         {
 113:.\serialtest.c ****         }
 114:.\serialtest.c ****         
 115:.\serialtest.c ****         USBUART_PutString(str);
 116:.\serialtest.c ****     }
 117:.\serialtest.c **** }
 118:.\serialtest.c **** 
 119:.\serialtest.c **** static uint16 Ser_ReadString(char *str)
 120:.\serialtest.c **** {
 121:.\serialtest.c ****     uint16 num_bytes = 0;
 122:.\serialtest.c ****     /* Service USB CDC when device is configured. */
 123:.\serialtest.c ****     if (0u != USBUART_GetConfiguration())
 124:.\serialtest.c ****     {
 125:.\serialtest.c ****         /* Check for input data from host. */
 126:.\serialtest.c ****         if (0u != USBUART_DataIsReady())
 127:.\serialtest.c ****         {
 128:.\serialtest.c ****             /* Read received data and re-enable OUT endpoint. */
 129:.\serialtest.c ****             num_bytes = USBUART_GetAll((uint8 *) str);
 130:.\serialtest.c ****         }
 131:.\serialtest.c ****     }
 132:.\serialtest.c ****     return num_bytes;
 133:.\serialtest.c **** }
 134:.\serialtest.c **** 
 135:.\serialtest.c **** static uint8 Ser_IsDataReady()
 136:.\serialtest.c **** {
 137:.\serialtest.c ****     uint8 result = 0;
 138:.\serialtest.c ****     /* Service USB CDC when device is configured. */
 139:.\serialtest.c ****     if (0u != USBUART_GetConfiguration())
 140:.\serialtest.c ****     {
 141:.\serialtest.c ****         /* Check for input data from host. */
 142:.\serialtest.c ****         result = USBUART_DataIsReady();
 143:.\serialtest.c ****     }
 144:.\serialtest.c ****     return result;
 145:.\serialtest.c **** }
 146:.\serialtest.c **** 
 147:.\serialtest.c **** static void example()
 148:.\serialtest.c **** {
 149:.\serialtest.c ****     for (;;)
 150:.\serialtest.c ****     {
 151:.\serialtest.c ****         if (0u != USBUART_IsConfigurationChanged())
 152:.\serialtest.c ****         {
 153:.\serialtest.c ****             /* Initialize IN endpoints when device is configured. */
 154:.\serialtest.c ****             if (0u != USBUART_GetConfiguration())
 155:.\serialtest.c ****             {
 156:.\serialtest.c ****                 /* Enumeration is done, enable OUT endpoint to receive data 
 157:.\serialtest.c ****                  * from host. */
ARM GAS  C:\Users\Tim\AppData\Local\Temp\ccYrhjAY.s 			page 6


 158:.\serialtest.c ****                 USBUART_CDC_Init();
 159:.\serialtest.c ****             }
 160:.\serialtest.c ****         }
 161:.\serialtest.c **** 
 162:.\serialtest.c ****         /* Service USB CDC when device is configured. */
 163:.\serialtest.c ****         if (0u != USBUART_GetConfiguration())
 164:.\serialtest.c ****         {
 165:.\serialtest.c ****             /* Check for input data from host. */
 166:.\serialtest.c ****             if (0u != USBUART_DataIsReady())
 167:.\serialtest.c ****             {
 168:.\serialtest.c ****                 /* Read received data and re-enable OUT endpoint. */
 169:.\serialtest.c ****                 count = USBUART_GetAll(buffer);
 170:.\serialtest.c **** 
 171:.\serialtest.c ****                 if (0u != count)
 172:.\serialtest.c ****                 {
 173:.\serialtest.c ****                     /* Wait until component is ready to send data to host. */
 174:.\serialtest.c ****                     while (0u == USBUART_CDCIsReady())
 175:.\serialtest.c ****                     {
 176:.\serialtest.c ****                     }
 177:.\serialtest.c **** 
 178:.\serialtest.c ****                     /* Send data back to host. */
 179:.\serialtest.c ****                     USBUART_PutData(buffer, count);
 180:.\serialtest.c **** 
 181:.\serialtest.c ****                     /* If the last sent packet is exactly the maximum packet 
 182:.\serialtest.c ****                     *  size, it is followed by a zero-length packet to assure
 183:.\serialtest.c ****                     *  that the end of the segment is properly identified by 
 184:.\serialtest.c ****                     *  the terminal.
 185:.\serialtest.c ****                     */
 186:.\serialtest.c ****                     if (USBUART_BUFFER_SIZE == count)
 187:.\serialtest.c ****                     {
 188:.\serialtest.c ****                         /* Wait until component is ready to send data to PC. */
 189:.\serialtest.c ****                         while (0u == USBUART_CDCIsReady())
 190:.\serialtest.c ****                         {
 191:.\serialtest.c ****                         }
 192:.\serialtest.c **** 
 193:.\serialtest.c ****                         /* Send zero-length packet to PC. */
 194:.\serialtest.c ****                         USBUART_PutData(NULL, 0u);
 195:.\serialtest.c ****                     }
 196:.\serialtest.c ****                 }
 197:.\serialtest.c ****             }
 198:.\serialtest.c ****         }
 199:.\serialtest.c ****     }
 200:.\serialtest.c **** }
 201:.\serialtest.c **** 
 202:.\serialtest.c **** static void echochar()
 203:.\serialtest.c **** {
 204:.\serialtest.c ****     for (;;)
 205:.\serialtest.c ****     {
 206:.\serialtest.c ****         Ser_Update();
 207:.\serialtest.c ****         
 208:.\serialtest.c ****         uint8 value = Ser_ReadByte();
 209:.\serialtest.c ****         Ser_WriteByte(value);
 210:.\serialtest.c ****     }
 211:.\serialtest.c **** }
 212:.\serialtest.c **** 
 213:.\serialtest.c **** #define NO_CMD          (0)
 214:.\serialtest.c **** #define CAL_REQUEST     (1)
ARM GAS  C:\Users\Tim\AppData\Local\Temp\ccYrhjAY.s 			page 7


 215:.\serialtest.c **** #define MOTOR_CAL_CMD   (2)
 216:.\serialtest.c **** #define PID_CAL_CMD     (3)
 217:.\serialtest.c **** #define LIN_CAL_CMD     (4)
 218:.\serialtest.c **** #define ANG_CAL_CMD     (5)
 219:.\serialtest.c **** #define EXIT_CMD        (6)
 220:.\serialtest.c **** 
 221:.\serialtest.c **** 
 222:.\serialtest.c **** static uint8 GetCommand()
 223:.\serialtest.c **** {
 129              		.loc 1 223 0
 130              		.cfi_startproc
 131              		@ args = 0, pretend = 0, frame = 0
 132              		@ frame_needed = 0, uses_anonymous_args = 0
 133 0000 08B5     		push	{r3, lr}
 134              		.cfi_def_cfa_offset 8
 135              		.cfi_offset 3, -8
 136              		.cfi_offset 14, -4
 224:.\serialtest.c ****     static uint8 is_cal_active = 0;
 225:.\serialtest.c ****     char value = Ser_ReadByte();
 137              		.loc 1 225 0
 138 0002 FFF7FEFF 		bl	Ser_ReadByte
 139              	.LVL10:
 226:.\serialtest.c ****         
 227:.\serialtest.c ****     switch (value)
 140              		.loc 1 227 0
 141 0006 A0F13103 		sub	r3, r0, #49
 142 000a 472B     		cmp	r3, #71
 143 000c 43D8     		bhi	.L20
 144 000e DFE803F0 		tbb	[pc, r3]
 145              	.L14:
 146 0012 2B       		.byte	(.L13-.L14)/2
 147 0013 2F       		.byte	(.L15-.L14)/2
 148 0014 33       		.byte	(.L16-.L14)/2
 149 0015 37       		.byte	(.L17-.L14)/2
 150 0016 42       		.byte	(.L20-.L14)/2
 151 0017 42       		.byte	(.L20-.L14)/2
 152 0018 42       		.byte	(.L20-.L14)/2
 153 0019 42       		.byte	(.L20-.L14)/2
 154 001a 42       		.byte	(.L20-.L14)/2
 155 001b 42       		.byte	(.L20-.L14)/2
 156 001c 42       		.byte	(.L20-.L14)/2
 157 001d 42       		.byte	(.L20-.L14)/2
 158 001e 42       		.byte	(.L20-.L14)/2
 159 001f 42       		.byte	(.L20-.L14)/2
 160 0020 42       		.byte	(.L20-.L14)/2
 161 0021 42       		.byte	(.L20-.L14)/2
 162 0022 42       		.byte	(.L20-.L14)/2
 163 0023 42       		.byte	(.L20-.L14)/2
 164 0024 24       		.byte	(.L18-.L14)/2
 165 0025 42       		.byte	(.L20-.L14)/2
 166 0026 42       		.byte	(.L20-.L14)/2
 167 0027 42       		.byte	(.L20-.L14)/2
 168 0028 42       		.byte	(.L20-.L14)/2
 169 0029 42       		.byte	(.L20-.L14)/2
 170 002a 42       		.byte	(.L20-.L14)/2
 171 002b 42       		.byte	(.L20-.L14)/2
 172 002c 42       		.byte	(.L20-.L14)/2
ARM GAS  C:\Users\Tim\AppData\Local\Temp\ccYrhjAY.s 			page 8


 173 002d 42       		.byte	(.L20-.L14)/2
 174 002e 42       		.byte	(.L20-.L14)/2
 175 002f 42       		.byte	(.L20-.L14)/2
 176 0030 42       		.byte	(.L20-.L14)/2
 177 0031 42       		.byte	(.L20-.L14)/2
 178 0032 42       		.byte	(.L20-.L14)/2
 179 0033 42       		.byte	(.L20-.L14)/2
 180 0034 42       		.byte	(.L20-.L14)/2
 181 0035 42       		.byte	(.L20-.L14)/2
 182 0036 42       		.byte	(.L20-.L14)/2
 183 0037 42       		.byte	(.L20-.L14)/2
 184 0038 42       		.byte	(.L20-.L14)/2
 185 0039 3B       		.byte	(.L19-.L14)/2
 186 003a 42       		.byte	(.L20-.L14)/2
 187 003b 42       		.byte	(.L20-.L14)/2
 188 003c 42       		.byte	(.L20-.L14)/2
 189 003d 42       		.byte	(.L20-.L14)/2
 190 003e 42       		.byte	(.L20-.L14)/2
 191 003f 42       		.byte	(.L20-.L14)/2
 192 0040 42       		.byte	(.L20-.L14)/2
 193 0041 42       		.byte	(.L20-.L14)/2
 194 0042 42       		.byte	(.L20-.L14)/2
 195 0043 42       		.byte	(.L20-.L14)/2
 196 0044 24       		.byte	(.L18-.L14)/2
 197 0045 42       		.byte	(.L20-.L14)/2
 198 0046 42       		.byte	(.L20-.L14)/2
 199 0047 42       		.byte	(.L20-.L14)/2
 200 0048 42       		.byte	(.L20-.L14)/2
 201 0049 42       		.byte	(.L20-.L14)/2
 202 004a 42       		.byte	(.L20-.L14)/2
 203 004b 42       		.byte	(.L20-.L14)/2
 204 004c 42       		.byte	(.L20-.L14)/2
 205 004d 42       		.byte	(.L20-.L14)/2
 206 004e 42       		.byte	(.L20-.L14)/2
 207 004f 42       		.byte	(.L20-.L14)/2
 208 0050 42       		.byte	(.L20-.L14)/2
 209 0051 42       		.byte	(.L20-.L14)/2
 210 0052 42       		.byte	(.L20-.L14)/2
 211 0053 42       		.byte	(.L20-.L14)/2
 212 0054 42       		.byte	(.L20-.L14)/2
 213 0055 42       		.byte	(.L20-.L14)/2
 214 0056 42       		.byte	(.L20-.L14)/2
 215 0057 42       		.byte	(.L20-.L14)/2
 216 0058 42       		.byte	(.L20-.L14)/2
 217 0059 3B       		.byte	(.L19-.L14)/2
 218              		.p2align 1
 219              	.L18:
 228:.\serialtest.c ****     {
 229:.\serialtest.c ****         case 'c':
 230:.\serialtest.c ****         case 'C':
 231:.\serialtest.c ****             if (is_cal_active) return 0;
 220              		.loc 1 231 0
 221 005a 114B     		ldr	r3, .L23
 222 005c 1B78     		ldrb	r3, [r3]	@ zero_extendqisi2
 223 005e E3B9     		cbnz	r3, .L21
 232:.\serialtest.c ****             is_cal_active = 1;
 224              		.loc 1 232 0
ARM GAS  C:\Users\Tim\AppData\Local\Temp\ccYrhjAY.s 			page 9


 225 0060 0120     		movs	r0, #1
 226              	.LVL11:
 227 0062 0F4B     		ldr	r3, .L23
 228 0064 1870     		strb	r0, [r3]
 233:.\serialtest.c ****             return CAL_REQUEST;
 229              		.loc 1 233 0
 230 0066 08BD     		pop	{r3, pc}
 231              	.LVL12:
 232              	.L13:
 234:.\serialtest.c ****             break;
 235:.\serialtest.c ****         
 236:.\serialtest.c ****         case '1':
 237:.\serialtest.c ****             Ser_WriteByte(value);
 233              		.loc 1 237 0
 234 0068 FFF7FEFF 		bl	Ser_WriteByte
 235              	.LVL13:
 238:.\serialtest.c ****             return MOTOR_CAL_CMD;
 236              		.loc 1 238 0
 237 006c 0220     		movs	r0, #2
 238 006e 08BD     		pop	{r3, pc}
 239              	.LVL14:
 240              	.L15:
 239:.\serialtest.c ****             break;
 240:.\serialtest.c ****         
 241:.\serialtest.c ****         case '2':
 242:.\serialtest.c ****             Ser_WriteByte(value);
 241              		.loc 1 242 0
 242 0070 FFF7FEFF 		bl	Ser_WriteByte
 243              	.LVL15:
 243:.\serialtest.c ****             return PID_CAL_CMD;
 244              		.loc 1 243 0
 245 0074 0320     		movs	r0, #3
 246 0076 08BD     		pop	{r3, pc}
 247              	.LVL16:
 248              	.L16:
 244:.\serialtest.c ****             break;
 245:.\serialtest.c ****         
 246:.\serialtest.c ****         case '3':
 247:.\serialtest.c ****             Ser_WriteByte(value);
 249              		.loc 1 247 0
 250 0078 FFF7FEFF 		bl	Ser_WriteByte
 251              	.LVL17:
 248:.\serialtest.c ****             return LIN_CAL_CMD;
 252              		.loc 1 248 0
 253 007c 0420     		movs	r0, #4
 254 007e 08BD     		pop	{r3, pc}
 255              	.LVL18:
 256              	.L17:
 249:.\serialtest.c ****             break;
 250:.\serialtest.c ****     
 251:.\serialtest.c ****         case '4':
 252:.\serialtest.c ****             Ser_WriteByte(value);
 257              		.loc 1 252 0
 258 0080 FFF7FEFF 		bl	Ser_WriteByte
 259              	.LVL19:
 253:.\serialtest.c ****             return ANG_CAL_CMD;
 260              		.loc 1 253 0
ARM GAS  C:\Users\Tim\AppData\Local\Temp\ccYrhjAY.s 			page 10


 261 0084 0520     		movs	r0, #5
 262 0086 08BD     		pop	{r3, pc}
 263              	.LVL20:
 264              	.L19:
 254:.\serialtest.c ****             break;
 255:.\serialtest.c **** 
 256:.\serialtest.c ****         case 'x':
 257:.\serialtest.c ****         case 'X':            
 258:.\serialtest.c ****             Ser_WriteByte(value);
 265              		.loc 1 258 0
 266 0088 FFF7FEFF 		bl	Ser_WriteByte
 267              	.LVL21:
 259:.\serialtest.c ****             is_cal_active = 0;
 268              		.loc 1 259 0
 269 008c 0022     		movs	r2, #0
 270 008e 044B     		ldr	r3, .L23
 271 0090 1A70     		strb	r2, [r3]
 260:.\serialtest.c ****             return EXIT_CMD;
 272              		.loc 1 260 0
 273 0092 0620     		movs	r0, #6
 274 0094 08BD     		pop	{r3, pc}
 275              	.LVL22:
 276              	.L20:
 261:.\serialtest.c ****             break;
 262:.\serialtest.c ****         
 263:.\serialtest.c ****         default:
 264:.\serialtest.c ****             return 0;
 277              		.loc 1 264 0
 278 0096 0020     		movs	r0, #0
 279              	.LVL23:
 280 0098 08BD     		pop	{r3, pc}
 281              	.LVL24:
 282              	.L21:
 231:.\serialtest.c ****             is_cal_active = 1;
 283              		.loc 1 231 0
 284 009a 0020     		movs	r0, #0
 285              	.LVL25:
 265:.\serialtest.c ****     }    
 266:.\serialtest.c **** }
 286              		.loc 1 266 0
 287 009c 08BD     		pop	{r3, pc}
 288              	.L24:
 289 009e 00BF     		.align	2
 290              	.L23:
 291 00a0 00000000 		.word	.LANCHOR0
 292              		.cfi_endproc
 293              	.LFE73:
 294              		.size	GetCommand, .-GetCommand
 295              		.global	__aeabi_d2f
 296              		.section	.text.ReadResponse,"ax",%progbits
 297              		.align	2
 298              		.thumb
 299              		.thumb_func
 300              		.type	ReadResponse, %function
 301              	ReadResponse:
 302              	.LFB75:
 267:.\serialtest.c **** 
ARM GAS  C:\Users\Tim\AppData\Local\Temp\ccYrhjAY.s 			page 11


 268:.\serialtest.c **** static void DisplayMenu()
 269:.\serialtest.c **** {
 270:.\serialtest.c ****     Ser_PutString("\r\nWelcome to the Arlobot calibration interface.\r\n");
 271:.\serialtest.c ****     Ser_PutString("The following calibration operations are allowed:\r\n");
 272:.\serialtest.c ****     Ser_PutString("    1. Motor Calibration - creates mapping between count/sec and PWM.\r\n");
 273:.\serialtest.c ****     Ser_PutString("    2. PID Calibration - determines the PID gains that minimizes velocity error.
 274:.\serialtest.c ****     Ser_PutString("    3. Linear Bias - moves forward 1 meter and allows user to enter a ratio to b
 275:.\serialtest.c ****     Ser_PutString("    4. Angular Bias - rotates 360 degrees and allows user to enter a ratio to be
 276:.\serialtest.c ****     Ser_PutString("\r\n");
 277:.\serialtest.c ****     Ser_PutString("Enter a number [1-4]: ");
 278:.\serialtest.c **** }
 279:.\serialtest.c **** 
 280:.\serialtest.c **** static float ReadResponse()
 281:.\serialtest.c **** {
 303              		.loc 1 281 0
 304              		.cfi_startproc
 305              		@ args = 0, pretend = 0, frame = 8
 306              		@ frame_needed = 0, uses_anonymous_args = 0
 307 0000 30B5     		push	{r4, r5, lr}
 308              		.cfi_def_cfa_offset 12
 309              		.cfi_offset 4, -12
 310              		.cfi_offset 5, -8
 311              		.cfi_offset 14, -4
 312 0002 83B0     		sub	sp, sp, #12
 313              		.cfi_def_cfa_offset 24
 314              	.LVL26:
 282:.\serialtest.c ****     uint8 digits[6];
 283:.\serialtest.c ****     uint8 index = 0;
 315              		.loc 1 283 0
 316 0004 0024     		movs	r4, #0
 317              	.LVL27:
 318              	.L28:
 284:.\serialtest.c ****     uint8 value;
 285:.\serialtest.c ****     do
 286:.\serialtest.c ****     {
 287:.\serialtest.c ****         Ser_Update();
 319              		.loc 1 287 0
 320 0006 FFF7FEFF 		bl	Ser_Update
 321              	.LVL28:
 288:.\serialtest.c ****         
 289:.\serialtest.c ****         value = Ser_ReadByte();
 322              		.loc 1 289 0
 323 000a FFF7FEFF 		bl	Ser_ReadByte
 324              	.LVL29:
 325 000e 0546     		mov	r5, r0
 326              	.LVL30:
 290:.\serialtest.c ****         Ser_WriteByte(value);
 327              		.loc 1 290 0
 328 0010 FFF7FEFF 		bl	Ser_WriteByte
 329              	.LVL31:
 291:.\serialtest.c ****         if ( (value >= '0' && value <= '9') || value == '.')
 330              		.loc 1 291 0
 331 0014 A5F13003 		sub	r3, r5, #48
 332 0018 DBB2     		uxtb	r3, r3
 333 001a 092B     		cmp	r3, #9
 334 001c 01D9     		bls	.L26
 335              		.loc 1 291 0 is_stmt 0 discriminator 1
ARM GAS  C:\Users\Tim\AppData\Local\Temp\ccYrhjAY.s 			page 12


 336 001e 2E2D     		cmp	r5, #46
 337 0020 05D1     		bne	.L27
 338              	.L26:
 292:.\serialtest.c ****         {
 293:.\serialtest.c ****             digits[index] = value;
 339              		.loc 1 293 0 is_stmt 1
 340 0022 02AB     		add	r3, sp, #8
 341 0024 2344     		add	r3, r3, r4
 342 0026 03F8085C 		strb	r5, [r3, #-8]
 294:.\serialtest.c ****             index++;
 343              		.loc 1 294 0
 344 002a 0134     		adds	r4, r4, #1
 345              	.LVL32:
 346 002c E4B2     		uxtb	r4, r4
 347              	.LVL33:
 348              	.L27:
 295:.\serialtest.c ****         }
 296:.\serialtest.c ****     } while (index < 5);
 349              		.loc 1 296 0
 350 002e 042C     		cmp	r4, #4
 351 0030 E9D9     		bls	.L28
 297:.\serialtest.c ****     
 298:.\serialtest.c ****     digits[5] = '\0';
 352              		.loc 1 298 0
 353 0032 0023     		movs	r3, #0
 354 0034 8DF80530 		strb	r3, [sp, #5]
 299:.\serialtest.c ****     
 300:.\serialtest.c ****     float result = atof((char *) digits);
 355              		.loc 1 300 0
 356 0038 6846     		mov	r0, sp
 357 003a FFF7FEFF 		bl	atof
 358              	.LVL34:
 359 003e FFF7FEFF 		bl	__aeabi_d2f
 360              	.LVL35:
 301:.\serialtest.c ****     
 302:.\serialtest.c ****     return result;
 303:.\serialtest.c **** }
 361              		.loc 1 303 0
 362 0042 03B0     		add	sp, sp, #12
 363              		.cfi_def_cfa_offset 12
 364              		@ sp needed
 365 0044 30BD     		pop	{r4, r5, pc}
 366              		.cfi_endproc
 367              	.LFE75:
 368              		.size	ReadResponse, .-ReadResponse
 369 0046 00BF     		.section	.text.Ser_PutString,"ax",%progbits
 370              		.align	2
 371              		.thumb
 372              		.thumb_func
 373              		.type	Ser_PutString, %function
 374              	Ser_PutString:
 375              	.LFB68:
 108:.\serialtest.c ****     if (0u != USBUART_GetConfiguration())
 376              		.loc 1 108 0
 377              		.cfi_startproc
 378              		@ args = 0, pretend = 0, frame = 0
 379              		@ frame_needed = 0, uses_anonymous_args = 0
ARM GAS  C:\Users\Tim\AppData\Local\Temp\ccYrhjAY.s 			page 13


 380              	.LVL36:
 381 0000 10B5     		push	{r4, lr}
 382              		.cfi_def_cfa_offset 8
 383              		.cfi_offset 4, -8
 384              		.cfi_offset 14, -4
 385 0002 0446     		mov	r4, r0
 109:.\serialtest.c ****     {
 386              		.loc 1 109 0
 387 0004 FFF7FEFF 		bl	USBUART_GetConfiguration
 388              	.LVL37:
 389 0008 30B1     		cbz	r0, .L30
 390              	.L32:
 111:.\serialtest.c ****         {
 391              		.loc 1 111 0 discriminator 1
 392 000a FFF7FEFF 		bl	USBUART_CDCIsReady
 393              	.LVL38:
 394 000e 0028     		cmp	r0, #0
 395 0010 FBD0     		beq	.L32
 115:.\serialtest.c ****     }
 396              		.loc 1 115 0
 397 0012 2046     		mov	r0, r4
 398 0014 FFF7FEFF 		bl	USBUART_PutString
 399              	.LVL39:
 400              	.L30:
 401 0018 10BD     		pop	{r4, pc}
 402              		.cfi_endproc
 403              	.LFE68:
 404              		.size	Ser_PutString, .-Ser_PutString
 405 001a 00BF     		.section	.text.DisplayMenu,"ax",%progbits
 406              		.align	2
 407              		.thumb
 408              		.thumb_func
 409              		.type	DisplayMenu, %function
 410              	DisplayMenu:
 411              	.LFB74:
 269:.\serialtest.c ****     Ser_PutString("\r\nWelcome to the Arlobot calibration interface.\r\n");
 412              		.loc 1 269 0
 413              		.cfi_startproc
 414              		@ args = 0, pretend = 0, frame = 0
 415              		@ frame_needed = 0, uses_anonymous_args = 0
 416 0000 08B5     		push	{r3, lr}
 417              		.cfi_def_cfa_offset 8
 418              		.cfi_offset 3, -8
 419              		.cfi_offset 14, -4
 270:.\serialtest.c ****     Ser_PutString("The following calibration operations are allowed:\r\n");
 420              		.loc 1 270 0
 421 0002 0C48     		ldr	r0, .L36
 422 0004 FFF7FEFF 		bl	Ser_PutString
 423              	.LVL40:
 271:.\serialtest.c ****     Ser_PutString("    1. Motor Calibration - creates mapping between count/sec and PWM.\r\n");
 424              		.loc 1 271 0
 425 0008 0B48     		ldr	r0, .L36+4
 426 000a FFF7FEFF 		bl	Ser_PutString
 427              	.LVL41:
 272:.\serialtest.c ****     Ser_PutString("    2. PID Calibration - determines the PID gains that minimizes velocity error.
 428              		.loc 1 272 0
 429 000e 0B48     		ldr	r0, .L36+8
ARM GAS  C:\Users\Tim\AppData\Local\Temp\ccYrhjAY.s 			page 14


 430 0010 FFF7FEFF 		bl	Ser_PutString
 431              	.LVL42:
 273:.\serialtest.c ****     Ser_PutString("    3. Linear Bias - moves forward 1 meter and allows user to enter a ratio to b
 432              		.loc 1 273 0
 433 0014 0A48     		ldr	r0, .L36+12
 434 0016 FFF7FEFF 		bl	Ser_PutString
 435              	.LVL43:
 274:.\serialtest.c ****     Ser_PutString("    4. Angular Bias - rotates 360 degrees and allows user to enter a ratio to be
 436              		.loc 1 274 0
 437 001a 0A48     		ldr	r0, .L36+16
 438 001c FFF7FEFF 		bl	Ser_PutString
 439              	.LVL44:
 275:.\serialtest.c ****     Ser_PutString("\r\n");
 440              		.loc 1 275 0
 441 0020 0948     		ldr	r0, .L36+20
 442 0022 FFF7FEFF 		bl	Ser_PutString
 443              	.LVL45:
 276:.\serialtest.c ****     Ser_PutString("Enter a number [1-4]: ");
 444              		.loc 1 276 0
 445 0026 0948     		ldr	r0, .L36+24
 446 0028 FFF7FEFF 		bl	Ser_PutString
 447              	.LVL46:
 277:.\serialtest.c **** }
 448              		.loc 1 277 0
 449 002c 0848     		ldr	r0, .L36+28
 450 002e FFF7FEFF 		bl	Ser_PutString
 451              	.LVL47:
 452 0032 08BD     		pop	{r3, pc}
 453              	.L37:
 454              		.align	2
 455              	.L36:
 456 0034 00000000 		.word	.LC0
 457 0038 34000000 		.word	.LC1
 458 003c 68000000 		.word	.LC2
 459 0040 B0000000 		.word	.LC3
 460 0044 04010000 		.word	.LC4
 461 0048 7C010000 		.word	.LC5
 462 004c F4010000 		.word	.LC6
 463 0050 F8010000 		.word	.LC7
 464              		.cfi_endproc
 465              	.LFE74:
 466              		.size	DisplayMenu, .-DisplayMenu
 467              		.global	__aeabi_fdiv
 468              		.section	.text.writeread,"ax",%progbits
 469              		.align	2
 470              		.thumb
 471              		.thumb_func
 472              		.type	writeread, %function
 473              	writeread:
 474              	.LFB76:
 304:.\serialtest.c **** 
 305:.\serialtest.c **** static void writeread()
 306:.\serialtest.c **** {
 475              		.loc 1 306 0
 476              		.cfi_startproc
 477              		@ args = 0, pretend = 0, frame = 72
 478              		@ frame_needed = 0, uses_anonymous_args = 0
ARM GAS  C:\Users\Tim\AppData\Local\Temp\ccYrhjAY.s 			page 15


 479 0000 00B5     		push	{lr}
 480              		.cfi_def_cfa_offset 4
 481              		.cfi_offset 14, -4
 482 0002 93B0     		sub	sp, sp, #76
 483              		.cfi_def_cfa_offset 80
 484              	.L39:
 485              	.LBB2:
 307:.\serialtest.c ****     char buffer[64];
 308:.\serialtest.c ****     
 309:.\serialtest.c ****     for (;;)
 310:.\serialtest.c ****     {
 311:.\serialtest.c ****         Ser_Update();
 486              		.loc 1 311 0
 487 0004 FFF7FEFF 		bl	Ser_Update
 488              	.LVL48:
 312:.\serialtest.c **** 
 313:.\serialtest.c ****         uint8 cmd = GetCommand();
 489              		.loc 1 313 0
 490 0008 FFF7FEFF 		bl	GetCommand
 491              	.LVL49:
 314:.\serialtest.c **** 
 315:.\serialtest.c ****         switch (cmd)
 492              		.loc 1 315 0
 493 000c 0138     		subs	r0, r0, #1
 494              	.LVL50:
 495 000e 0528     		cmp	r0, #5
 496 0010 F8D8     		bhi	.L39
 497 0012 DFE800F0 		tbb	[pc, r0]
 498              	.L41:
 499 0016 03       		.byte	(.L40-.L41)/2
 500 0017 06       		.byte	(.L42-.L41)/2
 501 0018 13       		.byte	(.L43-.L41)/2
 502 0019 20       		.byte	(.L44-.L41)/2
 503 001a 43       		.byte	(.L45-.L41)/2
 504 001b 65       		.byte	(.L46-.L41)/2
 505              		.p2align 1
 506              	.L40:
 507              	.LBB3:
 316:.\serialtest.c ****         {
 317:.\serialtest.c ****             case CAL_REQUEST:
 318:.\serialtest.c ****                 DisplayMenu();
 508              		.loc 1 318 0
 509 001c FFF7FEFF 		bl	DisplayMenu
 510              	.LVL51:
 319:.\serialtest.c ****                 break;           
 511              		.loc 1 319 0
 512 0020 F0E7     		b	.L39
 513              	.L42:
 320:.\serialtest.c ****             case MOTOR_CAL_CMD:
 321:.\serialtest.c ****                 Ser_PutString("\r\nPerforming motor calibration\r\n");
 514              		.loc 1 321 0
 515 0022 3148     		ldr	r0, .L50
 516 0024 FFF7FEFF 		bl	Ser_PutString
 517              	.LVL52:
 322:.\serialtest.c ****                 CyDelay(1000);
 518              		.loc 1 322 0
 519 0028 4FF47A70 		mov	r0, #1000
ARM GAS  C:\Users\Tim\AppData\Local\Temp\ccYrhjAY.s 			page 16


 520 002c FFF7FEFF 		bl	CyDelay
 521              	.LVL53:
 323:.\serialtest.c ****                 Ser_PutString("Motor calibration complete\r\n");
 522              		.loc 1 323 0
 523 0030 2E48     		ldr	r0, .L50+4
 524 0032 FFF7FEFF 		bl	Ser_PutString
 525              	.LVL54:
 324:.\serialtest.c ****                 DisplayMenu();
 526              		.loc 1 324 0
 527 0036 FFF7FEFF 		bl	DisplayMenu
 528              	.LVL55:
 325:.\serialtest.c ****                 break;           
 529              		.loc 1 325 0
 530 003a E3E7     		b	.L39
 531              	.L43:
 326:.\serialtest.c ****             case PID_CAL_CMD:
 327:.\serialtest.c ****                 Ser_PutString("\r\nPerforming pid calibration\r\n");
 532              		.loc 1 327 0
 533 003c 2C48     		ldr	r0, .L50+8
 534 003e FFF7FEFF 		bl	Ser_PutString
 535              	.LVL56:
 328:.\serialtest.c ****                 CyDelay(1000);
 536              		.loc 1 328 0
 537 0042 4FF47A70 		mov	r0, #1000
 538 0046 FFF7FEFF 		bl	CyDelay
 539              	.LVL57:
 329:.\serialtest.c ****                 Ser_PutString("PID calibration complete\r\n");
 540              		.loc 1 329 0
 541 004a 2A48     		ldr	r0, .L50+12
 542 004c FFF7FEFF 		bl	Ser_PutString
 543              	.LVL58:
 330:.\serialtest.c ****                 DisplayMenu();
 544              		.loc 1 330 0
 545 0050 FFF7FEFF 		bl	DisplayMenu
 546              	.LVL59:
 331:.\serialtest.c ****                 break;           
 547              		.loc 1 331 0
 548 0054 D6E7     		b	.L39
 549              	.L44:
 332:.\serialtest.c ****             case LIN_CAL_CMD:
 333:.\serialtest.c ****                 Ser_PutString("\r\nPerforming linear bias calibration\r\n");
 550              		.loc 1 333 0
 551 0056 2848     		ldr	r0, .L50+16
 552 0058 FFF7FEFF 		bl	Ser_PutString
 553              	.LVL60:
 334:.\serialtest.c ****                 CyDelay(1000);
 554              		.loc 1 334 0
 555 005c 4FF47A70 		mov	r0, #1000
 556 0060 FFF7FEFF 		bl	CyDelay
 557              	.LVL61:
 335:.\serialtest.c ****                 Ser_PutString("Enter the measured distance (in meters): ");
 558              		.loc 1 335 0
 559 0064 2548     		ldr	r0, .L50+20
 560 0066 FFF7FEFF 		bl	Ser_PutString
 561              	.LVL62:
 336:.\serialtest.c ****                 float meas_dist = ReadResponse();
 562              		.loc 1 336 0
ARM GAS  C:\Users\Tim\AppData\Local\Temp\ccYrhjAY.s 			page 17


 563 006a FFF7FEFF 		bl	ReadResponse
 564              	.LVL63:
 565 006e 0146     		mov	r1, r0
 566              	.LVL64:
 337:.\serialtest.c ****                 float linear_bias = 1.0 / meas_dist;
 567              		.loc 1 337 0
 568 0070 4FF07E50 		mov	r0, #1065353216
 569              	.LVL65:
 570 0074 FFF7FEFF 		bl	__aeabi_fdiv
 571              	.LVL66:
 338:.\serialtest.c ****                 char linear_bias_str[6];
 339:.\serialtest.c ****                 ftoa(linear_bias, linear_bias_str, 3);
 572              		.loc 1 339 0
 573 0078 6946     		mov	r1, sp
 574 007a 0322     		movs	r2, #3
 575 007c FFF7FEFF 		bl	ftoa
 576              	.LVL67:
 340:.\serialtest.c ****                 sprintf(buffer, "\r\nlinear bias: %s\r\n", linear_bias_str);
 577              		.loc 1 340 0
 578 0080 02A8     		add	r0, sp, #8
 579 0082 1F49     		ldr	r1, .L50+24
 580 0084 6A46     		mov	r2, sp
 581 0086 FFF7FEFF 		bl	sprintf
 582              	.LVL68:
 341:.\serialtest.c ****                 Ser_PutString(buffer);
 583              		.loc 1 341 0
 584 008a 02A8     		add	r0, sp, #8
 585 008c FFF7FEFF 		bl	Ser_PutString
 586              	.LVL69:
 342:.\serialtest.c ****                 Ser_PutString("Linear bias calibration complete\r\n");
 587              		.loc 1 342 0
 588 0090 1C48     		ldr	r0, .L50+28
 589 0092 FFF7FEFF 		bl	Ser_PutString
 590              	.LVL70:
 343:.\serialtest.c ****                 DisplayMenu();
 591              		.loc 1 343 0
 592 0096 FFF7FEFF 		bl	DisplayMenu
 593              	.LVL71:
 344:.\serialtest.c ****                 break;           
 594              		.loc 1 344 0
 595 009a B3E7     		b	.L39
 596              	.L45:
 345:.\serialtest.c ****             case ANG_CAL_CMD:
 346:.\serialtest.c ****                 Ser_PutString("\r\nPerforming angular bias calibration\r\n");
 597              		.loc 1 346 0
 598 009c 1A48     		ldr	r0, .L50+32
 599 009e FFF7FEFF 		bl	Ser_PutString
 600              	.LVL72:
 347:.\serialtest.c ****                 CyDelay(1000);
 601              		.loc 1 347 0
 602 00a2 4FF47A70 		mov	r0, #1000
 603 00a6 FFF7FEFF 		bl	CyDelay
 604              	.LVL73:
 348:.\serialtest.c ****                 Ser_PutString("Enter the measured distance (in meters): ");
 605              		.loc 1 348 0
 606 00aa 1448     		ldr	r0, .L50+20
 607 00ac FFF7FEFF 		bl	Ser_PutString
ARM GAS  C:\Users\Tim\AppData\Local\Temp\ccYrhjAY.s 			page 18


 608              	.LVL74:
 349:.\serialtest.c ****                 float meas_rotation = ReadResponse();
 609              		.loc 1 349 0
 610 00b0 FFF7FEFF 		bl	ReadResponse
 611              	.LVL75:
 612 00b4 0146     		mov	r1, r0
 613              	.LVL76:
 350:.\serialtest.c ****                 float angular_bias = 360 / meas_rotation;
 614              		.loc 1 350 0
 615 00b6 1548     		ldr	r0, .L50+36
 616              	.LVL77:
 617 00b8 FFF7FEFF 		bl	__aeabi_fdiv
 618              	.LVL78:
 351:.\serialtest.c ****                 char angular_bias_str[6];
 352:.\serialtest.c ****                 ftoa(angular_bias, angular_bias_str, 3);
 619              		.loc 1 352 0
 620 00bc 6946     		mov	r1, sp
 621 00be 0322     		movs	r2, #3
 622 00c0 FFF7FEFF 		bl	ftoa
 623              	.LVL79:
 353:.\serialtest.c ****                 sprintf(buffer, "\r\nangular bias: %s\r\n", angular_bias_str);
 624              		.loc 1 353 0
 625 00c4 02A8     		add	r0, sp, #8
 626 00c6 1249     		ldr	r1, .L50+40
 627 00c8 6A46     		mov	r2, sp
 628 00ca FFF7FEFF 		bl	sprintf
 629              	.LVL80:
 354:.\serialtest.c ****                 Ser_PutString(buffer);
 630              		.loc 1 354 0
 631 00ce 02A8     		add	r0, sp, #8
 632 00d0 FFF7FEFF 		bl	Ser_PutString
 633              	.LVL81:
 355:.\serialtest.c ****                 Ser_PutString("Angular bias calibration complete\r\n");
 634              		.loc 1 355 0
 635 00d4 0F48     		ldr	r0, .L50+44
 636 00d6 FFF7FEFF 		bl	Ser_PutString
 637              	.LVL82:
 356:.\serialtest.c ****                 DisplayMenu();
 638              		.loc 1 356 0
 639 00da FFF7FEFF 		bl	DisplayMenu
 640              	.LVL83:
 357:.\serialtest.c ****                 break;           
 641              		.loc 1 357 0
 642 00de 91E7     		b	.L39
 643              	.L46:
 358:.\serialtest.c ****             case EXIT_CMD:
 359:.\serialtest.c ****                 Ser_PutString("\r\nExiting calibration\r\n");
 644              		.loc 1 359 0
 645 00e0 0D48     		ldr	r0, .L50+48
 646 00e2 FFF7FEFF 		bl	Ser_PutString
 647              	.LVL84:
 360:.\serialtest.c ****                 break;           
 648              		.loc 1 360 0
 649 00e6 8DE7     		b	.L39
 650              	.L51:
 651              		.align	2
 652              	.L50:
ARM GAS  C:\Users\Tim\AppData\Local\Temp\ccYrhjAY.s 			page 19


 653 00e8 10020000 		.word	.LC8
 654 00ec 34020000 		.word	.LC9
 655 00f0 54020000 		.word	.LC10
 656 00f4 74020000 		.word	.LC11
 657 00f8 90020000 		.word	.LC12
 658 00fc B8020000 		.word	.LC13
 659 0100 E4020000 		.word	.LC14
 660 0104 F8020000 		.word	.LC15
 661 0108 1C030000 		.word	.LC16
 662 010c 0000B443 		.word	1135869952
 663 0110 44030000 		.word	.LC17
 664 0114 5C030000 		.word	.LC18
 665 0118 80030000 		.word	.LC19
 666              	.LBE3:
 667              	.LBE2:
 668              		.cfi_endproc
 669              	.LFE76:
 670              		.size	writeread, .-writeread
 671              		.section	.text.UsbuartTest,"ax",%progbits
 672              		.align	2
 673              		.global	UsbuartTest
 674              		.thumb
 675              		.thumb_func
 676              		.type	UsbuartTest, %function
 677              	UsbuartTest:
 678              	.LFB77:
 361:.\serialtest.c ****         }
 362:.\serialtest.c ****     }
 363:.\serialtest.c **** }
 364:.\serialtest.c **** 
 365:.\serialtest.c **** void UsbuartTest()
 366:.\serialtest.c **** {
 679              		.loc 1 366 0
 680              		.cfi_startproc
 681              		@ Volatile: function does not return.
 682              		@ args = 0, pretend = 0, frame = 0
 683              		@ frame_needed = 0, uses_anonymous_args = 0
 684 0000 08B5     		push	{r3, lr}
 685              		.cfi_def_cfa_offset 8
 686              		.cfi_offset 3, -8
 687              		.cfi_offset 14, -4
 367:.\serialtest.c ****     /* Start USBFS operation with 5-V operation. */
 368:.\serialtest.c ****     USBUART_Start(USBFS_DEVICE, USBUART_5V_OPERATION);
 688              		.loc 1 368 0
 689 0002 0020     		movs	r0, #0
 690 0004 0121     		movs	r1, #1
 691 0006 FFF7FEFF 		bl	USBUART_Start
 692              	.LVL85:
 369:.\serialtest.c **** 
 370:.\serialtest.c ****     //example();
 371:.\serialtest.c ****     //echochar();
 372:.\serialtest.c ****     writeread();
 693              		.loc 1 372 0
 694 000a FFF7FEFF 		bl	writeread
 695              	.LVL86:
 696              		.cfi_endproc
 697              	.LFE77:
ARM GAS  C:\Users\Tim\AppData\Local\Temp\ccYrhjAY.s 			page 20


 698              		.size	UsbuartTest, .-UsbuartTest
 699              		.comm	buffer,64,4
 700              		.comm	count,2,2
 701 000e 00BF     		.section	.rodata.str1.4,"aMS",%progbits,1
 702              		.align	2
 703              	.LC0:
 704 0000 0D0A5765 		.ascii	"\015\012Welcome to the Arlobot calibration interfac"
 704      6C636F6D 
 704      6520746F 
 704      20746865 
 704      2041726C 
 705 002d 652E0D0A 		.ascii	"e.\015\012\000"
 705      00
 706 0032 0000     		.space	2
 707              	.LC1:
 708 0034 54686520 		.ascii	"The following calibration operations are allowed:\015"
 708      666F6C6C 
 708      6F77696E 
 708      67206361 
 708      6C696272 
 709 0066 0A00     		.ascii	"\012\000"
 710              	.LC2:
 711 0068 20202020 		.ascii	"    1. Motor Calibration - creates mapping between "
 711      312E204D 
 711      6F746F72 
 711      2043616C 
 711      69627261 
 712 009b 636F756E 		.ascii	"count/sec and PWM.\015\012\000"
 712      742F7365 
 712      6320616E 
 712      64205057 
 712      4D2E0D0A 
 713              	.LC3:
 714 00b0 20202020 		.ascii	"    2. PID Calibration - determines the PID gains t"
 714      322E2050 
 714      49442043 
 714      616C6962 
 714      72617469 
 715 00e3 68617420 		.ascii	"hat minimizes velocity error.\015\012\000"
 715      6D696E69 
 715      6D697A65 
 715      73207665 
 715      6C6F6369 
 716 0103 00       		.space	1
 717              	.LC4:
 718 0104 20202020 		.ascii	"    3. Linear Bias - moves forward 1 meter and allo"
 718      332E204C 
 718      696E6561 
 718      72204269 
 718      6173202D 
 719 0137 77732075 		.ascii	"ws user to enter a ratio to be applied as a bias in"
 719      73657220 
 719      746F2065 
 719      6E746572 
 719      20612072 
 720 016a 206C696E 		.ascii	" linear motion\015\012\000"
 720      65617220 
ARM GAS  C:\Users\Tim\AppData\Local\Temp\ccYrhjAY.s 			page 21


 720      6D6F7469 
 720      6F6E0D0A 
 720      00
 721 017b 00       		.space	1
 722              	.LC5:
 723 017c 20202020 		.ascii	"    4. Angular Bias - rotates 360 degrees and allow"
 723      342E2041 
 723      6E67756C 
 723      61722042 
 723      69617320 
 724 01af 73207573 		.ascii	"s user to enter a ratio to be applied as a bias in "
 724      65722074 
 724      6F20656E 
 724      74657220 
 724      61207261 
 725 01e2 616E6775 		.ascii	"angular motion\015\012\000"
 725      6C617220 
 725      6D6F7469 
 725      6F6E0D0A 
 725      00
 726 01f3 00       		.space	1
 727              	.LC6:
 728 01f4 0D0A00   		.ascii	"\015\012\000"
 729 01f7 00       		.space	1
 730              	.LC7:
 731 01f8 456E7465 		.ascii	"Enter a number [1-4]: \000"
 731      72206120 
 731      6E756D62 
 731      6572205B 
 731      312D345D 
 732 020f 00       		.space	1
 733              	.LC8:
 734 0210 0D0A5065 		.ascii	"\015\012Performing motor calibration\015\012\000"
 734      72666F72 
 734      6D696E67 
 734      206D6F74 
 734      6F722063 
 735 0231 000000   		.space	3
 736              	.LC9:
 737 0234 4D6F746F 		.ascii	"Motor calibration complete\015\012\000"
 737      72206361 
 737      6C696272 
 737      6174696F 
 737      6E20636F 
 738 0251 000000   		.space	3
 739              	.LC10:
 740 0254 0D0A5065 		.ascii	"\015\012Performing pid calibration\015\012\000"
 740      72666F72 
 740      6D696E67 
 740      20706964 
 740      2063616C 
 741 0273 00       		.space	1
 742              	.LC11:
 743 0274 50494420 		.ascii	"PID calibration complete\015\012\000"
 743      63616C69 
 743      62726174 
 743      696F6E20 
ARM GAS  C:\Users\Tim\AppData\Local\Temp\ccYrhjAY.s 			page 22


 743      636F6D70 
 744 028f 00       		.space	1
 745              	.LC12:
 746 0290 0D0A5065 		.ascii	"\015\012Performing linear bias calibration\015\012\000"
 746      72666F72 
 746      6D696E67 
 746      206C696E 
 746      65617220 
 747 02b7 00       		.space	1
 748              	.LC13:
 749 02b8 456E7465 		.ascii	"Enter the measured distance (in meters): \000"
 749      72207468 
 749      65206D65 
 749      61737572 
 749      65642064 
 750 02e2 0000     		.space	2
 751              	.LC14:
 752 02e4 0D0A6C69 		.ascii	"\015\012linear bias: %s\015\012\000"
 752      6E656172 
 752      20626961 
 752      733A2025 
 752      730D0A00 
 753              	.LC15:
 754 02f8 4C696E65 		.ascii	"Linear bias calibration complete\015\012\000"
 754      61722062 
 754      69617320 
 754      63616C69 
 754      62726174 
 755 031b 00       		.space	1
 756              	.LC16:
 757 031c 0D0A5065 		.ascii	"\015\012Performing angular bias calibration\015\012"
 757      72666F72 
 757      6D696E67 
 757      20616E67 
 757      756C6172 
 758 0343 00       		.ascii	"\000"
 759              	.LC17:
 760 0344 0D0A616E 		.ascii	"\015\012angular bias: %s\015\012\000"
 760      67756C61 
 760      72206269 
 760      61733A20 
 760      25730D0A 
 761 0359 000000   		.space	3
 762              	.LC18:
 763 035c 416E6775 		.ascii	"Angular bias calibration complete\015\012\000"
 763      6C617220 
 763      62696173 
 763      2063616C 
 763      69627261 
 764              	.LC19:
 765 0380 0D0A4578 		.ascii	"\015\012Exiting calibration\015\012\000"
 765      6974696E 
 765      67206361 
 765      6C696272 
 765      6174696F 
 766              		.bss
 767              		.set	.LANCHOR0,. + 0
ARM GAS  C:\Users\Tim\AppData\Local\Temp\ccYrhjAY.s 			page 23


 768              		.type	is_cal_active.7113, %object
 769              		.size	is_cal_active.7113, 1
 770              	is_cal_active.7113:
 771 0000 00       		.space	1
 772              		.text
 773              	.Letext0:
 774              		.file 2 "c:\\program files (x86)\\cypress\\psoc creator\\3.3\\psoc creator\\import\\gnu\\arm\\4.9.
 775              		.file 3 "c:\\program files (x86)\\cypress\\psoc creator\\3.3\\psoc creator\\import\\gnu\\arm\\4.9.
 776              		.file 4 "Generated_Source\\PSoC5/cytypes.h"
 777              		.file 5 "Generated_Source\\PSoC5/core_cm3.h"
 778              		.file 6 "Generated_Source\\PSoC5/USBUART.h"
 779              		.file 7 "Generated_Source\\PSoC5/USBUART_cdc.h"
 780              		.file 8 "Generated_Source\\PSoC5/CyLib.h"
 781              		.file 9 ".\\../source/utils.h"
 782              		.file 10 "c:\\program files (x86)\\cypress\\psoc creator\\3.3\\psoc creator\\import\\gnu\\arm\\4.9
 783              		.file 11 "c:\\program files (x86)\\cypress\\psoc creator\\3.3\\psoc creator\\import\\gnu\\arm\\4.9