ARM GAS  C:\Users\Tim\AppData\Local\Temp\ccDOzmgT.s 			page 1


   1              		.syntax unified
   2              		.cpu cortex-m3
   3              		.fpu softvfp
   4              		.eabi_attribute 20, 1
   5              		.eabi_attribute 21, 1
   6              		.eabi_attribute 23, 3
   7              		.eabi_attribute 24, 1
   8              		.eabi_attribute 25, 1
   9              		.eabi_attribute 26, 1
  10              		.eabi_attribute 30, 1
  11              		.eabi_attribute 34, 1
  12              		.eabi_attribute 18, 4
  13              		.thumb
  14              		.file	"utils.c"
  15              		.text
  16              	.Ltext0:
  17              		.cfi_sections	.debug_frame
  18              		.section	.text.insert_zeros,"ax",%progbits
  19              		.align	2
  20              		.thumb
  21              		.thumb_func
  22              		.type	insert_zeros, %function
  23              	insert_zeros:
  24              	.LFB74:
  25              		.file 1 "..\\source\\utils.c"
   1:..\source/utils.c **** /* ========================================
   2:..\source/utils.c ****  *
   3:..\source/utils.c ****  * Copyright YOUR COMPANY, THE YEAR
   4:..\source/utils.c ****  * All Rights Reserved
   5:..\source/utils.c ****  * UNPUBLISHED, LICENSED SOFTWARE.
   6:..\source/utils.c ****  *
   7:..\source/utils.c ****  * CONFIDENTIAL AND PROPRIETARY INFORMATION
   8:..\source/utils.c ****  * WHICH IS THE PROPERTY OF your company.
   9:..\source/utils.c ****  *
  10:..\source/utils.c ****  * ========================================
  11:..\source/utils.c **** */
  12:..\source/utils.c **** 
  13:..\source/utils.c **** #include <stdio.h>
  14:..\source/utils.c **** #include <stdlib.h>
  15:..\source/utils.c **** #include <math.h>
  16:..\source/utils.c **** #include "utils.h"
  17:..\source/utils.c **** 
  18:..\source/utils.c **** int32 MovingAverage(MOVING_AVERAGE_TYPE* ma, int32 value)
  19:..\source/utils.c **** /*
  20:..\source/utils.c **** MA*[i]= MA*[i-1] +X[i] - MA*[i-1]/N
  21:..\source/utils.c **** 
  22:..\source/utils.c **** where MA* is the moving average*N. 
  23:..\source/utils.c **** 
  24:..\source/utils.c **** MA[i]= MA*[i]/N
  25:..\source/utils.c **** */
  26:..\source/utils.c **** {
  27:..\source/utils.c ****     int32 ma_curr;
  28:..\source/utils.c ****     
  29:..\source/utils.c ****     ma_curr = ma->last + value - ma->last/ma->n;
  30:..\source/utils.c ****     ma->last = ma_curr;
  31:..\source/utils.c ****     
  32:..\source/utils.c ****     return ma_curr/ma->n;
ARM GAS  C:\Users\Tim\AppData\Local\Temp\ccDOzmgT.s 			page 2


  33:..\source/utils.c **** }
  34:..\source/utils.c **** 
  35:..\source/utils.c **** float MovingAverageFloat(MOVING_AVERAGE_FLOAT_TYPE* ma, float value)
  36:..\source/utils.c **** /*
  37:..\source/utils.c **** MA*[i]= MA*[i-1] +X[i] - MA*[i-1]/N
  38:..\source/utils.c **** 
  39:..\source/utils.c **** where MA* is the moving average*N. 
  40:..\source/utils.c **** 
  41:..\source/utils.c **** MA[i]= MA*[i]/N
  42:..\source/utils.c **** */
  43:..\source/utils.c **** {
  44:..\source/utils.c ****     float ma_curr;
  45:..\source/utils.c ****     
  46:..\source/utils.c ****     ma_curr = ma->last + value - ma->last/ma->n;
  47:..\source/utils.c ****     ma->last = ma_curr;
  48:..\source/utils.c ****     
  49:..\source/utils.c ****     return ma_curr/ma->n;
  50:..\source/utils.c **** }
  51:..\source/utils.c **** 
  52:..\source/utils.c **** void Uint16ToTwoBytes(uint16 value, uint8* bytes)
  53:..\source/utils.c **** {
  54:..\source/utils.c ****     bytes[0] = (uint8) ((value & 0xFF00) >> 8);
  55:..\source/utils.c ****     bytes[1] = (uint8) (value & 0x00FF);
  56:..\source/utils.c **** }
  57:..\source/utils.c **** 
  58:..\source/utils.c **** void Uint32ToFourBytes(uint32 value, uint8* bytes)
  59:..\source/utils.c **** {
  60:..\source/utils.c ****     bytes[0] = (uint8) ((value & 0xFF000000) >> 24);
  61:..\source/utils.c ****     bytes[1] = (uint8) ((value & 0x00FF0000) >> 16);
  62:..\source/utils.c ****     bytes[2] = (uint8) ((value & 0x0000FF00) >> 8);
  63:..\source/utils.c ****     bytes[3] = (uint8) (value & 0x000000FF);
  64:..\source/utils.c **** }
  65:..\source/utils.c **** 
  66:..\source/utils.c **** void Int32ToFourBytes(int32 value, uint8* bytes)
  67:..\source/utils.c **** {
  68:..\source/utils.c ****     Uint32ToFourBytes((uint32)value, bytes);
  69:..\source/utils.c **** }
  70:..\source/utils.c **** 
  71:..\source/utils.c **** void FloatToFourBytes(float value, uint8* bytes)
  72:..\source/utils.c **** {
  73:..\source/utils.c ****     uint8 *p_bytes = (uint8 *) &value;
  74:..\source/utils.c ****     
  75:..\source/utils.c ****     bytes[0] = p_bytes[0];
  76:..\source/utils.c ****     bytes[1] = p_bytes[1];
  77:..\source/utils.c ****     bytes[2] = p_bytes[2];
  78:..\source/utils.c ****     bytes[3] = p_bytes[3];
  79:..\source/utils.c **** }
  80:..\source/utils.c **** 
  81:..\source/utils.c **** uint16 TwoBytesToUint16(uint8* bytes)
  82:..\source/utils.c **** {
  83:..\source/utils.c ****     uint16 upper = bytes[0] << 8;
  84:..\source/utils.c ****     uint16 lower = bytes[1];
  85:..\source/utils.c ****     return upper + lower;
  86:..\source/utils.c **** }
  87:..\source/utils.c **** 
  88:..\source/utils.c **** int16 TwoBytesInt16(uint8* bytes)
  89:..\source/utils.c **** {
ARM GAS  C:\Users\Tim\AppData\Local\Temp\ccDOzmgT.s 			page 3


  90:..\source/utils.c ****     return (int16) TwoBytesToUint16(bytes);
  91:..\source/utils.c **** }
  92:..\source/utils.c **** 
  93:..\source/utils.c **** uint32 FourBytesToUint32(uint8* bytes)
  94:..\source/utils.c **** {
  95:..\source/utils.c ****     return (uint32) ( (bytes[0] << 24) + (bytes[1] << 16) + (bytes[2] << 8) + bytes[3] );
  96:..\source/utils.c **** }
  97:..\source/utils.c **** 
  98:..\source/utils.c **** int32 FourBytesToInt32(uint8* bytes)
  99:..\source/utils.c **** {
 100:..\source/utils.c ****     return (int32) FourBytesToUint32(bytes);
 101:..\source/utils.c **** }
 102:..\source/utils.c **** 
 103:..\source/utils.c **** float FourBytesToFloat(uint8 *bytes)
 104:..\source/utils.c **** {   
 105:..\source/utils.c ****     float value = *((float *) bytes);    
 106:..\source/utils.c ****     return value;
 107:..\source/utils.c **** }
 108:..\source/utils.c **** 
 109:..\source/utils.c **** #ifdef USE_FTOA
 110:..\source/utils.c **** static int insert_zeros(int value, char *str, int offset, int precision)
 111:..\source/utils.c **** {
  26              		.loc 1 111 0
  27              		.cfi_startproc
  28              		@ args = 0, pretend = 0, frame = 0
  29              		@ frame_needed = 0, uses_anonymous_args = 0
  30              	.LVL0:
  31 0000 30B5     		push	{r4, r5, lr}
  32              		.cfi_def_cfa_offset 12
  33              		.cfi_offset 4, -12
  34              		.cfi_offset 5, -8
  35              		.cfi_offset 14, -4
  36              	.LVL1:
 112:..\source/utils.c ****     int num_digits = 0;
  37              		.loc 1 112 0
  38 0002 0024     		movs	r4, #0
 113:..\source/utils.c ****     
 114:..\source/utils.c ****     // Count digits in number
 115:..\source/utils.c ****     while (value)
  39              		.loc 1 115 0
  40 0004 06E0     		b	.L2
  41              	.LVL2:
  42              	.L3:
 116:..\source/utils.c ****     {
 117:..\source/utils.c ****         value /= 10;
  43              		.loc 1 117 0
  44 0006 094D     		ldr	r5, .L7
  45 0008 85FB00E5 		smull	lr, r5, r5, r0
  46 000c C017     		asrs	r0, r0, #31
  47              	.LVL3:
  48 000e C0EBA500 		rsb	r0, r0, r5, asr #2
  49              	.LVL4:
 118:..\source/utils.c ****         num_digits++;
  50              		.loc 1 118 0
  51 0012 0134     		adds	r4, r4, #1
  52              	.LVL5:
  53              	.L2:
ARM GAS  C:\Users\Tim\AppData\Local\Temp\ccDOzmgT.s 			page 4


 115:..\source/utils.c ****     {
  54              		.loc 1 115 0
  55 0014 0028     		cmp	r0, #0
  56 0016 F6D1     		bne	.L3
  57 0018 03E0     		b	.L4
  58              	.LVL6:
  59              	.L5:
 119:..\source/utils.c ****     }
 120:..\source/utils.c ****     
 121:..\source/utils.c ****     // If num_digits is less than precision then insert zeros
 122:..\source/utils.c ****     while (num_digits < precision)
 123:..\source/utils.c ****     {
 124:..\source/utils.c ****         str[offset] = '0';
  60              		.loc 1 124 0
  61 001a 3020     		movs	r0, #48
  62 001c 8854     		strb	r0, [r1, r2]
 125:..\source/utils.c ****         offset++;
  63              		.loc 1 125 0
  64 001e 0132     		adds	r2, r2, #1
  65              	.LVL7:
 126:..\source/utils.c ****         num_digits++;
  66              		.loc 1 126 0
  67 0020 0134     		adds	r4, r4, #1
  68              	.LVL8:
  69              	.L4:
 122:..\source/utils.c ****     {
  70              		.loc 1 122 0
  71 0022 9C42     		cmp	r4, r3
  72 0024 F9DB     		blt	.L5
 127:..\source/utils.c ****     }
 128:..\source/utils.c ****         
 129:..\source/utils.c ****     return offset;
 130:..\source/utils.c **** }
  73              		.loc 1 130 0
  74 0026 1046     		mov	r0, r2
  75 0028 30BD     		pop	{r4, r5, pc}
  76              	.LVL9:
  77              	.L8:
  78 002a 00BF     		.align	2
  79              	.L7:
  80 002c 67666666 		.word	1717986919
  81              		.cfi_endproc
  82              	.LFE74:
  83              		.size	insert_zeros, .-insert_zeros
  84              		.section	.text.MovingAverage,"ax",%progbits
  85              		.align	2
  86              		.global	MovingAverage
  87              		.thumb
  88              		.thumb_func
  89              		.type	MovingAverage, %function
  90              	MovingAverage:
  91              	.LFB63:
  26:..\source/utils.c ****     int32 ma_curr;
  92              		.loc 1 26 0
  93              		.cfi_startproc
  94              		@ args = 0, pretend = 0, frame = 0
  95              		@ frame_needed = 0, uses_anonymous_args = 0
ARM GAS  C:\Users\Tim\AppData\Local\Temp\ccDOzmgT.s 			page 5


  96              		@ link register save eliminated.
  97              	.LVL10:
  29:..\source/utils.c ****     ma->last = ma_curr;
  98              		.loc 1 29 0
  99 0000 4368     		ldr	r3, [r0, #4]
 100 0002 1944     		add	r1, r1, r3
 101              	.LVL11:
 102 0004 0268     		ldr	r2, [r0]
 103 0006 93FBF2F3 		sdiv	r3, r3, r2
 104 000a C91A     		subs	r1, r1, r3
 105              	.LVL12:
  30:..\source/utils.c ****     
 106              		.loc 1 30 0
 107 000c 4160     		str	r1, [r0, #4]
  33:..\source/utils.c **** 
 108              		.loc 1 33 0
 109 000e 91FBF2F0 		sdiv	r0, r1, r2
 110              	.LVL13:
 111 0012 7047     		bx	lr
 112              		.cfi_endproc
 113              	.LFE63:
 114              		.size	MovingAverage, .-MovingAverage
 115              		.global	__aeabi_fadd
 116              		.global	__aeabi_fdiv
 117              		.global	__aeabi_fsub
 118              		.section	.text.MovingAverageFloat,"ax",%progbits
 119              		.align	2
 120              		.global	MovingAverageFloat
 121              		.thumb
 122              		.thumb_func
 123              		.type	MovingAverageFloat, %function
 124              	MovingAverageFloat:
 125              	.LFB64:
  43:..\source/utils.c ****     float ma_curr;
 126              		.loc 1 43 0
 127              		.cfi_startproc
 128              		@ args = 0, pretend = 0, frame = 0
 129              		@ frame_needed = 0, uses_anonymous_args = 0
 130              	.LVL14:
 131 0000 F8B5     		push	{r3, r4, r5, r6, r7, lr}
 132              		.cfi_def_cfa_offset 24
 133              		.cfi_offset 3, -24
 134              		.cfi_offset 4, -20
 135              		.cfi_offset 5, -16
 136              		.cfi_offset 6, -12
 137              		.cfi_offset 7, -8
 138              		.cfi_offset 14, -4
 139 0002 0446     		mov	r4, r0
  46:..\source/utils.c ****     ma->last = ma_curr;
 140              		.loc 1 46 0
 141 0004 4668     		ldr	r6, [r0, #4]	@ float
 142 0006 3046     		mov	r0, r6
 143              	.LVL15:
 144 0008 FFF7FEFF 		bl	__aeabi_fadd
 145              	.LVL16:
 146 000c 0746     		mov	r7, r0
 147 000e 2568     		ldr	r5, [r4]	@ float
ARM GAS  C:\Users\Tim\AppData\Local\Temp\ccDOzmgT.s 			page 6


 148 0010 3046     		mov	r0, r6
 149 0012 2946     		mov	r1, r5
 150 0014 FFF7FEFF 		bl	__aeabi_fdiv
 151              	.LVL17:
 152 0018 0146     		mov	r1, r0
 153 001a 3846     		mov	r0, r7
 154 001c FFF7FEFF 		bl	__aeabi_fsub
 155              	.LVL18:
  47:..\source/utils.c ****     
 156              		.loc 1 47 0
 157 0020 6060     		str	r0, [r4, #4]	@ float
  49:..\source/utils.c **** }
 158              		.loc 1 49 0
 159 0022 2946     		mov	r1, r5
 160 0024 FFF7FEFF 		bl	__aeabi_fdiv
 161              	.LVL19:
  50:..\source/utils.c **** 
 162              		.loc 1 50 0
 163 0028 F8BD     		pop	{r3, r4, r5, r6, r7, pc}
 164              		.cfi_endproc
 165              	.LFE64:
 166              		.size	MovingAverageFloat, .-MovingAverageFloat
 167 002a 00BF     		.section	.text.Uint16ToTwoBytes,"ax",%progbits
 168              		.align	2
 169              		.global	Uint16ToTwoBytes
 170              		.thumb
 171              		.thumb_func
 172              		.type	Uint16ToTwoBytes, %function
 173              	Uint16ToTwoBytes:
 174              	.LFB65:
  53:..\source/utils.c ****     bytes[0] = (uint8) ((value & 0xFF00) >> 8);
 175              		.loc 1 53 0
 176              		.cfi_startproc
 177              		@ args = 0, pretend = 0, frame = 0
 178              		@ frame_needed = 0, uses_anonymous_args = 0
 179              		@ link register save eliminated.
 180              	.LVL20:
  54:..\source/utils.c ****     bytes[1] = (uint8) (value & 0x00FF);
 181              		.loc 1 54 0
 182 0000 030A     		lsrs	r3, r0, #8
 183 0002 0B70     		strb	r3, [r1]
  55:..\source/utils.c **** }
 184              		.loc 1 55 0
 185 0004 4870     		strb	r0, [r1, #1]
 186 0006 7047     		bx	lr
 187              		.cfi_endproc
 188              	.LFE65:
 189              		.size	Uint16ToTwoBytes, .-Uint16ToTwoBytes
 190              		.section	.text.Uint32ToFourBytes,"ax",%progbits
 191              		.align	2
 192              		.global	Uint32ToFourBytes
 193              		.thumb
 194              		.thumb_func
 195              		.type	Uint32ToFourBytes, %function
 196              	Uint32ToFourBytes:
 197              	.LFB66:
  59:..\source/utils.c ****     bytes[0] = (uint8) ((value & 0xFF000000) >> 24);
ARM GAS  C:\Users\Tim\AppData\Local\Temp\ccDOzmgT.s 			page 7


 198              		.loc 1 59 0
 199              		.cfi_startproc
 200              		@ args = 0, pretend = 0, frame = 0
 201              		@ frame_needed = 0, uses_anonymous_args = 0
 202              		@ link register save eliminated.
 203              	.LVL21:
  60:..\source/utils.c ****     bytes[1] = (uint8) ((value & 0x00FF0000) >> 16);
 204              		.loc 1 60 0
 205 0000 030E     		lsrs	r3, r0, #24
 206 0002 0B70     		strb	r3, [r1]
  61:..\source/utils.c ****     bytes[2] = (uint8) ((value & 0x0000FF00) >> 8);
 207              		.loc 1 61 0
 208 0004 C0F30743 		ubfx	r3, r0, #16, #8
 209 0008 4B70     		strb	r3, [r1, #1]
  62:..\source/utils.c ****     bytes[3] = (uint8) (value & 0x000000FF);
 210              		.loc 1 62 0
 211 000a C0F30723 		ubfx	r3, r0, #8, #8
 212 000e 8B70     		strb	r3, [r1, #2]
  63:..\source/utils.c **** }
 213              		.loc 1 63 0
 214 0010 C870     		strb	r0, [r1, #3]
 215 0012 7047     		bx	lr
 216              		.cfi_endproc
 217              	.LFE66:
 218              		.size	Uint32ToFourBytes, .-Uint32ToFourBytes
 219              		.section	.text.Int32ToFourBytes,"ax",%progbits
 220              		.align	2
 221              		.global	Int32ToFourBytes
 222              		.thumb
 223              		.thumb_func
 224              		.type	Int32ToFourBytes, %function
 225              	Int32ToFourBytes:
 226              	.LFB67:
  67:..\source/utils.c ****     Uint32ToFourBytes((uint32)value, bytes);
 227              		.loc 1 67 0
 228              		.cfi_startproc
 229              		@ args = 0, pretend = 0, frame = 0
 230              		@ frame_needed = 0, uses_anonymous_args = 0
 231              	.LVL22:
 232 0000 08B5     		push	{r3, lr}
 233              		.cfi_def_cfa_offset 8
 234              		.cfi_offset 3, -8
 235              		.cfi_offset 14, -4
  68:..\source/utils.c **** }
 236              		.loc 1 68 0
 237 0002 FFF7FEFF 		bl	Uint32ToFourBytes
 238              	.LVL23:
 239 0006 08BD     		pop	{r3, pc}
 240              		.cfi_endproc
 241              	.LFE67:
 242              		.size	Int32ToFourBytes, .-Int32ToFourBytes
 243              		.section	.text.FloatToFourBytes,"ax",%progbits
 244              		.align	2
 245              		.global	FloatToFourBytes
 246              		.thumb
 247              		.thumb_func
 248              		.type	FloatToFourBytes, %function
ARM GAS  C:\Users\Tim\AppData\Local\Temp\ccDOzmgT.s 			page 8


 249              	FloatToFourBytes:
 250              	.LFB68:
  72:..\source/utils.c ****     uint8 *p_bytes = (uint8 *) &value;
 251              		.loc 1 72 0
 252              		.cfi_startproc
 253              		@ args = 0, pretend = 0, frame = 8
 254              		@ frame_needed = 0, uses_anonymous_args = 0
 255              		@ link register save eliminated.
 256              	.LVL24:
 257 0000 82B0     		sub	sp, sp, #8
 258              		.cfi_def_cfa_offset 8
 259 0002 0190     		str	r0, [sp, #4]	@ float
 260              	.LVL25:
  75:..\source/utils.c ****     bytes[1] = p_bytes[1];
 261              		.loc 1 75 0
 262 0004 9DF80430 		ldrb	r3, [sp, #4]	@ zero_extendqisi2
 263 0008 0B70     		strb	r3, [r1]
  76:..\source/utils.c ****     bytes[2] = p_bytes[2];
 264              		.loc 1 76 0
 265 000a 9DF80530 		ldrb	r3, [sp, #5]	@ zero_extendqisi2
 266 000e 4B70     		strb	r3, [r1, #1]
  77:..\source/utils.c ****     bytes[3] = p_bytes[3];
 267              		.loc 1 77 0
 268 0010 9DF80630 		ldrb	r3, [sp, #6]	@ zero_extendqisi2
 269 0014 8B70     		strb	r3, [r1, #2]
  78:..\source/utils.c **** }
 270              		.loc 1 78 0
 271 0016 9DF80730 		ldrb	r3, [sp, #7]	@ zero_extendqisi2
 272 001a CB70     		strb	r3, [r1, #3]
  79:..\source/utils.c **** 
 273              		.loc 1 79 0
 274 001c 02B0     		add	sp, sp, #8
 275              		.cfi_def_cfa_offset 0
 276              	.LVL26:
 277              		@ sp needed
 278 001e 7047     		bx	lr
 279              		.cfi_endproc
 280              	.LFE68:
 281              		.size	FloatToFourBytes, .-FloatToFourBytes
 282              		.section	.text.TwoBytesToUint16,"ax",%progbits
 283              		.align	2
 284              		.global	TwoBytesToUint16
 285              		.thumb
 286              		.thumb_func
 287              		.type	TwoBytesToUint16, %function
 288              	TwoBytesToUint16:
 289              	.LFB69:
  82:..\source/utils.c ****     uint16 upper = bytes[0] << 8;
 290              		.loc 1 82 0
 291              		.cfi_startproc
 292              		@ args = 0, pretend = 0, frame = 0
 293              		@ frame_needed = 0, uses_anonymous_args = 0
 294              		@ link register save eliminated.
 295              	.LVL27:
  83:..\source/utils.c ****     uint16 lower = bytes[1];
 296              		.loc 1 83 0
 297 0000 0278     		ldrb	r2, [r0]	@ zero_extendqisi2
ARM GAS  C:\Users\Tim\AppData\Local\Temp\ccDOzmgT.s 			page 9


 298              	.LVL28:
  84:..\source/utils.c ****     return upper + lower;
 299              		.loc 1 84 0
 300 0002 4378     		ldrb	r3, [r0, #1]	@ zero_extendqisi2
 301              	.LVL29:
  85:..\source/utils.c **** }
 302              		.loc 1 85 0
 303 0004 03EB0220 		add	r0, r3, r2, lsl #8
 304              	.LVL30:
  86:..\source/utils.c **** 
 305              		.loc 1 86 0
 306 0008 80B2     		uxth	r0, r0
 307 000a 7047     		bx	lr
 308              		.cfi_endproc
 309              	.LFE69:
 310              		.size	TwoBytesToUint16, .-TwoBytesToUint16
 311              		.section	.text.TwoBytesInt16,"ax",%progbits
 312              		.align	2
 313              		.global	TwoBytesInt16
 314              		.thumb
 315              		.thumb_func
 316              		.type	TwoBytesInt16, %function
 317              	TwoBytesInt16:
 318              	.LFB70:
  89:..\source/utils.c ****     return (int16) TwoBytesToUint16(bytes);
 319              		.loc 1 89 0
 320              		.cfi_startproc
 321              		@ args = 0, pretend = 0, frame = 0
 322              		@ frame_needed = 0, uses_anonymous_args = 0
 323              	.LVL31:
 324 0000 08B5     		push	{r3, lr}
 325              		.cfi_def_cfa_offset 8
 326              		.cfi_offset 3, -8
 327              		.cfi_offset 14, -4
  90:..\source/utils.c **** }
 328              		.loc 1 90 0
 329 0002 FFF7FEFF 		bl	TwoBytesToUint16
 330              	.LVL32:
  91:..\source/utils.c **** 
 331              		.loc 1 91 0
 332 0006 00B2     		sxth	r0, r0
 333 0008 08BD     		pop	{r3, pc}
 334              		.cfi_endproc
 335              	.LFE70:
 336              		.size	TwoBytesInt16, .-TwoBytesInt16
 337 000a 00BF     		.section	.text.FourBytesToUint32,"ax",%progbits
 338              		.align	2
 339              		.global	FourBytesToUint32
 340              		.thumb
 341              		.thumb_func
 342              		.type	FourBytesToUint32, %function
 343              	FourBytesToUint32:
 344              	.LFB71:
  94:..\source/utils.c ****     return (uint32) ( (bytes[0] << 24) + (bytes[1] << 16) + (bytes[2] << 8) + bytes[3] );
 345              		.loc 1 94 0
 346              		.cfi_startproc
 347              		@ args = 0, pretend = 0, frame = 0
ARM GAS  C:\Users\Tim\AppData\Local\Temp\ccDOzmgT.s 			page 10


 348              		@ frame_needed = 0, uses_anonymous_args = 0
 349              		@ link register save eliminated.
 350              	.LVL33:
  95:..\source/utils.c **** }
 351              		.loc 1 95 0
 352 0000 0278     		ldrb	r2, [r0]	@ zero_extendqisi2
 353 0002 4378     		ldrb	r3, [r0, #1]	@ zero_extendqisi2
 354 0004 1B04     		lsls	r3, r3, #16
 355 0006 03EB0263 		add	r3, r3, r2, lsl #24
 356 000a 8278     		ldrb	r2, [r0, #2]	@ zero_extendqisi2
 357 000c 03EB0223 		add	r3, r3, r2, lsl #8
 358 0010 C078     		ldrb	r0, [r0, #3]	@ zero_extendqisi2
 359              	.LVL34:
  96:..\source/utils.c **** 
 360              		.loc 1 96 0
 361 0012 1844     		add	r0, r0, r3
 362 0014 7047     		bx	lr
 363              		.cfi_endproc
 364              	.LFE71:
 365              		.size	FourBytesToUint32, .-FourBytesToUint32
 366 0016 00BF     		.section	.text.FourBytesToInt32,"ax",%progbits
 367              		.align	2
 368              		.global	FourBytesToInt32
 369              		.thumb
 370              		.thumb_func
 371              		.type	FourBytesToInt32, %function
 372              	FourBytesToInt32:
 373              	.LFB72:
  99:..\source/utils.c ****     return (int32) FourBytesToUint32(bytes);
 374              		.loc 1 99 0
 375              		.cfi_startproc
 376              		@ args = 0, pretend = 0, frame = 0
 377              		@ frame_needed = 0, uses_anonymous_args = 0
 378              	.LVL35:
 379 0000 08B5     		push	{r3, lr}
 380              		.cfi_def_cfa_offset 8
 381              		.cfi_offset 3, -8
 382              		.cfi_offset 14, -4
 100:..\source/utils.c **** }
 383              		.loc 1 100 0
 384 0002 FFF7FEFF 		bl	FourBytesToUint32
 385              	.LVL36:
 101:..\source/utils.c **** 
 386              		.loc 1 101 0
 387 0006 08BD     		pop	{r3, pc}
 388              		.cfi_endproc
 389              	.LFE72:
 390              		.size	FourBytesToInt32, .-FourBytesToInt32
 391              		.section	.text.FourBytesToFloat,"ax",%progbits
 392              		.align	2
 393              		.global	FourBytesToFloat
 394              		.thumb
 395              		.thumb_func
 396              		.type	FourBytesToFloat, %function
 397              	FourBytesToFloat:
 398              	.LFB73:
 104:..\source/utils.c ****     float value = *((float *) bytes);    
ARM GAS  C:\Users\Tim\AppData\Local\Temp\ccDOzmgT.s 			page 11


 399              		.loc 1 104 0
 400              		.cfi_startproc
 401              		@ args = 0, pretend = 0, frame = 0
 402              		@ frame_needed = 0, uses_anonymous_args = 0
 403              		@ link register save eliminated.
 404              	.LVL37:
 107:..\source/utils.c **** 
 405              		.loc 1 107 0
 406 0000 0068     		ldr	r0, [r0]	@ float
 407              	.LVL38:
 408 0002 7047     		bx	lr
 409              		.cfi_endproc
 410              	.LFE73:
 411              		.size	FourBytesToFloat, .-FourBytesToFloat
 412              		.global	__aeabi_fcmplt
 413              		.global	__aeabi_f2iz
 414              		.global	__aeabi_i2f
 415              		.global	__aeabi_i2d
 416              		.global	__aeabi_f2d
 417              		.global	__aeabi_dmul
 418              		.global	__aeabi_d2iz
 419              		.section	.text.ftoa,"ax",%progbits
 420              		.align	2
 421              		.global	ftoa
 422              		.thumb
 423              		.thumb_func
 424              		.type	ftoa, %function
 425              	ftoa:
 426              	.LFB75:
 131:..\source/utils.c **** 
 132:..\source/utils.c **** // Converts a floating point number to string.
 133:..\source/utils.c **** void ftoa(float n, char *str, int precision)
 134:..\source/utils.c **** {   
 427              		.loc 1 134 0
 428              		.cfi_startproc
 429              		@ args = 0, pretend = 0, frame = 0
 430              		@ frame_needed = 0, uses_anonymous_args = 0
 431              	.LVL39:
 432 0000 2DE9F843 		push	{r3, r4, r5, r6, r7, r8, r9, lr}
 433              		.cfi_def_cfa_offset 32
 434              		.cfi_offset 3, -32
 435              		.cfi_offset 4, -28
 436              		.cfi_offset 5, -24
 437              		.cfi_offset 6, -20
 438              		.cfi_offset 7, -16
 439              		.cfi_offset 8, -12
 440              		.cfi_offset 9, -8
 441              		.cfi_offset 14, -4
 442 0004 0646     		mov	r6, r0
 443 0006 0D46     		mov	r5, r1
 444 0008 9046     		mov	r8, r2
 445              	.LVL40:
 135:..\source/utils.c ****     int i = 0;
 136:..\source/utils.c ****     
 137:..\source/utils.c ****     if (n < 0)
 446              		.loc 1 137 0
 447 000a 0021     		movs	r1, #0
ARM GAS  C:\Users\Tim\AppData\Local\Temp\ccDOzmgT.s 			page 12


 448              	.LVL41:
 449 000c FFF7FEFF 		bl	__aeabi_fcmplt
 450              	.LVL42:
 451 0010 50B1     		cbz	r0, .L34
 138:..\source/utils.c ****     {
 139:..\source/utils.c ****         str[i] = '-';
 452              		.loc 1 139 0
 453 0012 2D23     		movs	r3, #45
 454 0014 2B70     		strb	r3, [r5]
 455              	.LVL43:
 140:..\source/utils.c ****         i++;
 141:..\source/utils.c ****         n = abs(n);
 456              		.loc 1 141 0
 457 0016 3046     		mov	r0, r6
 458 0018 0021     		movs	r1, #0
 459 001a FFF7FEFF 		bl	__aeabi_fcmplt
 460              	.LVL44:
 461 001e 08B1     		cbz	r0, .L28
 462              		.loc 1 141 0 is_stmt 0 discriminator 1
 463 0020 06F10046 		add	r6, r6, #-2147483648
 464              	.LVL45:
 465              	.L28:
 140:..\source/utils.c ****         i++;
 466              		.loc 1 140 0 is_stmt 1 discriminator 4
 467 0024 0124     		movs	r4, #1
 468 0026 00E0     		b	.L26
 469              	.LVL46:
 470              	.L34:
 135:..\source/utils.c ****     
 471              		.loc 1 135 0
 472 0028 0024     		movs	r4, #0
 473              	.LVL47:
 474              	.L26:
 142:..\source/utils.c ****     }
 143:..\source/utils.c ****     
 144:..\source/utils.c ****     // Extract integer part
 145:..\source/utils.c ****     int ipart = (int)n;
 475              		.loc 1 145 0
 476 002a 3046     		mov	r0, r6
 477 002c FFF7FEFF 		bl	__aeabi_f2iz
 478              	.LVL48:
 479 0030 0746     		mov	r7, r0
 480              	.LVL49:
 146:..\source/utils.c **** 
 147:..\source/utils.c ****     // convert integer part to string
 148:..\source/utils.c ****     i += strlen(itoa(ipart, &str[i], 10));
 481              		.loc 1 148 0
 482 0032 2919     		adds	r1, r5, r4
 483 0034 0A22     		movs	r2, #10
 484 0036 FFF7FEFF 		bl	itoa
 485              	.LVL50:
 486 003a FFF7FEFF 		bl	strlen
 487              	.LVL51:
 488 003e 2044     		add	r0, r0, r4
 489              	.LVL52:
 149:..\source/utils.c ****     
 150:..\source/utils.c ****     // check for display option after point
ARM GAS  C:\Users\Tim\AppData\Local\Temp\ccDOzmgT.s 			page 13


 151:..\source/utils.c ****     if (precision > 0)
 490              		.loc 1 151 0
 491 0040 B8F1000F 		cmp	r8, #0
 492 0044 29DD     		ble	.L25
 493              	.LBB2:
 152:..\source/utils.c ****     {
 153:..\source/utils.c ****         str[i] = '.';  // add dot
 494              		.loc 1 153 0
 495 0046 2E23     		movs	r3, #46
 496 0048 2B54     		strb	r3, [r5, r0]
 154:..\source/utils.c ****         i++;
 497              		.loc 1 154 0
 498 004a 441C     		adds	r4, r0, #1
 499              	.LVL53:
 155:..\source/utils.c ****  
 156:..\source/utils.c ****         int fpart = (int) ( (n - (float)ipart) * pow(10, precision) );
 500              		.loc 1 156 0
 501 004c 3846     		mov	r0, r7
 502 004e FFF7FEFF 		bl	__aeabi_i2f
 503              	.LVL54:
 504 0052 0146     		mov	r1, r0
 505 0054 3046     		mov	r0, r6
 506 0056 FFF7FEFF 		bl	__aeabi_fsub
 507              	.LVL55:
 508 005a 8146     		mov	r9, r0
 509 005c 4046     		mov	r0, r8
 510 005e FFF7FEFF 		bl	__aeabi_i2d
 511              	.LVL56:
 512 0062 0246     		mov	r2, r0
 513 0064 0B46     		mov	r3, r1
 514 0066 0020     		movs	r0, #0
 515 0068 0D49     		ldr	r1, .L36
 516 006a FFF7FEFF 		bl	pow
 517              	.LVL57:
 518 006e 0646     		mov	r6, r0
 519              	.LVL58:
 520 0070 0F46     		mov	r7, r1
 521              	.LVL59:
 522 0072 4846     		mov	r0, r9
 523 0074 FFF7FEFF 		bl	__aeabi_f2d
 524              	.LVL60:
 525 0078 3246     		mov	r2, r6
 526 007a 3B46     		mov	r3, r7
 527 007c FFF7FEFF 		bl	__aeabi_dmul
 528              	.LVL61:
 529 0080 FFF7FEFF 		bl	__aeabi_d2iz
 530              	.LVL62:
 531 0084 0646     		mov	r6, r0
 532              	.LVL63:
 157:..\source/utils.c ****         
 158:..\source/utils.c ****         i = insert_zeros(fpart, str, i, precision);
 533              		.loc 1 158 0
 534 0086 2946     		mov	r1, r5
 535 0088 2246     		mov	r2, r4
 536 008a 4346     		mov	r3, r8
 537 008c FFF7FEFF 		bl	insert_zeros
 538              	.LVL64:
ARM GAS  C:\Users\Tim\AppData\Local\Temp\ccDOzmgT.s 			page 14


 159:..\source/utils.c ****         
 160:..\source/utils.c ****         itoa( (int)fpart, &str[i], 10);
 539              		.loc 1 160 0
 540 0090 2918     		adds	r1, r5, r0
 541 0092 3046     		mov	r0, r6
 542              	.LVL65:
 543 0094 0A22     		movs	r2, #10
 544 0096 FFF7FEFF 		bl	itoa
 545              	.LVL66:
 546              	.L25:
 547 009a BDE8F883 		pop	{r3, r4, r5, r6, r7, r8, r9, pc}
 548              	.LVL67:
 549              	.L37:
 550 009e 00BF     		.align	2
 551              	.L36:
 552 00a0 00002440 		.word	1076101120
 553              	.LBE2:
 554              		.cfi_endproc
 555              	.LFE75:
 556              		.size	ftoa, .-ftoa
 557              		.section	.text.BinaryRangeSearch,"ax",%progbits
 558              		.align	2
 559              		.global	BinaryRangeSearch
 560              		.thumb
 561              		.thumb_func
 562              		.type	BinaryRangeSearch, %function
 563              	BinaryRangeSearch:
 564              	.LFB76:
 161:..\source/utils.c ****     }
 162:..\source/utils.c **** }
 163:..\source/utils.c **** #endif
 164:..\source/utils.c **** 
 165:..\source/utils.c **** void BinaryRangeSearch(int32 search, int32 *data_points, uint8 num_points, uint8 *lower_index, uint
 166:..\source/utils.c **** /*
 167:..\source/utils.c ****     This is a binary search modified to return a range, e.g., lower and upper, when searching for a
 168:..\source/utils.c **** 
 169:..\source/utils.c ****     Performance:
 170:..\source/utils.c ****     Array Size      log2N
 171:..\source/utils.c ****         10            4
 172:..\source/utils.c ****         50            6
 173:..\source/utils.c ****        100            7
 174:..\source/utils.c ****        500            9
 175:..\source/utils.c **** 
 176:..\source/utils.c **** */
 177:..\source/utils.c **** {
 565              		.loc 1 177 0
 566              		.cfi_startproc
 567              		@ args = 4, pretend = 0, frame = 0
 568              		@ frame_needed = 0, uses_anonymous_args = 0
 569              		@ link register save eliminated.
 570              	.LVL68:
 571 0000 F0B4     		push	{r4, r5, r6, r7}
 572              		.cfi_def_cfa_offset 16
 573              		.cfi_offset 4, -16
 574              		.cfi_offset 5, -12
 575              		.cfi_offset 6, -8
 576              		.cfi_offset 7, -4
ARM GAS  C:\Users\Tim\AppData\Local\Temp\ccDOzmgT.s 			page 15


 577 0002 049F     		ldr	r7, [sp, #16]
 578              	.LVL69:
 178:..\source/utils.c ****     uint8 first = 0;
 179:..\source/utils.c ****     uint8 last = num_points - 1;
 579              		.loc 1 179 0
 580 0004 013A     		subs	r2, r2, #1
 581              	.LVL70:
 582 0006 D2B2     		uxtb	r2, r2
 583              	.LVL71:
 180:..\source/utils.c ****     uint8 middle = (first+last)/2;
 584              		.loc 1 180 0
 585 0008 5408     		lsrs	r4, r2, #1
 586              	.LVL72:
 181:..\source/utils.c ****     
 182:..\source/utils.c ****     *lower_index = 0;
 587              		.loc 1 182 0
 588 000a 0025     		movs	r5, #0
 589 000c 1D70     		strb	r5, [r3]
 183:..\source/utils.c ****     *upper_index = 0;
 590              		.loc 1 183 0
 591 000e 3D70     		strb	r5, [r7]
 184:..\source/utils.c **** 
 185:..\source/utils.c ****     while (first <= last) {
 592              		.loc 1 185 0
 593 0010 19E0     		b	.L39
 594              	.LVL73:
 595              	.L44:
 186:..\source/utils.c ****         if (data_points[middle] < search)
 596              		.loc 1 186 0
 597 0012 51F82460 		ldr	r6, [r1, r4, lsl #2]
 598 0016 8642     		cmp	r6, r0
 599 0018 03DA     		bge	.L40
 187:..\source/utils.c ****         {
 188:..\source/utils.c ****             first = middle + 1;
 600              		.loc 1 188 0
 601 001a 651C     		adds	r5, r4, #1
 602              	.LVL74:
 603 001c EDB2     		uxtb	r5, r5
 604              	.LVL75:
 189:..\source/utils.c ****             *lower_index = middle;
 605              		.loc 1 189 0
 606 001e 1C70     		strb	r4, [r3]
 607 0020 0CE0     		b	.L41
 608              	.L40:
 190:..\source/utils.c ****         }
 191:..\source/utils.c ****         else if (data_points[middle] == search) 
 609              		.loc 1 191 0
 610 0022 8642     		cmp	r6, r0
 611 0024 02D1     		bne	.L42
 192:..\source/utils.c ****         {
 193:..\source/utils.c ****             *lower_index = middle;
 612              		.loc 1 193 0
 613 0026 1C70     		strb	r4, [r3]
 194:..\source/utils.c ****             *upper_index = middle;
 614              		.loc 1 194 0
 615 0028 3C70     		strb	r4, [r7]
 195:..\source/utils.c ****             break;
ARM GAS  C:\Users\Tim\AppData\Local\Temp\ccDOzmgT.s 			page 16


 616              		.loc 1 195 0
 617 002a 0EE0     		b	.L38
 618              	.L42:
 196:..\source/utils.c ****         }
 197:..\source/utils.c ****         else if (data_points[middle] > search)
 619              		.loc 1 197 0
 620 002c 8642     		cmp	r6, r0
 621 002e 05DD     		ble	.L41
 198:..\source/utils.c ****         {            
 199:..\source/utils.c ****             *upper_index = middle;
 622              		.loc 1 199 0
 623 0030 3C70     		strb	r4, [r7]
 624              	.LVL76:
 200:..\source/utils.c ****             last = middle;
 201:..\source/utils.c ****             
 202:..\source/utils.c ****             if (*upper_index - *lower_index == 1)
 625              		.loc 1 202 0
 626 0032 1A78     		ldrb	r2, [r3]	@ zero_extendqisi2
 627 0034 A21A     		subs	r2, r4, r2
 628 0036 012A     		cmp	r2, #1
 629 0038 07D0     		beq	.L38
 630              	.LVL77:
 200:..\source/utils.c ****             last = middle;
 631              		.loc 1 200 0
 632 003a 2246     		mov	r2, r4
 633              	.LVL78:
 634              	.L41:
 203:..\source/utils.c ****             {
 204:..\source/utils.c ****                 break;
 205:..\source/utils.c ****             }
 206:..\source/utils.c ****         }
 207:..\source/utils.c ****         else
 208:..\source/utils.c ****         {
 209:..\source/utils.c ****             // There are no other possibilities :-)
 210:..\source/utils.c ****         }
 211:..\source/utils.c ****  
 212:..\source/utils.c ****         middle = (first + last)/2;
 635              		.loc 1 212 0
 636 003c AC18     		adds	r4, r5, r2
 637              	.LVL79:
 638 003e 04EBD474 		add	r4, r4, r4, lsr #31
 639 0042 C4F34704 		ubfx	r4, r4, #1, #8
 640              	.LVL80:
 641              	.L39:
 185:..\source/utils.c ****         if (data_points[middle] < search)
 642              		.loc 1 185 0
 643 0046 9542     		cmp	r5, r2
 644 0048 E3D9     		bls	.L44
 645              	.LVL81:
 646              	.L38:
 213:..\source/utils.c ****    }
 214:..\source/utils.c **** }
 647              		.loc 1 214 0
 648 004a F0BC     		pop	{r4, r5, r6, r7}
 649              		.cfi_restore 7
 650              		.cfi_restore 6
 651              		.cfi_restore 5
ARM GAS  C:\Users\Tim\AppData\Local\Temp\ccDOzmgT.s 			page 17


 652              		.cfi_restore 4
 653              		.cfi_def_cfa_offset 0
 654              	.LVL82:
 655 004c 7047     		bx	lr
 656              		.cfi_endproc
 657              	.LFE76:
 658              		.size	BinaryRangeSearch, .-BinaryRangeSearch
 659 004e 00BF     		.text
 660              	.Letext0:
 661              		.file 2 "c:\\program files (x86)\\cypress\\psoc creator\\3.3\\psoc creator\\import\\gnu\\arm\\4.9.
 662              		.file 3 "c:\\program files (x86)\\cypress\\psoc creator\\3.3\\psoc creator\\import\\gnu\\arm\\4.9.
 663              		.file 4 "c:\\program files (x86)\\cypress\\psoc creator\\3.3\\psoc creator\\import\\gnu\\arm\\4.9.
 664              		.file 5 "Generated_Source\\PSoC5/cytypes.h"
 665              		.file 6 "..\\source\\utils.h"
 666              		.file 7 "Generated_Source\\PSoC5/core_cm3.h"
 667              		.file 8 "c:\\program files (x86)\\cypress\\psoc creator\\3.3\\psoc creator\\import\\gnu\\arm\\4.9.
 668              		.file 9 "c:\\program files (x86)\\cypress\\psoc creator\\3.3\\psoc creator\\import\\gnu\\arm\\4.9.
 669              		.file 10 "c:\\program files (x86)\\cypress\\psoc creator\\3.3\\psoc creator\\import\\gnu\\arm\\4.9